--- !tapi-tbd
tbd-version:     4
targets:         [ x86_64-macos, arm64-macos, arm64e-macos ]
install-name:    '/System/Library/PrivateFrameworks/Hydra.framework/Versions/C/Hydra'
current-version: 0
compatibility-version: 0
exports:
  - targets:         [ x86_64-macos, arm64-macos, arm64e-macos ]
    symbols:         [ __Z12HYDLerpCubicd, __Z12HYDWrapAngled, __Z14GetMetalDevicev, 
                       __Z14HYDLerpDegreesdRK7HYDVec3S1_, __Z14HYDLerpDegreesddd, 
                       __Z15_buildHierarchylP12HYDSceneNodeP7NSArray, __Z15_normalizePoint7CGPoint6CGSize, 
                       __Z15_readHiResTimerv, __Z16HYDLerpQuadraticd, __Z20_makeDegreesPositive7HYDVec3, 
                       __Z20_makeDegreesPositived, __Z20_ticksToMicroSecondsy, __Z23buildHierarchialPathRecP15NSMutableStringP12HYDSceneNode, 
                       __Z9_radToDegd, __ZN13HYDQuaternion13FromAxisAngleERK7HYDVec3d, 
                       __ZN13HYDQuaternion15FromEulerAnglesERK7HYDVec3b, __ZNK13HYDQuaternion10GetInverseEv, 
                       __ZNK13HYDQuaternion13GetNormalizedEv, __ZNK13HYDQuaternion9TransformERK7HYDVec3, 
                       __ZNK13HYDQuaternionmlERKS_ ]
    objc-classes:    [ HYDAxisAlignedBounds, HYDBlitter, HYDCamera, HYDExporter, 
                       HYDLoadingProgressRenderer, HYDPrimNode, HYDRenderParams, 
                       HYDRenderer, HYDRenderingServiceProxy, HYDSceneNode, HYDStageInfo ]
...
