--- !tapi-tbd
tbd-version:     4
targets:         [ x86_64-macos, arm64-macos, arm64e-macos ]
install-name:    '/usr/lib/libgraphcompute-rt.dylib'
current-version: 0
compatibility-version: 0
exports:
  - targets:         [ x86_64-macos ]
    symbols:         [ __ZN2gc10FileTarget7logImplENS_6Logger9eSeverityEPKcP13__va_list_tag, 
                       __ZN2gc11OsLogTarget7logImplENS_6Logger9eSeverityEPKcP13__va_list_tag, 
                       __ZN2gc13ConsoleTarget7logImplENS_6Logger9eSeverityEPKcP13__va_list_tag, 
                       __ZN2gc6Logger15logInCategoryVAENS0_9eSeverityEPKcS3_P13__va_list_tag ]
    weak-symbols:    [ __ZTIN2gc11TypedIRStmtILNS_9eStmtTypeE0EEE, __ZTIN2gc11TypedKernelINS_4lang4TileEJEEE, 
                       __ZTIN2gc11TypedKernelINS_4lang4TileEJNS1_3est13BlockOrderingENS3_14FactorOrderingERNS3_8JacobianERNS3_11BlockMatrixEEEE, 
                       __ZTIN2gc11TypedKernelINS_4lang4TileEJNS1_3est13BlockOrderingENS3_14FactorOrderingES5_RNS3_11JacobianSetERNS3_11BlockMatrixEEEE, 
                       __ZTIN2gc11TypedKernelINS_4lang4TileEJNS1_3est14FactorOrderingENS3_6FactorENS3_11VariableSetENS1_6ScalarERNS1_6BufferEEEE, 
                       __ZTIN2gc11TypedKernelINS_4lang4TileEJNS1_3est14FactorOrderingERNS3_8JacobianENS1_6BufferES7_EEE, 
                       __ZTIN2gc11TypedKernelINS_4lang4TileEJNS1_3est6FactorENS1_6BufferENS1_5ArrayINS3_14FactorOrderingEEENS3_11VariableSetENS6_IS5_EESA_EEE, 
                       __ZTIN2gc11TypedKernelINS_4lang4TileEJNS1_3est6FactorENS3_11VariableSetENS1_6BufferEEEE, 
                       __ZTIN2gc11TypedKernelINS_4lang4TileEJNS1_3est6FactorENS3_11VariableSetENS1_6BufferES6_EEE, 
                       __ZTIN2gc11TypedKernelINS_4lang4TileEJNS1_3est8VariableEEEE, 
                       __ZTIN2gc11TypedKernelINS_4lang4TileEJNS1_3est8VariableENS1_6ScalarEEEE, 
                       __ZTIN2gc11TypedKernelINS_4lang4TileEJNS1_5ArrayINS1_6BufferEEES5_EEE, 
                       __ZTIN2gc11TypedKernelINS_4lang4TileEJNS1_6BufferEEEE, __ZTIN2gc11TypedKernelINS_4lang4TileEJNS1_6BufferENS1_3est6FactorERNS4_11JacobianSetENS1_5ArrayIS3_EENS8_INS4_14FactorOrderingEEERNS4_16BlockMatrixArrayES9_EEE, 
                       __ZTIN2gc11TypedKernelINS_4lang4TileEJNS1_6BufferENS1_3est8VariableEEEE, 
                       __ZTIN2gc11TypedKernelINS_4lang4TileEJNS1_6BufferENS1_5ArrayINS1_3est8VariableEEEEEE, 
                       __ZTIN2gc11TypedKernelINS_4lang4TileEJNS1_6BufferENS1_5ArrayIS3_EES5_NS1_3est6FactorERNS6_14FactorOrderingENS6_22SchurEliminatedHessianES3_EEE, 
                       __ZTIN2gc11TypedKernelINS_4lang4TileEJNS1_6BufferENS1_6ScalarES3_EEE, 
                       __ZTIN2gc11TypedKernelINS_4lang4TileEJNS1_6BufferENS1_6ScalarES3_S3_EEE, 
                       __ZTIN2gc11TypedKernelINS_4lang4TileEJNS1_6BufferENS1_6ScalarES4_S4_S4_S4_S3_S3_S3_EEE, 
                       __ZTIN2gc11TypedKernelINS_4lang4TileEJNS1_6BufferERNS1_3est8JacobianENS4_14FactorOrderingENS1_6ScalarES3_S3_EEE, 
                       __ZTIN2gc11TypedKernelINS_4lang4TileEJNS1_6BufferERNS1_3est8JacobianENS4_14FactorOrderingES3_S3_S3_S3_S3_EEE, 
                       __ZTIN2gc11TypedKernelINS_4lang4TileEJNS1_6BufferERNS1_3est8JacobianENS4_6FactorERNS4_11JacobianSetERNS4_14FactorOrderingES3_NS1_5ArrayIS3_EENSC_ISA_EERNS1_6ScalarERNS4_16BlockMatrixArrayENS4_22SchurEliminatedHessianESD_S3_S3_EEE, 
                       __ZTIN2gc11TypedKernelINS_4lang4TileEJNS1_6BufferERNS1_3est8JacobianES3_S3_EEE, 
                       __ZTIN2gc11TypedKernelINS_4lang4TileEJNS1_6BufferES3_EEE, 
                       __ZTIN2gc11TypedKernelINS_4lang4TileEJNS1_6BufferES3_NS1_5ArrayINS1_3est8VariableEEEEEE, 
                       __ZTIN2gc11TypedKernelINS_4lang4TileEJNS1_6BufferES3_RNS1_3est8JacobianES3_S3_EEE, 
                       __ZTIN2gc11TypedKernelINS_4lang4TileEJNS1_6BufferES3_S3_EEE, 
                       __ZTIN2gc11TypedKernelINS_4lang4TileEJNS1_6BufferES3_S3_S3_EEE, 
                       __ZTIN2gc11TypedKernelINS_4lang4TileEJNS1_6BufferES3_S3_S3_S3_S3_S3_EEE, 
                       __ZTIN2gc11TypedKernelINS_4lang4TileEJNS1_6ScalarENS1_6BufferES4_EEE, 
                       __ZTIN2gc11TypedKernelINS_4lang4TileEJNS1_6ScalarERNS1_3est11BlockMatrixEEEE, 
                       __ZTIN2gc11TypedKernelINS_4lang4TileEJRNS1_3est11BlockMatrixEEEE, 
                       __ZTIN2gc11TypedKernelINS_4lang4TileEJRNS1_3est11BlockMatrixENS1_6BufferES6_EEE, 
                       __ZTIN2gc11TypedKernelINS_4lang4TileEJRNS1_3est11BlockMatrixENS1_6BufferES6_S6_EEE, 
                       __ZTIN2gc11TypedKernelINS_4lang4TileEJRNS1_3est11BlockMatrixENS1_6BufferES6_S6_RS6_EEE, 
                       __ZTIN2gc11TypedKernelINS_4lang4TileEJRNS1_3est11JacobianSetENS1_5ArrayINS3_14FactorOrderingEEENS6_INS1_6BufferEEESA_S9_EEE, 
                       __ZTIN2gc11TypedKernelINS_4lang4TileEJRNS1_3est14FactorOrderingENS1_6BufferERNS3_8JacobianES6_S6_EEE, 
                       __ZTIN2gc11TypedKernelINS_4lang4TileEJRNS1_3est14FactorOrderingERNS3_8JacobianENS1_6BufferERS8_EEE, 
                       __ZTIN2gc11TypedKernelINS_4lang4TileEJRNS1_3est14FactorOrderingERNS3_8JacobianENS1_6BufferES8_EEE, 
                       __ZTIN2gc11TypedKernelINS_4lang4TileEJRNS1_3est14FactorOrderingERNS3_8JacobianENS1_6BufferES8_S8_EEE, 
                       __ZTIN2gc11TypedKernelINS_4lang4TileEJRNS1_3est8JacobianENS1_6BufferES6_EEE, 
                       __ZTIN2gc11TypedKernelINS_4lang4TileEJRNS1_3est8JacobianENS1_6BufferES6_S6_EEE, 
                       __ZTIN2gc11TypedKernelINS_4lang4TileEJRNS1_3est8JacobianENS1_6BufferES6_S6_RS6_EEE, 
                       __ZTIN2gc11TypedKernelINS_4lang4TileEJRNS1_3est8JacobianENS1_6BufferES6_S6_S6_EEE, 
                       __ZTIN2gc11TypedKernelINS_4lang4TileEJRNS1_3est8JacobianENS1_6BufferES6_S6_S6_S6_EEE, 
                       __ZTIN2gc11TypedKernelINS_4lang4TileEJRNS1_3est8JacobianENS3_14FactorOrderingENS1_6BufferES7_EEE, 
                       __ZTIN2gc11TypedKernelINS_4lang4TileEJRNS1_3est8JacobianENS3_14FactorOrderingENS1_6BufferES7_S7_EEE, 
                       __ZTIN2gc11TypedKernelINS_4lang4TileEJRNS1_3est8JacobianENS3_14FactorOrderingENS1_6BufferES7_S7_S7_EEE, 
                       __ZTIN2gc11TypedKernelINS_4lang4TileEJRNS1_3est8JacobianENS3_14FactorOrderingES6_NS1_6BufferES7_S7_S7_S7_S7_EEE, 
                       __ZTIN2gc12BindableTypeE, __ZTIN2gc14BufferRegistryE, __ZTIN2gc16BindableArgumentINS_4lang3est11BlockMatrixEEE, 
                       __ZTIN2gc16BindableArgumentINS_4lang3est11JacobianSetEEE, 
                       __ZTIN2gc16BindableArgumentINS_4lang3est11VariableSetEEE, 
                       __ZTIN2gc16BindableArgumentINS_4lang3est12CostFunctionEEE, 
                       __ZTIN2gc16BindableArgumentINS_4lang3est13BlockOrderingEEE, 
                       __ZTIN2gc16BindableArgumentINS_4lang3est14FactorOrderingEEE, 
                       __ZTIN2gc16BindableArgumentINS_4lang3est16BlockMatrixArrayEEE, 
                       __ZTIN2gc16BindableArgumentINS_4lang3est22SchurEliminatedHessianEEE, 
                       __ZTIN2gc16BindableArgumentINS_4lang3est6FactorEEE, __ZTIN2gc16BindableArgumentINS_4lang3est8JacobianEEE, 
                       __ZTIN2gc16BindableArgumentINS_4lang3est8VariableEEE, __ZTIN2gc16BindableArgumentINS_4lang5ArrayINS1_3est14FactorOrderingEEEEE, 
                       __ZTIN2gc16BindableArgumentINS_4lang5ArrayINS1_3est8VariableEEEEE, 
                       __ZTIN2gc16BindableArgumentINS_4lang5ArrayINS1_6BufferEEEEE, 
                       __ZTIN2gc16BindableArgumentINS_4lang6BufferEEE, __ZTIN2gc16BindableArgumentINS_4lang6ScalarEEE, 
                       __ZTIN2gc16FunctionArgumentINS_4lang3est11VariableSetES3_EE, 
                       __ZTIN2gc16FunctionArgumentINS_4lang3est13BlockOrderingES3_EE, 
                       __ZTIN2gc16FunctionArgumentINS_4lang3est14FactorOrderingES3_EE, 
                       __ZTIN2gc16FunctionArgumentINS_4lang3est22SchurEliminatedHessianES3_EE, 
                       __ZTIN2gc16FunctionArgumentINS_4lang3est6FactorES3_EE, __ZTIN2gc16FunctionArgumentINS_4lang3est8VariableES3_EE, 
                       __ZTIN2gc16FunctionArgumentINS_4lang5ArrayINS1_3est14FactorOrderingEEES5_EE, 
                       __ZTIN2gc16FunctionArgumentINS_4lang5ArrayINS1_3est8VariableEEES5_EE, 
                       __ZTIN2gc16FunctionArgumentINS_4lang5ArrayINS1_6BufferEEES4_EE, 
                       __ZTIN2gc16FunctionArgumentINS_4lang6BufferES2_EE, __ZTIN2gc16FunctionArgumentINS_4lang6ScalarES2_EE, 
                       __ZTIN2gc16FunctionArgumentIRNS_4lang3est11BlockMatrixES3_EE, 
                       __ZTIN2gc16FunctionArgumentIRNS_4lang3est11JacobianSetES3_EE, 
                       __ZTIN2gc16FunctionArgumentIRNS_4lang3est14FactorOrderingES3_EE, 
                       __ZTIN2gc16FunctionArgumentIRNS_4lang3est16BlockMatrixArrayES3_EE, 
                       __ZTIN2gc16FunctionArgumentIRNS_4lang3est8JacobianES3_EE, 
                       __ZTIN2gc16FunctionArgumentIRNS_4lang6BufferES2_EE, __ZTIN2gc16FunctionArgumentIRNS_4lang6ScalarES2_EE, 
                       __ZTIN2gc17ScheduleTraitImplE, __ZTIN2gc22OpaqueBindableArgumentE, 
                       __ZTIN2gc22TypedScheduleTraitImplI17loopkit_rt_type_tEE, __ZTIN2gc22TypedScheduleTraitImplINS_11eTargetASANEEE, 
                       __ZTIN2gc22TypedScheduleTraitImplINS_12eParallelismEEE, __ZTIN2gc22TypedScheduleTraitImplINS_12eTargetDebugEEE, 
                       __ZTIN2gc22TypedScheduleTraitImplINS_13eCustomKernelEEE, __ZTIN2gc22TypedScheduleTraitImplINS_13eKernelFusionEEE, 
                       __ZTIN2gc22TypedScheduleTraitImplINS_13eTargetAssertEEE, __ZTIN2gc22TypedScheduleTraitImplINS_13eTargetDeviceEEE, 
                       __ZTIN2gc22TypedScheduleTraitImplINS_16eTargetProfilingEEE, 
                       __ZTIN2gc22TypedScheduleTraitImplINS_16eTargetSignpostsEEE, 
                       __ZTIN2gc22TypedScheduleTraitImplINS_3est13eJacobianTypeEEE, 
                       __ZTIN2gc3est10NoiseModelE, __ZTIN2gc3est10TripletSetE, __ZTIN2gc3est11BlockMatrixE, 
                       __ZTIN2gc3est11VariableMapE, __ZTIN2gc3est11VariableSetE, 
                       __ZTIN2gc3est12CostFunctionE, __ZTIN2gc3est12LinearSolverE, 
                       __ZTIN2gc3est12LossFunctionE, __ZTIN2gc3est13FactorBuffersE, 
                       __ZTIN2gc3est13ModelFunctionE, __ZTIN2gc3est13TypedBoxMinusINS_4lang6VectorENS2_3SE3EEE, 
                       __ZTIN2gc3est13TypedBoxMinusINS_4lang6VectorENS2_3SO3EEE, 
                       __ZTIN2gc3est14FactorOrderingE, __ZTIN2gc3est14InformationMapE, 
                       __ZTIN2gc3est14PreconditionerE, __ZTIN2gc3est15TypedTripletSetIdEE, 
                       __ZTIN2gc3est15TypedTripletSetIfEE, __ZTIN2gc3est18LevenbergMarquardtINS0_33ExplicitHessianLinearizationPointEEE, 
                       __ZTIN2gc3est18LevenbergMarquardtINS0_33ImplicitHessianLinearizationPointEEE, 
                       __ZTIN2gc3est18TypedModelFunctionINS_4lang3SE3EJRKS3_EEE, 
                       __ZTIN2gc3est18TypedModelFunctionINS_4lang3SO3EJRKS3_EEE, 
                       __ZTIN2gc3est18TypedModelFunctionINS_4lang6ScalarEJRKS3_EEE, 
                       __ZTIN2gc3est18TypedModelFunctionINS_4lang6VectorEJRKS3_EEE, 
                       __ZTIN2gc3est19DenseLDLTSolverDataE, __ZTIN2gc3est19TrustRegionStrategyE, 
                       __ZTIN2gc3est20MaterializeJacobiansE, __ZTIN2gc3est20SparseLDLTSolverDataE, 
                       __ZTIN2gc3est21StandardGaussianNoiseE, __ZTIN2gc3est22SchurEliminatedHessianE, 
                       __ZTIN2gc3est24LeastSquaresLossFunctionE, __ZTIN2gc3est24TypedDenseLDLTSolverDataIdEE, 
                       __ZTIN2gc3est24TypedDenseLDLTSolverDataIfEE, __ZTIN2gc3est25TypedJacobiPreconditionerINS0_33ExplicitHessianLinearizationPointEEE, 
                       __ZTIN2gc3est25TypedJacobiPreconditionerINS0_33ImplicitHessianLinearizationPointEEE, 
                       __ZTIN2gc3est25TypedSparseLDLTSolverDataIdEE, __ZTIN2gc3est25TypedSparseLDLTSolverDataIfEE, 
                       __ZTIN2gc3est29SecondOrderLinearizationPointE, __ZTIN2gc3est29TypedLeastSquaresLossFunctionIJNS_4lang6ScalarEEEE, 
                       __ZTIN2gc3est8BoxMinusE, __ZTIN2gc3est9BufferMapE, __ZTIN2gc3est9MinimizerE, 
                       __ZTIN2gc3ops11AddAssignTTE, __ZTIN2gc3ops12PreIncrementE, 
                       __ZTIN2gc3ops14AssignmentOpTTINS0_11AddAssignTTEEE, __ZTIN2gc3ops16AutoDiffBackpropE, 
                       __ZTIN2gc3ops3AtGE, __ZTIN2gc3ops3GBtE, __ZTIN2gc3ops4CopyE, 
                       __ZTIN2gc3ops6DiffOpE, __ZTIN2gc3ops6ModuleE, __ZTIN2gc3ops6OpBaseE, 
                       __ZTIN2gc3ops6detail12ScatterZerosE, __ZTIN2gc3ops6detail22FunctionReturnTypeImplE, 
                       __ZTIN2gc3ops6detail27TypedFunctionReturnTypeImplILm0EEE, 
                       __ZTIN2gc3ops6detail27TypedFunctionReturnTypeImplILm1EEE, 
                       __ZTIN2gc3ops6detail9VarAssignE, __ZTIN2gc3ops8FunctionE, 
                       __ZTIN2gc4lang12StringStreamE, __ZTIN2gc4lang3est11BlockMatrixE, 
                       __ZTIN2gc4lang3est11JacobianSet16JacobianInstanceE, __ZTIN2gc4lang3est11JacobianSet28MaterializedJacobianInstanceE, 
                       __ZTIN2gc4lang3est11JacobianSetE, __ZTIN2gc4lang3est11VariableSetE, 
                       __ZTIN2gc4lang3est12CostFunctionE, __ZTIN2gc4lang3est13BlockOrderingE, 
                       __ZTIN2gc4lang3est14FactorOrderingE, __ZTIN2gc4lang3est16BlockMatrixArrayE, 
                       __ZTIN2gc4lang3est18FactorOrderingImplE, __ZTIN2gc4lang3est20MaterializedJacobianE, 
                       __ZTIN2gc4lang3est22SchurEliminatedHessianE, __ZTIN2gc4lang3est6FactorE, 
                       __ZTIN2gc4lang3est8JacobianE, __ZTIN2gc4lang3est8VariableE, 
                       __ZTIN2gc4lang4simd11MatMultPlanE, __ZTIN2gc4lang4simd15SIMDMatMultPlanE, 
                       __ZTIN2gc4lang4simd18GeneralMatMultPlanE, __ZTIN2gc4lang4simd18InnerProductMatrixE, 
                       __ZTIN2gc4lang4simd21SIMDLargeKMatMultPlanE, __ZTIN2gc4lang4simd21SIMDSmallKMatMultPlanE, 
                       __ZTIN2gc4lang4simd22SIMDInnerProductMatrixE, __ZTIN2gc4lang4simd23InnerProductAccumulatorE, 
                       __ZTIN2gc4lang4simd25GeneralInnerProductMatrixE, __ZTIN2gc4lang4simd27SIMDInnerProductAccumulatorE, 
                       __ZTIN2gc4lang4simd28SIMDCachedInnerProductMatrixE, __ZTIN2gc4lang4simd29LargeKInnerProductAccumulatorE, 
                       __ZTIN2gc4lang4simd29SmallKInnerProductAccumulatorE, __ZTIN2gc4lang4simd30GeneralInnerProductAccumulatorE, 
                       __ZTIN2gc4lang5ArrayINS0_3est14FactorOrderingEEE, __ZTIN2gc4lang5ArrayINS0_3est8VariableEEE, 
                       __ZTIN2gc4lang5ArrayINS0_6BufferEEE, __ZTIN2gc4lang5RangeE, 
                       __ZTIN2gc4lang6BufferE, __ZTIN2gc4lang6MatrixE, __ZTIN2gc4lang6ScalarE, 
                       __ZTIN2gc4lang6StringE, __ZTIN2gc4lang6TensorE, __ZTIN2gc4lang6VectorE, 
                       __ZTIN2gc4lang8BlockRefE, __ZTIN2gc4lang8VariableE, __ZTIN2gc6IRStmtE, 
                       __ZTIN2gc6KernelE, __ZTIN2gc6ObjectE, __ZTIN2gc6ScalarE, __ZTIN2gc6VectorE, 
                       __ZTIN2gc8RangeMapE, __ZTIN8nlohmann6detail10type_errorE, 
                       __ZTIN8nlohmann6detail11parse_errorE, __ZTIN8nlohmann6detail12out_of_rangeE, 
                       __ZTIN8nlohmann6detail16invalid_iteratorE, __ZTIN8nlohmann6detail21output_stream_adapterIcEE, 
                       __ZTIN8nlohmann6detail23output_adapter_protocolIcEE, __ZTIN8nlohmann6detail9exceptionE, 
                       __ZTINSt3__110__function34__maybe_derive_from_unary_functionIFN2gc4util10TaggedBoolINS2_3est15IsEliminableTagEEERKNS5_8VariableEEEE, 
                       __ZTINSt3__110__function34__maybe_derive_from_unary_functionIFvN2gc4lang4TileEEEE, 
                       __ZTINSt3__110__function34__maybe_derive_from_unary_functionIFvN2gc4lang4TileENS3_3est13BlockOrderingENS5_14FactorOrderingERNS5_8JacobianERNS5_11BlockMatrixEEEE, 
                       __ZTINSt3__110__function34__maybe_derive_from_unary_functionIFvN2gc4lang4TileENS3_3est13BlockOrderingENS5_14FactorOrderingES7_RNS5_11JacobianSetERNS5_11BlockMatrixEEEE, 
                       __ZTINSt3__110__function34__maybe_derive_from_unary_functionIFvN2gc4lang4TileENS3_3est14FactorOrderingENS5_6FactorENS5_11VariableSetENS3_6ScalarERNS3_6BufferEEEE, 
                       __ZTINSt3__110__function34__maybe_derive_from_unary_functionIFvN2gc4lang4TileENS3_3est14FactorOrderingERNS5_8JacobianENS3_6BufferES9_EEE, 
                       __ZTINSt3__110__function34__maybe_derive_from_unary_functionIFvN2gc4lang4TileENS3_3est6FactorENS3_6BufferENS3_5ArrayINS5_14FactorOrderingEEENS5_11VariableSetENS8_IS7_EESC_EEE, 
                       __ZTINSt3__110__function34__maybe_derive_from_unary_functionIFvN2gc4lang4TileENS3_3est6FactorENS5_11VariableSetENS3_6BufferEEEE, 
                       __ZTINSt3__110__function34__maybe_derive_from_unary_functionIFvN2gc4lang4TileENS3_3est6FactorENS5_11VariableSetENS3_6BufferES8_EEE, 
                       __ZTINSt3__110__function34__maybe_derive_from_unary_functionIFvN2gc4lang4TileENS3_3est8VariableEEEE, 
                       __ZTINSt3__110__function34__maybe_derive_from_unary_functionIFvN2gc4lang4TileENS3_3est8VariableENS3_6ScalarEEEE, 
                       __ZTINSt3__110__function34__maybe_derive_from_unary_functionIFvN2gc4lang4TileENS3_5ArrayINS3_6BufferEEES7_EEE, 
                       __ZTINSt3__110__function34__maybe_derive_from_unary_functionIFvN2gc4lang4TileENS3_6BufferEEEE, 
                       __ZTINSt3__110__function34__maybe_derive_from_unary_functionIFvN2gc4lang4TileENS3_6BufferENS3_3est6FactorERNS6_11JacobianSetENS3_5ArrayIS5_EENSA_INS6_14FactorOrderingEEERNS6_16BlockMatrixArrayESB_EEE, 
                       __ZTINSt3__110__function34__maybe_derive_from_unary_functionIFvN2gc4lang4TileENS3_6BufferENS3_3est8VariableEEEE, 
                       __ZTINSt3__110__function34__maybe_derive_from_unary_functionIFvN2gc4lang4TileENS3_6BufferENS3_5ArrayINS3_3est8VariableEEEEEE, 
                       __ZTINSt3__110__function34__maybe_derive_from_unary_functionIFvN2gc4lang4TileENS3_6BufferENS3_5ArrayIS5_EES7_NS3_3est6FactorERNS8_14FactorOrderingENS8_22SchurEliminatedHessianES5_EEE, 
                       __ZTINSt3__110__function34__maybe_derive_from_unary_functionIFvN2gc4lang4TileENS3_6BufferENS3_6ScalarES5_EEE, 
                       __ZTINSt3__110__function34__maybe_derive_from_unary_functionIFvN2gc4lang4TileENS3_6BufferENS3_6ScalarES5_S5_EEE, 
                       __ZTINSt3__110__function34__maybe_derive_from_unary_functionIFvN2gc4lang4TileENS3_6BufferENS3_6ScalarES6_S6_S6_S6_S5_S5_S5_EEE, 
                       __ZTINSt3__110__function34__maybe_derive_from_unary_functionIFvN2gc4lang4TileENS3_6BufferERNS3_3est8JacobianENS6_14FactorOrderingENS3_6ScalarES5_S5_EEE, 
                       __ZTINSt3__110__function34__maybe_derive_from_unary_functionIFvN2gc4lang4TileENS3_6BufferERNS3_3est8JacobianENS6_14FactorOrderingES5_S5_S5_S5_S5_EEE, 
                       __ZTINSt3__110__function34__maybe_derive_from_unary_functionIFvN2gc4lang4TileENS3_6BufferERNS3_3est8JacobianENS6_6FactorERNS6_11JacobianSetERNS6_14FactorOrderingES5_NS3_5ArrayIS5_EENSE_ISC_EERNS3_6ScalarERNS6_16BlockMatrixArrayENS6_22SchurEliminatedHessianESF_S5_S5_EEE, 
                       __ZTINSt3__110__function34__maybe_derive_from_unary_functionIFvN2gc4lang4TileENS3_6BufferERNS3_3est8JacobianES5_S5_EEE, 
                       __ZTINSt3__110__function34__maybe_derive_from_unary_functionIFvN2gc4lang4TileENS3_6BufferES5_EEE, 
                       __ZTINSt3__110__function34__maybe_derive_from_unary_functionIFvN2gc4lang4TileENS3_6BufferES5_NS3_5ArrayINS3_3est8VariableEEEEEE, 
                       __ZTINSt3__110__function34__maybe_derive_from_unary_functionIFvN2gc4lang4TileENS3_6BufferES5_RNS3_3est8JacobianES5_S5_EEE, 
                       __ZTINSt3__110__function34__maybe_derive_from_unary_functionIFvN2gc4lang4TileENS3_6BufferES5_S5_EEE, 
                       __ZTINSt3__110__function34__maybe_derive_from_unary_functionIFvN2gc4lang4TileENS3_6BufferES5_S5_S5_EEE, 
                       __ZTINSt3__110__function34__maybe_derive_from_unary_functionIFvN2gc4lang4TileENS3_6BufferES5_S5_S5_S5_S5_S5_EEE, 
                       __ZTINSt3__110__function34__maybe_derive_from_unary_functionIFvN2gc4lang4TileENS3_6ScalarENS3_6BufferES6_EEE, 
                       __ZTINSt3__110__function34__maybe_derive_from_unary_functionIFvN2gc4lang4TileENS3_6ScalarERNS3_3est11BlockMatrixEEEE, 
                       __ZTINSt3__110__function34__maybe_derive_from_unary_functionIFvN2gc4lang4TileERNS3_3est11BlockMatrixEEEE, 
                       __ZTINSt3__110__function34__maybe_derive_from_unary_functionIFvN2gc4lang4TileERNS3_3est11BlockMatrixENS3_6BufferES8_EEE, 
                       __ZTINSt3__110__function34__maybe_derive_from_unary_functionIFvN2gc4lang4TileERNS3_3est11BlockMatrixENS3_6BufferES8_S8_EEE, 
                       __ZTINSt3__110__function34__maybe_derive_from_unary_functionIFvN2gc4lang4TileERNS3_3est11BlockMatrixENS3_6BufferES8_S8_RS8_EEE, 
                       __ZTINSt3__110__function34__maybe_derive_from_unary_functionIFvN2gc4lang4TileERNS3_3est11JacobianSetENS3_5ArrayINS5_14FactorOrderingEEENS8_INS3_6BufferEEESC_SB_EEE, 
                       __ZTINSt3__110__function34__maybe_derive_from_unary_functionIFvN2gc4lang4TileERNS3_3est14FactorOrderingENS3_6BufferERNS5_8JacobianES8_S8_EEE, 
                       __ZTINSt3__110__function34__maybe_derive_from_unary_functionIFvN2gc4lang4TileERNS3_3est14FactorOrderingERNS5_8JacobianENS3_6BufferERSA_EEE, 
                       __ZTINSt3__110__function34__maybe_derive_from_unary_functionIFvN2gc4lang4TileERNS3_3est14FactorOrderingERNS5_8JacobianENS3_6BufferESA_EEE, 
                       __ZTINSt3__110__function34__maybe_derive_from_unary_functionIFvN2gc4lang4TileERNS3_3est14FactorOrderingERNS5_8JacobianENS3_6BufferESA_SA_EEE, 
                       __ZTINSt3__110__function34__maybe_derive_from_unary_functionIFvN2gc4lang4TileERNS3_3est8JacobianENS3_6BufferES8_EEE, 
                       __ZTINSt3__110__function34__maybe_derive_from_unary_functionIFvN2gc4lang4TileERNS3_3est8JacobianENS3_6BufferES8_S8_EEE, 
                       __ZTINSt3__110__function34__maybe_derive_from_unary_functionIFvN2gc4lang4TileERNS3_3est8JacobianENS3_6BufferES8_S8_RS8_EEE, 
                       __ZTINSt3__110__function34__maybe_derive_from_unary_functionIFvN2gc4lang4TileERNS3_3est8JacobianENS3_6BufferES8_S8_S8_EEE, 
                       __ZTINSt3__110__function34__maybe_derive_from_unary_functionIFvN2gc4lang4TileERNS3_3est8JacobianENS3_6BufferES8_S8_S8_S8_EEE, 
                       __ZTINSt3__110__function34__maybe_derive_from_unary_functionIFvN2gc4lang4TileERNS3_3est8JacobianENS5_14FactorOrderingENS3_6BufferES9_EEE, 
                       __ZTINSt3__110__function34__maybe_derive_from_unary_functionIFvN2gc4lang4TileERNS3_3est8JacobianENS5_14FactorOrderingENS3_6BufferES9_S9_EEE, 
                       __ZTINSt3__110__function34__maybe_derive_from_unary_functionIFvN2gc4lang4TileERNS3_3est8JacobianENS5_14FactorOrderingENS3_6BufferES9_S9_S9_EEE, 
                       __ZTINSt3__110__function34__maybe_derive_from_unary_functionIFvN2gc4lang4TileERNS3_3est8JacobianENS5_14FactorOrderingES8_NS3_6BufferES9_S9_S9_S9_S9_EEE, 
                       __ZTINSt3__110__function35__maybe_derive_from_binary_functionIFN2gc4util10TaggedBoolINS2_3est15IsEliminableTagEEERKNS5_8VariableEEEE, 
                       __ZTINSt3__110__function35__maybe_derive_from_binary_functionIFvN2gc4lang4TileEEEE, 
                       __ZTINSt3__110__function35__maybe_derive_from_binary_functionIFvN2gc4lang4TileENS3_3est13BlockOrderingENS5_14FactorOrderingERNS5_8JacobianERNS5_11BlockMatrixEEEE, 
                       __ZTINSt3__110__function35__maybe_derive_from_binary_functionIFvN2gc4lang4TileENS3_3est13BlockOrderingENS5_14FactorOrderingES7_RNS5_11JacobianSetERNS5_11BlockMatrixEEEE, 
                       __ZTINSt3__110__function35__maybe_derive_from_binary_functionIFvN2gc4lang4TileENS3_3est14FactorOrderingENS5_6FactorENS5_11VariableSetENS3_6ScalarERNS3_6BufferEEEE, 
                       __ZTINSt3__110__function35__maybe_derive_from_binary_functionIFvN2gc4lang4TileENS3_3est14FactorOrderingERNS5_8JacobianENS3_6BufferES9_EEE, 
                       __ZTINSt3__110__function35__maybe_derive_from_binary_functionIFvN2gc4lang4TileENS3_3est6FactorENS3_6BufferENS3_5ArrayINS5_14FactorOrderingEEENS5_11VariableSetENS8_IS7_EESC_EEE, 
                       __ZTINSt3__110__function35__maybe_derive_from_binary_functionIFvN2gc4lang4TileENS3_3est6FactorENS5_11VariableSetENS3_6BufferEEEE, 
                       __ZTINSt3__110__function35__maybe_derive_from_binary_functionIFvN2gc4lang4TileENS3_3est6FactorENS5_11VariableSetENS3_6BufferES8_EEE, 
                       __ZTINSt3__110__function35__maybe_derive_from_binary_functionIFvN2gc4lang4TileENS3_3est8VariableEEEE, 
                       __ZTINSt3__110__function35__maybe_derive_from_binary_functionIFvN2gc4lang4TileENS3_3est8VariableENS3_6ScalarEEEE, 
                       __ZTINSt3__110__function35__maybe_derive_from_binary_functionIFvN2gc4lang4TileENS3_5ArrayINS3_6BufferEEES7_EEE, 
                       __ZTINSt3__110__function35__maybe_derive_from_binary_functionIFvN2gc4lang4TileENS3_6BufferEEEE, 
                       __ZTINSt3__110__function35__maybe_derive_from_binary_functionIFvN2gc4lang4TileENS3_6BufferENS3_3est6FactorERNS6_11JacobianSetENS3_5ArrayIS5_EENSA_INS6_14FactorOrderingEEERNS6_16BlockMatrixArrayESB_EEE, 
                       __ZTINSt3__110__function35__maybe_derive_from_binary_functionIFvN2gc4lang4TileENS3_6BufferENS3_3est8VariableEEEE, 
                       __ZTINSt3__110__function35__maybe_derive_from_binary_functionIFvN2gc4lang4TileENS3_6BufferENS3_5ArrayINS3_3est8VariableEEEEEE, 
                       __ZTINSt3__110__function35__maybe_derive_from_binary_functionIFvN2gc4lang4TileENS3_6BufferENS3_5ArrayIS5_EES7_NS3_3est6FactorERNS8_14FactorOrderingENS8_22SchurEliminatedHessianES5_EEE, 
                       __ZTINSt3__110__function35__maybe_derive_from_binary_functionIFvN2gc4lang4TileENS3_6BufferENS3_6ScalarES5_EEE, 
                       __ZTINSt3__110__function35__maybe_derive_from_binary_functionIFvN2gc4lang4TileENS3_6BufferENS3_6ScalarES5_S5_EEE, 
                       __ZTINSt3__110__function35__maybe_derive_from_binary_functionIFvN2gc4lang4TileENS3_6BufferENS3_6ScalarES6_S6_S6_S6_S5_S5_S5_EEE, 
                       __ZTINSt3__110__function35__maybe_derive_from_binary_functionIFvN2gc4lang4TileENS3_6BufferERNS3_3est8JacobianENS6_14FactorOrderingENS3_6ScalarES5_S5_EEE, 
                       __ZTINSt3__110__function35__maybe_derive_from_binary_functionIFvN2gc4lang4TileENS3_6BufferERNS3_3est8JacobianENS6_14FactorOrderingES5_S5_S5_S5_S5_EEE, 
                       __ZTINSt3__110__function35__maybe_derive_from_binary_functionIFvN2gc4lang4TileENS3_6BufferERNS3_3est8JacobianENS6_6FactorERNS6_11JacobianSetERNS6_14FactorOrderingES5_NS3_5ArrayIS5_EENSE_ISC_EERNS3_6ScalarERNS6_16BlockMatrixArrayENS6_22SchurEliminatedHessianESF_S5_S5_EEE, 
                       __ZTINSt3__110__function35__maybe_derive_from_binary_functionIFvN2gc4lang4TileENS3_6BufferERNS3_3est8JacobianES5_S5_EEE, 
                       __ZTINSt3__110__function35__maybe_derive_from_binary_functionIFvN2gc4lang4TileENS3_6BufferES5_EEE, 
                       __ZTINSt3__110__function35__maybe_derive_from_binary_functionIFvN2gc4lang4TileENS3_6BufferES5_NS3_5ArrayINS3_3est8VariableEEEEEE, 
                       __ZTINSt3__110__function35__maybe_derive_from_binary_functionIFvN2gc4lang4TileENS3_6BufferES5_RNS3_3est8JacobianES5_S5_EEE, 
                       __ZTINSt3__110__function35__maybe_derive_from_binary_functionIFvN2gc4lang4TileENS3_6BufferES5_S5_EEE, 
                       __ZTINSt3__110__function35__maybe_derive_from_binary_functionIFvN2gc4lang4TileENS3_6BufferES5_S5_S5_EEE, 
                       __ZTINSt3__110__function35__maybe_derive_from_binary_functionIFvN2gc4lang4TileENS3_6BufferES5_S5_S5_S5_S5_S5_EEE, 
                       __ZTINSt3__110__function35__maybe_derive_from_binary_functionIFvN2gc4lang4TileENS3_6ScalarENS3_6BufferES6_EEE, 
                       __ZTINSt3__110__function35__maybe_derive_from_binary_functionIFvN2gc4lang4TileENS3_6ScalarERNS3_3est11BlockMatrixEEEE, 
                       __ZTINSt3__110__function35__maybe_derive_from_binary_functionIFvN2gc4lang4TileERNS3_3est11BlockMatrixEEEE, 
                       __ZTINSt3__110__function35__maybe_derive_from_binary_functionIFvN2gc4lang4TileERNS3_3est11BlockMatrixENS3_6BufferES8_EEE, 
                       __ZTINSt3__110__function35__maybe_derive_from_binary_functionIFvN2gc4lang4TileERNS3_3est11BlockMatrixENS3_6BufferES8_S8_EEE, 
                       __ZTINSt3__110__function35__maybe_derive_from_binary_functionIFvN2gc4lang4TileERNS3_3est11BlockMatrixENS3_6BufferES8_S8_RS8_EEE, 
                       __ZTINSt3__110__function35__maybe_derive_from_binary_functionIFvN2gc4lang4TileERNS3_3est11JacobianSetENS3_5ArrayINS5_14FactorOrderingEEENS8_INS3_6BufferEEESC_SB_EEE, 
                       __ZTINSt3__110__function35__maybe_derive_from_binary_functionIFvN2gc4lang4TileERNS3_3est14FactorOrderingENS3_6BufferERNS5_8JacobianES8_S8_EEE, 
                       __ZTINSt3__110__function35__maybe_derive_from_binary_functionIFvN2gc4lang4TileERNS3_3est14FactorOrderingERNS5_8JacobianENS3_6BufferERSA_EEE, 
                       __ZTINSt3__110__function35__maybe_derive_from_binary_functionIFvN2gc4lang4TileERNS3_3est14FactorOrderingERNS5_8JacobianENS3_6BufferESA_EEE, 
                       __ZTINSt3__110__function35__maybe_derive_from_binary_functionIFvN2gc4lang4TileERNS3_3est14FactorOrderingERNS5_8JacobianENS3_6BufferESA_SA_EEE, 
                       __ZTINSt3__110__function35__maybe_derive_from_binary_functionIFvN2gc4lang4TileERNS3_3est8JacobianENS3_6BufferES8_EEE, 
                       __ZTINSt3__110__function35__maybe_derive_from_binary_functionIFvN2gc4lang4TileERNS3_3est8JacobianENS3_6BufferES8_S8_EEE, 
                       __ZTINSt3__110__function35__maybe_derive_from_binary_functionIFvN2gc4lang4TileERNS3_3est8JacobianENS3_6BufferES8_S8_RS8_EEE, 
                       __ZTINSt3__110__function35__maybe_derive_from_binary_functionIFvN2gc4lang4TileERNS3_3est8JacobianENS3_6BufferES8_S8_S8_EEE, 
                       __ZTINSt3__110__function35__maybe_derive_from_binary_functionIFvN2gc4lang4TileERNS3_3est8JacobianENS3_6BufferES8_S8_S8_S8_EEE, 
                       __ZTINSt3__110__function35__maybe_derive_from_binary_functionIFvN2gc4lang4TileERNS3_3est8JacobianENS5_14FactorOrderingENS3_6BufferES9_EEE, 
                       __ZTINSt3__110__function35__maybe_derive_from_binary_functionIFvN2gc4lang4TileERNS3_3est8JacobianENS5_14FactorOrderingENS3_6BufferES9_S9_EEE, 
                       __ZTINSt3__110__function35__maybe_derive_from_binary_functionIFvN2gc4lang4TileERNS3_3est8JacobianENS5_14FactorOrderingENS3_6BufferES9_S9_S9_EEE, 
                       __ZTINSt3__110__function35__maybe_derive_from_binary_functionIFvN2gc4lang4TileERNS3_3est8JacobianENS5_14FactorOrderingES8_NS3_6BufferES9_S9_S9_S9_S9_EEE, 
                       __ZTINSt3__110__function6__baseIF17loopkit_rt_type_tRKNS_6vectorIS2_NS_9allocatorIS2_EEEEEEE, 
                       __ZTINSt3__110__function6__baseIFN2gc12BlockExtentsERKNS_6vectorIS3_NS_9allocatorIS3_EEEEEEE, 
                       __ZTINSt3__110__function6__baseIFN2gc12BlockExtentsERKS3_EEE, 
                       __ZTINSt3__110__function6__baseIFN2gc14ElementExtentsERKNS_6vectorIS3_NS_9allocatorIS3_EEEEEEE, 
                       __ZTINSt3__110__function6__baseIFN2gc14ElementExtentsERKS3_EEE, 
                       __ZTINSt3__110__function6__baseIFN2gc3est13eJacobianTypeERKNS_12basic_stringIcNS_11char_traitsIcEENS_9allocatorIcEEEESC_EEE, 
                       __ZTINSt3__110__function6__baseIFN2gc3ops18FunctionReturnTypeEvEEE, 
                       __ZTINSt3__110__function6__baseIFN2gc4StmtES3_EEE, __ZTINSt3__110__function6__baseIFN2gc4lang2ad12AdjointArrayERKS5_EEE, 
                       __ZTINSt3__110__function6__baseIFN2gc4lang3SE3ERKS4_EEE, __ZTINSt3__110__function6__baseIFN2gc4lang3SO3ERKS4_EEE, 
                       __ZTINSt3__110__function6__baseIFN2gc4lang6ScalarERKS4_EEE, 
                       __ZTINSt3__110__function6__baseIFN2gc4lang6TensorENS3_6ScalarES5_EEE, 
                       __ZTINSt3__110__function6__baseIFN2gc4lang6TensorERKNS_6vectorINS2_4ExprENS_9allocatorIS6_EEEEEEE, 
                       __ZTINSt3__110__function6__baseIFN2gc4lang6TensorES4_EEE, 
                       __ZTINSt3__110__function6__baseIFN2gc4lang6VectorENS3_3SE3ES5_EEE, 
                       __ZTINSt3__110__function6__baseIFN2gc4lang6VectorENS3_3SO3ES5_EEE, 
                       __ZTINSt3__110__function6__baseIFN2gc4lang6VectorERKS4_EEE, 
                       __ZTINSt3__110__function6__baseIFN2gc4lang8VariableERKNS_6vectorIS4_NS_9allocatorIS4_EEEEEEE, 
                       __ZTINSt3__110__function6__baseIFN2gc4lang8VariableERKS4_RKNS_6vectorIS4_NS_9allocatorIS4_EEEEEEE, 
                       __ZTINSt3__110__function6__baseIFN2gc4lang8VariableERKS4_S6_EEE, 
                       __ZTINSt3__110__function6__baseIFN2gc4util10TaggedBoolINS2_3est15IsEliminableTagEEERKNS5_8VariableEEEE, 
                       __ZTINSt3__110__function6__baseIFN2gc5ShapeERKNS_6vectorIS3_NS_9allocatorIS3_EEEEEEE, 
                       __ZTINSt3__110__function6__baseIFN2gc6ExtentEvEEE, __ZTINSt3__110__function6__baseIFN2gc9float16_tEvEEE, 
                       __ZTINSt3__110__function6__baseIFavEEE, __ZTINSt3__110__function6__baseIFbNS_10shared_ptrIN2gc16BufferParametersEEEEEE, 
                       __ZTINSt3__110__function6__baseIFbNS_10shared_ptrIN2gc3ops6OpBaseEEEEEE, 
                       __ZTINSt3__110__function6__baseIFbPN2gc12ComputeGraph4NodeEEEE, 
                       __ZTINSt3__110__function6__baseIFbRKN2gc3est8VariableEEEE, 
                       __ZTINSt3__110__function6__baseIFbjjEEE, __ZTINSt3__110__function6__baseIFbvEEE, 
                       __ZTINSt3__110__function6__baseIFdvEEE, __ZTINSt3__110__function6__baseIFfvEEE, 
                       __ZTINSt3__110__function6__baseIFhvEEE, __ZTINSt3__110__function6__baseIFivEEE, 
                       __ZTINSt3__110__function6__baseIFjvEEE, __ZTINSt3__110__function6__baseIFsvEEE, 
                       __ZTINSt3__110__function6__baseIFtvEEE, __ZTINSt3__110__function6__baseIFvN2gc4ExprEEEE, 
                       __ZTINSt3__110__function6__baseIFvN2gc4ExprES3_EEE, __ZTINSt3__110__function6__baseIFvN2gc4lang4TileEEEE, 
                       __ZTINSt3__110__function6__baseIFvN2gc4lang4TileENS3_3est13BlockOrderingENS5_14FactorOrderingERNS5_8JacobianERNS5_11BlockMatrixEEEE, 
                       __ZTINSt3__110__function6__baseIFvN2gc4lang4TileENS3_3est13BlockOrderingENS5_14FactorOrderingES7_RNS5_11JacobianSetERNS5_11BlockMatrixEEEE, 
                       __ZTINSt3__110__function6__baseIFvN2gc4lang4TileENS3_3est14FactorOrderingENS5_6FactorENS5_11VariableSetENS3_6ScalarERNS3_6BufferEEEE, 
                       __ZTINSt3__110__function6__baseIFvN2gc4lang4TileENS3_3est14FactorOrderingERNS5_8JacobianENS3_6BufferES9_EEE, 
                       __ZTINSt3__110__function6__baseIFvN2gc4lang4TileENS3_3est6FactorENS3_6BufferENS3_5ArrayINS5_14FactorOrderingEEENS5_11VariableSetENS8_IS7_EESC_EEE, 
                       __ZTINSt3__110__function6__baseIFvN2gc4lang4TileENS3_3est6FactorENS5_11VariableSetENS3_6BufferEEEE, 
                       __ZTINSt3__110__function6__baseIFvN2gc4lang4TileENS3_3est6FactorENS5_11VariableSetENS3_6BufferES8_EEE, 
                       __ZTINSt3__110__function6__baseIFvN2gc4lang4TileENS3_3est8VariableEEEE, 
                       __ZTINSt3__110__function6__baseIFvN2gc4lang4TileENS3_3est8VariableENS3_6ScalarEEEE, 
                       __ZTINSt3__110__function6__baseIFvN2gc4lang4TileENS3_5ArrayINS3_6BufferEEES7_EEE, 
                       __ZTINSt3__110__function6__baseIFvN2gc4lang4TileENS3_6BufferEEEE, 
                       __ZTINSt3__110__function6__baseIFvN2gc4lang4TileENS3_6BufferENS3_3est6FactorERNS6_11JacobianSetENS3_5ArrayIS5_EENSA_INS6_14FactorOrderingEEERNS6_16BlockMatrixArrayESB_EEE, 
                       __ZTINSt3__110__function6__baseIFvN2gc4lang4TileENS3_6BufferENS3_3est8VariableEEEE, 
                       __ZTINSt3__110__function6__baseIFvN2gc4lang4TileENS3_6BufferENS3_5ArrayINS3_3est8VariableEEEEEE, 
                       __ZTINSt3__110__function6__baseIFvN2gc4lang4TileENS3_6BufferENS3_5ArrayIS5_EES7_NS3_3est6FactorERNS8_14FactorOrderingENS8_22SchurEliminatedHessianES5_EEE, 
                       __ZTINSt3__110__function6__baseIFvN2gc4lang4TileENS3_6BufferENS3_6ScalarES5_EEE, 
                       __ZTINSt3__110__function6__baseIFvN2gc4lang4TileENS3_6BufferENS3_6ScalarES5_S5_EEE, 
                       __ZTINSt3__110__function6__baseIFvN2gc4lang4TileENS3_6BufferENS3_6ScalarES6_S6_S6_S6_S5_S5_S5_EEE, 
                       __ZTINSt3__110__function6__baseIFvN2gc4lang4TileENS3_6BufferERNS3_3est8JacobianENS6_14FactorOrderingENS3_6ScalarES5_S5_EEE, 
                       __ZTINSt3__110__function6__baseIFvN2gc4lang4TileENS3_6BufferERNS3_3est8JacobianENS6_14FactorOrderingES5_S5_S5_S5_S5_EEE, 
                       __ZTINSt3__110__function6__baseIFvN2gc4lang4TileENS3_6BufferERNS3_3est8JacobianENS6_6FactorERNS6_11JacobianSetERNS6_14FactorOrderingES5_NS3_5ArrayIS5_EENSE_ISC_EERNS3_6ScalarERNS6_16BlockMatrixArrayENS6_22SchurEliminatedHessianESF_S5_S5_EEE, 
                       __ZTINSt3__110__function6__baseIFvN2gc4lang4TileENS3_6BufferERNS3_3est8JacobianES5_S5_EEE, 
                       __ZTINSt3__110__function6__baseIFvN2gc4lang4TileENS3_6BufferES5_EEE, 
                       __ZTINSt3__110__function6__baseIFvN2gc4lang4TileENS3_6BufferES5_NS3_5ArrayINS3_3est8VariableEEEEEE, 
                       __ZTINSt3__110__function6__baseIFvN2gc4lang4TileENS3_6BufferES5_RNS3_3est8JacobianES5_S5_EEE, 
                       __ZTINSt3__110__function6__baseIFvN2gc4lang4TileENS3_6BufferES5_S5_EEE, 
                       __ZTINSt3__110__function6__baseIFvN2gc4lang4TileENS3_6BufferES5_S5_S5_EEE, 
                       __ZTINSt3__110__function6__baseIFvN2gc4lang4TileENS3_6BufferES5_S5_S5_S5_S5_S5_EEE, 
                       __ZTINSt3__110__function6__baseIFvN2gc4lang4TileENS3_6ScalarENS3_6BufferES6_EEE, 
                       __ZTINSt3__110__function6__baseIFvN2gc4lang4TileENS3_6ScalarERNS3_3est11BlockMatrixEEEE, 
                       __ZTINSt3__110__function6__baseIFvN2gc4lang4TileERNS3_3est11BlockMatrixEEEE, 
                       __ZTINSt3__110__function6__baseIFvN2gc4lang4TileERNS3_3est11BlockMatrixENS3_6BufferES8_EEE, 
                       __ZTINSt3__110__function6__baseIFvN2gc4lang4TileERNS3_3est11BlockMatrixENS3_6BufferES8_S8_EEE, 
                       __ZTINSt3__110__function6__baseIFvN2gc4lang4TileERNS3_3est11BlockMatrixENS3_6BufferES8_S8_RS8_EEE, 
                       __ZTINSt3__110__function6__baseIFvN2gc4lang4TileERNS3_3est11JacobianSetENS3_5ArrayINS5_14FactorOrderingEEENS8_INS3_6BufferEEESC_SB_EEE, 
                       __ZTINSt3__110__function6__baseIFvN2gc4lang4TileERNS3_3est14FactorOrderingENS3_6BufferERNS5_8JacobianES8_S8_EEE, 
                       __ZTINSt3__110__function6__baseIFvN2gc4lang4TileERNS3_3est14FactorOrderingERNS5_8JacobianENS3_6BufferERSA_EEE, 
                       __ZTINSt3__110__function6__baseIFvN2gc4lang4TileERNS3_3est14FactorOrderingERNS5_8JacobianENS3_6BufferESA_EEE, 
                       __ZTINSt3__110__function6__baseIFvN2gc4lang4TileERNS3_3est14FactorOrderingERNS5_8JacobianENS3_6BufferESA_SA_EEE, 
                       __ZTINSt3__110__function6__baseIFvN2gc4lang4TileERNS3_3est8JacobianENS3_6BufferES8_EEE, 
                       __ZTINSt3__110__function6__baseIFvN2gc4lang4TileERNS3_3est8JacobianENS3_6BufferES8_S8_EEE, 
                       __ZTINSt3__110__function6__baseIFvN2gc4lang4TileERNS3_3est8JacobianENS3_6BufferES8_S8_RS8_EEE, 
                       __ZTINSt3__110__function6__baseIFvN2gc4lang4TileERNS3_3est8JacobianENS3_6BufferES8_S8_S8_EEE, 
                       __ZTINSt3__110__function6__baseIFvN2gc4lang4TileERNS3_3est8JacobianENS3_6BufferES8_S8_S8_S8_EEE, 
                       __ZTINSt3__110__function6__baseIFvN2gc4lang4TileERNS3_3est8JacobianENS5_14FactorOrderingENS3_6BufferES9_EEE, 
                       __ZTINSt3__110__function6__baseIFvN2gc4lang4TileERNS3_3est8JacobianENS5_14FactorOrderingENS3_6BufferES9_S9_EEE, 
                       __ZTINSt3__110__function6__baseIFvN2gc4lang4TileERNS3_3est8JacobianENS5_14FactorOrderingENS3_6BufferES9_S9_S9_EEE, 
                       __ZTINSt3__110__function6__baseIFvN2gc4lang4TileERNS3_3est8JacobianENS5_14FactorOrderingES8_NS3_6BufferES9_S9_S9_S9_S9_EEE, 
                       __ZTINSt3__110__function6__baseIFvRKN2gc4ExprEEEE, __ZTINSt3__110__function6__baseIFvRKN2gc4lang4TileEEEE, 
                       __ZTINSt3__110__function6__baseIFvRKN2gc4lang4TileENS3_3est13BlockOrderingENS7_14FactorOrderingERNS7_8JacobianERNS7_11BlockMatrixEEEE, 
                       __ZTINSt3__110__function6__baseIFvRKN2gc4lang4TileENS3_3est13BlockOrderingENS7_14FactorOrderingES9_RNS7_11JacobianSetERNS7_11BlockMatrixEEEE, 
                       __ZTINSt3__110__function6__baseIFvRKN2gc4lang4TileENS3_3est14FactorOrderingENS7_6FactorENS7_11VariableSetENS3_6ScalarERNS3_6BufferEEEE, 
                       __ZTINSt3__110__function6__baseIFvRKN2gc4lang4TileENS3_3est14FactorOrderingERNS7_8JacobianENS3_6BufferESB_EEE, 
                       __ZTINSt3__110__function6__baseIFvRKN2gc4lang4TileENS3_3est6FactorENS3_6BufferENS3_5ArrayINS7_14FactorOrderingEEENS7_11VariableSetENSA_IS9_EESE_EEE, 
                       __ZTINSt3__110__function6__baseIFvRKN2gc4lang4TileENS3_3est6FactorENS7_11VariableSetENS3_6BufferEEEE, 
                       __ZTINSt3__110__function6__baseIFvRKN2gc4lang4TileENS3_3est6FactorENS7_11VariableSetENS3_6BufferESA_EEE, 
                       __ZTINSt3__110__function6__baseIFvRKN2gc4lang4TileENS3_3est8VariableEEEE, 
                       __ZTINSt3__110__function6__baseIFvRKN2gc4lang4TileENS3_3est8VariableENS3_6ScalarEEEE, 
                       __ZTINSt3__110__function6__baseIFvRKN2gc4lang4TileENS3_5ArrayINS3_6BufferEEES9_EEE, 
                       __ZTINSt3__110__function6__baseIFvRKN2gc4lang4TileENS3_6BufferEEEE, 
                       __ZTINSt3__110__function6__baseIFvRKN2gc4lang4TileENS3_6BufferENS3_3est6FactorERNS8_11JacobianSetENS3_5ArrayIS7_EENSC_INS8_14FactorOrderingEEERNS8_16BlockMatrixArrayESD_EEE, 
                       __ZTINSt3__110__function6__baseIFvRKN2gc4lang4TileENS3_6BufferENS3_3est8VariableEEEE, 
                       __ZTINSt3__110__function6__baseIFvRKN2gc4lang4TileENS3_6BufferENS3_5ArrayINS3_3est8VariableEEEEEE, 
                       __ZTINSt3__110__function6__baseIFvRKN2gc4lang4TileENS3_6BufferENS3_5ArrayIS7_EES9_NS3_3est6FactorERNSA_14FactorOrderingENSA_22SchurEliminatedHessianES7_EEE, 
                       __ZTINSt3__110__function6__baseIFvRKN2gc4lang4TileENS3_6BufferENS3_6ScalarES7_EEE, 
                       __ZTINSt3__110__function6__baseIFvRKN2gc4lang4TileENS3_6BufferENS3_6ScalarES7_S7_EEE, 
                       __ZTINSt3__110__function6__baseIFvRKN2gc4lang4TileENS3_6BufferENS3_6ScalarES8_S8_S8_S8_S7_S7_S7_EEE, 
                       __ZTINSt3__110__function6__baseIFvRKN2gc4lang4TileENS3_6BufferERNS3_3est8JacobianENS8_14FactorOrderingENS3_6ScalarES7_S7_EEE, 
                       __ZTINSt3__110__function6__baseIFvRKN2gc4lang4TileENS3_6BufferERNS3_3est8JacobianENS8_14FactorOrderingES7_S7_S7_S7_S7_EEE, 
                       __ZTINSt3__110__function6__baseIFvRKN2gc4lang4TileENS3_6BufferERNS3_3est8JacobianENS8_6FactorERNS8_11JacobianSetERNS8_14FactorOrderingES7_NS3_5ArrayIS7_EENSG_ISE_EERNS3_6ScalarERNS8_16BlockMatrixArrayENS8_22SchurEliminatedHessianESH_S7_S7_EEE, 
                       __ZTINSt3__110__function6__baseIFvRKN2gc4lang4TileENS3_6BufferERNS3_3est8JacobianES7_S7_EEE, 
                       __ZTINSt3__110__function6__baseIFvRKN2gc4lang4TileENS3_6BufferES7_EEE, 
                       __ZTINSt3__110__function6__baseIFvRKN2gc4lang4TileENS3_6BufferES7_NS3_5ArrayINS3_3est8VariableEEEEEE, 
                       __ZTINSt3__110__function6__baseIFvRKN2gc4lang4TileENS3_6BufferES7_RNS3_3est8JacobianES7_S7_EEE, 
                       __ZTINSt3__110__function6__baseIFvRKN2gc4lang4TileENS3_6BufferES7_S7_EEE, 
                       __ZTINSt3__110__function6__baseIFvRKN2gc4lang4TileENS3_6BufferES7_S7_S7_EEE, 
                       __ZTINSt3__110__function6__baseIFvRKN2gc4lang4TileENS3_6BufferES7_S7_S7_S7_S7_S7_EEE, 
                       __ZTINSt3__110__function6__baseIFvRKN2gc4lang4TileENS3_6ScalarENS3_6BufferES8_EEE, 
                       __ZTINSt3__110__function6__baseIFvRKN2gc4lang4TileENS3_6ScalarERNS3_3est11BlockMatrixEEEE, 
                       __ZTINSt3__110__function6__baseIFvRKN2gc4lang4TileERNS3_3est11BlockMatrixEEEE, 
                       __ZTINSt3__110__function6__baseIFvRKN2gc4lang4TileERNS3_3est11BlockMatrixENS3_6BufferESA_EEE, 
                       __ZTINSt3__110__function6__baseIFvRKN2gc4lang4TileERNS3_3est11BlockMatrixENS3_6BufferESA_SA_EEE, 
                       __ZTINSt3__110__function6__baseIFvRKN2gc4lang4TileERNS3_3est11BlockMatrixENS3_6BufferESA_SA_RSA_EEE, 
                       __ZTINSt3__110__function6__baseIFvRKN2gc4lang4TileERNS3_3est11JacobianSetENS3_5ArrayINS7_14FactorOrderingEEENSA_INS3_6BufferEEESE_SD_EEE, 
                       __ZTINSt3__110__function6__baseIFvRKN2gc4lang4TileERNS3_3est14FactorOrderingENS3_6BufferERNS7_8JacobianESA_SA_EEE, 
                       __ZTINSt3__110__function6__baseIFvRKN2gc4lang4TileERNS3_3est14FactorOrderingERNS7_8JacobianENS3_6BufferERSC_EEE, 
                       __ZTINSt3__110__function6__baseIFvRKN2gc4lang4TileERNS3_3est14FactorOrderingERNS7_8JacobianENS3_6BufferESC_EEE, 
                       __ZTINSt3__110__function6__baseIFvRKN2gc4lang4TileERNS3_3est14FactorOrderingERNS7_8JacobianENS3_6BufferESC_SC_EEE, 
                       __ZTINSt3__110__function6__baseIFvRKN2gc4lang4TileERNS3_3est8JacobianENS3_6BufferESA_EEE, 
                       __ZTINSt3__110__function6__baseIFvRKN2gc4lang4TileERNS3_3est8JacobianENS3_6BufferESA_SA_EEE, 
                       __ZTINSt3__110__function6__baseIFvRKN2gc4lang4TileERNS3_3est8JacobianENS3_6BufferESA_SA_RSA_EEE, 
                       __ZTINSt3__110__function6__baseIFvRKN2gc4lang4TileERNS3_3est8JacobianENS3_6BufferESA_SA_SA_EEE, 
                       __ZTINSt3__110__function6__baseIFvRKN2gc4lang4TileERNS3_3est8JacobianENS3_6BufferESA_SA_SA_SA_EEE, 
                       __ZTINSt3__110__function6__baseIFvRKN2gc4lang4TileERNS3_3est8JacobianENS7_14FactorOrderingENS3_6BufferESB_EEE, 
                       __ZTINSt3__110__function6__baseIFvRKN2gc4lang4TileERNS3_3est8JacobianENS7_14FactorOrderingENS3_6BufferESB_SB_EEE, 
                       __ZTINSt3__110__function6__baseIFvRKN2gc4lang4TileERNS3_3est8JacobianENS7_14FactorOrderingENS3_6BufferESB_SB_SB_EEE, 
                       __ZTINSt3__110__function6__baseIFvRKN2gc4lang4TileERNS3_3est8JacobianENS7_14FactorOrderingESA_NS3_6BufferESB_SB_SB_SB_SB_EEE, 
                       __ZTINSt3__110__function6__baseIFvRKNS_6vectorIN2gc4ExprENS_9allocatorIS4_EEEEEEE, 
                       __ZTINSt3__110__function6__baseIFvvEEE, __ZTINSt3__110__function6__baseIFxvEEE, 
                       __ZTINSt3__110__function6__baseIFyvEEE, __ZTINSt3__110__function6__funcINS_8functionIFN2gc4util10TaggedBoolINS3_3est15IsEliminableTagEEERKNS6_8VariableEEEENS_9allocatorISD_EEFbSB_EEE, 
                       __ZTINSt3__110__function6__funcINS_8functionIFvN2gc4lang4TileEEEENS_9allocatorIS7_EEFvRKS5_EEE, 
                       __ZTINSt3__110__function6__funcINS_8functionIFvN2gc4lang4TileENS4_3est13BlockOrderingENS6_14FactorOrderingERNS6_8JacobianERNS6_11BlockMatrixEEEENS_9allocatorISE_EEFvRKS5_S7_S8_SA_SC_EEE, 
                       __ZTINSt3__110__function6__funcINS_8functionIFvN2gc4lang4TileENS4_3est13BlockOrderingENS6_14FactorOrderingES8_RNS6_11JacobianSetERNS6_11BlockMatrixEEEENS_9allocatorISE_EEFvRKS5_S7_S8_S8_SA_SC_EEE, 
                       __ZTINSt3__110__function6__funcINS_8functionIFvN2gc4lang4TileENS4_3est14FactorOrderingENS6_6FactorENS6_11VariableSetENS4_6ScalarERNS4_6BufferEEEENS_9allocatorISE_EEFvRKS5_S7_S8_S9_SA_SC_EEE, 
                       __ZTINSt3__110__function6__funcINS_8functionIFvN2gc4lang4TileENS4_3est14FactorOrderingERNS6_8JacobianENS4_6BufferESA_EEENS_9allocatorISC_EEFvRKS5_S7_S9_SA_SA_EEE, 
                       __ZTINSt3__110__function6__funcINS_8functionIFvN2gc4lang4TileENS4_3est6FactorENS4_6BufferENS4_5ArrayINS6_14FactorOrderingEEENS6_11VariableSetENS9_IS8_EESD_EEENS_9allocatorISF_EEFvRKS5_S7_S8_SB_SC_SD_SD_EEE, 
                       __ZTINSt3__110__function6__funcINS_8functionIFvN2gc4lang4TileENS4_3est6FactorENS6_11VariableSetENS4_6BufferEEEENS_9allocatorISB_EEFvRKS5_S7_S8_S9_EEE, 
                       __ZTINSt3__110__function6__funcINS_8functionIFvN2gc4lang4TileENS4_3est6FactorENS6_11VariableSetENS4_6BufferES9_EEENS_9allocatorISB_EEFvRKS5_S7_S8_S9_S9_EEE, 
                       __ZTINSt3__110__function6__funcINS_8functionIFvN2gc4lang4TileENS4_3est8VariableEEEENS_9allocatorIS9_EEFvRKS5_S7_EEE, 
                       __ZTINSt3__110__function6__funcINS_8functionIFvN2gc4lang4TileENS4_3est8VariableENS4_6ScalarEEEENS_9allocatorISA_EEFvRKS5_S7_S8_EEE, 
                       __ZTINSt3__110__function6__funcINS_8functionIFvN2gc4lang4TileENS4_5ArrayINS4_6BufferEEES8_EEENS_9allocatorISA_EEFvRKS5_S8_S8_EEE, 
                       __ZTINSt3__110__function6__funcINS_8functionIFvN2gc4lang4TileENS4_6BufferEEEENS_9allocatorIS8_EEFvRKS5_S6_EEE, 
                       __ZTINSt3__110__function6__funcINS_8functionIFvN2gc4lang4TileENS4_6BufferENS4_3est6FactorERNS7_11JacobianSetENS4_5ArrayIS6_EENSB_INS7_14FactorOrderingEEERNS7_16BlockMatrixArrayESC_EEENS_9allocatorISI_EEFvRKS5_S6_S8_SA_SC_SE_SG_SC_EEE, 
                       __ZTINSt3__110__function6__funcINS_8functionIFvN2gc4lang4TileENS4_6BufferENS4_3est8VariableEEEENS_9allocatorISA_EEFvRKS5_S6_S8_EEE, 
                       __ZTINSt3__110__function6__funcINS_8functionIFvN2gc4lang4TileENS4_6BufferENS4_5ArrayINS4_3est8VariableEEEEEENS_9allocatorISC_EEFvRKS5_S6_SA_EEE, 
                       __ZTINSt3__110__function6__funcINS_8functionIFvN2gc4lang4TileENS4_6BufferENS4_5ArrayIS6_EES8_NS4_3est6FactorERNS9_14FactorOrderingENS9_22SchurEliminatedHessianES6_EEENS_9allocatorISF_EEFvRKS5_S6_S8_S8_SA_SC_SD_S6_EEE, 
                       __ZTINSt3__110__function6__funcINS_8functionIFvN2gc4lang4TileENS4_6BufferENS4_6ScalarES6_EEENS_9allocatorIS9_EEFvRKS5_S6_S7_S6_EEE, 
                       __ZTINSt3__110__function6__funcINS_8functionIFvN2gc4lang4TileENS4_6BufferENS4_6ScalarES6_S6_EEENS_9allocatorIS9_EEFvRKS5_S6_S7_S6_S6_EEE, 
                       __ZTINSt3__110__function6__funcINS_8functionIFvN2gc4lang4TileENS4_6BufferENS4_6ScalarES7_S7_S7_S7_S6_S6_S6_EEENS_9allocatorIS9_EEFvRKS5_S6_S7_S7_S7_S7_S7_S6_S6_S6_EEE, 
                       __ZTINSt3__110__function6__funcINS_8functionIFvN2gc4lang4TileENS4_6BufferERNS4_3est8JacobianENS7_14FactorOrderingENS4_6ScalarES6_S6_EEENS_9allocatorISD_EEFvRKS5_S6_S9_SA_SB_S6_S6_EEE, 
                       __ZTINSt3__110__function6__funcINS_8functionIFvN2gc4lang4TileENS4_6BufferERNS4_3est8JacobianENS7_14FactorOrderingES6_S6_S6_S6_S6_EEENS_9allocatorISC_EEFvRKS5_S6_S9_SA_S6_S6_S6_S6_S6_EEE, 
                       __ZTINSt3__110__function6__funcINS_8functionIFvN2gc4lang4TileENS4_6BufferERNS4_3est8JacobianENS7_6FactorERNS7_11JacobianSetERNS7_14FactorOrderingES6_NS4_5ArrayIS6_EENSF_ISD_EERNS4_6ScalarERNS7_16BlockMatrixArrayENS7_22SchurEliminatedHessianESG_S6_S6_EEENS_9allocatorISO_EEFvRKS5_S6_S9_SA_SC_SE_S6_SG_SH_SJ_SL_SM_SG_S6_S6_EEE, 
                       __ZTINSt3__110__function6__funcINS_8functionIFvN2gc4lang4TileENS4_6BufferERNS4_3est8JacobianES6_S6_EEENS_9allocatorISB_EEFvRKS5_S6_S9_S6_S6_EEE, 
                       __ZTINSt3__110__function6__funcINS_8functionIFvN2gc4lang4TileENS4_6BufferES6_EEENS_9allocatorIS8_EEFvRKS5_S6_S6_EEE, 
                       __ZTINSt3__110__function6__funcINS_8functionIFvN2gc4lang4TileENS4_6BufferES6_NS4_5ArrayINS4_3est8VariableEEEEEENS_9allocatorISC_EEFvRKS5_S6_S6_SA_EEE, 
                       __ZTINSt3__110__function6__funcINS_8functionIFvN2gc4lang4TileENS4_6BufferES6_RNS4_3est8JacobianES6_S6_EEENS_9allocatorISB_EEFvRKS5_S6_S6_S9_S6_S6_EEE, 
                       __ZTINSt3__110__function6__funcINS_8functionIFvN2gc4lang4TileENS4_6BufferES6_S6_EEENS_9allocatorIS8_EEFvRKS5_S6_S6_S6_EEE, 
                       __ZTINSt3__110__function6__funcINS_8functionIFvN2gc4lang4TileENS4_6BufferES6_S6_S6_EEENS_9allocatorIS8_EEFvRKS5_S6_S6_S6_S6_EEE, 
                       __ZTINSt3__110__function6__funcINS_8functionIFvN2gc4lang4TileENS4_6BufferES6_S6_S6_S6_S6_S6_EEENS_9allocatorIS8_EEFvRKS5_S6_S6_S6_S6_S6_S6_S6_EEE, 
                       __ZTINSt3__110__function6__funcINS_8functionIFvN2gc4lang4TileENS4_6ScalarENS4_6BufferES7_EEENS_9allocatorIS9_EEFvRKS5_S6_S7_S7_EEE, 
                       __ZTINSt3__110__function6__funcINS_8functionIFvN2gc4lang4TileENS4_6ScalarERNS4_3est11BlockMatrixEEEENS_9allocatorISB_EEFvRKS5_S6_S9_EEE, 
                       __ZTINSt3__110__function6__funcINS_8functionIFvN2gc4lang4TileERNS4_3est11BlockMatrixEEEENS_9allocatorISA_EEFvRKS5_S8_EEE, 
                       __ZTINSt3__110__function6__funcINS_8functionIFvN2gc4lang4TileERNS4_3est11BlockMatrixENS4_6BufferES9_EEENS_9allocatorISB_EEFvRKS5_S8_S9_S9_EEE, 
                       __ZTINSt3__110__function6__funcINS_8functionIFvN2gc4lang4TileERNS4_3est11BlockMatrixENS4_6BufferES9_S9_EEENS_9allocatorISB_EEFvRKS5_S8_S9_S9_S9_EEE, 
                       __ZTINSt3__110__function6__funcINS_8functionIFvN2gc4lang4TileERNS4_3est11BlockMatrixENS4_6BufferES9_S9_RS9_EEENS_9allocatorISC_EEFvRKS5_S8_S9_S9_S9_SA_EEE, 
                       __ZTINSt3__110__function6__funcINS_8functionIFvN2gc4lang4TileERNS4_3est11JacobianSetENS4_5ArrayINS6_14FactorOrderingEEENS9_INS4_6BufferEEESD_SC_EEENS_9allocatorISF_EEFvRKS5_S8_SB_SD_SD_SC_EEE, 
                       __ZTINSt3__110__function6__funcINS_8functionIFvN2gc4lang4TileERNS4_3est14FactorOrderingENS4_6BufferERNS6_8JacobianES9_S9_EEENS_9allocatorISD_EEFvRKS5_S8_S9_SB_S9_S9_EEE, 
                       __ZTINSt3__110__function6__funcINS_8functionIFvN2gc4lang4TileERNS4_3est14FactorOrderingERNS6_8JacobianENS4_6BufferERSB_EEENS_9allocatorISE_EEFvRKS5_S8_SA_SB_SC_EEE, 
                       __ZTINSt3__110__function6__funcINS_8functionIFvN2gc4lang4TileERNS4_3est14FactorOrderingERNS6_8JacobianENS4_6BufferESB_EEENS_9allocatorISD_EEFvRKS5_S8_SA_SB_SB_EEE, 
                       __ZTINSt3__110__function6__funcINS_8functionIFvN2gc4lang4TileERNS4_3est14FactorOrderingERNS6_8JacobianENS4_6BufferESB_SB_EEENS_9allocatorISD_EEFvRKS5_S8_SA_SB_SB_SB_EEE, 
                       __ZTINSt3__110__function6__funcINS_8functionIFvN2gc4lang4TileERNS4_3est8JacobianENS4_6BufferES9_EEENS_9allocatorISB_EEFvRKS5_S8_S9_S9_EEE, 
                       __ZTINSt3__110__function6__funcINS_8functionIFvN2gc4lang4TileERNS4_3est8JacobianENS4_6BufferES9_S9_EEENS_9allocatorISB_EEFvRKS5_S8_S9_S9_S9_EEE, 
                       __ZTINSt3__110__function6__funcINS_8functionIFvN2gc4lang4TileERNS4_3est8JacobianENS4_6BufferES9_S9_RS9_EEENS_9allocatorISC_EEFvRKS5_S8_S9_S9_S9_SA_EEE, 
                       __ZTINSt3__110__function6__funcINS_8functionIFvN2gc4lang4TileERNS4_3est8JacobianENS4_6BufferES9_S9_S9_EEENS_9allocatorISB_EEFvRKS5_S8_S9_S9_S9_S9_EEE, 
                       __ZTINSt3__110__function6__funcINS_8functionIFvN2gc4lang4TileERNS4_3est8JacobianENS4_6BufferES9_S9_S9_S9_EEENS_9allocatorISB_EEFvRKS5_S8_S9_S9_S9_S9_S9_EEE, 
                       __ZTINSt3__110__function6__funcINS_8functionIFvN2gc4lang4TileERNS4_3est8JacobianENS6_14FactorOrderingENS4_6BufferESA_EEENS_9allocatorISC_EEFvRKS5_S8_S9_SA_SA_EEE, 
                       __ZTINSt3__110__function6__funcINS_8functionIFvN2gc4lang4TileERNS4_3est8JacobianENS6_14FactorOrderingENS4_6BufferESA_SA_EEENS_9allocatorISC_EEFvRKS5_S8_S9_SA_SA_SA_EEE, 
                       __ZTINSt3__110__function6__funcINS_8functionIFvN2gc4lang4TileERNS4_3est8JacobianENS6_14FactorOrderingENS4_6BufferESA_SA_SA_EEENS_9allocatorISC_EEFvRKS5_S8_S9_SA_SA_SA_SA_EEE, 
                       __ZTINSt3__110__function6__funcINS_8functionIFvN2gc4lang4TileERNS4_3est8JacobianENS6_14FactorOrderingES9_NS4_6BufferESA_SA_SA_SA_SA_EEENS_9allocatorISC_EEFvRKS5_S8_S9_S9_SA_SA_SA_SA_SA_SA_EEE, 
                       __ZTINSt3__110__function6__funcIZN2gc15ScalarInvariant6createINS2_6ExtentEEENS_10shared_ptrINS2_17BindableInvariantEEENS_8functionIFT_vEEENS_6vectorINS6_INS2_6BufferEEENS_9allocatorISF_EEEEEUlvE_NSG_ISJ_EEFdvEEE, 
                       __ZTINSt3__110__function6__funcIZN2gc24FunctionOfRangeInvariant6createENS_10shared_ptrINS2_6BufferEEENS_8functionIFNS2_12BlockExtentsERKS8_EEEEUlRKNS_6vectorIS8_NS_9allocatorIS8_EEEEE_NSE_ISJ_EEFS8_SI_EEE, 
                       __ZTINSt3__110__function6__funcIZN2gc24FunctionOfShapeInvariant6createENS_10shared_ptrINS2_6BufferEEENS_8functionIFNS2_5ShapeERKS8_EEEEUlRKNS_6vectorIS8_NS_9allocatorIS8_EEEEE_NSE_ISJ_EEFS8_SI_EEE, 
                       __ZTINSt3__110__function6__funcIZN2gc26FunctionOfElementInvariant6createENS_10shared_ptrINS2_6BufferEEENS_8functionIFNS2_14ElementExtentsERKS8_EEEEUlRKNS_6vectorIS8_NS_9allocatorIS8_EEEEE_NSE_ISJ_EEFS8_SI_EEE, 
                       __ZTINSt3__110__function6__funcIZN2gc3est10EvaluateHp10kernelFuncEvEUlNS2_4lang4TileERNS5_3est11BlockMatrixENS5_6BufferESA_SA_RSA_E_NS_9allocatorISC_EEFvS6_S9_SA_SA_SA_SB_EEE, 
                       __ZTINSt3__110__function6__funcIZN2gc3est10EvaluateHp19kernelFuncNoOffsetsEvEUlNS2_4lang4TileERNS5_3est11BlockMatrixENS5_6BufferESA_E_NS_9allocatorISB_EEFvS6_S9_SA_SA_EEE, 
                       __ZTINSt3__110__function6__funcIZN2gc3est10EvaluateJp10kernelFuncEjEUlNS2_4lang4TileENS5_6BufferES7_RNS5_3est8JacobianES7_S7_E_NS_9allocatorISB_EEFvS6_S7_S7_SA_S7_S7_EEE, 
                       __ZTINSt3__110__function6__funcIZN2gc3est10EvaluateJp18kernelFuncUnsortedEjEUlNS2_4lang4TileENS5_6BufferERNS5_3est8JacobianES7_S7_E_NS_9allocatorISB_EEFvS6_S7_SA_S7_S7_EEE, 
                       __ZTINSt3__110__function6__funcIZN2gc3est10EvaluateJp18kernelFuncVariadicEjEUlNS2_4lang4TileERNS5_3est14FactorOrderingENS5_6BufferERNS7_8JacobianESA_SA_E_NS_9allocatorISD_EEFvS6_S9_SA_SC_SA_SA_EEE, 
                       __ZTINSt3__110__function6__funcIZN2gc3est10EvaluateJp19kernelFuncNoOffsetsEjEUlNS2_4lang4TileENS5_6BufferERNS5_3est8JacobianES7_S7_E_NS_9allocatorISB_EEFvS6_S7_SA_S7_S7_EEE, 
                       __ZTINSt3__110__function6__funcIZN2gc3est10EvaluateJp27kernelFuncUnsortedNoOffsetsEjEUlNS2_4lang4TileERNS5_3est8JacobianENS5_6BufferESA_E_NS_9allocatorISB_EEFvS6_S9_SA_SA_EEE, 
                       __ZTINSt3__110__function6__funcIZN2gc3est10EvaluateJp27kernelFuncVariadicNoOffsetsEjEUlNS2_4lang4TileERNS5_3est14FactorOrderingERNS7_8JacobianENS5_6BufferESC_E_NS_9allocatorISD_EEFvS6_S9_SB_SC_SC_EEE, 
                       __ZTINSt3__110__function6__funcIZN2gc3est11EvaluateJtJ18kernelFuncDiagonalEvEUlNS2_4lang4TileENS5_3est13BlockOrderingENS7_14FactorOrderingERNS7_8JacobianERNS7_11BlockMatrixEE_NS_9allocatorISE_EEFvS6_S8_S9_SB_SD_EEE, 
                       __ZTINSt3__110__function6__funcIZN2gc3est11EvaluateJtJ21kernelFuncOffDiagonalEvEUlNS2_4lang4TileENS5_3est13BlockOrderingENS7_14FactorOrderingES9_RNS7_11JacobianSetERNS7_11BlockMatrixEE_NS_9allocatorISE_EEFvS6_S8_S9_S9_SB_SD_EEE, 
                       __ZTINSt3__110__function6__funcIZN2gc3est11EvaluateJte10kernelFuncEvEUlNS2_4lang4TileENS5_3est14FactorOrderingERNS7_8JacobianENS5_6BufferESB_E_NS_9allocatorISC_EEFvS6_S8_SA_SB_SB_EEE, 
                       __ZTINSt3__110__function6__funcIZN2gc3est11PCGIterate110kernelFuncEvEUlNS2_4lang4TileENS5_6BufferES7_S7_S7_S7_S7_S7_E_NS_9allocatorIS8_EEFvS6_S7_S7_S7_S7_S7_S7_S7_EEE, 
                       __ZTINSt3__110__function6__funcIZN2gc3est11PCGIterate210kernelFuncEvEUlNS2_4lang4TileENS5_6BufferES7_S7_E_NS_9allocatorIS8_EEFvS6_S7_S7_S7_EEE, 
                       __ZTINSt3__110__function6__funcIZN2gc3est12EvaluateJtJp10kernelFuncEjEUlNS2_4lang4TileERNS5_3est14FactorOrderingERNS7_8JacobianENS5_6BufferERSC_E_NS_9allocatorISE_EEFvS6_S9_SB_SC_SD_EEE, 
                       __ZTINSt3__110__function6__funcIZN2gc3est12EvaluateJteM10kernelFuncEvEUlNS2_4lang4TileERNS5_3est14FactorOrderingERNS7_8JacobianENS5_6BufferESC_SC_E_NS_9allocatorISD_EEFvS6_S9_SB_SC_SC_SC_EEE, 
                       __ZTINSt3__110__function6__funcIZN2gc3est12InvertBlockM10kernelFuncEvEUlNS2_4lang4TileENS5_6BufferES7_E_NS_9allocatorIS8_EEFvS6_S7_S7_EEE, 
                       __ZTINSt3__110__function6__funcIZN2gc3est14EvaluateBlockM10kernelFuncEvEUlNS2_4lang4TileERNS5_3est14FactorOrderingERNS7_8JacobianENS5_6BufferESC_E_NS_9allocatorISD_EEFvS6_S9_SB_SC_SC_EEE, 
                       __ZTINSt3__110__function6__funcIZN2gc3est14ExtractDiagJtJ10kernelFuncEvEUlNS2_4lang4TileERNS5_3est11BlockMatrixENS5_6BufferESA_SA_E_NS_9allocatorISB_EEFvS6_S9_SA_SA_SA_EEE, 
                       __ZTINSt3__110__function6__funcIZN2gc3est14ExtractDiagJtJ19kernelFuncNoOffsetsEvEUlNS2_4lang4TileERNS5_3est11BlockMatrixENS5_6BufferESA_E_NS_9allocatorISB_EEFvS6_S9_SA_SA_EEE, 
                       __ZTINSt3__110__function6__funcIZN2gc3est14SchurLinearize16factorKernelFuncERKNS_6vectorINS3_13ArgumentGroupENS_9allocatorIS6_EEEERKNS_3mapINS_12basic_stringIcNS_11char_traitsIcEENS7_IcEEEEjNS_4lessISH_EENS7_INS_4pairIKSH_jEEEEEEbEUlNS2_4lang4TileENSR_6BufferENSR_3est6FactorERNSU_11JacobianSetENSR_5ArrayIST_EENSY_INSU_14FactorOrderingEEERNSU_16BlockMatrixArrayESZ_E_NS7_IS14_EEFvSS_ST_SV_SX_SZ_S11_S13_SZ_EEE, 
                       __ZTINSt3__110__function6__funcIZN2gc3est14SchurLinearize28eliminatedVariableKernelFuncERKNS_6vectorINS3_13ArgumentGroupENS_9allocatorIS6_EEEERKNS_3mapINS_12basic_stringIcNS_11char_traitsIcEENS7_IcEEEEjNS_4lessISH_EENS7_INS_4pairIKSH_jEEEEEEbEUlNS2_4lang4TileENSR_6BufferERNSR_3est8JacobianENSU_6FactorERNSU_11JacobianSetERNSU_14FactorOrderingEST_NSR_5ArrayIST_EENS12_IS10_EERNSR_6ScalarERNSU_16BlockMatrixArrayENSU_22SchurEliminatedHessianES13_ST_ST_E_NS7_IS1A_EEFvSS_ST_SW_SX_SZ_S11_ST_S13_S14_S16_S18_S19_S13_ST_ST_EEE, 
                       __ZTINSt3__110__function6__funcIZN2gc3est17SymmetrizeDiagJtJ10kernelFuncEvEUlNS2_4lang4TileERNS5_3est11BlockMatrixEE_NS_9allocatorISA_EEFvS6_S9_EEE, 
                       __ZTINSt3__110__function6__funcIZN2gc3est18ImplicitSchurJtJp110kernelFuncEvEUlNS2_4lang4TileERNS5_3est8JacobianENS7_14FactorOrderingENS5_6BufferESB_E_NS_9allocatorISC_EEFvS6_S9_SA_SB_SB_EEE, 
                       __ZTINSt3__110__function6__funcIZN2gc3est18ImplicitSchurJtJp210kernelFuncEjEUlNS2_4lang4TileERNS5_3est8JacobianENS5_6BufferESA_SA_SA_SA_E_NS_9allocatorISB_EEFvS6_S9_SA_SA_SA_SA_SA_EEE, 
                       __ZTINSt3__110__function6__funcIZN2gc3est18ImplicitSchurJtJp218kernelFuncUnsortedEjEUlNS2_4lang4TileERNS5_3est8JacobianENS5_6BufferESA_SA_SA_E_NS_9allocatorISB_EEFvS6_S9_SA_SA_SA_SA_EEE, 
                       __ZTINSt3__110__function6__funcIZN2gc3est18ImplicitSchurJtJp218kernelFuncVariadicEjEUlNS2_4lang4TileERNS5_3est8JacobianENS7_14FactorOrderingENS5_6BufferESB_SB_SB_E_NS_9allocatorISC_EEFvS6_S9_SA_SB_SB_SB_SB_EEE, 
                       __ZTINSt3__110__function6__funcIZN2gc3est18ImplicitSchurJtJp219kernelFuncNoOffsetsEjEUlNS2_4lang4TileERNS5_3est8JacobianENS5_6BufferESA_SA_RSA_E_NS_9allocatorISC_EEFvS6_S9_SA_SA_SA_SB_EEE, 
                       __ZTINSt3__110__function6__funcIZN2gc3est18ImplicitSchurJtJp227kernelFuncUnsortedNoOffsetsEjEUlNS2_4lang4TileERNS5_3est8JacobianENS5_6BufferESA_SA_E_NS_9allocatorISB_EEFvS6_S9_SA_SA_SA_EEE, 
                       __ZTINSt3__110__function6__funcIZN2gc3est18ImplicitSchurJtJp227kernelFuncVariadicNoOffsetsEjEUlNS2_4lang4TileERNS5_3est8JacobianENS7_14FactorOrderingENS5_6BufferESB_SB_E_NS_9allocatorISC_EEFvS6_S9_SA_SB_SB_SB_EEE, 
                       __ZTINSt3__110__function6__funcIZN2gc3est20MaterializeJacobians10kernelFuncERKNS3_16ArgumentGroupingERKNS_6vectorINS3_13eJacobianTypeENS_9allocatorIS9_EEEEEUlNS2_4lang4TileENSF_3est6FactorENSF_6BufferENSF_5ArrayINSH_14FactorOrderingEEENSH_11VariableSetENSK_ISJ_EESO_E_NSA_ISP_EEFvSG_SI_SJ_SM_SN_SO_SO_EEE, 
                       __ZTINSt3__110__function6__funcIZN2gc3est20SchurBackSubstitute110kernelFuncERKNS_6vectorINS3_13ArgumentGroupENS_9allocatorIS6_EEEERKNS_3mapINS_12basic_stringIcNS_11char_traitsIcEENS7_IcEEEEjNS_4lessISH_EENS7_INS_4pairIKSH_jEEEEEEbEUlNS2_4lang4TileENSR_6BufferENSR_5ArrayIST_EESV_NSR_3est6FactorERNSW_14FactorOrderingENSW_22SchurEliminatedHessianEST_E_NS7_IS11_EEFvSS_ST_SV_SV_SX_SZ_S10_ST_EEE, 
                       __ZTINSt3__110__function6__funcIZN2gc3est20SchurBackSubstitute210kernelFuncEvEUlNS2_4lang4TileENS5_6BufferES7_E_NS_9allocatorIS8_EEFvS6_S7_S7_EEE, 
                       __ZTINSt3__110__function6__funcIZN2gc3est22EvaluateBatchGradients10kernelFuncERKNS3_13ArgumentGroupENS3_13eJacobianTypeEEUlNS2_4lang4TileENS9_3est14FactorOrderingENSB_6FactorENSB_11VariableSetENS9_6ScalarERNS9_6BufferEE_NS_9allocatorISI_EEFvSA_SC_SD_SE_SF_SH_EEE, 
                       __ZTINSt3__110__function6__funcIZN2gc3est24ImplicitSchurInitialize110kernelFuncEvEUlNS2_4lang4TileENS5_6BufferERNS5_3est8JacobianENS8_14FactorOrderingENS5_6ScalarES7_S7_E_NS_9allocatorISD_EEFvS6_S7_SA_SB_SC_S7_S7_EEE, 
                       __ZTINSt3__110__function6__funcIZN2gc3est24ImplicitSchurInitialize210kernelFuncEjEUlNS2_4lang4TileENS5_6BufferERNS5_3est8JacobianENS8_14FactorOrderingES7_S7_S7_S7_S7_E_NS_9allocatorISC_EEFvS6_S7_SA_SB_S7_S7_S7_S7_S7_EEE, 
                       __ZTINSt3__110__function6__funcIZN2gc3est24ImplicitSchurInitialize310kernelFuncEvEUlNS2_4lang4TileERNS5_3est8JacobianENS7_14FactorOrderingESA_NS5_6BufferESB_SB_SB_SB_SB_E_NS_9allocatorISC_EEFvS6_S9_SA_SA_SB_SB_SB_SB_SB_SB_EEE, 
                       __ZTINSt3__110__function6__funcIZN2gc3est25ApplyJacobiPreconditioner10kernelFuncEvEUlNS2_4lang4TileENS5_6BufferES7_S7_E_NS_9allocatorIS8_EEFvS6_S7_S7_S7_EEE, 
                       __ZTINSt3__110__function6__funcIZN2gc3est28ImplicitSchurBackSubstitute110kernelFuncERKNS_6vectorINS3_13ArgumentGroupENS_9allocatorIS6_EEEERKNS_3mapINS_12basic_stringIcNS_11char_traitsIcEENS7_IcEEEEjNS_4lessISH_EENS7_INS_4pairIKSH_jEEEEEEEUlNS2_4lang4TileERNSR_3est11JacobianSetENSR_5ArrayINST_14FactorOrderingEEENSW_INSR_6BufferEEES10_SZ_E_NS7_IS11_EEFvSS_SV_SY_S10_S10_SZ_EEE, 
                       __ZTINSt3__110__function6__funcIZN2gc3est28ImplicitSchurBackSubstitute210kernelFuncEvEUlNS2_4lang4TileENS5_6BufferES7_S7_S7_E_NS_9allocatorIS8_EEFvS6_S7_S7_S7_S7_EEE, 
                       __ZTINSt3__110__function6__funcIZN2gc3est30ApplyAdditiveLMDampingExplicit10kernelFuncEvEUlNS2_4lang4TileENS5_6ScalarERNS5_3est11BlockMatrixEE_NS_9allocatorISB_EEFvS6_S7_SA_EEE, 
                       __ZTINSt3__110__function6__funcIZN2gc3est30ApplyAdditiveLMDampingImplicit10kernelFuncEvEUlNS2_4lang4TileENS5_6BufferENS5_6ScalarES7_E_NS_9allocatorIS9_EEFvS6_S7_S8_S7_EEE, 
                       __ZTINSt3__110__function6__funcIZN2gc3est30ApplyBlockJacobiPreconditioner10kernelFuncEvEUlNS2_4lang4TileENS5_6BufferES7_S7_E_NS_9allocatorIS8_EEFvS6_S7_S7_S7_EEE, 
                       __ZTINSt3__110__function6__funcIZN2gc3est33ApplyAdditiveLMDampingToDiagonals10kernelFuncEvEUlNS2_4lang4TileENS5_6ScalarENS5_6BufferES8_E_NS_9allocatorIS9_EEFvS6_S7_S8_S8_EEE, 
                       __ZTINSt3__110__function6__funcIZN2gc3est36ApplyMultiplicativeLMDampingExplicit10kernelFuncEvEUlNS2_4lang4TileENS5_6ScalarERNS5_3est11BlockMatrixEE_NS_9allocatorISB_EEFvS6_S7_SA_EEE, 
                       __ZTINSt3__110__function6__funcIZN2gc3est36ApplyMultiplicativeLMDampingImplicit10kernelFuncEvEUlNS2_4lang4TileENS5_6BufferENS5_6ScalarES7_S7_E_NS_9allocatorIS9_EEFvS6_S7_S8_S7_S7_EEE, 
                       __ZTINSt3__110__function6__funcIZN2gc3est39ApplyMultiplicativeLMDampingToDiagonals10kernelFuncEvEUlNS2_4lang4TileENS5_6ScalarENS5_6BufferES8_E_NS_9allocatorIS9_EEFvS6_S7_S8_S8_EEE, 
                       __ZTINSt3__110__function6__funcIZN2gc3est7InvertM10kernelFuncEvEUlNS2_4lang4TileENS5_6BufferES7_E_NS_9allocatorIS8_EEFvS6_S7_S7_EEE, 
                       __ZTINSt3__110__function6__funcIZN2gc3ops11AddAssignTTC1EvEUlNS2_4lang4TileENS5_6BufferES7_E_NS_9allocatorIS8_EEFvS6_S7_S7_EEE, 
                       __ZTINSt3__110__function6__funcIZN2gc3ops12PreIncrement6kernelERKNS2_8ScheduleEEUlNS2_4lang4TileENS8_6BufferEE_NS_9allocatorISB_EEFvS9_SA_EEE, 
                       __ZTINSt3__110__function6__funcIZN2gc3ops16AutoDiffBackprop6kernelERKNS2_8ScheduleEEUlNS2_4StmtEE_NS_9allocatorIS9_EEFS8_S8_EEE, 
                       __ZTINSt3__110__function6__funcIZN2gc3ops4Copy6kernelERKNS2_8ScheduleEEUlNS2_4lang4TileENS8_6BufferESA_E_NS_9allocatorISB_EEFvS9_SA_SA_EEE, 
                       __ZTINSt3__110__function6__funcIZN2gc3ops6detail12ScatterZeros6kernelERKNS2_8ScheduleEEUlNS2_4lang4TileENS9_6BufferESB_SB_E_NS_9allocatorISC_EEFvSA_SB_SB_SB_EEE, 
                       __ZTINSt3__110__function6__funcIZN2gc3ops6detail9VarAssign6kernelERKNS2_8ScheduleEEUlNS2_4lang4TileENS9_6BufferESB_E_NS_9allocatorISC_EEFvSA_SB_SB_EEE, 
                       __ZTINSt3__110__function6__funcIZN2gc4lang3est11BlockMatrix13forEachColumnIZZNS2_3est10EvaluateHp19kernelFuncNoOffsetsEvENKUlNS3_4TileERS5_NS3_6BufferESB_E_clES9_SA_SB_SB_EUlNS2_4ExprENS3_6MatrixEE_EEvRKSD_OT_EUlSI_E_NS_9allocatorISK_EEFvSH_EEE, 
                       __ZTINSt3__110__function6__funcIZN2gc4lang3est11BlockMatrix13forEachColumnIZZNS2_3est14ExtractDiagJtJ10kernelFuncEvENKUlNS3_4TileERS5_NS3_6BufferESB_SB_E_clES9_SA_SB_SB_SB_EUlNS2_4ExprENS3_6MatrixEE_EEvRKSD_OT_EUlSI_E_NS_9allocatorISK_EEFvSH_EEE, 
                       __ZTINSt3__110__function6__funcIZN2gc4lang3est11BlockMatrix13forEachColumnIZZNS2_3est14ExtractDiagJtJ19kernelFuncNoOffsetsEvENKUlNS3_4TileERS5_NS3_6BufferESB_E_clES9_SA_SB_SB_EUlNS2_4ExprENS3_6MatrixEE_EEvRKSD_OT_EUlSI_E_NS_9allocatorISK_EEFvSH_EEE, 
                       __ZTINSt3__110__function6__funcIZN2gc4lang3est11BlockMatrix13forEachColumnIZZNS2_3est17SymmetrizeDiagJtJ10kernelFuncEvENKUlNS3_4TileERS5_E_clES9_SA_EUlNS2_4ExprENS3_6MatrixEE_EEvRKSC_OT_EUlSH_E_NS_9allocatorISJ_EEFvSG_EEE, 
                       __ZTINSt3__110__function6__funcIZN2gc4lang3est11BlockMatrix13forEachColumnIZZNS2_3est30ApplyAdditiveLMDampingExplicit10kernelFuncEvENKUlNS3_4TileENS3_6ScalarERS5_E_clES9_SA_SB_EUlNS2_4ExprENS3_6MatrixEE_EEvRKSD_OT_EUlSI_E_NS_9allocatorISK_EEFvSH_EEE, 
                       __ZTINSt3__110__function6__funcIZN2gc4lang3est11BlockMatrix13forEachColumnIZZNS2_3est36ApplyMultiplicativeLMDampingExplicit10kernelFuncEvENKUlNS3_4TileENS3_6ScalarERS5_E_clES9_SA_SB_EUlNS2_4ExprENS3_6MatrixEE_EEvRKSD_OT_EUlSI_E_NS_9allocatorISK_EEFvSH_EEE, 
                       __ZTINSt3__110__function6__funcIZN2gc4lang3est11BlockMatrix13forEachColumnIZZZNS2_3est10EvaluateHp10kernelFuncEvENKUlNS3_4TileERS5_NS3_6BufferESB_SB_RSB_E_clES9_SA_SB_SB_SB_SC_ENKUlvE_clEvEUlNS2_4ExprENS3_6MatrixEE_EEvRKSF_OT_EUlSK_E_NS_9allocatorISM_EEFvSJ_EEE, 
                       __ZTINSt3__110__function6__funcIZN2gc4lang4simd22SIMDInnerProductMatrixC1ERKNS3_6BufferERKNS4_16MatMulParameters11InputMatrixERKNS_6vectorINS2_4ExprENS_9allocatorISE_EEEEEUlSJ_E_NSF_ISK_EEFNS3_6TensorESJ_EEE, 
                       __ZTINSt3__110__function6__funcIZN2gc4lang4simd25GeneralInnerProductMatrixC1ERKNS3_6BufferERKNS4_16MatMulParameters11InputMatrixEEUlRKNS_6vectorINS2_4ExprENS_9allocatorISE_EEEEE_NSF_ISK_EEFNS3_6TensorESJ_EEE, 
                       __ZTINSt3__110__function6__funcIZN2gc4lang4simd27SIMDInnerProductAccumulatorC1ENS_10shared_ptrINS4_18InnerProductMatrixEEES8_RNS3_6BufferERKNS4_16MatMulParametersENS2_4ExprERKNS_6vectorISE_NS_9allocatorISE_EEEEEUlSK_E0_NSG_ISL_EEFvSK_EEE, 
                       __ZTINSt3__110__function6__funcIZN2gc4lang4simd27SIMDInnerProductAccumulatorC1ENS_10shared_ptrINS4_18InnerProductMatrixEEES8_RNS3_6BufferERKNS4_16MatMulParametersENS2_4ExprERKNS_6vectorISE_NS_9allocatorISE_EEEEEUlSK_E_NSG_ISL_EEFvSK_EEE, 
                       __ZTINSt3__110__function6__funcIZN2gc4lang4simd28SIMDCachedInnerProductMatrixC1ERKNS3_6BufferERKNS4_16MatMulParameters11InputMatrixERKNS9_7CachingENS2_4ExprERKNS_6vectorISG_NS_9allocatorISG_EEEESM_SM_EUlSM_E_NSI_ISN_EEFNS3_6TensorESM_EEE, 
                       __ZTINSt3__110__function6__funcIZN2gc4lang4simd28SIMDCachedInnerProductMatrixC1ERKNS3_6BufferERKNS4_16MatMulParameters11InputMatrixERKNS9_7CachingENS2_4ExprERKNS_6vectorISG_NS_9allocatorISG_EEEESM_SM_EUlT_E_NSI_ISO_EEFvRKSG_EEE, 
                       __ZTINSt3__110__function6__funcIZN2gc4lang4simd29LargeKInnerProductAccumulatorC1ENS_10shared_ptrINS4_18InnerProductMatrixEEES8_RNS3_6BufferERKNS4_16MatMulParametersENS2_4ExprERKNS_6vectorISE_NS_9allocatorISE_EEEESK_SK_EUlSK_E0_NSG_ISL_EEFvSK_EEE, 
                       __ZTINSt3__110__function6__funcIZN2gc4lang4simd29LargeKInnerProductAccumulatorC1ENS_10shared_ptrINS4_18InnerProductMatrixEEES8_RNS3_6BufferERKNS4_16MatMulParametersENS2_4ExprERKNS_6vectorISE_NS_9allocatorISE_EEEESK_SK_EUlSK_E_NSG_ISL_EEFvSK_EEE, 
                       __ZTINSt3__110__function6__funcIZN2gc4lang4simd29SmallKInnerProductAccumulatorC1ENS_10shared_ptrINS4_18InnerProductMatrixEEES8_RNS3_6BufferERKNS4_16MatMulParametersENS2_4ExprERKNS_6vectorISE_NS_9allocatorISE_EEEESK_SK_EUlSK_E0_NSG_ISL_EEFvSK_EEE, 
                       __ZTINSt3__110__function6__funcIZN2gc4lang4simd29SmallKInnerProductAccumulatorC1ENS_10shared_ptrINS4_18InnerProductMatrixEEES8_RNS3_6BufferERKNS4_16MatMulParametersENS2_4ExprERKNS_6vectorISE_NS_9allocatorISE_EEEESK_SK_EUlSK_E_NSG_ISL_EEFvSK_EEE, 
                       __ZTINSt3__110__function6__funcIZN2gc4lang4simd30GeneralInnerProductAccumulatorC1ENS_10shared_ptrINS4_18InnerProductMatrixEEES8_RNS3_6BufferENS2_4ExprEEUlRKNS_6vectorISB_NS_9allocatorISB_EEEEE0_NSD_ISI_EEFvSH_EEE, 
                       __ZTINSt3__110__function6__funcIZN2gc4lang4simd30GeneralInnerProductAccumulatorC1ENS_10shared_ptrINS4_18InnerProductMatrixEEES8_RNS3_6BufferENS2_4ExprEEUlRKNS_6vectorISB_NS_9allocatorISB_EEEEE_NSD_ISI_EEFvSH_EEE, 
                       __ZTINSt3__110__function6__funcIZNK2gc4lang3est13BlockOrdering13forEachFactorIZZNS2_3est11EvaluateJtJ18kernelFuncDiagonalEvENKUlNS3_4TileES5_NS4_14FactorOrderingERNS4_8JacobianERNS4_11BlockMatrixEE_clES9_S5_SA_SC_SE_EUlNS2_4ExprEE_EEvRKSG_OT_EUlSK_E_NS_9allocatorISM_EEFvSJ_EEE, 
                       __ZTINSt3__110__function6__funcIZNK2gc4lang3est13BlockOrdering13forEachFactorIZZNS2_3est11EvaluateJtJ21kernelFuncOffDiagonalEvENKUlNS3_4TileES5_NS4_14FactorOrderingESA_RNS4_11JacobianSetERNS4_11BlockMatrixEE_clES9_S5_SA_SA_SC_SE_EUlNS2_4ExprEE_EEvRKSG_OT_EUlSK_E_NS_9allocatorISM_EEFvSJ_EEE, 
                       __ZTINSt3__110__function6__funcIZZN2gc3est10EvaluateHp10kernelFuncEvENKUlNS2_4lang4TileERNS5_3est11BlockMatrixENS5_6BufferESA_SA_RSA_E_clES6_S9_SA_SA_SA_SB_EUlvE_NS_9allocatorISD_EEFvvEEE, 
                       __ZTINSt3__110__function6__funcIZZN2gc3est10EvaluateJp18kernelFuncUnsortedEjENKUlNS2_4lang4TileENS5_6BufferERNS5_3est8JacobianES7_S7_E_clES6_S7_SA_S7_S7_EUlvE_NS_9allocatorISC_EEFvvEEE, 
                       __ZTINSt3__110__function6__funcIZZN2gc3est10EvaluateJp18kernelFuncVariadicEjENKUlNS2_4lang4TileERNS5_3est14FactorOrderingENS5_6BufferERNS7_8JacobianESA_SA_E_clES6_S9_SA_SC_SA_SA_EUlNS2_4ExprEE_NS_9allocatorISF_EEFvSE_EEE, 
                       __ZTINSt3__110__function6__funcIZZN2gc3est10EvaluateJp27kernelFuncVariadicNoOffsetsEjENKUlNS2_4lang4TileERNS5_3est14FactorOrderingERNS7_8JacobianENS5_6BufferESC_E_clES6_S9_SB_SC_SC_EUlNS2_4ExprEE_NS_9allocatorISF_EEFvSE_EEE, 
                       __ZTINSt3__110__function6__funcIZZN2gc3est11EvaluateJte10kernelFuncEvENKUlNS2_4lang4TileENS5_3est14FactorOrderingERNS7_8JacobianENS5_6BufferESB_E_clES6_S8_SA_SB_SB_EUlNS2_4ExprESD_E_NS_9allocatorISE_EEFvSD_SD_EEE, 
                       __ZTINSt3__110__function6__funcIZZN2gc3est12EvaluateJtJp10kernelFuncEjENKUlNS2_4lang4TileERNS5_3est14FactorOrderingERNS7_8JacobianENS5_6BufferERSC_E_clES6_S9_SB_SC_SD_EUlNS2_4ExprESF_E_NS_9allocatorISG_EEFvSF_SF_EEE, 
                       __ZTINSt3__110__function6__funcIZZN2gc3est12EvaluateJteM10kernelFuncEvENKUlNS2_4lang4TileERNS5_3est14FactorOrderingERNS7_8JacobianENS5_6BufferESC_SC_E_clES6_S9_SB_SC_SC_SC_EUlNS2_4ExprESE_E_NS_9allocatorISF_EEFvSE_SE_EEE, 
                       __ZTINSt3__110__function6__funcIZZN2gc3est12InvertBlockM10kernelFuncEvENKUlNS2_4lang4TileENS5_6BufferES7_E_clES6_S7_S7_EUlT_E_NS_9allocatorISA_EEFvRKNS2_4ExprEEEE, 
                       __ZTINSt3__110__function6__funcIZZN2gc3est12InvertBlockM10kernelFuncEvENKUlNS2_4lang4TileENS5_6BufferES7_E_clES6_S7_S7_EUlvE0_NS_9allocatorIS9_EEFvvEEE, 
                       __ZTINSt3__110__function6__funcIZZN2gc3est12InvertBlockM10kernelFuncEvENKUlNS2_4lang4TileENS5_6BufferES7_E_clES6_S7_S7_EUlvE_NS_9allocatorIS9_EEFvvEEE, 
                       __ZTINSt3__110__function6__funcIZZN2gc3est14EvaluateBlockM10kernelFuncEvENKUlNS2_4lang4TileERNS5_3est14FactorOrderingERNS7_8JacobianENS5_6BufferESC_E_clES6_S9_SB_SC_SC_EUlNS2_4ExprESE_E_NS_9allocatorISF_EEFvSE_SE_EEE, 
                       __ZTINSt3__110__function6__funcIZZN2gc3est14SchurLinearize16factorKernelFuncERKNS_6vectorINS3_13ArgumentGroupENS_9allocatorIS6_EEEERKNS_3mapINS_12basic_stringIcNS_11char_traitsIcEENS7_IcEEEEjNS_4lessISH_EENS7_INS_4pairIKSH_jEEEEEEbENKUlNS2_4lang4TileENSR_6BufferENSR_3est6FactorERNSU_11JacobianSetENSR_5ArrayIST_EENSY_INSU_14FactorOrderingEEERNSU_16BlockMatrixArrayESZ_E_clESS_ST_SV_SX_SZ_S11_S13_SZ_EUlvE_NS7_IS15_EEFvvEEE, 
                       __ZTINSt3__110__function6__funcIZZN2gc3est14SchurLinearize28eliminatedVariableKernelFuncERKNS_6vectorINS3_13ArgumentGroupENS_9allocatorIS6_EEEERKNS_3mapINS_12basic_stringIcNS_11char_traitsIcEENS7_IcEEEEjNS_4lessISH_EENS7_INS_4pairIKSH_jEEEEEEbENKUlNS2_4lang4TileENSR_6BufferERNSR_3est8JacobianENSU_6FactorERNSU_11JacobianSetERNSU_14FactorOrderingEST_NSR_5ArrayIST_EENS12_IS10_EERNSR_6ScalarERNSU_16BlockMatrixArrayENSU_22SchurEliminatedHessianES13_ST_ST_E_clESS_ST_SW_SX_SZ_S11_ST_S13_S14_S16_S18_S19_S13_ST_ST_EUlNS2_4ExprEE0_NS7_IS1C_EEFvRKS1B_EEE, 
                       __ZTINSt3__110__function6__funcIZZN2gc3est14SchurLinearize28eliminatedVariableKernelFuncERKNS_6vectorINS3_13ArgumentGroupENS_9allocatorIS6_EEEERKNS_3mapINS_12basic_stringIcNS_11char_traitsIcEENS7_IcEEEEjNS_4lessISH_EENS7_INS_4pairIKSH_jEEEEEEbENKUlNS2_4lang4TileENSR_6BufferERNSR_3est8JacobianENSU_6FactorERNSU_11JacobianSetERNSU_14FactorOrderingEST_NSR_5ArrayIST_EENS12_IS10_EERNSR_6ScalarERNSU_16BlockMatrixArrayENSU_22SchurEliminatedHessianES13_ST_ST_E_clESS_ST_SW_SX_SZ_S11_ST_S13_S14_S16_S18_S19_S13_ST_ST_EUlNS2_4ExprEE_NS7_IS1C_EEFvRKS1B_EEE, 
                       __ZTINSt3__110__function6__funcIZZN2gc3est14SchurLinearize28eliminatedVariableKernelFuncERKNS_6vectorINS3_13ArgumentGroupENS_9allocatorIS6_EEEERKNS_3mapINS_12basic_stringIcNS_11char_traitsIcEENS7_IcEEEEjNS_4lessISH_EENS7_INS_4pairIKSH_jEEEEEEbENKUlNS2_4lang4TileENSR_6BufferERNSR_3est8JacobianENSU_6FactorERNSU_11JacobianSetERNSU_14FactorOrderingEST_NSR_5ArrayIST_EENS12_IS10_EERNSR_6ScalarERNSU_16BlockMatrixArrayENSU_22SchurEliminatedHessianES13_ST_ST_E_clESS_ST_SW_SX_SZ_S11_ST_S13_S14_S16_S18_S19_S13_ST_ST_EUlT_E0_NS7_IS1C_EEFvRKNS2_4ExprEEEE, 
                       __ZTINSt3__110__function6__funcIZZN2gc3est14SchurLinearize28eliminatedVariableKernelFuncERKNS_6vectorINS3_13ArgumentGroupENS_9allocatorIS6_EEEERKNS_3mapINS_12basic_stringIcNS_11char_traitsIcEENS7_IcEEEEjNS_4lessISH_EENS7_INS_4pairIKSH_jEEEEEEbENKUlNS2_4lang4TileENSR_6BufferERNSR_3est8JacobianENSU_6FactorERNSU_11JacobianSetERNSU_14FactorOrderingEST_NSR_5ArrayIST_EENS12_IS10_EERNSR_6ScalarERNSU_16BlockMatrixArrayENSU_22SchurEliminatedHessianES13_ST_ST_E_clESS_ST_SW_SX_SZ_S11_ST_S13_S14_S16_S18_S19_S13_ST_ST_EUlT_E_NS7_IS1C_EEFvRKNS2_4ExprEEEE, 
                       __ZTINSt3__110__function6__funcIZZN2gc3est14SchurLinearize28eliminatedVariableKernelFuncERKNS_6vectorINS3_13ArgumentGroupENS_9allocatorIS6_EEEERKNS_3mapINS_12basic_stringIcNS_11char_traitsIcEENS7_IcEEEEjNS_4lessISH_EENS7_INS_4pairIKSH_jEEEEEEbENKUlNS2_4lang4TileENSR_6BufferERNSR_3est8JacobianENSU_6FactorERNSU_11JacobianSetERNSU_14FactorOrderingEST_NSR_5ArrayIST_EENS12_IS10_EERNSR_6ScalarERNSU_16BlockMatrixArrayENSU_22SchurEliminatedHessianES13_ST_ST_E_clESS_ST_SW_SX_SZ_S11_ST_S13_S14_S16_S18_S19_S13_ST_ST_EUlvE_NS7_IS1B_EEFvvEEE, 
                       __ZTINSt3__110__function6__funcIZZN2gc3est18ImplicitSchurJtJp110kernelFuncEvENKUlNS2_4lang4TileERNS5_3est8JacobianENS7_14FactorOrderingENS5_6BufferESB_E_clES6_S9_SA_SB_SB_EUlNS2_4ExprESD_E_NS_9allocatorISE_EEFvSD_SD_EEE, 
                       __ZTINSt3__110__function6__funcIZZN2gc3est18ImplicitSchurJtJp218kernelFuncUnsortedEjENKUlNS2_4lang4TileERNS5_3est8JacobianENS5_6BufferESA_SA_SA_E_clES6_S9_SA_SA_SA_SA_EUlvE_NS_9allocatorISC_EEFvvEEE, 
                       __ZTINSt3__110__function6__funcIZZN2gc3est18ImplicitSchurJtJp218kernelFuncVariadicEjENKUlNS2_4lang4TileERNS5_3est8JacobianENS7_14FactorOrderingENS5_6BufferESB_SB_SB_E_clES6_S9_SA_SB_SB_SB_SB_EUlNS2_4ExprEE_NS_9allocatorISE_EEFvSD_EEE, 
                       __ZTINSt3__110__function6__funcIZZN2gc3est18ImplicitSchurJtJp227kernelFuncVariadicNoOffsetsEjENKUlNS2_4lang4TileERNS5_3est8JacobianENS7_14FactorOrderingENS5_6BufferESB_SB_E_clES6_S9_SA_SB_SB_SB_EUlNS2_4ExprEE_NS_9allocatorISE_EEFvSD_EEE, 
                       __ZTINSt3__110__function6__funcIZZN2gc3est20MaterializeJacobians10kernelFuncERKNS3_16ArgumentGroupingERKNS_6vectorINS3_13eJacobianTypeENS_9allocatorIS9_EEEEENKUlNS2_4lang4TileENSF_3est6FactorENSF_6BufferENSF_5ArrayINSH_14FactorOrderingEEENSH_11VariableSetENSK_ISJ_EESO_E_clESG_SI_SJ_SM_SN_SO_SO_EUlNS2_4ExprEE_NSA_ISR_EEFvSQ_EEE, 
                       __ZTINSt3__110__function6__funcIZZN2gc3est20SchurBackSubstitute110kernelFuncERKNS_6vectorINS3_13ArgumentGroupENS_9allocatorIS6_EEEERKNS_3mapINS_12basic_stringIcNS_11char_traitsIcEENS7_IcEEEEjNS_4lessISH_EENS7_INS_4pairIKSH_jEEEEEEbENKUlNS2_4lang4TileENSR_6BufferENSR_5ArrayIST_EESV_NSR_3est6FactorERNSW_14FactorOrderingENSW_22SchurEliminatedHessianEST_E_clESS_ST_SV_SV_SX_SZ_S10_ST_EUlNS2_4ExprEE_NS7_IS13_EEFvS12_EEE, 
                       __ZTINSt3__110__function6__funcIZZN2gc3est22EvaluateBatchGradients10kernelFuncERKNS3_13ArgumentGroupENS3_13eJacobianTypeEENKUlNS2_4lang4TileENS9_3est14FactorOrderingENSB_6FactorENSB_11VariableSetENS9_6ScalarERNS9_6BufferEE_clESA_SC_SD_SE_SF_SH_EUlT_T0_E_NS_9allocatorISL_EEFvNS2_4ExprESO_EEE, 
                       __ZTINSt3__110__function6__funcIZZN2gc3est24ImplicitSchurInitialize110kernelFuncEvENKUlNS2_4lang4TileENS5_6BufferERNS5_3est8JacobianENS8_14FactorOrderingENS5_6ScalarES7_S7_E_clES6_S7_SA_SB_SC_S7_S7_EUlNS2_4ExprESE_E_NS_9allocatorISF_EEFvSE_SE_EEE, 
                       __ZTINSt3__110__function6__funcIZZN2gc3est24ImplicitSchurInitialize110kernelFuncEvENKUlNS2_4lang4TileENS5_6BufferERNS5_3est8JacobianENS8_14FactorOrderingENS5_6ScalarES7_S7_E_clES6_S7_SA_SB_SC_S7_S7_EUlT_E0_NS_9allocatorISF_EEFvRKNS2_4ExprEEEE, 
                       __ZTINSt3__110__function6__funcIZZN2gc3est24ImplicitSchurInitialize110kernelFuncEvENKUlNS2_4lang4TileENS5_6BufferERNS5_3est8JacobianENS8_14FactorOrderingENS5_6ScalarES7_S7_E_clES6_S7_SA_SB_SC_S7_S7_EUlT_E_NS_9allocatorISF_EEFvRKNS2_4ExprEEEE, 
                       __ZTINSt3__110__function6__funcIZZN2gc3est24ImplicitSchurInitialize110kernelFuncEvENKUlNS2_4lang4TileENS5_6BufferERNS5_3est8JacobianENS8_14FactorOrderingENS5_6ScalarES7_S7_E_clES6_S7_SA_SB_SC_S7_S7_EUlvE_NS_9allocatorISE_EEFvvEEE, 
                       __ZTINSt3__110__function6__funcIZZN2gc3est24ImplicitSchurInitialize310kernelFuncEvENKUlNS2_4lang4TileERNS5_3est8JacobianENS7_14FactorOrderingESA_NS5_6BufferESB_SB_SB_SB_SB_E_clES6_S9_SA_SA_SB_SB_SB_SB_SB_SB_EUlNS2_4ExprESD_E_NS_9allocatorISE_EEFvSD_SD_EEE, 
                       __ZTINSt3__110__function6__funcIZZN2gc3est28ImplicitSchurBackSubstitute110kernelFuncERKNS_6vectorINS3_13ArgumentGroupENS_9allocatorIS6_EEEERKNS_3mapINS_12basic_stringIcNS_11char_traitsIcEENS7_IcEEEEjNS_4lessISH_EENS7_INS_4pairIKSH_jEEEEEEENKUlNS2_4lang4TileERNSR_3est11JacobianSetENSR_5ArrayINST_14FactorOrderingEEENSW_INSR_6BufferEEES10_SZ_E_clESS_SV_SY_S10_S10_SZ_EUlvE_NS7_IS12_EEFvvEEE, 
                       __ZTINSt3__110__function6__funcIZZN2gc3est33ApplyAdditiveLMDampingToDiagonals10kernelFuncEvENKUlNS2_4lang4TileENS5_6ScalarENS5_6BufferES8_E_clES6_S7_S8_S8_EUlT_E_NS_9allocatorISB_EEFvRKNS2_4ExprEEEE, 
                       __ZTINSt3__110__function6__funcIZZN2gc3est39ApplyMultiplicativeLMDampingToDiagonals10kernelFuncEvENKUlNS2_4lang4TileENS5_6ScalarENS5_6BufferES8_E_clES6_S7_S8_S8_EUlT_E_NS_9allocatorISB_EEFvRKNS2_4ExprEEEE, 
                       __ZTINSt3__110__function6__funcIZZN2gc4lang3est11BlockMatrix13forEachColumnIZZNS2_3est10EvaluateHp19kernelFuncNoOffsetsEvENKUlNS3_4TileERS5_NS3_6BufferESB_E_clES9_SA_SB_SB_EUlNS2_4ExprENS3_6MatrixEE_EEvRKSD_OT_ENKUlSI_E_clISD_EEDaSI_EUlvE_NS_9allocatorISN_EEFvvEEE, 
                       __ZTINSt3__110__function6__funcIZZN2gc4lang3est11BlockMatrix13forEachColumnIZZNS2_3est14ExtractDiagJtJ10kernelFuncEvENKUlNS3_4TileERS5_NS3_6BufferESB_SB_E_clES9_SA_SB_SB_SB_EUlNS2_4ExprENS3_6MatrixEE_EEvRKSD_OT_ENKUlSI_E_clISD_EEDaSI_EUlvE_NS_9allocatorISN_EEFvvEEE, 
                       __ZTINSt3__110__function6__funcIZZN2gc4lang3est11BlockMatrix13forEachColumnIZZNS2_3est14ExtractDiagJtJ19kernelFuncNoOffsetsEvENKUlNS3_4TileERS5_NS3_6BufferESB_E_clES9_SA_SB_SB_EUlNS2_4ExprENS3_6MatrixEE_EEvRKSD_OT_ENKUlSI_E_clISD_EEDaSI_EUlvE_NS_9allocatorISN_EEFvvEEE, 
                       __ZTINSt3__110__function6__funcIZZN2gc4lang3est11BlockMatrix13forEachColumnIZZNS2_3est17SymmetrizeDiagJtJ10kernelFuncEvENKUlNS3_4TileERS5_E_clES9_SA_EUlNS2_4ExprENS3_6MatrixEE_EEvRKSC_OT_ENKUlSH_E_clISC_EEDaSH_EUlvE_NS_9allocatorISM_EEFvvEEE, 
                       __ZTINSt3__110__function6__funcIZZN2gc4lang3est11BlockMatrix13forEachColumnIZZNS2_3est30ApplyAdditiveLMDampingExplicit10kernelFuncEvENKUlNS3_4TileENS3_6ScalarERS5_E_clES9_SA_SB_EUlNS2_4ExprENS3_6MatrixEE_EEvRKSD_OT_ENKUlSI_E_clISD_EEDaSI_EUlvE_NS_9allocatorISN_EEFvvEEE, 
                       __ZTINSt3__110__function6__funcIZZN2gc4lang3est11BlockMatrix13forEachColumnIZZNS2_3est36ApplyMultiplicativeLMDampingExplicit10kernelFuncEvENKUlNS3_4TileENS3_6ScalarERS5_E_clES9_SA_SB_EUlNS2_4ExprENS3_6MatrixEE_EEvRKSD_OT_ENKUlSI_E_clISD_EEDaSI_EUlvE_NS_9allocatorISN_EEFvvEEE, 
                       __ZTINSt3__110__function6__funcIZZN2gc4lang3est11BlockMatrix13forEachColumnIZZZNS2_3est10EvaluateHp10kernelFuncEvENKUlNS3_4TileERS5_NS3_6BufferESB_SB_RSB_E_clES9_SA_SB_SB_SB_SC_ENKUlvE_clEvEUlNS2_4ExprENS3_6MatrixEE_EEvRKSF_OT_ENKUlSK_E_clISF_EEDaSK_EUlvE_NS_9allocatorISP_EEFvvEEE, 
                       __ZTINSt3__110__function6__funcIZZN2gc4lang4simd27SIMDInnerProductAccumulatorC1ENS_10shared_ptrINS4_18InnerProductMatrixEEES8_RNS3_6BufferERKNS4_16MatMulParametersENS2_4ExprERKNS_6vectorISE_NS_9allocatorISE_EEEEENKUlSK_E0_clESK_EUlT_E_NSG_ISN_EEFvRKSE_EEE, 
                       __ZTINSt3__110__function6__funcIZZN2gc4lang4simd29LargeKInnerProductAccumulatorC1ENS_10shared_ptrINS4_18InnerProductMatrixEEES8_RNS3_6BufferERKNS4_16MatMulParametersENS2_4ExprERKNS_6vectorISE_NS_9allocatorISE_EEEESK_SK_ENKUlSK_E0_clESK_EUlT_E_NSG_ISN_EEFvRKSE_EEE, 
                       __ZTINSt3__110__function6__funcIZZN2gc4lang4simd29LargeKInnerProductAccumulatorC1ENS_10shared_ptrINS4_18InnerProductMatrixEEES8_RNS3_6BufferERKNS4_16MatMulParametersENS2_4ExprERKNS_6vectorISE_NS_9allocatorISE_EEEESK_SK_ENKUlSK_E_clESK_EUlvE_NSG_ISM_EEFvvEEE, 
                       __ZTINSt3__110__function6__funcIZZN2gc4lang4simd29SmallKInnerProductAccumulatorC1ENS_10shared_ptrINS4_18InnerProductMatrixEEES8_RNS3_6BufferERKNS4_16MatMulParametersENS2_4ExprERKNS_6vectorISE_NS_9allocatorISE_EEEESK_SK_ENKUlSK_E0_clESK_EUlT_E_NSG_ISN_EEFvRKSE_EEE, 
                       __ZTINSt3__110__function6__funcIZZN2gc4lang4simd30GeneralInnerProductAccumulatorC1ENS_10shared_ptrINS4_18InnerProductMatrixEEES8_RNS3_6BufferENS2_4ExprEENKUlRKNS_6vectorISB_NS_9allocatorISB_EEEEE_clESH_EUlT_E_NSD_ISK_EEFvRKSB_EEE, 
                       __ZTINSt3__110__function6__funcIZZZN2gc3est10EvaluateJp18kernelFuncVariadicEjENKUlNS2_4lang4TileERNS5_3est14FactorOrderingENS5_6BufferERNS7_8JacobianESA_SA_E_clES6_S9_SA_SC_SA_SA_ENKUlNS2_4ExprEE_clESE_EUlvE_NS_9allocatorISG_EEFvvEEE, 
                       __ZTINSt3__110__function6__funcIZZZN2gc3est11EvaluateJtJ18kernelFuncDiagonalEvENKUlNS2_4lang4TileENS5_3est13BlockOrderingENS7_14FactorOrderingERNS7_8JacobianERNS7_11BlockMatrixEE_clES6_S8_S9_SB_SD_ENKUlNS2_4ExprEE_clESF_EUlSF_E_NS_9allocatorISH_EEFvSF_EEE, 
                       __ZTINSt3__110__function6__funcIZZZN2gc3est11EvaluateJtJ21kernelFuncOffDiagonalEvENKUlNS2_4lang4TileENS5_3est13BlockOrderingENS7_14FactorOrderingES9_RNS7_11JacobianSetERNS7_11BlockMatrixEE_clES6_S8_S9_S9_SB_SD_ENKUlNS2_4ExprEE_clESF_EUlSF_E_NS_9allocatorISH_EEFvSF_EEE, 
                       __ZTINSt3__110__function6__funcIZZZN2gc3est12EvaluateJteM10kernelFuncEvENKUlNS2_4lang4TileERNS5_3est14FactorOrderingERNS7_8JacobianENS5_6BufferESC_SC_E_clES6_S9_SB_SC_SC_SC_ENKUlNS2_4ExprESE_E_clESE_SE_EUlT_E_NS_9allocatorISH_EEFvRKSE_EEE, 
                       __ZTINSt3__110__function6__funcIZZZN2gc3est12InvertBlockM10kernelFuncEvENKUlNS2_4lang4TileENS5_6BufferES7_E_clES6_S7_S7_ENKUlvE0_clEvEUlT_E_NS_9allocatorISB_EEFvRKNS2_4ExprEEEE, 
                       __ZTINSt3__110__function6__funcIZZZN2gc3est14ExtractDiagJtJ10kernelFuncEvENKUlNS2_4lang4TileERNS5_3est11BlockMatrixENS5_6BufferESA_SA_E_clES6_S9_SA_SA_SA_ENKUlNS2_4ExprENS5_6MatrixEE_clESC_SD_EUlvE_NS_9allocatorISF_EEFvvEEE, 
                       __ZTINSt3__110__function6__funcIZZZN2gc3est14ExtractDiagJtJ19kernelFuncNoOffsetsEvENKUlNS2_4lang4TileERNS5_3est11BlockMatrixENS5_6BufferESA_E_clES6_S9_SA_SA_ENKUlNS2_4ExprENS5_6MatrixEE_clESC_SD_EUlvE_NS_9allocatorISF_EEFvvEEE, 
                       __ZTINSt3__110__function6__funcIZZZN2gc3est14SchurLinearize16factorKernelFuncERKNS_6vectorINS3_13ArgumentGroupENS_9allocatorIS6_EEEERKNS_3mapINS_12basic_stringIcNS_11char_traitsIcEENS7_IcEEEEjNS_4lessISH_EENS7_INS_4pairIKSH_jEEEEEEbENKUlNS2_4lang4TileENSR_6BufferENSR_3est6FactorERNSU_11JacobianSetENSR_5ArrayIST_EENSY_INSU_14FactorOrderingEEERNSU_16BlockMatrixArrayESZ_E_clESS_ST_SV_SX_SZ_S11_S13_SZ_ENKUlvE_clEvEUlNS2_4ExprEE_NS7_IS17_EEFvS16_EEE, 
                       __ZTINSt3__110__function6__funcIZZZN2gc3est14SchurLinearize28eliminatedVariableKernelFuncERKNS_6vectorINS3_13ArgumentGroupENS_9allocatorIS6_EEEERKNS_3mapINS_12basic_stringIcNS_11char_traitsIcEENS7_IcEEEEjNS_4lessISH_EENS7_INS_4pairIKSH_jEEEEEEbENKUlNS2_4lang4TileENSR_6BufferERNSR_3est8JacobianENSU_6FactorERNSU_11JacobianSetERNSU_14FactorOrderingEST_NSR_5ArrayIST_EENS12_IS10_EERNSR_6ScalarERNSU_16BlockMatrixArrayENSU_22SchurEliminatedHessianES13_ST_ST_E_clESS_ST_SW_SX_SZ_S11_ST_S13_S14_S16_S18_S19_S13_ST_ST_ENKUlNS2_4ExprEE0_clES1B_EUlvE_NS7_IS1D_EEFvvEEE, 
                       __ZTINSt3__110__function6__funcIZZZN2gc3est14SchurLinearize28eliminatedVariableKernelFuncERKNS_6vectorINS3_13ArgumentGroupENS_9allocatorIS6_EEEERKNS_3mapINS_12basic_stringIcNS_11char_traitsIcEENS7_IcEEEEjNS_4lessISH_EENS7_INS_4pairIKSH_jEEEEEEbENKUlNS2_4lang4TileENSR_6BufferERNSR_3est8JacobianENSU_6FactorERNSU_11JacobianSetERNSU_14FactorOrderingEST_NSR_5ArrayIST_EENS12_IS10_EERNSR_6ScalarERNSU_16BlockMatrixArrayENSU_22SchurEliminatedHessianES13_ST_ST_E_clESS_ST_SW_SX_SZ_S11_ST_S13_S14_S16_S18_S19_S13_ST_ST_ENKUlNS2_4ExprEE_clES1B_EUlS1B_E_NS7_IS1D_EEFvS1B_EEE, 
                       __ZTINSt3__110__function6__funcIZZZN2gc3est17SymmetrizeDiagJtJ10kernelFuncEvENKUlNS2_4lang4TileERNS5_3est11BlockMatrixEE_clES6_S9_ENKUlNS2_4ExprENS5_6MatrixEE_clESB_SC_EUlvE_NS_9allocatorISE_EEFvvEEE, 
                       __ZTINSt3__110__function6__funcIZZZN2gc3est18ImplicitSchurJtJp218kernelFuncVariadicEjENKUlNS2_4lang4TileERNS5_3est8JacobianENS7_14FactorOrderingENS5_6BufferESB_SB_SB_E_clES6_S9_SA_SB_SB_SB_SB_ENKUlNS2_4ExprEE_clESD_EUlvE_NS_9allocatorISF_EEFvvEEE, 
                       __ZTINSt3__110__function6__funcIZZZN2gc3est20MaterializeJacobians10kernelFuncERKNS3_16ArgumentGroupingERKNS_6vectorINS3_13eJacobianTypeENS_9allocatorIS9_EEEEENKUlNS2_4lang4TileENSF_3est6FactorENSF_6BufferENSF_5ArrayINSH_14FactorOrderingEEENSH_11VariableSetENSK_ISJ_EESO_E_clESG_SI_SJ_SM_SN_SO_SO_ENKUlNS2_4ExprEE_clESQ_EUlvE_NSA_ISS_EEFvvEEE, 
                       __ZTINSt3__110__function6__funcIZZZN2gc3est20SchurBackSubstitute110kernelFuncERKNS_6vectorINS3_13ArgumentGroupENS_9allocatorIS6_EEEERKNS_3mapINS_12basic_stringIcNS_11char_traitsIcEENS7_IcEEEEjNS_4lessISH_EENS7_INS_4pairIKSH_jEEEEEEbENKUlNS2_4lang4TileENSR_6BufferENSR_5ArrayIST_EESV_NSR_3est6FactorERNSW_14FactorOrderingENSW_22SchurEliminatedHessianEST_E_clESS_ST_SV_SV_SX_SZ_S10_ST_ENKUlNS2_4ExprEE_clES12_EUlvE_NS7_IS14_EEFvvEEE, 
                       __ZTINSt3__110__function6__funcIZZZN2gc3est22EvaluateBatchGradients10kernelFuncERKNS3_13ArgumentGroupENS3_13eJacobianTypeEENKUlNS2_4lang4TileENS9_3est14FactorOrderingENSB_6FactorENSB_11VariableSetENS9_6ScalarERNS9_6BufferEE_clESA_SC_SD_SE_SF_SH_ENKUlT_T0_E_clINS2_4ExprESN_EEDaSJ_SK_EUlSJ_E_NS_9allocatorISP_EEFvRKSN_EEE, 
                       __ZTINSt3__110__function6__funcIZZZN2gc3est22EvaluateBatchGradients10kernelFuncERKNS3_13ArgumentGroupENS3_13eJacobianTypeEENKUlNS2_4lang4TileENS9_3est14FactorOrderingENSB_6FactorENSB_11VariableSetENS9_6ScalarERNS9_6BufferEE_clESA_SC_SD_SE_SF_SH_ENKUlT_T0_E_clINS2_4ExprESN_EEDaSJ_SK_EUlvE_NS_9allocatorISP_EEFvvEEE, 
                       __ZTINSt3__110__function6__funcIZZZN2gc3est24ImplicitSchurInitialize310kernelFuncEvENKUlNS2_4lang4TileERNS5_3est8JacobianENS7_14FactorOrderingESA_NS5_6BufferESB_SB_SB_SB_SB_E_clES6_S9_SA_SA_SB_SB_SB_SB_SB_SB_ENKUlNS2_4ExprESD_E_clESD_SD_EUlSD_E_NS_9allocatorISF_EEFvSD_EEE, 
                       __ZTINSt3__110__function6__funcIZZZN2gc3est28ImplicitSchurBackSubstitute110kernelFuncERKNS_6vectorINS3_13ArgumentGroupENS_9allocatorIS6_EEEERKNS_3mapINS_12basic_stringIcNS_11char_traitsIcEENS7_IcEEEEjNS_4lessISH_EENS7_INS_4pairIKSH_jEEEEEEENKUlNS2_4lang4TileERNSR_3est11JacobianSetENSR_5ArrayINST_14FactorOrderingEEENSW_INSR_6BufferEEES10_SZ_E_clESS_SV_SY_S10_S10_SZ_ENKUlvE_clEvEUlNS2_4ExprEE_NS7_IS14_EEFvS13_EEE, 
                       __ZTINSt3__110__function6__funcIZZZN2gc3est30ApplyAdditiveLMDampingExplicit10kernelFuncEvENKUlNS2_4lang4TileENS5_6ScalarERNS5_3est11BlockMatrixEE_clES6_S7_SA_ENKUlNS2_4ExprENS5_6MatrixEE_clESC_SD_EUlvE_NS_9allocatorISF_EEFvvEEE, 
                       __ZTINSt3__110__function6__funcIZZZN2gc3est36ApplyMultiplicativeLMDampingExplicit10kernelFuncEvENKUlNS2_4lang4TileENS5_6ScalarERNS5_3est11BlockMatrixEE_clES6_S7_SA_ENKUlNS2_4ExprENS5_6MatrixEE_clESC_SD_EUlvE_NS_9allocatorISF_EEFvvEEE, 
                       __ZTINSt3__110__function6__funcIZZZN2gc4lang4simd29LargeKInnerProductAccumulatorC1ENS_10shared_ptrINS4_18InnerProductMatrixEEES8_RNS3_6BufferERKNS4_16MatMulParametersENS2_4ExprERKNS_6vectorISE_NS_9allocatorISE_EEEESK_SK_ENKUlSK_E_clESK_ENKUlvE_clEvEUlT_E_NSG_ISO_EEFvRKSE_EEE, 
                       __ZTINSt3__110__function6__funcIZZZZN2gc3est10EvaluateHp10kernelFuncEvENKUlNS2_4lang4TileERNS5_3est11BlockMatrixENS5_6BufferESA_SA_RSA_E_clES6_S9_SA_SA_SA_SB_ENKUlvE_clEvENKUlNS2_4ExprENS5_6MatrixEE_clESE_SF_EUlvE_NS_9allocatorISH_EEFvvEEE, 
                       __ZTINSt3__110__function6__funcIZZZZN2gc3est11EvaluateJtJ21kernelFuncOffDiagonalEvENKUlNS2_4lang4TileENS5_3est13BlockOrderingENS7_14FactorOrderingES9_RNS7_11JacobianSetERNS7_11BlockMatrixEE_clES6_S8_S9_S9_SB_SD_ENKUlNS2_4ExprEE_clESF_ENKUlSF_E_clESF_EUlvE_NS_9allocatorISI_EEFvvEEE, 
                       __ZTINSt3__110__function6__funcIZZZZN2gc3est14ExtractDiagJtJ10kernelFuncEvENKUlNS2_4lang4TileERNS5_3est11BlockMatrixENS5_6BufferESA_SA_E_clES6_S9_SA_SA_SA_ENKUlNS2_4ExprENS5_6MatrixEE_clESC_SD_ENKUlvE_clEvEUlvE_NS_9allocatorISG_EEFvvEEE, 
                       __ZTINSt3__110__function6__funcIZZZZN2gc3est14SchurLinearize16factorKernelFuncERKNS_6vectorINS3_13ArgumentGroupENS_9allocatorIS6_EEEERKNS_3mapINS_12basic_stringIcNS_11char_traitsIcEENS7_IcEEEEjNS_4lessISH_EENS7_INS_4pairIKSH_jEEEEEEbENKUlNS2_4lang4TileENSR_6BufferENSR_3est6FactorERNSU_11JacobianSetENSR_5ArrayIST_EENSY_INSU_14FactorOrderingEEERNSU_16BlockMatrixArrayESZ_E_clESS_ST_SV_SX_SZ_S11_S13_SZ_ENKUlvE_clEvENKUlNS2_4ExprEE_clES16_EUlvE_NS7_IS18_EEFvvEEE, 
                       __ZTINSt3__110__function6__funcIZZZZN2gc3est14SchurLinearize28eliminatedVariableKernelFuncERKNS_6vectorINS3_13ArgumentGroupENS_9allocatorIS6_EEEERKNS_3mapINS_12basic_stringIcNS_11char_traitsIcEENS7_IcEEEEjNS_4lessISH_EENS7_INS_4pairIKSH_jEEEEEEbENKUlNS2_4lang4TileENSR_6BufferERNSR_3est8JacobianENSU_6FactorERNSU_11JacobianSetERNSU_14FactorOrderingEST_NSR_5ArrayIST_EENS12_IS10_EERNSR_6ScalarERNSU_16BlockMatrixArrayENSU_22SchurEliminatedHessianES13_ST_ST_E_clESS_ST_SW_SX_SZ_S11_ST_S13_S14_S16_S18_S19_S13_ST_ST_ENKUlNS2_4ExprEE0_clES1B_ENKUlvE_clEvEUlS1B_E_NS7_IS1E_EEFvRKS1B_EEE, 
                       __ZTINSt3__110__function6__funcIZZZZN2gc3est14SchurLinearize28eliminatedVariableKernelFuncERKNS_6vectorINS3_13ArgumentGroupENS_9allocatorIS6_EEEERKNS_3mapINS_12basic_stringIcNS_11char_traitsIcEENS7_IcEEEEjNS_4lessISH_EENS7_INS_4pairIKSH_jEEEEEEbENKUlNS2_4lang4TileENSR_6BufferERNSR_3est8JacobianENSU_6FactorERNSU_11JacobianSetERNSU_14FactorOrderingEST_NSR_5ArrayIST_EENS12_IS10_EERNSR_6ScalarERNSU_16BlockMatrixArrayENSU_22SchurEliminatedHessianES13_ST_ST_E_clESS_ST_SW_SX_SZ_S11_ST_S13_S14_S16_S18_S19_S13_ST_ST_ENKUlNS2_4ExprEE_clES1B_ENKUlS1B_E_clES1B_EUlvE_NS7_IS1E_EEFvvEEE, 
                       __ZTINSt3__110__function6__funcIZZZZN2gc3est18ImplicitSchurJtJp218kernelFuncVariadicEjENKUlNS2_4lang4TileERNS5_3est8JacobianENS7_14FactorOrderingENS5_6BufferESB_SB_SB_E_clES6_S9_SA_SB_SB_SB_SB_ENKUlNS2_4ExprEE_clESD_ENKUlvE_clEvEUlvE_NS_9allocatorISG_EEFvvEEE, 
                       __ZTINSt3__110__function6__funcIZZZZN2gc3est20MaterializeJacobians10kernelFuncERKNS3_16ArgumentGroupingERKNS_6vectorINS3_13eJacobianTypeENS_9allocatorIS9_EEEEENKUlNS2_4lang4TileENSF_3est6FactorENSF_6BufferENSF_5ArrayINSH_14FactorOrderingEEENSH_11VariableSetENSK_ISJ_EESO_E_clESG_SI_SJ_SM_SN_SO_SO_ENKUlNS2_4ExprEE_clESQ_ENKUlvE_clEvEUlvE0_NSA_IST_EEFvvEEE, 
                       __ZTINSt3__110__function6__funcIZZZZN2gc3est20MaterializeJacobians10kernelFuncERKNS3_16ArgumentGroupingERKNS_6vectorINS3_13eJacobianTypeENS_9allocatorIS9_EEEEENKUlNS2_4lang4TileENSF_3est6FactorENSF_6BufferENSF_5ArrayINSH_14FactorOrderingEEENSH_11VariableSetENSK_ISJ_EESO_E_clESG_SI_SJ_SM_SN_SO_SO_ENKUlNS2_4ExprEE_clESQ_ENKUlvE_clEvEUlvE_NSA_IST_EEFvvEEE, 
                       __ZTINSt3__110__function6__funcIZZZZN2gc3est22EvaluateBatchGradients10kernelFuncERKNS3_13ArgumentGroupENS3_13eJacobianTypeEENKUlNS2_4lang4TileENS9_3est14FactorOrderingENSB_6FactorENSB_11VariableSetENS9_6ScalarERNS9_6BufferEE_clESA_SC_SD_SE_SF_SH_ENKUlT_T0_E_clINS2_4ExprESN_EEDaSJ_SK_ENKUlSJ_E_clISN_EESO_SJ_EUlvE_NS_9allocatorISR_EEFvvEEE, 
                       __ZTINSt3__110__function6__funcIZZZZN2gc3est24ImplicitSchurInitialize310kernelFuncEvENKUlNS2_4lang4TileERNS5_3est8JacobianENS7_14FactorOrderingESA_NS5_6BufferESB_SB_SB_SB_SB_E_clES6_S9_SA_SA_SB_SB_SB_SB_SB_SB_ENKUlNS2_4ExprESD_E_clESD_SD_ENKUlSD_E_clESD_EUlvE0_NS_9allocatorISG_EEFvvEEE, 
                       __ZTINSt3__110__function6__funcIZZZZN2gc3est24ImplicitSchurInitialize310kernelFuncEvENKUlNS2_4lang4TileERNS5_3est8JacobianENS7_14FactorOrderingESA_NS5_6BufferESB_SB_SB_SB_SB_E_clES6_S9_SA_SA_SB_SB_SB_SB_SB_SB_ENKUlNS2_4ExprESD_E_clESD_SD_ENKUlSD_E_clESD_EUlvE_NS_9allocatorISG_EEFvvEEE, 
                       __ZTINSt3__110__function6__funcIZZZZN2gc3est30ApplyAdditiveLMDampingExplicit10kernelFuncEvENKUlNS2_4lang4TileENS5_6ScalarERNS5_3est11BlockMatrixEE_clES6_S7_SA_ENKUlNS2_4ExprENS5_6MatrixEE_clESC_SD_ENKUlvE_clEvEUlT_E_NS_9allocatorISH_EEFvRKSC_EEE, 
                       __ZTINSt3__110__function6__funcIZZZZN2gc3est36ApplyMultiplicativeLMDampingExplicit10kernelFuncEvENKUlNS2_4lang4TileENS5_6ScalarERNS5_3est11BlockMatrixEE_clES6_S7_SA_ENKUlNS2_4ExprENS5_6MatrixEE_clESC_SD_ENKUlvE_clEvEUlT_E_NS_9allocatorISH_EEFvRKSC_EEE, 
                       __ZTINSt3__110__function6__funcIZZZZZN2gc3est11EvaluateJtJ21kernelFuncOffDiagonalEvENKUlNS2_4lang4TileENS5_3est13BlockOrderingENS7_14FactorOrderingES9_RNS7_11JacobianSetERNS7_11BlockMatrixEE_clES6_S8_S9_S9_SB_SD_ENKUlNS2_4ExprEE_clESF_ENKUlSF_E_clESF_ENKUlvE_clEvEUlSF_E_NS_9allocatorISJ_EEFvSF_EEE, 
                       __ZTINSt3__110__function6__funcIZZZZZN2gc3est14SchurLinearize16factorKernelFuncERKNS_6vectorINS3_13ArgumentGroupENS_9allocatorIS6_EEEERKNS_3mapINS_12basic_stringIcNS_11char_traitsIcEENS7_IcEEEEjNS_4lessISH_EENS7_INS_4pairIKSH_jEEEEEEbENKUlNS2_4lang4TileENSR_6BufferENSR_3est6FactorERNSU_11JacobianSetENSR_5ArrayIST_EENSY_INSU_14FactorOrderingEEERNSU_16BlockMatrixArrayESZ_E_clESS_ST_SV_SX_SZ_S11_S13_SZ_ENKUlvE_clEvENKUlNS2_4ExprEE_clES16_ENKUlvE_clEvEUlS16_E_NS7_IS19_EEFvS16_EEE, 
                       __ZTINSt3__110__function6__funcIZZZZZN2gc3est14SchurLinearize28eliminatedVariableKernelFuncERKNS_6vectorINS3_13ArgumentGroupENS_9allocatorIS6_EEEERKNS_3mapINS_12basic_stringIcNS_11char_traitsIcEENS7_IcEEEEjNS_4lessISH_EENS7_INS_4pairIKSH_jEEEEEEbENKUlNS2_4lang4TileENSR_6BufferERNSR_3est8JacobianENSU_6FactorERNSU_11JacobianSetERNSU_14FactorOrderingEST_NSR_5ArrayIST_EENS12_IS10_EERNSR_6ScalarERNSU_16BlockMatrixArrayENSU_22SchurEliminatedHessianES13_ST_ST_E_clESS_ST_SW_SX_SZ_S11_ST_S13_S14_S16_S18_S19_S13_ST_ST_ENKUlNS2_4ExprEE0_clES1B_ENKUlvE_clEvENKUlS1B_E_clES1B_EUlvE_NS7_IS1F_EEFvvEEE, 
                       __ZTINSt3__110__function6__funcIZZZZZN2gc3est14SchurLinearize28eliminatedVariableKernelFuncERKNS_6vectorINS3_13ArgumentGroupENS_9allocatorIS6_EEEERKNS_3mapINS_12basic_stringIcNS_11char_traitsIcEENS7_IcEEEEjNS_4lessISH_EENS7_INS_4pairIKSH_jEEEEEEbENKUlNS2_4lang4TileENSR_6BufferERNSR_3est8JacobianENSU_6FactorERNSU_11JacobianSetERNSU_14FactorOrderingEST_NSR_5ArrayIST_EENS12_IS10_EERNSR_6ScalarERNSU_16BlockMatrixArrayENSU_22SchurEliminatedHessianES13_ST_ST_E_clESS_ST_SW_SX_SZ_S11_ST_S13_S14_S16_S18_S19_S13_ST_ST_ENKUlNS2_4ExprEE_clES1B_ENKUlS1B_E_clES1B_ENKUlvE_clEvEUlvE_NS7_IS1F_EEFvvEEE, 
                       __ZTINSt3__110__function6__funcIZZZZZZN2gc3est11EvaluateJtJ21kernelFuncOffDiagonalEvENKUlNS2_4lang4TileENS5_3est13BlockOrderingENS7_14FactorOrderingES9_RNS7_11JacobianSetERNS7_11BlockMatrixEE_clES6_S8_S9_S9_SB_SD_ENKUlNS2_4ExprEE_clESF_ENKUlSF_E_clESF_ENKUlvE_clEvENKUlSF_E_clESF_EUlvE_NS_9allocatorISK_EEFvvEEE, 
                       __ZTINSt3__110__function6__funcIZZZZZZN2gc3est14SchurLinearize16factorKernelFuncERKNS_6vectorINS3_13ArgumentGroupENS_9allocatorIS6_EEEERKNS_3mapINS_12basic_stringIcNS_11char_traitsIcEENS7_IcEEEEjNS_4lessISH_EENS7_INS_4pairIKSH_jEEEEEEbENKUlNS2_4lang4TileENSR_6BufferENSR_3est6FactorERNSU_11JacobianSetENSR_5ArrayIST_EENSY_INSU_14FactorOrderingEEERNSU_16BlockMatrixArrayESZ_E_clESS_ST_SV_SX_SZ_S11_S13_SZ_ENKUlvE_clEvENKUlNS2_4ExprEE_clES16_ENKUlvE_clEvENKUlS16_E_clES16_EUlvE_NS7_IS1A_EEFvvEEE, 
                       __ZTINSt3__110__function6__funcIZZZZZZN2gc3est14SchurLinearize28eliminatedVariableKernelFuncERKNS_6vectorINS3_13ArgumentGroupENS_9allocatorIS6_EEEERKNS_3mapINS_12basic_stringIcNS_11char_traitsIcEENS7_IcEEEEjNS_4lessISH_EENS7_INS_4pairIKSH_jEEEEEEbENKUlNS2_4lang4TileENSR_6BufferERNSR_3est8JacobianENSU_6FactorERNSU_11JacobianSetERNSU_14FactorOrderingEST_NSR_5ArrayIST_EENS12_IS10_EERNSR_6ScalarERNSU_16BlockMatrixArrayENSU_22SchurEliminatedHessianES13_ST_ST_E_clESS_ST_SW_SX_SZ_S11_ST_S13_S14_S16_S18_S19_S13_ST_ST_ENKUlNS2_4ExprEE0_clES1B_ENKUlvE_clEvENKUlS1B_E_clES1B_ENKUlvE_clEvEUlvE_NS7_IS1G_EEFvvEEE, 
                       __ZTINSt3__110__function6__funcIZZZZZZN2gc3est14SchurLinearize28eliminatedVariableKernelFuncERKNS_6vectorINS3_13ArgumentGroupENS_9allocatorIS6_EEEERKNS_3mapINS_12basic_stringIcNS_11char_traitsIcEENS7_IcEEEEjNS_4lessISH_EENS7_INS_4pairIKSH_jEEEEEEbENKUlNS2_4lang4TileENSR_6BufferERNSR_3est8JacobianENSU_6FactorERNSU_11JacobianSetERNSU_14FactorOrderingEST_NSR_5ArrayIST_EENS12_IS10_EERNSR_6ScalarERNSU_16BlockMatrixArrayENSU_22SchurEliminatedHessianES13_ST_ST_E_clESS_ST_SW_SX_SZ_S11_ST_S13_S14_S16_S18_S19_S13_ST_ST_ENKUlNS2_4ExprEE_clES1B_ENKUlS1B_E_clES1B_ENKUlvE_clEvENKUlvE_clEvEUlvE_NS7_IS1G_EEFvvEEE, 
                       __ZTINSt3__110__function6__funcIZZZZZZZN2gc3est14SchurLinearize28eliminatedVariableKernelFuncERKNS_6vectorINS3_13ArgumentGroupENS_9allocatorIS6_EEEERKNS_3mapINS_12basic_stringIcNS_11char_traitsIcEENS7_IcEEEEjNS_4lessISH_EENS7_INS_4pairIKSH_jEEEEEEbENKUlNS2_4lang4TileENSR_6BufferERNSR_3est8JacobianENSU_6FactorERNSU_11JacobianSetERNSU_14FactorOrderingEST_NSR_5ArrayIST_EENS12_IS10_EERNSR_6ScalarERNSU_16BlockMatrixArrayENSU_22SchurEliminatedHessianES13_ST_ST_E_clESS_ST_SW_SX_SZ_S11_ST_S13_S14_S16_S18_S19_S13_ST_ST_ENKUlNS2_4ExprEE_clES1B_ENKUlS1B_E_clES1B_ENKUlvE_clEvENKUlvE_clEvENKUlvE_clEvEUlS1B_E_NS7_IS1H_EEFvS1B_EEE, 
                       __ZTINSt3__117bad_function_callE, __ZTINSt3__120__shared_ptr_emplaceIN2gc10FileTargetENS_9allocatorIS2_EEEE, 
                       __ZTINSt3__120__shared_ptr_emplaceIN2gc11OsLogTargetENS_9allocatorIS2_EEEE, 
                       __ZTINSt3__120__shared_ptr_emplaceIN2gc13ConsoleTargetENS_9allocatorIS2_EEEE, 
                       __ZTINSt3__120__shared_ptr_emplaceIN2gc14ScheduleTraitsENS_9allocatorIS2_EEEE, 
                       __ZTINSt3__120__shared_ptr_emplaceIN2gc3est15FactorGradientsENS_9allocatorIS3_EEEE, 
                       __ZTINSt3__120__shared_ptr_emplaceIN2gc3ops11AddAssignTTENS_9allocatorIS3_EEEE, 
                       __ZTINSt3__120__shared_ptr_emplaceIN2gc3ops12PreIncrementENS_9allocatorIS3_EEEE, 
                       __ZTINSt3__120__shared_ptr_emplaceIN2gc3ops13ScatterUpdateENS_9allocatorIS3_EEEE, 
                       __ZTINSt3__120__shared_ptr_emplaceIN2gc3ops16AutoDiffBackpropENS_9allocatorIS3_EEEE, 
                       __ZTINSt3__120__shared_ptr_emplaceIN2gc3ops3AtGENS_9allocatorIS3_EEEE, 
                       __ZTINSt3__120__shared_ptr_emplaceIN2gc3ops3GBtENS_9allocatorIS3_EEEE, 
                       __ZTINSt3__120__shared_ptr_emplaceIN2gc3ops4CopyENS_9allocatorIS3_EEEE, 
                       __ZTINSt3__120__shared_ptr_emplaceIN2gc3ops5SplitENS_9allocatorIS3_EEEE, 
                       __ZTINSt3__120__shared_ptr_emplaceIN2gc3ops6ConcatENS_9allocatorIS3_EEEE, 
                       __ZTINSt3__120__shared_ptr_emplaceIN2gc3ops6GatherENS_9allocatorIS3_EEEE, 
                       __ZTINSt3__120__shared_ptr_emplaceIN2gc3ops6MatMulENS_9allocatorIS3_EEEE, 
                       __ZTINSt3__120__shared_ptr_emplaceIN2gc3ops6detail12ScatterZerosENS_9allocatorIS4_EEEE, 
                       __ZTINSt3__120__shared_ptr_emplaceIN2gc3ops6detail9VarAssignENS_9allocatorIS4_EEEE, 
                       __ZTINSt3__120__shared_ptr_emplaceIN2gc3ops7ScatterENS_9allocatorIS3_EEEE, 
                       __ZTINSt3__120__shared_ptr_emplaceIN2gc3ops9BroadcastENS_9allocatorIS3_EEEE, 
                       __ZTINSt3__120__shared_ptr_emplaceIN2gc3ops9TransposeENS_9allocatorIS3_EEEE, 
                       __ZTINSt3__120__shared_ptr_emplaceIN8nlohmann6detail21output_stream_adapterIcEENS_9allocatorIS4_EEEE, 
                       __ZTINSt3__120__shared_ptr_pointerIPN2gc11TypedKernelINS1_4lang4TileEJEEENS_10shared_ptrINS1_6KernelEE27__shared_ptr_default_deleteIS8_S5_EENS_9allocatorIS5_EEEE, 
                       __ZTINSt3__120__shared_ptr_pointerIPN2gc11TypedKernelINS1_4lang4TileEJNS3_3est13BlockOrderingENS5_14FactorOrderingERNS5_8JacobianERNS5_11BlockMatrixEEEENS_10shared_ptrINS1_6KernelEE27__shared_ptr_default_deleteISF_SC_EENS_9allocatorISC_EEEE, 
                       __ZTINSt3__120__shared_ptr_pointerIPN2gc11TypedKernelINS1_4lang4TileEJNS3_3est13BlockOrderingENS5_14FactorOrderingES7_RNS5_11JacobianSetERNS5_11BlockMatrixEEEENS_10shared_ptrINS1_6KernelEE27__shared_ptr_default_deleteISF_SC_EENS_9allocatorISC_EEEE, 
                       __ZTINSt3__120__shared_ptr_pointerIPN2gc11TypedKernelINS1_4lang4TileEJNS3_3est14FactorOrderingENS5_6FactorENS5_11VariableSetENS3_6ScalarERNS3_6BufferEEEENS_10shared_ptrINS1_6KernelEE27__shared_ptr_default_deleteISF_SC_EENS_9allocatorISC_EEEE, 
                       __ZTINSt3__120__shared_ptr_pointerIPN2gc11TypedKernelINS1_4lang4TileEJNS3_3est14FactorOrderingERNS5_8JacobianENS3_6BufferES9_EEENS_10shared_ptrINS1_6KernelEE27__shared_ptr_default_deleteISD_SA_EENS_9allocatorISA_EEEE, 
                       __ZTINSt3__120__shared_ptr_pointerIPN2gc11TypedKernelINS1_4lang4TileEJNS3_3est6FactorENS3_6BufferENS3_5ArrayINS5_14FactorOrderingEEENS5_11VariableSetENS8_IS7_EESC_EEENS_10shared_ptrINS1_6KernelEE27__shared_ptr_default_deleteISG_SD_EENS_9allocatorISD_EEEE, 
                       __ZTINSt3__120__shared_ptr_pointerIPN2gc11TypedKernelINS1_4lang4TileEJNS3_3est6FactorENS5_11VariableSetENS3_6BufferEEEENS_10shared_ptrINS1_6KernelEE27__shared_ptr_default_deleteISC_S9_EENS_9allocatorIS9_EEEE, 
                       __ZTINSt3__120__shared_ptr_pointerIPN2gc11TypedKernelINS1_4lang4TileEJNS3_3est6FactorENS5_11VariableSetENS3_6BufferES8_EEENS_10shared_ptrINS1_6KernelEE27__shared_ptr_default_deleteISC_S9_EENS_9allocatorIS9_EEEE, 
                       __ZTINSt3__120__shared_ptr_pointerIPN2gc11TypedKernelINS1_4lang4TileEJNS3_3est8VariableEEEENS_10shared_ptrINS1_6KernelEE27__shared_ptr_default_deleteISA_S7_EENS_9allocatorIS7_EEEE, 
                       __ZTINSt3__120__shared_ptr_pointerIPN2gc11TypedKernelINS1_4lang4TileEJNS3_3est8VariableENS3_6ScalarEEEENS_10shared_ptrINS1_6KernelEE27__shared_ptr_default_deleteISB_S8_EENS_9allocatorIS8_EEEE, 
                       __ZTINSt3__120__shared_ptr_pointerIPN2gc11TypedKernelINS1_4lang4TileEJNS3_5ArrayINS3_6BufferEEES7_EEENS_10shared_ptrINS1_6KernelEE27__shared_ptr_default_deleteISB_S8_EENS_9allocatorIS8_EEEE, 
                       __ZTINSt3__120__shared_ptr_pointerIPN2gc11TypedKernelINS1_4lang4TileEJNS3_6BufferEEEENS_10shared_ptrINS1_6KernelEE27__shared_ptr_default_deleteIS9_S6_EENS_9allocatorIS6_EEEE, 
                       __ZTINSt3__120__shared_ptr_pointerIPN2gc11TypedKernelINS1_4lang4TileEJNS3_6BufferENS3_3est6FactorERNS6_11JacobianSetENS3_5ArrayIS5_EENSA_INS6_14FactorOrderingEEERNS6_16BlockMatrixArrayESB_EEENS_10shared_ptrINS1_6KernelEE27__shared_ptr_default_deleteISJ_SG_EENS_9allocatorISG_EEEE, 
                       __ZTINSt3__120__shared_ptr_pointerIPN2gc11TypedKernelINS1_4lang4TileEJNS3_6BufferENS3_3est8VariableEEEENS_10shared_ptrINS1_6KernelEE27__shared_ptr_default_deleteISB_S8_EENS_9allocatorIS8_EEEE, 
                       __ZTINSt3__120__shared_ptr_pointerIPN2gc11TypedKernelINS1_4lang4TileEJNS3_6BufferENS3_5ArrayINS3_3est8VariableEEEEEENS_10shared_ptrINS1_6KernelEE27__shared_ptr_default_deleteISD_SA_EENS_9allocatorISA_EEEE, 
                       __ZTINSt3__120__shared_ptr_pointerIPN2gc11TypedKernelINS1_4lang4TileEJNS3_6BufferENS3_5ArrayIS5_EES7_NS3_3est6FactorERNS8_14FactorOrderingENS8_22SchurEliminatedHessianES5_EEENS_10shared_ptrINS1_6KernelEE27__shared_ptr_default_deleteISG_SD_EENS_9allocatorISD_EEEE, 
                       __ZTINSt3__120__shared_ptr_pointerIPN2gc11TypedKernelINS1_4lang4TileEJNS3_6BufferENS3_6ScalarES5_EEENS_10shared_ptrINS1_6KernelEE27__shared_ptr_default_deleteISA_S7_EENS_9allocatorIS7_EEEE, 
                       __ZTINSt3__120__shared_ptr_pointerIPN2gc11TypedKernelINS1_4lang4TileEJNS3_6BufferENS3_6ScalarES5_S5_EEENS_10shared_ptrINS1_6KernelEE27__shared_ptr_default_deleteISA_S7_EENS_9allocatorIS7_EEEE, 
                       __ZTINSt3__120__shared_ptr_pointerIPN2gc11TypedKernelINS1_4lang4TileEJNS3_6BufferENS3_6ScalarES6_S6_S6_S6_S5_S5_S5_EEENS_10shared_ptrINS1_6KernelEE27__shared_ptr_default_deleteISA_S7_EENS_9allocatorIS7_EEEE, 
                       __ZTINSt3__120__shared_ptr_pointerIPN2gc11TypedKernelINS1_4lang4TileEJNS3_6BufferERNS3_3est8JacobianENS6_14FactorOrderingENS3_6ScalarES5_S5_EEENS_10shared_ptrINS1_6KernelEE27__shared_ptr_default_deleteISE_SB_EENS_9allocatorISB_EEEE, 
                       __ZTINSt3__120__shared_ptr_pointerIPN2gc11TypedKernelINS1_4lang4TileEJNS3_6BufferERNS3_3est8JacobianENS6_14FactorOrderingES5_S5_S5_S5_S5_EEENS_10shared_ptrINS1_6KernelEE27__shared_ptr_default_deleteISD_SA_EENS_9allocatorISA_EEEE, 
                       __ZTINSt3__120__shared_ptr_pointerIPN2gc11TypedKernelINS1_4lang4TileEJNS3_6BufferERNS3_3est8JacobianENS6_6FactorERNS6_11JacobianSetERNS6_14FactorOrderingES5_NS3_5ArrayIS5_EENSE_ISC_EERNS3_6ScalarERNS6_16BlockMatrixArrayENS6_22SchurEliminatedHessianESF_S5_S5_EEENS_10shared_ptrINS1_6KernelEE27__shared_ptr_default_deleteISP_SM_EENS_9allocatorISM_EEEE, 
                       __ZTINSt3__120__shared_ptr_pointerIPN2gc11TypedKernelINS1_4lang4TileEJNS3_6BufferERNS3_3est8JacobianES5_S5_EEENS_10shared_ptrINS1_6KernelEE27__shared_ptr_default_deleteISC_S9_EENS_9allocatorIS9_EEEE, 
                       __ZTINSt3__120__shared_ptr_pointerIPN2gc11TypedKernelINS1_4lang4TileEJNS3_6BufferES5_EEENS_10shared_ptrINS1_6KernelEE27__shared_ptr_default_deleteIS9_S6_EENS_9allocatorIS6_EEEE, 
                       __ZTINSt3__120__shared_ptr_pointerIPN2gc11TypedKernelINS1_4lang4TileEJNS3_6BufferES5_NS3_5ArrayINS3_3est8VariableEEEEEENS_10shared_ptrINS1_6KernelEE27__shared_ptr_default_deleteISD_SA_EENS_9allocatorISA_EEEE, 
                       __ZTINSt3__120__shared_ptr_pointerIPN2gc11TypedKernelINS1_4lang4TileEJNS3_6BufferES5_RNS3_3est8JacobianES5_S5_EEENS_10shared_ptrINS1_6KernelEE27__shared_ptr_default_deleteISC_S9_EENS_9allocatorIS9_EEEE, 
                       __ZTINSt3__120__shared_ptr_pointerIPN2gc11TypedKernelINS1_4lang4TileEJNS3_6BufferES5_S5_EEENS_10shared_ptrINS1_6KernelEE27__shared_ptr_default_deleteIS9_S6_EENS_9allocatorIS6_EEEE, 
                       __ZTINSt3__120__shared_ptr_pointerIPN2gc11TypedKernelINS1_4lang4TileEJNS3_6BufferES5_S5_S5_EEENS_10shared_ptrINS1_6KernelEE27__shared_ptr_default_deleteIS9_S6_EENS_9allocatorIS6_EEEE, 
                       __ZTINSt3__120__shared_ptr_pointerIPN2gc11TypedKernelINS1_4lang4TileEJNS3_6BufferES5_S5_S5_S5_S5_S5_EEENS_10shared_ptrINS1_6KernelEE27__shared_ptr_default_deleteIS9_S6_EENS_9allocatorIS6_EEEE, 
                       __ZTINSt3__120__shared_ptr_pointerIPN2gc11TypedKernelINS1_4lang4TileEJNS3_6ScalarENS3_6BufferES6_EEENS_10shared_ptrINS1_6KernelEE27__shared_ptr_default_deleteISA_S7_EENS_9allocatorIS7_EEEE, 
                       __ZTINSt3__120__shared_ptr_pointerIPN2gc11TypedKernelINS1_4lang4TileEJNS3_6ScalarERNS3_3est11BlockMatrixEEEENS_10shared_ptrINS1_6KernelEE27__shared_ptr_default_deleteISC_S9_EENS_9allocatorIS9_EEEE, 
                       __ZTINSt3__120__shared_ptr_pointerIPN2gc11TypedKernelINS1_4lang4TileEJRNS3_3est11BlockMatrixEEEENS_10shared_ptrINS1_6KernelEE27__shared_ptr_default_deleteISB_S8_EENS_9allocatorIS8_EEEE, 
                       __ZTINSt3__120__shared_ptr_pointerIPN2gc11TypedKernelINS1_4lang4TileEJRNS3_3est11BlockMatrixENS3_6BufferES8_EEENS_10shared_ptrINS1_6KernelEE27__shared_ptr_default_deleteISC_S9_EENS_9allocatorIS9_EEEE, 
                       __ZTINSt3__120__shared_ptr_pointerIPN2gc11TypedKernelINS1_4lang4TileEJRNS3_3est11BlockMatrixENS3_6BufferES8_S8_EEENS_10shared_ptrINS1_6KernelEE27__shared_ptr_default_deleteISC_S9_EENS_9allocatorIS9_EEEE, 
                       __ZTINSt3__120__shared_ptr_pointerIPN2gc11TypedKernelINS1_4lang4TileEJRNS3_3est11BlockMatrixENS3_6BufferES8_S8_RS8_EEENS_10shared_ptrINS1_6KernelEE27__shared_ptr_default_deleteISD_SA_EENS_9allocatorISA_EEEE, 
                       __ZTINSt3__120__shared_ptr_pointerIPN2gc11TypedKernelINS1_4lang4TileEJRNS3_3est11JacobianSetENS3_5ArrayINS5_14FactorOrderingEEENS8_INS3_6BufferEEESC_SB_EEENS_10shared_ptrINS1_6KernelEE27__shared_ptr_default_deleteISG_SD_EENS_9allocatorISD_EEEE, 
                       __ZTINSt3__120__shared_ptr_pointerIPN2gc11TypedKernelINS1_4lang4TileEJRNS3_3est14FactorOrderingENS3_6BufferERNS5_8JacobianES8_S8_EEENS_10shared_ptrINS1_6KernelEE27__shared_ptr_default_deleteISE_SB_EENS_9allocatorISB_EEEE, 
                       __ZTINSt3__120__shared_ptr_pointerIPN2gc11TypedKernelINS1_4lang4TileEJRNS3_3est14FactorOrderingERNS5_8JacobianENS3_6BufferERSA_EEENS_10shared_ptrINS1_6KernelEE27__shared_ptr_default_deleteISF_SC_EENS_9allocatorISC_EEEE, 
                       __ZTINSt3__120__shared_ptr_pointerIPN2gc11TypedKernelINS1_4lang4TileEJRNS3_3est14FactorOrderingERNS5_8JacobianENS3_6BufferESA_EEENS_10shared_ptrINS1_6KernelEE27__shared_ptr_default_deleteISE_SB_EENS_9allocatorISB_EEEE, 
                       __ZTINSt3__120__shared_ptr_pointerIPN2gc11TypedKernelINS1_4lang4TileEJRNS3_3est14FactorOrderingERNS5_8JacobianENS3_6BufferESA_SA_EEENS_10shared_ptrINS1_6KernelEE27__shared_ptr_default_deleteISE_SB_EENS_9allocatorISB_EEEE, 
                       __ZTINSt3__120__shared_ptr_pointerIPN2gc11TypedKernelINS1_4lang4TileEJRNS3_3est8JacobianENS3_6BufferES8_EEENS_10shared_ptrINS1_6KernelEE27__shared_ptr_default_deleteISC_S9_EENS_9allocatorIS9_EEEE, 
                       __ZTINSt3__120__shared_ptr_pointerIPN2gc11TypedKernelINS1_4lang4TileEJRNS3_3est8JacobianENS3_6BufferES8_S8_EEENS_10shared_ptrINS1_6KernelEE27__shared_ptr_default_deleteISC_S9_EENS_9allocatorIS9_EEEE, 
                       __ZTINSt3__120__shared_ptr_pointerIPN2gc11TypedKernelINS1_4lang4TileEJRNS3_3est8JacobianENS3_6BufferES8_S8_RS8_EEENS_10shared_ptrINS1_6KernelEE27__shared_ptr_default_deleteISD_SA_EENS_9allocatorISA_EEEE, 
                       __ZTINSt3__120__shared_ptr_pointerIPN2gc11TypedKernelINS1_4lang4TileEJRNS3_3est8JacobianENS3_6BufferES8_S8_S8_EEENS_10shared_ptrINS1_6KernelEE27__shared_ptr_default_deleteISC_S9_EENS_9allocatorIS9_EEEE, 
                       __ZTINSt3__120__shared_ptr_pointerIPN2gc11TypedKernelINS1_4lang4TileEJRNS3_3est8JacobianENS3_6BufferES8_S8_S8_S8_EEENS_10shared_ptrINS1_6KernelEE27__shared_ptr_default_deleteISC_S9_EENS_9allocatorIS9_EEEE, 
                       __ZTINSt3__120__shared_ptr_pointerIPN2gc11TypedKernelINS1_4lang4TileEJRNS3_3est8JacobianENS5_14FactorOrderingENS3_6BufferES9_EEENS_10shared_ptrINS1_6KernelEE27__shared_ptr_default_deleteISD_SA_EENS_9allocatorISA_EEEE, 
                       __ZTINSt3__120__shared_ptr_pointerIPN2gc11TypedKernelINS1_4lang4TileEJRNS3_3est8JacobianENS5_14FactorOrderingENS3_6BufferES9_S9_EEENS_10shared_ptrINS1_6KernelEE27__shared_ptr_default_deleteISD_SA_EENS_9allocatorISA_EEEE, 
                       __ZTINSt3__120__shared_ptr_pointerIPN2gc11TypedKernelINS1_4lang4TileEJRNS3_3est8JacobianENS5_14FactorOrderingENS3_6BufferES9_S9_S9_EEENS_10shared_ptrINS1_6KernelEE27__shared_ptr_default_deleteISD_SA_EENS_9allocatorISA_EEEE, 
                       __ZTINSt3__120__shared_ptr_pointerIPN2gc11TypedKernelINS1_4lang4TileEJRNS3_3est8JacobianENS5_14FactorOrderingES8_NS3_6BufferES9_S9_S9_S9_S9_EEENS_10shared_ptrINS1_6KernelEE27__shared_ptr_default_deleteISD_SA_EENS_9allocatorISA_EEEE, 
                       __ZTINSt3__120__shared_ptr_pointerIPN2gc11TypedObjectILNS1_11eObjectTypeE1EEENS_10shared_ptrINS1_6ObjectEE27__shared_ptr_default_deleteIS7_S4_EENS_9allocatorIS4_EEEE, 
                       __ZTINSt3__120__shared_ptr_pointerIPN2gc12BufferHandleENS_10shared_ptrIS2_E27__shared_ptr_default_deleteIS2_S2_EENS_9allocatorIS2_EEEE, 
                       __ZTINSt3__120__shared_ptr_pointerIPN2gc12ComputeGraphENS_10shared_ptrIS2_E27__shared_ptr_default_deleteIS2_S2_EENS_9allocatorIS2_EEEE, 
                       __ZTINSt3__120__shared_ptr_pointerIPN2gc12StagedKernelENS_10shared_ptrIS2_E27__shared_ptr_default_deleteIS2_S2_EENS_9allocatorIS2_EEEE, 
                       __ZTINSt3__120__shared_ptr_pointerIPN2gc13ExtentsBufferENS_10shared_ptrIS2_E27__shared_ptr_default_deleteIS2_S2_EENS_9allocatorIS2_EEEE, 
                       __ZTINSt3__120__shared_ptr_pointerIPN2gc14EqualInvariantENS_10shared_ptrINS1_17BindableInvariantEE27__shared_ptr_default_deleteIS5_S2_EENS_9allocatorIS2_EEEE, 
                       __ZTINSt3__120__shared_ptr_pointerIPN2gc15ScalarInvariantENS_10shared_ptrINS1_17BindableInvariantEE27__shared_ptr_default_deleteIS5_S2_EENS_9allocatorIS2_EEEE, 
                       __ZTINSt3__120__shared_ptr_pointerIPN2gc16BindableArgumentINS1_4lang3est11BlockMatrixEEENS_10shared_ptrINS1_22OpaqueBindableArgumentEE27__shared_ptr_default_deleteIS9_S6_EENS_9allocatorIS6_EEEE, 
                       __ZTINSt3__120__shared_ptr_pointerIPN2gc16BindableArgumentINS1_4lang3est11VariableSetEEENS_10shared_ptrINS1_22OpaqueBindableArgumentEE27__shared_ptr_default_deleteIS9_S6_EENS_9allocatorIS6_EEEE, 
                       __ZTINSt3__120__shared_ptr_pointerIPN2gc16BindableArgumentINS1_4lang3est12CostFunctionEEENS_10shared_ptrINS1_22OpaqueBindableArgumentEE27__shared_ptr_default_deleteIS9_S6_EENS_9allocatorIS6_EEEE, 
                       __ZTINSt3__120__shared_ptr_pointerIPN2gc16BindableArgumentINS1_4lang3est14FactorOrderingEEENS_10shared_ptrINS1_22OpaqueBindableArgumentEE27__shared_ptr_default_deleteIS9_S6_EENS_9allocatorIS6_EEEE, 
                       __ZTINSt3__120__shared_ptr_pointerIPN2gc16BindableArgumentINS1_4lang3est6FactorEEENS_10shared_ptrINS1_22OpaqueBindableArgumentEE27__shared_ptr_default_deleteIS9_S6_EENS_9allocatorIS6_EEEE, 
                       __ZTINSt3__120__shared_ptr_pointerIPN2gc16BindableArgumentINS1_4lang3est8VariableEEENS_10shared_ptrINS1_22OpaqueBindableArgumentEE27__shared_ptr_default_deleteIS9_S6_EENS_9allocatorIS6_EEEE, 
                       __ZTINSt3__120__shared_ptr_pointerIPN2gc16BindableArgumentINS1_4lang5ArrayINS3_6BufferEEEEENS_10shared_ptrINS1_22OpaqueBindableArgumentEE27__shared_ptr_default_deleteISA_S7_EENS_9allocatorIS7_EEEE, 
                       __ZTINSt3__120__shared_ptr_pointerIPN2gc16BindableArgumentINS1_4lang6BufferEEENS_10shared_ptrINS1_22OpaqueBindableArgumentEE27__shared_ptr_default_deleteIS8_S5_EENS_9allocatorIS5_EEEE, 
                       __ZTINSt3__120__shared_ptr_pointerIPN2gc16BufferHandleViewENS_10shared_ptrIS2_E27__shared_ptr_default_deleteIS2_S2_EENS_9allocatorIS2_EEEE, 
                       __ZTINSt3__120__shared_ptr_pointerIPN2gc16BufferParametersENS_10shared_ptrIS2_E27__shared_ptr_default_deleteIS2_S2_EENS_9allocatorIS2_EEEE, 
                       __ZTINSt3__120__shared_ptr_pointerIPN2gc16DefaultGeneratorENS_10shared_ptrINS1_9GeneratorEE27__shared_ptr_default_deleteIS5_S2_EENS_9allocatorIS2_EEEE, 
                       __ZTINSt3__120__shared_ptr_pointerIPN2gc16FunctionArgumentINS1_4lang3est11VariableSetES5_EENS_10shared_ptrIS6_E27__shared_ptr_default_deleteIS6_S6_EENS_9allocatorIS6_EEEE, 
                       __ZTINSt3__120__shared_ptr_pointerIPN2gc16FunctionArgumentINS1_4lang3est13BlockOrderingES5_EENS_10shared_ptrIS6_E27__shared_ptr_default_deleteIS6_S6_EENS_9allocatorIS6_EEEE, 
                       __ZTINSt3__120__shared_ptr_pointerIPN2gc16FunctionArgumentINS1_4lang3est14FactorOrderingES5_EENS_10shared_ptrIS6_E27__shared_ptr_default_deleteIS6_S6_EENS_9allocatorIS6_EEEE, 
                       __ZTINSt3__120__shared_ptr_pointerIPN2gc16FunctionArgumentINS1_4lang3est22SchurEliminatedHessianES5_EENS_10shared_ptrIS6_E27__shared_ptr_default_deleteIS6_S6_EENS_9allocatorIS6_EEEE, 
                       __ZTINSt3__120__shared_ptr_pointerIPN2gc16FunctionArgumentINS1_4lang3est6FactorES5_EENS_10shared_ptrIS6_E27__shared_ptr_default_deleteIS6_S6_EENS_9allocatorIS6_EEEE, 
                       __ZTINSt3__120__shared_ptr_pointerIPN2gc16FunctionArgumentINS1_4lang3est8VariableES5_EENS_10shared_ptrIS6_E27__shared_ptr_default_deleteIS6_S6_EENS_9allocatorIS6_EEEE, 
                       __ZTINSt3__120__shared_ptr_pointerIPN2gc16FunctionArgumentINS1_4lang5ArrayINS3_3est14FactorOrderingEEES7_EENS_10shared_ptrIS8_E27__shared_ptr_default_deleteIS8_S8_EENS_9allocatorIS8_EEEE, 
                       __ZTINSt3__120__shared_ptr_pointerIPN2gc16FunctionArgumentINS1_4lang5ArrayINS3_3est8VariableEEES7_EENS_10shared_ptrIS8_E27__shared_ptr_default_deleteIS8_S8_EENS_9allocatorIS8_EEEE, 
                       __ZTINSt3__120__shared_ptr_pointerIPN2gc16FunctionArgumentINS1_4lang5ArrayINS3_6BufferEEES6_EENS_10shared_ptrIS7_E27__shared_ptr_default_deleteIS7_S7_EENS_9allocatorIS7_EEEE, 
                       __ZTINSt3__120__shared_ptr_pointerIPN2gc16FunctionArgumentINS1_4lang6BufferES4_EENS_10shared_ptrIS5_E27__shared_ptr_default_deleteIS5_S5_EENS_9allocatorIS5_EEEE, 
                       __ZTINSt3__120__shared_ptr_pointerIPN2gc16FunctionArgumentINS1_4lang6ScalarES4_EENS_10shared_ptrIS5_E27__shared_ptr_default_deleteIS5_S5_EENS_9allocatorIS5_EEEE, 
                       __ZTINSt3__120__shared_ptr_pointerIPN2gc16FunctionArgumentIRNS1_4lang3est11BlockMatrixES5_EENS_10shared_ptrIS7_E27__shared_ptr_default_deleteIS7_S7_EENS_9allocatorIS7_EEEE, 
                       __ZTINSt3__120__shared_ptr_pointerIPN2gc16FunctionArgumentIRNS1_4lang3est11JacobianSetES5_EENS_10shared_ptrIS7_E27__shared_ptr_default_deleteIS7_S7_EENS_9allocatorIS7_EEEE, 
                       __ZTINSt3__120__shared_ptr_pointerIPN2gc16FunctionArgumentIRNS1_4lang3est14FactorOrderingES5_EENS_10shared_ptrIS7_E27__shared_ptr_default_deleteIS7_S7_EENS_9allocatorIS7_EEEE, 
                       __ZTINSt3__120__shared_ptr_pointerIPN2gc16FunctionArgumentIRNS1_4lang3est16BlockMatrixArrayES5_EENS_10shared_ptrIS7_E27__shared_ptr_default_deleteIS7_S7_EENS_9allocatorIS7_EEEE, 
                       __ZTINSt3__120__shared_ptr_pointerIPN2gc16FunctionArgumentIRNS1_4lang3est8JacobianES5_EENS_10shared_ptrIS7_E27__shared_ptr_default_deleteIS7_S7_EENS_9allocatorIS7_EEEE, 
                       __ZTINSt3__120__shared_ptr_pointerIPN2gc16FunctionArgumentIRNS1_4lang6BufferES4_EENS_10shared_ptrIS6_E27__shared_ptr_default_deleteIS6_S6_EENS_9allocatorIS6_EEEE, 
                       __ZTINSt3__120__shared_ptr_pointerIPN2gc16FunctionArgumentIRNS1_4lang6ScalarES4_EENS_10shared_ptrIS6_E27__shared_ptr_default_deleteIS6_S6_EENS_9allocatorIS6_EEEE, 
                       __ZTINSt3__120__shared_ptr_pointerIPN2gc17IntrinsicFunctionENS_10shared_ptrIS2_E27__shared_ptr_default_deleteIS2_S2_EENS_9allocatorIS2_EEEE, 
                       __ZTINSt3__120__shared_ptr_pointerIPN2gc18EqualTypeInvariantENS_10shared_ptrINS1_17BindableInvariantEE27__shared_ptr_default_deleteIS5_S2_EENS_9allocatorIS2_EEEE, 
                       __ZTINSt3__120__shared_ptr_pointerIPN2gc18ExactTypeInvariantENS_10shared_ptrINS1_17BindableInvariantEE27__shared_ptr_default_deleteIS5_S2_EENS_9allocatorIS2_EEEE, 
                       __ZTINSt3__120__shared_ptr_pointerIPN2gc18IncreasingRangeMapENS_10shared_ptrINS1_8RangeMapEE27__shared_ptr_default_deleteIS5_S2_EENS_9allocatorIS2_EEEE, 
                       __ZTINSt3__120__shared_ptr_pointerIPN2gc18MatrixProductRangeENS_10shared_ptrINS1_17BindableInvariantEE27__shared_ptr_default_deleteIS5_S2_EENS_9allocatorIS2_EEEE, 
                       __ZTINSt3__120__shared_ptr_pointerIPN2gc19EqualRangeInvariantENS_10shared_ptrINS1_17BindableInvariantEE27__shared_ptr_default_deleteIS5_S2_EENS_9allocatorIS2_EEEE, 
                       __ZTINSt3__120__shared_ptr_pointerIPN2gc19ExactBlockInvariantENS_10shared_ptrINS1_17BindableInvariantEE27__shared_ptr_default_deleteIS5_S2_EENS_9allocatorIS2_EEEE, 
                       __ZTINSt3__120__shared_ptr_pointerIPN2gc19ExactRangeInvariantENS_10shared_ptrINS1_17BindableInvariantEE27__shared_ptr_default_deleteIS5_S2_EENS_9allocatorIS2_EEEE, 
                       __ZTINSt3__120__shared_ptr_pointerIPN2gc20MatrixProductElementENS_10shared_ptrINS1_17BindableInvariantEE27__shared_ptr_default_deleteIS5_S2_EENS_9allocatorIS2_EEEE, 
                       __ZTINSt3__120__shared_ptr_pointerIPN2gc21StridedRangeInvariantENS_10shared_ptrINS1_17BindableInvariantEE27__shared_ptr_default_deleteIS5_S2_EENS_9allocatorIS2_EEEE, 
                       __ZTINSt3__120__shared_ptr_pointerIPN2gc21TypedExternalFunctionILNS1_13eTargetDeviceE1EEENS_10shared_ptrINS1_16ExternalFunctionEE27__shared_ptr_default_deleteIS7_S4_EENS_9allocatorIS4_EEEE, 
                       __ZTINSt3__120__shared_ptr_pointerIPN2gc22EqualElementsInvariantENS_10shared_ptrINS1_17BindableInvariantEE27__shared_ptr_default_deleteIS5_S2_EENS_9allocatorIS2_EEEE, 
                       __ZTINSt3__120__shared_ptr_pointerIPN2gc22ExactElementsInvariantENS_10shared_ptrINS1_17BindableInvariantEE27__shared_ptr_default_deleteIS5_S2_EENS_9allocatorIS2_EEEE, 
                       __ZTINSt3__120__shared_ptr_pointerIPN2gc22TypedScheduleTraitImplI17loopkit_rt_type_tEENS_10shared_ptrINS1_17ScheduleTraitImplEE27__shared_ptr_default_deleteIS7_S4_EENS_9allocatorIS4_EEEE, 
                       __ZTINSt3__120__shared_ptr_pointerIPN2gc22TypedScheduleTraitImplINS1_11eTargetASANEEENS_10shared_ptrINS1_17ScheduleTraitImplEE27__shared_ptr_default_deleteIS7_S4_EENS_9allocatorIS4_EEEE, 
                       __ZTINSt3__120__shared_ptr_pointerIPN2gc22TypedScheduleTraitImplINS1_12eParallelismEEENS_10shared_ptrINS1_17ScheduleTraitImplEE27__shared_ptr_default_deleteIS7_S4_EENS_9allocatorIS4_EEEE, 
                       __ZTINSt3__120__shared_ptr_pointerIPN2gc22TypedScheduleTraitImplINS1_12eTargetDebugEEENS_10shared_ptrINS1_17ScheduleTraitImplEE27__shared_ptr_default_deleteIS7_S4_EENS_9allocatorIS4_EEEE, 
                       __ZTINSt3__120__shared_ptr_pointerIPN2gc22TypedScheduleTraitImplINS1_13eCustomKernelEEENS_10shared_ptrINS1_17ScheduleTraitImplEE27__shared_ptr_default_deleteIS7_S4_EENS_9allocatorIS4_EEEE, 
                       __ZTINSt3__120__shared_ptr_pointerIPN2gc22TypedScheduleTraitImplINS1_13eKernelFusionEEENS_10shared_ptrINS1_17ScheduleTraitImplEE27__shared_ptr_default_deleteIS7_S4_EENS_9allocatorIS4_EEEE, 
                       __ZTINSt3__120__shared_ptr_pointerIPN2gc22TypedScheduleTraitImplINS1_13eTargetAssertEEENS_10shared_ptrINS1_17ScheduleTraitImplEE27__shared_ptr_default_deleteIS7_S4_EENS_9allocatorIS4_EEEE, 
                       __ZTINSt3__120__shared_ptr_pointerIPN2gc22TypedScheduleTraitImplINS1_13eTargetDeviceEEENS_10shared_ptrINS1_17ScheduleTraitImplEE27__shared_ptr_default_deleteIS7_S4_EENS_9allocatorIS4_EEEE, 
                       __ZTINSt3__120__shared_ptr_pointerIPN2gc22TypedScheduleTraitImplINS1_16eTargetProfilingEEENS_10shared_ptrINS1_17ScheduleTraitImplEE27__shared_ptr_default_deleteIS7_S4_EENS_9allocatorIS4_EEEE, 
                       __ZTINSt3__120__shared_ptr_pointerIPN2gc22TypedScheduleTraitImplINS1_16eTargetSignpostsEEENS_10shared_ptrINS1_17ScheduleTraitImplEE27__shared_ptr_default_deleteIS7_S4_EENS_9allocatorIS4_EEEE, 
                       __ZTINSt3__120__shared_ptr_pointerIPN2gc22TypedScheduleTraitImplINS1_3est13eJacobianTypeEEENS_10shared_ptrINS1_17ScheduleTraitImplEE27__shared_ptr_default_deleteIS8_S5_EENS_9allocatorIS5_EEEE, 
                       __ZTINSt3__120__shared_ptr_pointerIPN2gc23FunctionOfTypeInvariantENS_10shared_ptrINS1_17BindableInvariantEE27__shared_ptr_default_deleteIS5_S2_EENS_9allocatorIS2_EEEE, 
                       __ZTINSt3__120__shared_ptr_pointerIPN2gc24FunctionOfRangeInvariantENS_10shared_ptrINS1_17BindableInvariantEE27__shared_ptr_default_deleteIS5_S2_EENS_9allocatorIS2_EEEE, 
                       __ZTINSt3__120__shared_ptr_pointerIPN2gc24FunctionOfShapeInvariantENS_10shared_ptrINS1_17BindableInvariantEE27__shared_ptr_default_deleteIS5_S2_EENS_9allocatorIS2_EEEE, 
                       __ZTINSt3__120__shared_ptr_pointerIPN2gc24ScalarwiseRangeInvariantENS_10shared_ptrINS1_17BindableInvariantEE27__shared_ptr_default_deleteIS5_S2_EENS_9allocatorIS2_EEEE, 
                       __ZTINSt3__120__shared_ptr_pointerIPN2gc26FunctionOfElementInvariantENS_10shared_ptrINS1_17BindableInvariantEE27__shared_ptr_default_deleteIS5_S2_EENS_9allocatorIS2_EEEE, 
                       __ZTINSt3__120__shared_ptr_pointerIPN2gc3est10EvaluateHpENS_10shared_ptrINS1_9GeneratorEE27__shared_ptr_default_deleteIS6_S3_EENS_9allocatorIS3_EEEE, 
                       __ZTINSt3__120__shared_ptr_pointerIPN2gc3est10EvaluateJpENS_10shared_ptrINS1_9GeneratorEE27__shared_ptr_default_deleteIS6_S3_EENS_9allocatorIS3_EEEE, 
                       __ZTINSt3__120__shared_ptr_pointerIPN2gc3est11EvaluateJtJENS_10shared_ptrINS1_9GeneratorEE27__shared_ptr_default_deleteIS6_S3_EENS_9allocatorIS3_EEEE, 
                       __ZTINSt3__120__shared_ptr_pointerIPN2gc3est11EvaluateJteENS_10shared_ptrINS1_9GeneratorEE27__shared_ptr_default_deleteIS6_S3_EENS_9allocatorIS3_EEEE, 
                       __ZTINSt3__120__shared_ptr_pointerIPN2gc3est11FactorGraphENS_10shared_ptrIS3_E27__shared_ptr_default_deleteIS3_S3_EENS_9allocatorIS3_EEEE, 
                       __ZTINSt3__120__shared_ptr_pointerIPN2gc3est11PCGIterate1ENS_10shared_ptrINS1_9GeneratorEE27__shared_ptr_default_deleteIS6_S3_EENS_9allocatorIS3_EEEE, 
                       __ZTINSt3__120__shared_ptr_pointerIPN2gc3est11PCGIterate2ENS_10shared_ptrINS1_9GeneratorEE27__shared_ptr_default_deleteIS6_S3_EENS_9allocatorIS3_EEEE, 
                       __ZTINSt3__120__shared_ptr_pointerIPN2gc3est11TypedFactorILNS2_11eFactorTypeE1EEENS_10shared_ptrIS5_E27__shared_ptr_default_deleteIS5_S5_EENS_9allocatorIS5_EEEE, 
                       __ZTINSt3__120__shared_ptr_pointerIPN2gc3est12EvaluateJtJpENS_10shared_ptrINS1_9GeneratorEE27__shared_ptr_default_deleteIS6_S3_EENS_9allocatorIS3_EEEE, 
                       __ZTINSt3__120__shared_ptr_pointerIPN2gc3est12InvertBlockMENS_10shared_ptrINS1_9GeneratorEE27__shared_ptr_default_deleteIS6_S3_EENS_9allocatorIS3_EEEE, 
                       __ZTINSt3__120__shared_ptr_pointerIPN2gc3est13BlockOrderingENS_10shared_ptrIS3_E27__shared_ptr_default_deleteIS3_S3_EENS_9allocatorIS3_EEEE, 
                       __ZTINSt3__120__shared_ptr_pointerIPN2gc3est13TypedBoxMinusINS1_4lang6VectorENS4_3SE3EEENS_10shared_ptrIS7_E27__shared_ptr_default_deleteIS7_S7_EENS_9allocatorIS7_EEEE, 
                       __ZTINSt3__120__shared_ptr_pointerIPN2gc3est13TypedBoxMinusINS1_4lang6VectorENS4_3SO3EEENS_10shared_ptrIS7_E27__shared_ptr_default_deleteIS7_S7_EENS_9allocatorIS7_EEEE, 
                       __ZTINSt3__120__shared_ptr_pointerIPN2gc3est13VariableGroupENS_10shared_ptrIS3_E27__shared_ptr_default_deleteIS3_S3_EENS_9allocatorIS3_EEEE, 
                       __ZTINSt3__120__shared_ptr_pointerIPN2gc3est14EvaluateBlockMENS_10shared_ptrINS1_9GeneratorEE27__shared_ptr_default_deleteIS6_S3_EENS_9allocatorIS3_EEEE, 
                       __ZTINSt3__120__shared_ptr_pointerIPN2gc3est14ExtractDiagJtJENS_10shared_ptrINS1_9GeneratorEE27__shared_ptr_default_deleteIS6_S3_EENS_9allocatorIS3_EEEE, 
                       __ZTINSt3__120__shared_ptr_pointerIPN2gc3est14SchurLinearizeENS_10shared_ptrINS1_9GeneratorEE27__shared_ptr_default_deleteIS6_S3_EENS_9allocatorIS3_EEEE, 
                       __ZTINSt3__120__shared_ptr_pointerIPN2gc3est14TypedPCGSolverINS2_33ExplicitHessianLinearizationPointEEENS_10shared_ptrINS2_12LinearSolverEE27__shared_ptr_default_deleteIS8_S5_EENS_9allocatorIS5_EEEE, 
                       __ZTINSt3__120__shared_ptr_pointerIPN2gc3est14TypedPCGSolverINS2_33ImplicitHessianLinearizationPointEEENS_10shared_ptrINS2_12LinearSolverEE27__shared_ptr_default_deleteIS8_S5_EENS_9allocatorIS5_EEEE, 
                       __ZTINSt3__120__shared_ptr_pointerIPN2gc3est15DenseLDLTSolverENS_10shared_ptrINS2_12LinearSolverEE27__shared_ptr_default_deleteIS6_S3_EENS_9allocatorIS3_EEEE, 
                       __ZTINSt3__120__shared_ptr_pointerIPN2gc3est15FactorJacobiansENS_10shared_ptrIS3_E27__shared_ptr_default_deleteIS3_S3_EENS_9allocatorIS3_EEEE, 
                       __ZTINSt3__120__shared_ptr_pointerIPN2gc3est16DenseBlockMatrixENS_10shared_ptrINS2_11BlockMatrixEE27__shared_ptr_default_deleteIS6_S3_EENS_9allocatorIS3_EEEE, 
                       __ZTINSt3__120__shared_ptr_pointerIPN2gc3est16SparseLDLTSolverENS_10shared_ptrINS2_12LinearSolverEE27__shared_ptr_default_deleteIS6_S3_EENS_9allocatorIS3_EEEE, 
                       __ZTINSt3__120__shared_ptr_pointerIPN2gc3est17SymmetrizeDiagJtJENS_10shared_ptrINS1_9GeneratorEE27__shared_ptr_default_deleteIS6_S3_EENS_9allocatorIS3_EEEE, 
                       __ZTINSt3__120__shared_ptr_pointerIPN2gc3est18BasicFactorBuffersENS_10shared_ptrINS2_13FactorBuffersEE27__shared_ptr_default_deleteIS6_S3_EENS_9allocatorIS3_EEEE, 
                       __ZTINSt3__120__shared_ptr_pointerIPN2gc3est18ImplicitSchurJtJp1ENS_10shared_ptrINS1_9GeneratorEE27__shared_ptr_default_deleteIS6_S3_EENS_9allocatorIS3_EEEE, 
                       __ZTINSt3__120__shared_ptr_pointerIPN2gc3est18ImplicitSchurJtJp2ENS_10shared_ptrINS1_9GeneratorEE27__shared_ptr_default_deleteIS6_S3_EENS_9allocatorIS3_EEEE, 
                       __ZTINSt3__120__shared_ptr_pointerIPN2gc3est18TypedModelFunctionINS1_4lang3SE3EJRKS5_EEENS_10shared_ptrIS8_E27__shared_ptr_default_deleteIS8_S8_EENS_9allocatorIS8_EEEE, 
                       __ZTINSt3__120__shared_ptr_pointerIPN2gc3est18TypedModelFunctionINS1_4lang3SO3EJRKS5_EEENS_10shared_ptrIS8_E27__shared_ptr_default_deleteIS8_S8_EENS_9allocatorIS8_EEEE, 
                       __ZTINSt3__120__shared_ptr_pointerIPN2gc3est18TypedModelFunctionINS1_4lang6ScalarEJRKS5_EEENS_10shared_ptrIS8_E27__shared_ptr_default_deleteIS8_S8_EENS_9allocatorIS8_EEEE, 
                       __ZTINSt3__120__shared_ptr_pointerIPN2gc3est18TypedModelFunctionINS1_4lang6VectorEJRKS5_EEENS_10shared_ptrIS8_E27__shared_ptr_default_deleteIS8_S8_EENS_9allocatorIS8_EEEE, 
                       __ZTINSt3__120__shared_ptr_pointerIPN2gc3est19BasicFactorOrderingENS_10shared_ptrINS2_14FactorOrderingEE27__shared_ptr_default_deleteIS6_S3_EENS_9allocatorIS3_EEEE, 
                       __ZTINSt3__120__shared_ptr_pointerIPN2gc3est20BitmappedBlockMatrixENS_10shared_ptrINS2_11BlockMatrixEE27__shared_ptr_default_deleteIS6_S3_EENS_9allocatorIS3_EEEE, 
                       __ZTINSt3__120__shared_ptr_pointerIPN2gc3est20MaterializeJacobiansENS_10shared_ptrINS1_9GeneratorEE27__shared_ptr_default_deleteIS6_S3_EENS_9allocatorIS3_EEEE, 
                       __ZTINSt3__120__shared_ptr_pointerIPN2gc3est20SchurBackSubstitute1ENS_10shared_ptrINS1_9GeneratorEE27__shared_ptr_default_deleteIS6_S3_EENS_9allocatorIS3_EEEE, 
                       __ZTINSt3__120__shared_ptr_pointerIPN2gc3est20SchurBackSubstitute2ENS_10shared_ptrINS1_9GeneratorEE27__shared_ptr_default_deleteIS6_S3_EENS_9allocatorIS3_EEEE, 
                       __ZTINSt3__120__shared_ptr_pointerIPN2gc3est20TrustRegionMinimizerENS_10shared_ptrIS3_E27__shared_ptr_default_deleteIS3_S3_EENS_9allocatorIS3_EEEE, 
                       __ZTINSt3__120__shared_ptr_pointerIPN2gc3est21StandardGaussianNoiseENS_10shared_ptrINS2_10NoiseModelEE27__shared_ptr_default_deleteIS6_S3_EENS_9allocatorIS3_EEEE, 
                       __ZTINSt3__120__shared_ptr_pointerIPN2gc3est21VariadicFactorBuffersENS_10shared_ptrINS2_13FactorBuffersEE27__shared_ptr_default_deleteIS6_S3_EENS_9allocatorIS3_EEEE, 
                       __ZTINSt3__120__shared_ptr_pointerIPN2gc3est22EvaluateBatchGradientsENS_10shared_ptrINS1_9GeneratorEE27__shared_ptr_default_deleteIS6_S3_EENS_9allocatorIS3_EEEE, 
                       __ZTINSt3__120__shared_ptr_pointerIPN2gc3est22IsotropicGaussianNoiseENS_10shared_ptrINS2_10NoiseModelEE27__shared_ptr_default_deleteIS6_S3_EENS_9allocatorIS3_EEEE, 
                       __ZTINSt3__120__shared_ptr_pointerIPN2gc3est22ModelErrorCostFunctionENS_10shared_ptrIS3_E27__shared_ptr_default_deleteIS3_S3_EENS_9allocatorIS3_EEEE, 
                       __ZTINSt3__120__shared_ptr_pointerIPN2gc3est22VariadicFactorOrderingENS_10shared_ptrINS2_14FactorOrderingEE27__shared_ptr_default_deleteIS6_S3_EENS_9allocatorIS3_EEEE, 
                       __ZTINSt3__120__shared_ptr_pointerIPN2gc3est24AnisotropicGaussianNoiseENS_10shared_ptrINS2_10NoiseModelEE27__shared_ptr_default_deleteIS6_S3_EENS_9allocatorIS3_EEEE, 
                       __ZTINSt3__120__shared_ptr_pointerIPN2gc3est24CompressedRowBlockMatrixENS_10shared_ptrINS2_11BlockMatrixEE27__shared_ptr_default_deleteIS6_S3_EENS_9allocatorIS3_EEEE, 
                       __ZTINSt3__120__shared_ptr_pointerIPN2gc3est24ImplicitSchurInitialize1ENS_10shared_ptrINS1_9GeneratorEE27__shared_ptr_default_deleteIS6_S3_EENS_9allocatorIS3_EEEE, 
                       __ZTINSt3__120__shared_ptr_pointerIPN2gc3est24ImplicitSchurInitialize2ENS_10shared_ptrINS1_9GeneratorEE27__shared_ptr_default_deleteIS6_S3_EENS_9allocatorIS3_EEEE, 
                       __ZTINSt3__120__shared_ptr_pointerIPN2gc3est24ImplicitSchurInitialize3ENS_10shared_ptrINS1_9GeneratorEE27__shared_ptr_default_deleteIS6_S3_EENS_9allocatorIS3_EEEE, 
                       __ZTINSt3__120__shared_ptr_pointerIPN2gc3est24LeastSquaresCostFunctionENS_10shared_ptrIS3_E27__shared_ptr_default_deleteIS3_S3_EENS_9allocatorIS3_EEEE, 
                       __ZTINSt3__120__shared_ptr_pointerIPN2gc3est25ApplyJacobiPreconditionerENS_10shared_ptrINS1_9GeneratorEE27__shared_ptr_default_deleteIS6_S3_EENS_9allocatorIS3_EEEE, 
                       __ZTINSt3__120__shared_ptr_pointerIPN2gc3est26L2LeastSquaresLossFunctionENS_10shared_ptrIS3_E27__shared_ptr_default_deleteIS3_S3_EENS_9allocatorIS3_EEEE, 
                       __ZTINSt3__120__shared_ptr_pointerIPN2gc3est28ImplicitSchurBackSubstitute1ENS_10shared_ptrINS1_9GeneratorEE27__shared_ptr_default_deleteIS6_S3_EENS_9allocatorIS3_EEEE, 
                       __ZTINSt3__120__shared_ptr_pointerIPN2gc3est28ImplicitSchurBackSubstitute2ENS_10shared_ptrINS1_9GeneratorEE27__shared_ptr_default_deleteIS6_S3_EENS_9allocatorIS3_EEEE, 
                       __ZTINSt3__120__shared_ptr_pointerIPN2gc3est29TypedLeastSquaresLossFunctionIJNS1_4lang6ScalarEEEENS_10shared_ptrIS6_E27__shared_ptr_default_deleteIS6_S6_EENS_9allocatorIS6_EEEE, 
                       __ZTINSt3__120__shared_ptr_pointerIPN2gc3est30ApplyAdditiveLMDampingExplicitENS_10shared_ptrINS1_9GeneratorEE27__shared_ptr_default_deleteIS6_S3_EENS_9allocatorIS3_EEEE, 
                       __ZTINSt3__120__shared_ptr_pointerIPN2gc3est30ApplyAdditiveLMDampingImplicitENS_10shared_ptrINS1_9GeneratorEE27__shared_ptr_default_deleteIS6_S3_EENS_9allocatorIS3_EEEE, 
                       __ZTINSt3__120__shared_ptr_pointerIPN2gc3est30ApplyBlockJacobiPreconditionerENS_10shared_ptrINS1_9GeneratorEE27__shared_ptr_default_deleteIS6_S3_EENS_9allocatorIS3_EEEE, 
                       __ZTINSt3__120__shared_ptr_pointerIPN2gc3est32BatchGradientsLinearizationPointENS_10shared_ptrIS3_E27__shared_ptr_default_deleteIS3_S3_EENS_9allocatorIS3_EEEE, 
                       __ZTINSt3__120__shared_ptr_pointerIPN2gc3est33ApplyAdditiveLMDampingToDiagonalsENS_10shared_ptrINS1_9GeneratorEE27__shared_ptr_default_deleteIS6_S3_EENS_9allocatorIS3_EEEE, 
                       __ZTINSt3__120__shared_ptr_pointerIPN2gc3est33ExplicitHessianLinearizationPointENS_10shared_ptrIS3_E27__shared_ptr_default_deleteIS3_S3_EENS_9allocatorIS3_EEEE, 
                       __ZTINSt3__120__shared_ptr_pointerIPN2gc3est33ImplicitHessianLinearizationPointENS_10shared_ptrIS3_E27__shared_ptr_default_deleteIS3_S3_EENS_9allocatorIS3_EEEE, 
                       __ZTINSt3__120__shared_ptr_pointerIPN2gc3est36ApplyMultiplicativeLMDampingExplicitENS_10shared_ptrINS1_9GeneratorEE27__shared_ptr_default_deleteIS6_S3_EENS_9allocatorIS3_EEEE, 
                       __ZTINSt3__120__shared_ptr_pointerIPN2gc3est36ApplyMultiplicativeLMDampingImplicitENS_10shared_ptrINS1_9GeneratorEE27__shared_ptr_default_deleteIS6_S3_EENS_9allocatorIS3_EEEE, 
                       __ZTINSt3__120__shared_ptr_pointerIPN2gc3est39ApplyMultiplicativeLMDampingToDiagonalsENS_10shared_ptrINS1_9GeneratorEE27__shared_ptr_default_deleteIS6_S3_EENS_9allocatorIS3_EEEE, 
                       __ZTINSt3__120__shared_ptr_pointerIPN2gc3est3SE3ENS_10shared_ptrINS2_8VariableEE27__shared_ptr_default_deleteIS6_S3_EENS_9allocatorIS3_EEEE, 
                       __ZTINSt3__120__shared_ptr_pointerIPN2gc3est3SO3ENS_10shared_ptrINS2_8VariableEE27__shared_ptr_default_deleteIS6_S3_EENS_9allocatorIS3_EEEE, 
                       __ZTINSt3__120__shared_ptr_pointerIPN2gc3est4AdamENS_10shared_ptrIS3_E27__shared_ptr_default_deleteIS3_S3_EENS_9allocatorIS3_EEEE, 
                       __ZTINSt3__120__shared_ptr_pointerIPN2gc3est51ExplicitHessianLinearizationPointLevenbergMarquardtENS_10shared_ptrINS2_19TrustRegionStrategyEE27__shared_ptr_default_deleteIS6_S3_EENS_9allocatorIS3_EEEE, 
                       __ZTINSt3__120__shared_ptr_pointerIPN2gc3est51ImplicitHessianLinearizationPointLevenbergMarquardtENS_10shared_ptrINS2_19TrustRegionStrategyEE27__shared_ptr_default_deleteIS6_S3_EENS_9allocatorIS3_EEEE, 
                       __ZTINSt3__120__shared_ptr_pointerIPN2gc3est53ExplicitHessianLinearizationPointJacobiPreconditionerENS_10shared_ptrINS2_14PreconditionerEE27__shared_ptr_default_deleteIS6_S3_EENS_9allocatorIS3_EEEE, 
                       __ZTINSt3__120__shared_ptr_pointerIPN2gc3est53ImplicitHessianLinearizationPointJacobiPreconditionerENS_10shared_ptrINS2_14PreconditionerEE27__shared_ptr_default_deleteIS6_S3_EENS_9allocatorIS3_EEEE, 
                       __ZTINSt3__120__shared_ptr_pointerIPN2gc3est58ExplicitHessianLinearizationPointBlockJacobiPreconditionerENS_10shared_ptrINS2_14PreconditionerEE27__shared_ptr_default_deleteIS6_S3_EENS_9allocatorIS3_EEEE, 
                       __ZTINSt3__120__shared_ptr_pointerIPN2gc3est58ImplicitHessianLinearizationPointBlockJacobiPreconditionerENS_10shared_ptrINS2_14PreconditionerEE27__shared_ptr_default_deleteIS6_S3_EENS_9allocatorIS3_EEEE, 
                       __ZTINSt3__120__shared_ptr_pointerIPN2gc3est6FactorENS_10shared_ptrIS3_E27__shared_ptr_default_deleteIS3_S3_EENS_9allocatorIS3_EEEE, 
                       __ZTINSt3__120__shared_ptr_pointerIPN2gc3est6ScalarENS_10shared_ptrINS2_8VariableEE27__shared_ptr_default_deleteIS6_S3_EENS_9allocatorIS3_EEEE, 
                       __ZTINSt3__120__shared_ptr_pointerIPN2gc3est6VectorENS_10shared_ptrINS2_8VariableEE27__shared_ptr_default_deleteIS6_S3_EENS_9allocatorIS3_EEEE, 
                       __ZTINSt3__120__shared_ptr_pointerIPN2gc3est7InvertMENS_10shared_ptrINS1_9GeneratorEE27__shared_ptr_default_deleteIS6_S3_EENS_9allocatorIS3_EEEE, 
                       __ZTINSt3__120__shared_ptr_pointerIPN2gc3est7ProblemENS_10shared_ptrIS3_E27__shared_ptr_default_deleteIS3_S3_EENS_9allocatorIS3_EEEE, 
                       __ZTINSt3__120__shared_ptr_pointerIPN2gc3est8BoxMinusENS_10shared_ptrIS3_E27__shared_ptr_default_deleteIS3_S3_EENS_9allocatorIS3_EEEE, 
                       __ZTINSt3__120__shared_ptr_pointerIPN2gc3ops11OpGeneratorENS_10shared_ptrINS1_9GeneratorEE27__shared_ptr_default_deleteIS6_S3_EENS_9allocatorIS3_EEEE, 
                       __ZTINSt3__120__shared_ptr_pointerIPN2gc3ops6detail27TypedFunctionReturnTypeImplILm0EEENS_10shared_ptrINS3_22FunctionReturnTypeImplEE27__shared_ptr_default_deleteIS8_S5_EENS_9allocatorIS5_EEEE, 
                       __ZTINSt3__120__shared_ptr_pointerIPN2gc3ops6detail27TypedFunctionReturnTypeImplILm1EEENS_10shared_ptrINS3_22FunctionReturnTypeImplEE27__shared_ptr_default_deleteIS8_S5_EENS_9allocatorIS5_EEEE, 
                       __ZTINSt3__120__shared_ptr_pointerIPN2gc4TileENS_10shared_ptrIS2_E27__shared_ptr_default_deleteIS2_S2_EENS_9allocatorIS2_EEEE, 
                       __ZTINSt3__120__shared_ptr_pointerIPN2gc4lang3est19BasicFactorOrderingENS_10shared_ptrINS3_18FactorOrderingImplEE27__shared_ptr_default_deleteIS7_S4_EENS_9allocatorIS4_EEEE, 
                       __ZTINSt3__120__shared_ptr_pointerIPN2gc4lang3est22VariadicFactorOrderingENS_10shared_ptrINS3_18FactorOrderingImplEE27__shared_ptr_default_deleteIS7_S4_EENS_9allocatorIS4_EEEE, 
                       __ZTINSt3__120__shared_ptr_pointerIPN2gc4lang4simd15SIMDMatMultPlanENS_10shared_ptrINS3_11MatMultPlanEE27__shared_ptr_default_deleteIS7_S4_EENS_9allocatorIS4_EEEE, 
                       __ZTINSt3__120__shared_ptr_pointerIPN2gc4lang4simd18GeneralMatMultPlanENS_10shared_ptrINS3_11MatMultPlanEE27__shared_ptr_default_deleteIS7_S4_EENS_9allocatorIS4_EEEE, 
                       __ZTINSt3__120__shared_ptr_pointerIPN2gc4lang4simd21SIMDLargeKMatMultPlanENS_10shared_ptrINS3_11MatMultPlanEE27__shared_ptr_default_deleteIS7_S4_EENS_9allocatorIS4_EEEE, 
                       __ZTINSt3__120__shared_ptr_pointerIPN2gc4lang4simd21SIMDSmallKMatMultPlanENS_10shared_ptrINS3_11MatMultPlanEE27__shared_ptr_default_deleteIS7_S4_EENS_9allocatorIS4_EEEE, 
                       __ZTINSt3__120__shared_ptr_pointerIPN2gc4lang4simd22SIMDInnerProductMatrixENS_10shared_ptrINS3_18InnerProductMatrixEE27__shared_ptr_default_deleteIS7_S4_EENS_9allocatorIS4_EEEE, 
                       __ZTINSt3__120__shared_ptr_pointerIPN2gc4lang4simd25GeneralInnerProductMatrixENS_10shared_ptrINS3_18InnerProductMatrixEE27__shared_ptr_default_deleteIS7_S4_EENS_9allocatorIS4_EEEE, 
                       __ZTINSt3__120__shared_ptr_pointerIPN2gc4lang4simd27SIMDInnerProductAccumulatorENS_10shared_ptrINS3_23InnerProductAccumulatorEE27__shared_ptr_default_deleteIS7_S4_EENS_9allocatorIS4_EEEE, 
                       __ZTINSt3__120__shared_ptr_pointerIPN2gc4lang4simd28SIMDCachedInnerProductMatrixENS_10shared_ptrINS3_18InnerProductMatrixEE27__shared_ptr_default_deleteIS7_S4_EENS_9allocatorIS4_EEEE, 
                       __ZTINSt3__120__shared_ptr_pointerIPN2gc4lang4simd29LargeKInnerProductAccumulatorENS_10shared_ptrINS3_23InnerProductAccumulatorEE27__shared_ptr_default_deleteIS7_S4_EENS_9allocatorIS4_EEEE, 
                       __ZTINSt3__120__shared_ptr_pointerIPN2gc4lang4simd29SmallKInnerProductAccumulatorENS_10shared_ptrINS3_23InnerProductAccumulatorEE27__shared_ptr_default_deleteIS7_S4_EENS_9allocatorIS4_EEEE, 
                       __ZTINSt3__120__shared_ptr_pointerIPN2gc4lang4simd30GeneralInnerProductAccumulatorENS_10shared_ptrINS3_23InnerProductAccumulatorEE27__shared_ptr_default_deleteIS7_S4_EENS_9allocatorIS4_EEEE, 
                       __ZTINSt3__120__shared_ptr_pointerIPN2gc5RangeENS_10shared_ptrIS2_E27__shared_ptr_default_deleteIS2_S2_EENS_9allocatorIS2_EEEE, 
                       __ZTINSt3__120__shared_ptr_pointerIPN2gc6BufferENS_10shared_ptrIS2_E27__shared_ptr_default_deleteIS2_S2_EENS_9allocatorIS2_EEEE, 
                       __ZTINSt3__120__shared_ptr_pointerIPN2gc6ScalarENS_10shared_ptrIS2_E27__shared_ptr_default_deleteIS2_S2_EENS_9allocatorIS2_EEEE, 
                       __ZTINSt3__120__shared_ptr_pointerIPN2gc6VectorENS_10shared_ptrIS2_E27__shared_ptr_default_deleteIS2_S2_EENS_9allocatorIS2_EEEE, 
                       __ZTINSt3__120__shared_ptr_pointerIPN2gc7LibraryENS_10shared_ptrIS2_E27__shared_ptr_default_deleteIS2_S2_EENS_9allocatorIS2_EEEE, 
                       __ZTINSt3__120__shared_ptr_pointerIPN2gc7ProgramENS_10shared_ptrIS2_E27__shared_ptr_default_deleteIS2_S2_EENS_9allocatorIS2_EEEE, 
                       __ZTINSt3__120__shared_ptr_pointerIPN2gc8PipelineENS_10shared_ptrIS2_E27__shared_ptr_default_deleteIS2_S2_EENS_9allocatorIS2_EEEE, 
                       __ZTINSt3__120__shared_ptr_pointerIPN2gc9float16_tENS1_13BufferDeleterENS_9allocatorIS2_EEEE, 
                       __ZTINSt3__120__shared_ptr_pointerIPaN2gc13BufferDeleterENS_9allocatorIaEEEE, 
                       __ZTINSt3__120__shared_ptr_pointerIPdN2gc13BufferDeleterENS_9allocatorIdEEEE, 
                       __ZTINSt3__120__shared_ptr_pointerIPfN2gc13BufferDeleterENS_9allocatorIfEEEE, 
                       __ZTINSt3__120__shared_ptr_pointerIPhN2gc13BufferDeleterENS_9allocatorIhEEEE, 
                       __ZTINSt3__120__shared_ptr_pointerIPiN2gc13BufferDeleterENS_9allocatorIiEEEE, 
                       __ZTINSt3__120__shared_ptr_pointerIPjN2gc13BufferDeleterENS_9allocatorIjEEEE, 
                       __ZTINSt3__120__shared_ptr_pointerIPsN2gc13BufferDeleterENS_9allocatorIsEEEE, 
                       __ZTINSt3__120__shared_ptr_pointerIPtN2gc13BufferDeleterENS_9allocatorItEEEE, 
                       __ZTINSt3__120__shared_ptr_pointerIPxN2gc13BufferDeleterENS_9allocatorIxEEEE, 
                       __ZTINSt3__120__shared_ptr_pointerIPyN2gc13BufferDeleterENS_9allocatorIyEEEE, 
                       __ZTINSt3__123enable_shared_from_thisIN2gc12BufferHandleEEE, 
                       __ZTINSt3__123enable_shared_from_thisIN2gc16GeneratorFactoryEEE, 
                       __ZTINSt3__123enable_shared_from_thisIN2gc22OpaqueBindableArgumentEEE, 
                       __ZTINSt3__123enable_shared_from_thisIN2gc3ops6OpBaseEEE, 
                       __ZTINSt3__123enable_shared_from_thisIN2gc6BufferEEE, __ZTINSt3__123enable_shared_from_thisIN2gc8RangeMapEEE, 
                       __ZTINSt3__133__unary_function_keep_layout_baseIN2gc4lang4TileEvEE, 
                       __ZTINSt3__133__unary_function_keep_layout_baseIRKN2gc3est8VariableENS1_4util10TaggedBoolINS2_15IsEliminableTagEEEEE, 
                       __ZTINSt3__134__binary_function_keep_layout_baseIN2gc4lang4TileENS2_3est8VariableEvEE, 
                       __ZTINSt3__134__binary_function_keep_layout_baseIN2gc4lang4TileENS2_6BufferEvEE, 
                       __ZTINSt3__134__binary_function_keep_layout_baseIN2gc4lang4TileERNS2_3est11BlockMatrixEvEE, 
                       __ZTINSt3__18functionIFN2gc4util10TaggedBoolINS1_3est15IsEliminableTagEEERKNS4_8VariableEEEE, 
                       __ZTINSt3__18functionIFvN2gc4lang4TileEEEE, __ZTINSt3__18functionIFvN2gc4lang4TileENS2_3est13BlockOrderingENS4_14FactorOrderingERNS4_8JacobianERNS4_11BlockMatrixEEEE, 
                       __ZTINSt3__18functionIFvN2gc4lang4TileENS2_3est13BlockOrderingENS4_14FactorOrderingES6_RNS4_11JacobianSetERNS4_11BlockMatrixEEEE, 
                       __ZTINSt3__18functionIFvN2gc4lang4TileENS2_3est14FactorOrderingENS4_6FactorENS4_11VariableSetENS2_6ScalarERNS2_6BufferEEEE, 
                       __ZTINSt3__18functionIFvN2gc4lang4TileENS2_3est14FactorOrderingERNS4_8JacobianENS2_6BufferES8_EEE, 
                       __ZTINSt3__18functionIFvN2gc4lang4TileENS2_3est6FactorENS2_6BufferENS2_5ArrayINS4_14FactorOrderingEEENS4_11VariableSetENS7_IS6_EESB_EEE, 
                       __ZTINSt3__18functionIFvN2gc4lang4TileENS2_3est6FactorENS4_11VariableSetENS2_6BufferEEEE, 
                       __ZTINSt3__18functionIFvN2gc4lang4TileENS2_3est6FactorENS4_11VariableSetENS2_6BufferES7_EEE, 
                       __ZTINSt3__18functionIFvN2gc4lang4TileENS2_3est8VariableEEEE, 
                       __ZTINSt3__18functionIFvN2gc4lang4TileENS2_3est8VariableENS2_6ScalarEEEE, 
                       __ZTINSt3__18functionIFvN2gc4lang4TileENS2_5ArrayINS2_6BufferEEES6_EEE, 
                       __ZTINSt3__18functionIFvN2gc4lang4TileENS2_6BufferEEEE, __ZTINSt3__18functionIFvN2gc4lang4TileENS2_6BufferENS2_3est6FactorERNS5_11JacobianSetENS2_5ArrayIS4_EENS9_INS5_14FactorOrderingEEERNS5_16BlockMatrixArrayESA_EEE, 
                       __ZTINSt3__18functionIFvN2gc4lang4TileENS2_6BufferENS2_3est8VariableEEEE, 
                       __ZTINSt3__18functionIFvN2gc4lang4TileENS2_6BufferENS2_5ArrayINS2_3est8VariableEEEEEE, 
                       __ZTINSt3__18functionIFvN2gc4lang4TileENS2_6BufferENS2_5ArrayIS4_EES6_NS2_3est6FactorERNS7_14FactorOrderingENS7_22SchurEliminatedHessianES4_EEE, 
                       __ZTINSt3__18functionIFvN2gc4lang4TileENS2_6BufferENS2_6ScalarES4_EEE, 
                       __ZTINSt3__18functionIFvN2gc4lang4TileENS2_6BufferENS2_6ScalarES4_S4_EEE, 
                       __ZTINSt3__18functionIFvN2gc4lang4TileENS2_6BufferENS2_6ScalarES5_S5_S5_S5_S4_S4_S4_EEE, 
                       __ZTINSt3__18functionIFvN2gc4lang4TileENS2_6BufferERNS2_3est8JacobianENS5_14FactorOrderingENS2_6ScalarES4_S4_EEE, 
                       __ZTINSt3__18functionIFvN2gc4lang4TileENS2_6BufferERNS2_3est8JacobianENS5_14FactorOrderingES4_S4_S4_S4_S4_EEE, 
                       __ZTINSt3__18functionIFvN2gc4lang4TileENS2_6BufferERNS2_3est8JacobianENS5_6FactorERNS5_11JacobianSetERNS5_14FactorOrderingES4_NS2_5ArrayIS4_EENSD_ISB_EERNS2_6ScalarERNS5_16BlockMatrixArrayENS5_22SchurEliminatedHessianESE_S4_S4_EEE, 
                       __ZTINSt3__18functionIFvN2gc4lang4TileENS2_6BufferERNS2_3est8JacobianES4_S4_EEE, 
                       __ZTINSt3__18functionIFvN2gc4lang4TileENS2_6BufferES4_EEE, 
                       __ZTINSt3__18functionIFvN2gc4lang4TileENS2_6BufferES4_NS2_5ArrayINS2_3est8VariableEEEEEE, 
                       __ZTINSt3__18functionIFvN2gc4lang4TileENS2_6BufferES4_RNS2_3est8JacobianES4_S4_EEE, 
                       __ZTINSt3__18functionIFvN2gc4lang4TileENS2_6BufferES4_S4_EEE, 
                       __ZTINSt3__18functionIFvN2gc4lang4TileENS2_6BufferES4_S4_S4_EEE, 
                       __ZTINSt3__18functionIFvN2gc4lang4TileENS2_6BufferES4_S4_S4_S4_S4_S4_EEE, 
                       __ZTINSt3__18functionIFvN2gc4lang4TileENS2_6ScalarENS2_6BufferES5_EEE, 
                       __ZTINSt3__18functionIFvN2gc4lang4TileENS2_6ScalarERNS2_3est11BlockMatrixEEEE, 
                       __ZTINSt3__18functionIFvN2gc4lang4TileERNS2_3est11BlockMatrixEEEE, 
                       __ZTINSt3__18functionIFvN2gc4lang4TileERNS2_3est11BlockMatrixENS2_6BufferES7_EEE, 
                       __ZTINSt3__18functionIFvN2gc4lang4TileERNS2_3est11BlockMatrixENS2_6BufferES7_S7_EEE, 
                       __ZTINSt3__18functionIFvN2gc4lang4TileERNS2_3est11BlockMatrixENS2_6BufferES7_S7_RS7_EEE, 
                       __ZTINSt3__18functionIFvN2gc4lang4TileERNS2_3est11JacobianSetENS2_5ArrayINS4_14FactorOrderingEEENS7_INS2_6BufferEEESB_SA_EEE, 
                       __ZTINSt3__18functionIFvN2gc4lang4TileERNS2_3est14FactorOrderingENS2_6BufferERNS4_8JacobianES7_S7_EEE, 
                       __ZTINSt3__18functionIFvN2gc4lang4TileERNS2_3est14FactorOrderingERNS4_8JacobianENS2_6BufferERS9_EEE, 
                       __ZTINSt3__18functionIFvN2gc4lang4TileERNS2_3est14FactorOrderingERNS4_8JacobianENS2_6BufferES9_EEE, 
                       __ZTINSt3__18functionIFvN2gc4lang4TileERNS2_3est14FactorOrderingERNS4_8JacobianENS2_6BufferES9_S9_EEE, 
                       __ZTINSt3__18functionIFvN2gc4lang4TileERNS2_3est8JacobianENS2_6BufferES7_EEE, 
                       __ZTINSt3__18functionIFvN2gc4lang4TileERNS2_3est8JacobianENS2_6BufferES7_S7_EEE, 
                       __ZTINSt3__18functionIFvN2gc4lang4TileERNS2_3est8JacobianENS2_6BufferES7_S7_RS7_EEE, 
                       __ZTINSt3__18functionIFvN2gc4lang4TileERNS2_3est8JacobianENS2_6BufferES7_S7_S7_EEE, 
                       __ZTINSt3__18functionIFvN2gc4lang4TileERNS2_3est8JacobianENS2_6BufferES7_S7_S7_S7_EEE, 
                       __ZTINSt3__18functionIFvN2gc4lang4TileERNS2_3est8JacobianENS4_14FactorOrderingENS2_6BufferES8_EEE, 
                       __ZTINSt3__18functionIFvN2gc4lang4TileERNS2_3est8JacobianENS4_14FactorOrderingENS2_6BufferES8_S8_EEE, 
                       __ZTINSt3__18functionIFvN2gc4lang4TileERNS2_3est8JacobianENS4_14FactorOrderingENS2_6BufferES8_S8_S8_EEE, 
                       __ZTINSt3__18functionIFvN2gc4lang4TileERNS2_3est8JacobianENS4_14FactorOrderingES7_NS2_6BufferES8_S8_S8_S8_S8_EEE, 
                       __ZTIZN2gc15ScalarInvariant6createINS_6ExtentEEENSt3__110shared_ptrINS_17BindableInvariantEEENS3_8functionIFT_vEEENS3_6vectorINS4_INS_6BufferEEENS3_9allocatorISD_EEEEEUlvE_, 
                       __ZTIZN2gc24FunctionOfRangeInvariant6createENSt3__110shared_ptrINS_6BufferEEENS1_8functionIFNS_12BlockExtentsERKS6_EEEEUlRKNS1_6vectorIS6_NS1_9allocatorIS6_EEEEE_, 
                       __ZTIZN2gc24FunctionOfShapeInvariant6createENSt3__110shared_ptrINS_6BufferEEENS1_8functionIFNS_5ShapeERKS6_EEEEUlRKNS1_6vectorIS6_NS1_9allocatorIS6_EEEEE_, 
                       __ZTIZN2gc26FunctionOfElementInvariant6createENSt3__110shared_ptrINS_6BufferEEENS1_8functionIFNS_14ElementExtentsERKS6_EEEEUlRKNS1_6vectorIS6_NS1_9allocatorIS6_EEEEE_, 
                       __ZTIZN2gc3est10EvaluateHp10kernelFuncEvEUlNS_4lang4TileERNS2_3est11BlockMatrixENS2_6BufferES7_S7_RS7_E_, 
                       __ZTIZN2gc3est10EvaluateHp19kernelFuncNoOffsetsEvEUlNS_4lang4TileERNS2_3est11BlockMatrixENS2_6BufferES7_E_, 
                       __ZTIZN2gc3est10EvaluateJp10kernelFuncEjEUlNS_4lang4TileENS2_6BufferES4_RNS2_3est8JacobianES4_S4_E_, 
                       __ZTIZN2gc3est10EvaluateJp18kernelFuncUnsortedEjEUlNS_4lang4TileENS2_6BufferERNS2_3est8JacobianES4_S4_E_, 
                       __ZTIZN2gc3est10EvaluateJp18kernelFuncVariadicEjEUlNS_4lang4TileERNS2_3est14FactorOrderingENS2_6BufferERNS4_8JacobianES7_S7_E_, 
                       __ZTIZN2gc3est10EvaluateJp19kernelFuncNoOffsetsEjEUlNS_4lang4TileENS2_6BufferERNS2_3est8JacobianES4_S4_E_, 
                       __ZTIZN2gc3est10EvaluateJp27kernelFuncUnsortedNoOffsetsEjEUlNS_4lang4TileERNS2_3est8JacobianENS2_6BufferES7_E_, 
                       __ZTIZN2gc3est10EvaluateJp27kernelFuncVariadicNoOffsetsEjEUlNS_4lang4TileERNS2_3est14FactorOrderingERNS4_8JacobianENS2_6BufferES9_E_, 
                       __ZTIZN2gc3est11EvaluateJtJ18kernelFuncDiagonalEvEUlNS_4lang4TileENS2_3est13BlockOrderingENS4_14FactorOrderingERNS4_8JacobianERNS4_11BlockMatrixEE_, 
                       __ZTIZN2gc3est11EvaluateJtJ21kernelFuncOffDiagonalEvEUlNS_4lang4TileENS2_3est13BlockOrderingENS4_14FactorOrderingES6_RNS4_11JacobianSetERNS4_11BlockMatrixEE_, 
                       __ZTIZN2gc3est11EvaluateJte10kernelFuncEvEUlNS_4lang4TileENS2_3est14FactorOrderingERNS4_8JacobianENS2_6BufferES8_E_, 
                       __ZTIZN2gc3est11PCGIterate110kernelFuncEvEUlNS_4lang4TileENS2_6BufferES4_S4_S4_S4_S4_S4_E_, 
                       __ZTIZN2gc3est11PCGIterate210kernelFuncEvEUlNS_4lang4TileENS2_6BufferES4_S4_E_, 
                       __ZTIZN2gc3est12EvaluateJtJp10kernelFuncEjEUlNS_4lang4TileERNS2_3est14FactorOrderingERNS4_8JacobianENS2_6BufferERS9_E_, 
                       __ZTIZN2gc3est12EvaluateJteM10kernelFuncEvEUlNS_4lang4TileERNS2_3est14FactorOrderingERNS4_8JacobianENS2_6BufferES9_S9_E_, 
                       __ZTIZN2gc3est12InvertBlockM10kernelFuncEvEUlNS_4lang4TileENS2_6BufferES4_E_, 
                       __ZTIZN2gc3est14EvaluateBlockM10kernelFuncEvEUlNS_4lang4TileERNS2_3est14FactorOrderingERNS4_8JacobianENS2_6BufferES9_E_, 
                       __ZTIZN2gc3est14ExtractDiagJtJ10kernelFuncEvEUlNS_4lang4TileERNS2_3est11BlockMatrixENS2_6BufferES7_S7_E_, 
                       __ZTIZN2gc3est14ExtractDiagJtJ19kernelFuncNoOffsetsEvEUlNS_4lang4TileERNS2_3est11BlockMatrixENS2_6BufferES7_E_, 
                       __ZTIZN2gc3est14SchurLinearize16factorKernelFuncERKNSt3__16vectorINS0_13ArgumentGroupENS2_9allocatorIS4_EEEERKNS2_3mapINS2_12basic_stringIcNS2_11char_traitsIcEENS5_IcEEEEjNS2_4lessISF_EENS5_INS2_4pairIKSF_jEEEEEEbEUlNS_4lang4TileENSP_6BufferENSP_3est6FactorERNSS_11JacobianSetENSP_5ArrayISR_EENSW_INSS_14FactorOrderingEEERNSS_16BlockMatrixArrayESX_E_, 
                       __ZTIZN2gc3est14SchurLinearize28eliminatedVariableKernelFuncERKNSt3__16vectorINS0_13ArgumentGroupENS2_9allocatorIS4_EEEERKNS2_3mapINS2_12basic_stringIcNS2_11char_traitsIcEENS5_IcEEEEjNS2_4lessISF_EENS5_INS2_4pairIKSF_jEEEEEEbEUlNS_4lang4TileENSP_6BufferERNSP_3est8JacobianENSS_6FactorERNSS_11JacobianSetERNSS_14FactorOrderingESR_NSP_5ArrayISR_EENS10_ISY_EERNSP_6ScalarERNSS_16BlockMatrixArrayENSS_22SchurEliminatedHessianES11_SR_SR_E_, 
                       __ZTIZN2gc3est17SymmetrizeDiagJtJ10kernelFuncEvEUlNS_4lang4TileERNS2_3est11BlockMatrixEE_, 
                       __ZTIZN2gc3est18ImplicitSchurJtJp110kernelFuncEvEUlNS_4lang4TileERNS2_3est8JacobianENS4_14FactorOrderingENS2_6BufferES8_E_, 
                       __ZTIZN2gc3est18ImplicitSchurJtJp210kernelFuncEjEUlNS_4lang4TileERNS2_3est8JacobianENS2_6BufferES7_S7_S7_S7_E_, 
                       __ZTIZN2gc3est18ImplicitSchurJtJp218kernelFuncUnsortedEjEUlNS_4lang4TileERNS2_3est8JacobianENS2_6BufferES7_S7_S7_E_, 
                       __ZTIZN2gc3est18ImplicitSchurJtJp218kernelFuncVariadicEjEUlNS_4lang4TileERNS2_3est8JacobianENS4_14FactorOrderingENS2_6BufferES8_S8_S8_E_, 
                       __ZTIZN2gc3est18ImplicitSchurJtJp219kernelFuncNoOffsetsEjEUlNS_4lang4TileERNS2_3est8JacobianENS2_6BufferES7_S7_RS7_E_, 
                       __ZTIZN2gc3est18ImplicitSchurJtJp227kernelFuncUnsortedNoOffsetsEjEUlNS_4lang4TileERNS2_3est8JacobianENS2_6BufferES7_S7_E_, 
                       __ZTIZN2gc3est18ImplicitSchurJtJp227kernelFuncVariadicNoOffsetsEjEUlNS_4lang4TileERNS2_3est8JacobianENS4_14FactorOrderingENS2_6BufferES8_S8_E_, 
                       __ZTIZN2gc3est20MaterializeJacobians10kernelFuncERKNS0_16ArgumentGroupingERKNSt3__16vectorINS0_13eJacobianTypeENS5_9allocatorIS7_EEEEEUlNS_4lang4TileENSD_3est6FactorENSD_6BufferENSD_5ArrayINSF_14FactorOrderingEEENSF_11VariableSetENSI_ISH_EESM_E_, 
                       __ZTIZN2gc3est20SchurBackSubstitute110kernelFuncERKNSt3__16vectorINS0_13ArgumentGroupENS2_9allocatorIS4_EEEERKNS2_3mapINS2_12basic_stringIcNS2_11char_traitsIcEENS5_IcEEEEjNS2_4lessISF_EENS5_INS2_4pairIKSF_jEEEEEEbEUlNS_4lang4TileENSP_6BufferENSP_5ArrayISR_EEST_NSP_3est6FactorERNSU_14FactorOrderingENSU_22SchurEliminatedHessianESR_E_, 
                       __ZTIZN2gc3est20SchurBackSubstitute210kernelFuncEvEUlNS_4lang4TileENS2_6BufferES4_E_, 
                       __ZTIZN2gc3est22EvaluateBatchGradients10kernelFuncERKNS0_13ArgumentGroupENS0_13eJacobianTypeEEUlNS_4lang4TileENS6_3est14FactorOrderingENS8_6FactorENS8_11VariableSetENS6_6ScalarERNS6_6BufferEE_, 
                       __ZTIZN2gc3est24ImplicitSchurInitialize110kernelFuncEvEUlNS_4lang4TileENS2_6BufferERNS2_3est8JacobianENS5_14FactorOrderingENS2_6ScalarES4_S4_E_, 
                       __ZTIZN2gc3est24ImplicitSchurInitialize210kernelFuncEjEUlNS_4lang4TileENS2_6BufferERNS2_3est8JacobianENS5_14FactorOrderingES4_S4_S4_S4_S4_E_, 
                       __ZTIZN2gc3est24ImplicitSchurInitialize310kernelFuncEvEUlNS_4lang4TileERNS2_3est8JacobianENS4_14FactorOrderingES7_NS2_6BufferES8_S8_S8_S8_S8_E_, 
                       __ZTIZN2gc3est25ApplyJacobiPreconditioner10kernelFuncEvEUlNS_4lang4TileENS2_6BufferES4_S4_E_, 
                       __ZTIZN2gc3est28ImplicitSchurBackSubstitute110kernelFuncERKNSt3__16vectorINS0_13ArgumentGroupENS2_9allocatorIS4_EEEERKNS2_3mapINS2_12basic_stringIcNS2_11char_traitsIcEENS5_IcEEEEjNS2_4lessISF_EENS5_INS2_4pairIKSF_jEEEEEEEUlNS_4lang4TileERNSP_3est11JacobianSetENSP_5ArrayINSR_14FactorOrderingEEENSU_INSP_6BufferEEESY_SX_E_, 
                       __ZTIZN2gc3est28ImplicitSchurBackSubstitute210kernelFuncEvEUlNS_4lang4TileENS2_6BufferES4_S4_S4_E_, 
                       __ZTIZN2gc3est30ApplyAdditiveLMDampingExplicit10kernelFuncEvEUlNS_4lang4TileENS2_6ScalarERNS2_3est11BlockMatrixEE_, 
                       __ZTIZN2gc3est30ApplyAdditiveLMDampingImplicit10kernelFuncEvEUlNS_4lang4TileENS2_6BufferENS2_6ScalarES4_E_, 
                       __ZTIZN2gc3est30ApplyBlockJacobiPreconditioner10kernelFuncEvEUlNS_4lang4TileENS2_6BufferES4_S4_E_, 
                       __ZTIZN2gc3est33ApplyAdditiveLMDampingToDiagonals10kernelFuncEvEUlNS_4lang4TileENS2_6ScalarENS2_6BufferES5_E_, 
                       __ZTIZN2gc3est36ApplyMultiplicativeLMDampingExplicit10kernelFuncEvEUlNS_4lang4TileENS2_6ScalarERNS2_3est11BlockMatrixEE_, 
                       __ZTIZN2gc3est36ApplyMultiplicativeLMDampingImplicit10kernelFuncEvEUlNS_4lang4TileENS2_6BufferENS2_6ScalarES4_S4_E_, 
                       __ZTIZN2gc3est39ApplyMultiplicativeLMDampingToDiagonals10kernelFuncEvEUlNS_4lang4TileENS2_6ScalarENS2_6BufferES5_E_, 
                       __ZTIZN2gc3est7InvertM10kernelFuncEvEUlNS_4lang4TileENS2_6BufferES4_E_, 
                       __ZTIZN2gc3ops11AddAssignTTC1EvEUlNS_4lang4TileENS2_6BufferES4_E_, 
                       __ZTIZN2gc3ops12PreIncrement6kernelERKNS_8ScheduleEEUlNS_4lang4TileENS5_6BufferEE_, 
                       __ZTIZN2gc3ops16AutoDiffBackprop6kernelERKNS_8ScheduleEEUlNS_4StmtEE_, 
                       __ZTIZN2gc3ops4Copy6kernelERKNS_8ScheduleEEUlNS_4lang4TileENS5_6BufferES7_E_, 
                       __ZTIZN2gc3ops6detail12ScatterZeros6kernelERKNS_8ScheduleEEUlNS_4lang4TileENS6_6BufferES8_S8_E_, 
                       __ZTIZN2gc3ops6detail9VarAssign6kernelERKNS_8ScheduleEEUlNS_4lang4TileENS6_6BufferES8_E_, 
                       __ZTIZN2gc4lang3est11BlockMatrix13forEachColumnIZZNS_3est10EvaluateHp19kernelFuncNoOffsetsEvENKUlNS0_4TileERS2_NS0_6BufferES8_E_clES6_S7_S8_S8_EUlNS_4ExprENS0_6MatrixEE_EEvRKSA_OT_EUlSF_E_, 
                       __ZTIZN2gc4lang3est11BlockMatrix13forEachColumnIZZNS_3est14ExtractDiagJtJ10kernelFuncEvENKUlNS0_4TileERS2_NS0_6BufferES8_S8_E_clES6_S7_S8_S8_S8_EUlNS_4ExprENS0_6MatrixEE_EEvRKSA_OT_EUlSF_E_, 
                       __ZTIZN2gc4lang3est11BlockMatrix13forEachColumnIZZNS_3est14ExtractDiagJtJ19kernelFuncNoOffsetsEvENKUlNS0_4TileERS2_NS0_6BufferES8_E_clES6_S7_S8_S8_EUlNS_4ExprENS0_6MatrixEE_EEvRKSA_OT_EUlSF_E_, 
                       __ZTIZN2gc4lang3est11BlockMatrix13forEachColumnIZZNS_3est17SymmetrizeDiagJtJ10kernelFuncEvENKUlNS0_4TileERS2_E_clES6_S7_EUlNS_4ExprENS0_6MatrixEE_EEvRKS9_OT_EUlSE_E_, 
                       __ZTIZN2gc4lang3est11BlockMatrix13forEachColumnIZZNS_3est30ApplyAdditiveLMDampingExplicit10kernelFuncEvENKUlNS0_4TileENS0_6ScalarERS2_E_clES6_S7_S8_EUlNS_4ExprENS0_6MatrixEE_EEvRKSA_OT_EUlSF_E_, 
                       __ZTIZN2gc4lang3est11BlockMatrix13forEachColumnIZZNS_3est36ApplyMultiplicativeLMDampingExplicit10kernelFuncEvENKUlNS0_4TileENS0_6ScalarERS2_E_clES6_S7_S8_EUlNS_4ExprENS0_6MatrixEE_EEvRKSA_OT_EUlSF_E_, 
                       __ZTIZN2gc4lang3est11BlockMatrix13forEachColumnIZZZNS_3est10EvaluateHp10kernelFuncEvENKUlNS0_4TileERS2_NS0_6BufferES8_S8_RS8_E_clES6_S7_S8_S8_S8_S9_ENKUlvE_clEvEUlNS_4ExprENS0_6MatrixEE_EEvRKSC_OT_EUlSH_E_, 
                       __ZTIZN2gc4lang4simd22SIMDInnerProductMatrixC1ERKNS0_6BufferERKNS1_16MatMulParameters11InputMatrixERKNSt3__16vectorINS_4ExprENSA_9allocatorISC_EEEEEUlSH_E_, 
                       __ZTIZN2gc4lang4simd25GeneralInnerProductMatrixC1ERKNS0_6BufferERKNS1_16MatMulParameters11InputMatrixEEUlRKNSt3__16vectorINS_4ExprENSA_9allocatorISC_EEEEE_, 
                       __ZTIZN2gc4lang4simd27SIMDInnerProductAccumulatorC1ENSt3__110shared_ptrINS1_18InnerProductMatrixEEES6_RNS0_6BufferERKNS1_16MatMulParametersENS_4ExprERKNS3_6vectorISC_NS3_9allocatorISC_EEEEEUlSI_E0_, 
                       __ZTIZN2gc4lang4simd27SIMDInnerProductAccumulatorC1ENSt3__110shared_ptrINS1_18InnerProductMatrixEEES6_RNS0_6BufferERKNS1_16MatMulParametersENS_4ExprERKNS3_6vectorISC_NS3_9allocatorISC_EEEEEUlSI_E_, 
                       __ZTIZN2gc4lang4simd28SIMDCachedInnerProductMatrixC1ERKNS0_6BufferERKNS1_16MatMulParameters11InputMatrixERKNS6_7CachingENS_4ExprERKNSt3__16vectorISD_NSE_9allocatorISD_EEEESK_SK_EUlSK_E_, 
                       __ZTIZN2gc4lang4simd28SIMDCachedInnerProductMatrixC1ERKNS0_6BufferERKNS1_16MatMulParameters11InputMatrixERKNS6_7CachingENS_4ExprERKNSt3__16vectorISD_NSE_9allocatorISD_EEEESK_SK_EUlT_E_, 
                       __ZTIZN2gc4lang4simd29LargeKInnerProductAccumulatorC1ENSt3__110shared_ptrINS1_18InnerProductMatrixEEES6_RNS0_6BufferERKNS1_16MatMulParametersENS_4ExprERKNS3_6vectorISC_NS3_9allocatorISC_EEEESI_SI_EUlSI_E0_, 
                       __ZTIZN2gc4lang4simd29LargeKInnerProductAccumulatorC1ENSt3__110shared_ptrINS1_18InnerProductMatrixEEES6_RNS0_6BufferERKNS1_16MatMulParametersENS_4ExprERKNS3_6vectorISC_NS3_9allocatorISC_EEEESI_SI_EUlSI_E_, 
                       __ZTIZN2gc4lang4simd29SmallKInnerProductAccumulatorC1ENSt3__110shared_ptrINS1_18InnerProductMatrixEEES6_RNS0_6BufferERKNS1_16MatMulParametersENS_4ExprERKNS3_6vectorISC_NS3_9allocatorISC_EEEESI_SI_EUlSI_E0_, 
                       __ZTIZN2gc4lang4simd29SmallKInnerProductAccumulatorC1ENSt3__110shared_ptrINS1_18InnerProductMatrixEEES6_RNS0_6BufferERKNS1_16MatMulParametersENS_4ExprERKNS3_6vectorISC_NS3_9allocatorISC_EEEESI_SI_EUlSI_E_, 
                       __ZTIZN2gc4lang4simd30GeneralInnerProductAccumulatorC1ENSt3__110shared_ptrINS1_18InnerProductMatrixEEES6_RNS0_6BufferENS_4ExprEEUlRKNS3_6vectorIS9_NS3_9allocatorIS9_EEEEE0_, 
                       __ZTIZN2gc4lang4simd30GeneralInnerProductAccumulatorC1ENSt3__110shared_ptrINS1_18InnerProductMatrixEEES6_RNS0_6BufferENS_4ExprEEUlRKNS3_6vectorIS9_NS3_9allocatorIS9_EEEEE_, 
                       __ZTIZNK2gc4lang3est13BlockOrdering13forEachFactorIZZNS_3est11EvaluateJtJ18kernelFuncDiagonalEvENKUlNS0_4TileES2_NS1_14FactorOrderingERNS1_8JacobianERNS1_11BlockMatrixEE_clES6_S2_S7_S9_SB_EUlNS_4ExprEE_EEvRKSD_OT_EUlSH_E_, 
                       __ZTIZNK2gc4lang3est13BlockOrdering13forEachFactorIZZNS_3est11EvaluateJtJ21kernelFuncOffDiagonalEvENKUlNS0_4TileES2_NS1_14FactorOrderingES7_RNS1_11JacobianSetERNS1_11BlockMatrixEE_clES6_S2_S7_S7_S9_SB_EUlNS_4ExprEE_EEvRKSD_OT_EUlSH_E_, 
                       __ZTIZZN2gc3est10EvaluateHp10kernelFuncEvENKUlNS_4lang4TileERNS2_3est11BlockMatrixENS2_6BufferES7_S7_RS7_E_clES3_S6_S7_S7_S7_S8_EUlvE_, 
                       __ZTIZZN2gc3est10EvaluateJp18kernelFuncUnsortedEjENKUlNS_4lang4TileENS2_6BufferERNS2_3est8JacobianES4_S4_E_clES3_S4_S7_S4_S4_EUlvE_, 
                       __ZTIZZN2gc3est10EvaluateJp18kernelFuncVariadicEjENKUlNS_4lang4TileERNS2_3est14FactorOrderingENS2_6BufferERNS4_8JacobianES7_S7_E_clES3_S6_S7_S9_S7_S7_EUlNS_4ExprEE_, 
                       __ZTIZZN2gc3est10EvaluateJp27kernelFuncVariadicNoOffsetsEjENKUlNS_4lang4TileERNS2_3est14FactorOrderingERNS4_8JacobianENS2_6BufferES9_E_clES3_S6_S8_S9_S9_EUlNS_4ExprEE_, 
                       __ZTIZZN2gc3est11EvaluateJte10kernelFuncEvENKUlNS_4lang4TileENS2_3est14FactorOrderingERNS4_8JacobianENS2_6BufferES8_E_clES3_S5_S7_S8_S8_EUlNS_4ExprESA_E_, 
                       __ZTIZZN2gc3est12EvaluateJtJp10kernelFuncEjENKUlNS_4lang4TileERNS2_3est14FactorOrderingERNS4_8JacobianENS2_6BufferERS9_E_clES3_S6_S8_S9_SA_EUlNS_4ExprESC_E_, 
                       __ZTIZZN2gc3est12EvaluateJteM10kernelFuncEvENKUlNS_4lang4TileERNS2_3est14FactorOrderingERNS4_8JacobianENS2_6BufferES9_S9_E_clES3_S6_S8_S9_S9_S9_EUlNS_4ExprESB_E_, 
                       __ZTIZZN2gc3est12InvertBlockM10kernelFuncEvENKUlNS_4lang4TileENS2_6BufferES4_E_clES3_S4_S4_EUlT_E_, 
                       __ZTIZZN2gc3est12InvertBlockM10kernelFuncEvENKUlNS_4lang4TileENS2_6BufferES4_E_clES3_S4_S4_EUlvE0_, 
                       __ZTIZZN2gc3est12InvertBlockM10kernelFuncEvENKUlNS_4lang4TileENS2_6BufferES4_E_clES3_S4_S4_EUlvE_, 
                       __ZTIZZN2gc3est14EvaluateBlockM10kernelFuncEvENKUlNS_4lang4TileERNS2_3est14FactorOrderingERNS4_8JacobianENS2_6BufferES9_E_clES3_S6_S8_S9_S9_EUlNS_4ExprESB_E_, 
                       __ZTIZZN2gc3est14SchurLinearize16factorKernelFuncERKNSt3__16vectorINS0_13ArgumentGroupENS2_9allocatorIS4_EEEERKNS2_3mapINS2_12basic_stringIcNS2_11char_traitsIcEENS5_IcEEEEjNS2_4lessISF_EENS5_INS2_4pairIKSF_jEEEEEEbENKUlNS_4lang4TileENSP_6BufferENSP_3est6FactorERNSS_11JacobianSetENSP_5ArrayISR_EENSW_INSS_14FactorOrderingEEERNSS_16BlockMatrixArrayESX_E_clESQ_SR_ST_SV_SX_SZ_S11_SX_EUlvE_, 
                       __ZTIZZN2gc3est14SchurLinearize28eliminatedVariableKernelFuncERKNSt3__16vectorINS0_13ArgumentGroupENS2_9allocatorIS4_EEEERKNS2_3mapINS2_12basic_stringIcNS2_11char_traitsIcEENS5_IcEEEEjNS2_4lessISF_EENS5_INS2_4pairIKSF_jEEEEEEbENKUlNS_4lang4TileENSP_6BufferERNSP_3est8JacobianENSS_6FactorERNSS_11JacobianSetERNSS_14FactorOrderingESR_NSP_5ArrayISR_EENS10_ISY_EERNSP_6ScalarERNSS_16BlockMatrixArrayENSS_22SchurEliminatedHessianES11_SR_SR_E_clESQ_SR_SU_SV_SX_SZ_SR_S11_S12_S14_S16_S17_S11_SR_SR_EUlNS_4ExprEE0_, 
                       __ZTIZZN2gc3est14SchurLinearize28eliminatedVariableKernelFuncERKNSt3__16vectorINS0_13ArgumentGroupENS2_9allocatorIS4_EEEERKNS2_3mapINS2_12basic_stringIcNS2_11char_traitsIcEENS5_IcEEEEjNS2_4lessISF_EENS5_INS2_4pairIKSF_jEEEEEEbENKUlNS_4lang4TileENSP_6BufferERNSP_3est8JacobianENSS_6FactorERNSS_11JacobianSetERNSS_14FactorOrderingESR_NSP_5ArrayISR_EENS10_ISY_EERNSP_6ScalarERNSS_16BlockMatrixArrayENSS_22SchurEliminatedHessianES11_SR_SR_E_clESQ_SR_SU_SV_SX_SZ_SR_S11_S12_S14_S16_S17_S11_SR_SR_EUlNS_4ExprEE_, 
                       __ZTIZZN2gc3est14SchurLinearize28eliminatedVariableKernelFuncERKNSt3__16vectorINS0_13ArgumentGroupENS2_9allocatorIS4_EEEERKNS2_3mapINS2_12basic_stringIcNS2_11char_traitsIcEENS5_IcEEEEjNS2_4lessISF_EENS5_INS2_4pairIKSF_jEEEEEEbENKUlNS_4lang4TileENSP_6BufferERNSP_3est8JacobianENSS_6FactorERNSS_11JacobianSetERNSS_14FactorOrderingESR_NSP_5ArrayISR_EENS10_ISY_EERNSP_6ScalarERNSS_16BlockMatrixArrayENSS_22SchurEliminatedHessianES11_SR_SR_E_clESQ_SR_SU_SV_SX_SZ_SR_S11_S12_S14_S16_S17_S11_SR_SR_EUlT_E0_, 
                       __ZTIZZN2gc3est14SchurLinearize28eliminatedVariableKernelFuncERKNSt3__16vectorINS0_13ArgumentGroupENS2_9allocatorIS4_EEEERKNS2_3mapINS2_12basic_stringIcNS2_11char_traitsIcEENS5_IcEEEEjNS2_4lessISF_EENS5_INS2_4pairIKSF_jEEEEEEbENKUlNS_4lang4TileENSP_6BufferERNSP_3est8JacobianENSS_6FactorERNSS_11JacobianSetERNSS_14FactorOrderingESR_NSP_5ArrayISR_EENS10_ISY_EERNSP_6ScalarERNSS_16BlockMatrixArrayENSS_22SchurEliminatedHessianES11_SR_SR_E_clESQ_SR_SU_SV_SX_SZ_SR_S11_S12_S14_S16_S17_S11_SR_SR_EUlT_E_, 
                       __ZTIZZN2gc3est14SchurLinearize28eliminatedVariableKernelFuncERKNSt3__16vectorINS0_13ArgumentGroupENS2_9allocatorIS4_EEEERKNS2_3mapINS2_12basic_stringIcNS2_11char_traitsIcEENS5_IcEEEEjNS2_4lessISF_EENS5_INS2_4pairIKSF_jEEEEEEbENKUlNS_4lang4TileENSP_6BufferERNSP_3est8JacobianENSS_6FactorERNSS_11JacobianSetERNSS_14FactorOrderingESR_NSP_5ArrayISR_EENS10_ISY_EERNSP_6ScalarERNSS_16BlockMatrixArrayENSS_22SchurEliminatedHessianES11_SR_SR_E_clESQ_SR_SU_SV_SX_SZ_SR_S11_S12_S14_S16_S17_S11_SR_SR_EUlvE_, 
                       __ZTIZZN2gc3est18ImplicitSchurJtJp110kernelFuncEvENKUlNS_4lang4TileERNS2_3est8JacobianENS4_14FactorOrderingENS2_6BufferES8_E_clES3_S6_S7_S8_S8_EUlNS_4ExprESA_E_, 
                       __ZTIZZN2gc3est18ImplicitSchurJtJp218kernelFuncUnsortedEjENKUlNS_4lang4TileERNS2_3est8JacobianENS2_6BufferES7_S7_S7_E_clES3_S6_S7_S7_S7_S7_EUlvE_, 
                       __ZTIZZN2gc3est18ImplicitSchurJtJp218kernelFuncVariadicEjENKUlNS_4lang4TileERNS2_3est8JacobianENS4_14FactorOrderingENS2_6BufferES8_S8_S8_E_clES3_S6_S7_S8_S8_S8_S8_EUlNS_4ExprEE_, 
                       __ZTIZZN2gc3est18ImplicitSchurJtJp227kernelFuncVariadicNoOffsetsEjENKUlNS_4lang4TileERNS2_3est8JacobianENS4_14FactorOrderingENS2_6BufferES8_S8_E_clES3_S6_S7_S8_S8_S8_EUlNS_4ExprEE_, 
                       __ZTIZZN2gc3est20MaterializeJacobians10kernelFuncERKNS0_16ArgumentGroupingERKNSt3__16vectorINS0_13eJacobianTypeENS5_9allocatorIS7_EEEEENKUlNS_4lang4TileENSD_3est6FactorENSD_6BufferENSD_5ArrayINSF_14FactorOrderingEEENSF_11VariableSetENSI_ISH_EESM_E_clESE_SG_SH_SK_SL_SM_SM_EUlNS_4ExprEE_, 
                       __ZTIZZN2gc3est20SchurBackSubstitute110kernelFuncERKNSt3__16vectorINS0_13ArgumentGroupENS2_9allocatorIS4_EEEERKNS2_3mapINS2_12basic_stringIcNS2_11char_traitsIcEENS5_IcEEEEjNS2_4lessISF_EENS5_INS2_4pairIKSF_jEEEEEEbENKUlNS_4lang4TileENSP_6BufferENSP_5ArrayISR_EEST_NSP_3est6FactorERNSU_14FactorOrderingENSU_22SchurEliminatedHessianESR_E_clESQ_SR_ST_ST_SV_SX_SY_SR_EUlNS_4ExprEE_, 
                       __ZTIZZN2gc3est22EvaluateBatchGradients10kernelFuncERKNS0_13ArgumentGroupENS0_13eJacobianTypeEENKUlNS_4lang4TileENS6_3est14FactorOrderingENS8_6FactorENS8_11VariableSetENS6_6ScalarERNS6_6BufferEE_clES7_S9_SA_SB_SC_SE_EUlT_T0_E_, 
                       __ZTIZZN2gc3est24ImplicitSchurInitialize110kernelFuncEvENKUlNS_4lang4TileENS2_6BufferERNS2_3est8JacobianENS5_14FactorOrderingENS2_6ScalarES4_S4_E_clES3_S4_S7_S8_S9_S4_S4_EUlNS_4ExprESB_E_, 
                       __ZTIZZN2gc3est24ImplicitSchurInitialize110kernelFuncEvENKUlNS_4lang4TileENS2_6BufferERNS2_3est8JacobianENS5_14FactorOrderingENS2_6ScalarES4_S4_E_clES3_S4_S7_S8_S9_S4_S4_EUlT_E0_, 
                       __ZTIZZN2gc3est24ImplicitSchurInitialize110kernelFuncEvENKUlNS_4lang4TileENS2_6BufferERNS2_3est8JacobianENS5_14FactorOrderingENS2_6ScalarES4_S4_E_clES3_S4_S7_S8_S9_S4_S4_EUlT_E_, 
                       __ZTIZZN2gc3est24ImplicitSchurInitialize110kernelFuncEvENKUlNS_4lang4TileENS2_6BufferERNS2_3est8JacobianENS5_14FactorOrderingENS2_6ScalarES4_S4_E_clES3_S4_S7_S8_S9_S4_S4_EUlvE_, 
                       __ZTIZZN2gc3est24ImplicitSchurInitialize310kernelFuncEvENKUlNS_4lang4TileERNS2_3est8JacobianENS4_14FactorOrderingES7_NS2_6BufferES8_S8_S8_S8_S8_E_clES3_S6_S7_S7_S8_S8_S8_S8_S8_S8_EUlNS_4ExprESA_E_, 
                       __ZTIZZN2gc3est28ImplicitSchurBackSubstitute110kernelFuncERKNSt3__16vectorINS0_13ArgumentGroupENS2_9allocatorIS4_EEEERKNS2_3mapINS2_12basic_stringIcNS2_11char_traitsIcEENS5_IcEEEEjNS2_4lessISF_EENS5_INS2_4pairIKSF_jEEEEEEENKUlNS_4lang4TileERNSP_3est11JacobianSetENSP_5ArrayINSR_14FactorOrderingEEENSU_INSP_6BufferEEESY_SX_E_clESQ_ST_SW_SY_SY_SX_EUlvE_, 
                       __ZTIZZN2gc3est33ApplyAdditiveLMDampingToDiagonals10kernelFuncEvENKUlNS_4lang4TileENS2_6ScalarENS2_6BufferES5_E_clES3_S4_S5_S5_EUlT_E_, 
                       __ZTIZZN2gc3est39ApplyMultiplicativeLMDampingToDiagonals10kernelFuncEvENKUlNS_4lang4TileENS2_6ScalarENS2_6BufferES5_E_clES3_S4_S5_S5_EUlT_E_, 
                       __ZTIZZN2gc4lang3est11BlockMatrix13forEachColumnIZZNS_3est10EvaluateHp19kernelFuncNoOffsetsEvENKUlNS0_4TileERS2_NS0_6BufferES8_E_clES6_S7_S8_S8_EUlNS_4ExprENS0_6MatrixEE_EEvRKSA_OT_ENKUlSF_E_clISA_EEDaSF_EUlvE_, 
                       __ZTIZZN2gc4lang3est11BlockMatrix13forEachColumnIZZNS_3est14ExtractDiagJtJ10kernelFuncEvENKUlNS0_4TileERS2_NS0_6BufferES8_S8_E_clES6_S7_S8_S8_S8_EUlNS_4ExprENS0_6MatrixEE_EEvRKSA_OT_ENKUlSF_E_clISA_EEDaSF_EUlvE_, 
                       __ZTIZZN2gc4lang3est11BlockMatrix13forEachColumnIZZNS_3est14ExtractDiagJtJ19kernelFuncNoOffsetsEvENKUlNS0_4TileERS2_NS0_6BufferES8_E_clES6_S7_S8_S8_EUlNS_4ExprENS0_6MatrixEE_EEvRKSA_OT_ENKUlSF_E_clISA_EEDaSF_EUlvE_, 
                       __ZTIZZN2gc4lang3est11BlockMatrix13forEachColumnIZZNS_3est17SymmetrizeDiagJtJ10kernelFuncEvENKUlNS0_4TileERS2_E_clES6_S7_EUlNS_4ExprENS0_6MatrixEE_EEvRKS9_OT_ENKUlSE_E_clIS9_EEDaSE_EUlvE_, 
                       __ZTIZZN2gc4lang3est11BlockMatrix13forEachColumnIZZNS_3est30ApplyAdditiveLMDampingExplicit10kernelFuncEvENKUlNS0_4TileENS0_6ScalarERS2_E_clES6_S7_S8_EUlNS_4ExprENS0_6MatrixEE_EEvRKSA_OT_ENKUlSF_E_clISA_EEDaSF_EUlvE_, 
                       __ZTIZZN2gc4lang3est11BlockMatrix13forEachColumnIZZNS_3est36ApplyMultiplicativeLMDampingExplicit10kernelFuncEvENKUlNS0_4TileENS0_6ScalarERS2_E_clES6_S7_S8_EUlNS_4ExprENS0_6MatrixEE_EEvRKSA_OT_ENKUlSF_E_clISA_EEDaSF_EUlvE_, 
                       __ZTIZZN2gc4lang3est11BlockMatrix13forEachColumnIZZZNS_3est10EvaluateHp10kernelFuncEvENKUlNS0_4TileERS2_NS0_6BufferES8_S8_RS8_E_clES6_S7_S8_S8_S8_S9_ENKUlvE_clEvEUlNS_4ExprENS0_6MatrixEE_EEvRKSC_OT_ENKUlSH_E_clISC_EEDaSH_EUlvE_, 
                       __ZTIZZN2gc4lang4simd27SIMDInnerProductAccumulatorC1ENSt3__110shared_ptrINS1_18InnerProductMatrixEEES6_RNS0_6BufferERKNS1_16MatMulParametersENS_4ExprERKNS3_6vectorISC_NS3_9allocatorISC_EEEEENKUlSI_E0_clESI_EUlT_E_, 
                       __ZTIZZN2gc4lang4simd29LargeKInnerProductAccumulatorC1ENSt3__110shared_ptrINS1_18InnerProductMatrixEEES6_RNS0_6BufferERKNS1_16MatMulParametersENS_4ExprERKNS3_6vectorISC_NS3_9allocatorISC_EEEESI_SI_ENKUlSI_E0_clESI_EUlT_E_, 
                       __ZTIZZN2gc4lang4simd29LargeKInnerProductAccumulatorC1ENSt3__110shared_ptrINS1_18InnerProductMatrixEEES6_RNS0_6BufferERKNS1_16MatMulParametersENS_4ExprERKNS3_6vectorISC_NS3_9allocatorISC_EEEESI_SI_ENKUlSI_E_clESI_EUlvE_, 
                       __ZTIZZN2gc4lang4simd29SmallKInnerProductAccumulatorC1ENSt3__110shared_ptrINS1_18InnerProductMatrixEEES6_RNS0_6BufferERKNS1_16MatMulParametersENS_4ExprERKNS3_6vectorISC_NS3_9allocatorISC_EEEESI_SI_ENKUlSI_E0_clESI_EUlT_E_, 
                       __ZTIZZN2gc4lang4simd30GeneralInnerProductAccumulatorC1ENSt3__110shared_ptrINS1_18InnerProductMatrixEEES6_RNS0_6BufferENS_4ExprEENKUlRKNS3_6vectorIS9_NS3_9allocatorIS9_EEEEE_clESF_EUlT_E_, 
                       __ZTIZZZN2gc3est10EvaluateJp18kernelFuncVariadicEjENKUlNS_4lang4TileERNS2_3est14FactorOrderingENS2_6BufferERNS4_8JacobianES7_S7_E_clES3_S6_S7_S9_S7_S7_ENKUlNS_4ExprEE_clESB_EUlvE_, 
                       __ZTIZZZN2gc3est11EvaluateJtJ18kernelFuncDiagonalEvENKUlNS_4lang4TileENS2_3est13BlockOrderingENS4_14FactorOrderingERNS4_8JacobianERNS4_11BlockMatrixEE_clES3_S5_S6_S8_SA_ENKUlNS_4ExprEE_clESC_EUlSC_E_, 
                       __ZTIZZZN2gc3est11EvaluateJtJ21kernelFuncOffDiagonalEvENKUlNS_4lang4TileENS2_3est13BlockOrderingENS4_14FactorOrderingES6_RNS4_11JacobianSetERNS4_11BlockMatrixEE_clES3_S5_S6_S6_S8_SA_ENKUlNS_4ExprEE_clESC_EUlSC_E_, 
                       __ZTIZZZN2gc3est12EvaluateJteM10kernelFuncEvENKUlNS_4lang4TileERNS2_3est14FactorOrderingERNS4_8JacobianENS2_6BufferES9_S9_E_clES3_S6_S8_S9_S9_S9_ENKUlNS_4ExprESB_E_clESB_SB_EUlT_E_, 
                       __ZTIZZZN2gc3est12InvertBlockM10kernelFuncEvENKUlNS_4lang4TileENS2_6BufferES4_E_clES3_S4_S4_ENKUlvE0_clEvEUlT_E_, 
                       __ZTIZZZN2gc3est14ExtractDiagJtJ10kernelFuncEvENKUlNS_4lang4TileERNS2_3est11BlockMatrixENS2_6BufferES7_S7_E_clES3_S6_S7_S7_S7_ENKUlNS_4ExprENS2_6MatrixEE_clES9_SA_EUlvE_, 
                       __ZTIZZZN2gc3est14ExtractDiagJtJ19kernelFuncNoOffsetsEvENKUlNS_4lang4TileERNS2_3est11BlockMatrixENS2_6BufferES7_E_clES3_S6_S7_S7_ENKUlNS_4ExprENS2_6MatrixEE_clES9_SA_EUlvE_, 
                       __ZTIZZZN2gc3est14SchurLinearize16factorKernelFuncERKNSt3__16vectorINS0_13ArgumentGroupENS2_9allocatorIS4_EEEERKNS2_3mapINS2_12basic_stringIcNS2_11char_traitsIcEENS5_IcEEEEjNS2_4lessISF_EENS5_INS2_4pairIKSF_jEEEEEEbENKUlNS_4lang4TileENSP_6BufferENSP_3est6FactorERNSS_11JacobianSetENSP_5ArrayISR_EENSW_INSS_14FactorOrderingEEERNSS_16BlockMatrixArrayESX_E_clESQ_SR_ST_SV_SX_SZ_S11_SX_ENKUlvE_clEvEUlNS_4ExprEE_, 
                       __ZTIZZZN2gc3est14SchurLinearize28eliminatedVariableKernelFuncERKNSt3__16vectorINS0_13ArgumentGroupENS2_9allocatorIS4_EEEERKNS2_3mapINS2_12basic_stringIcNS2_11char_traitsIcEENS5_IcEEEEjNS2_4lessISF_EENS5_INS2_4pairIKSF_jEEEEEEbENKUlNS_4lang4TileENSP_6BufferERNSP_3est8JacobianENSS_6FactorERNSS_11JacobianSetERNSS_14FactorOrderingESR_NSP_5ArrayISR_EENS10_ISY_EERNSP_6ScalarERNSS_16BlockMatrixArrayENSS_22SchurEliminatedHessianES11_SR_SR_E_clESQ_SR_SU_SV_SX_SZ_SR_S11_S12_S14_S16_S17_S11_SR_SR_ENKUlNS_4ExprEE0_clES19_EUlvE_, 
                       __ZTIZZZN2gc3est14SchurLinearize28eliminatedVariableKernelFuncERKNSt3__16vectorINS0_13ArgumentGroupENS2_9allocatorIS4_EEEERKNS2_3mapINS2_12basic_stringIcNS2_11char_traitsIcEENS5_IcEEEEjNS2_4lessISF_EENS5_INS2_4pairIKSF_jEEEEEEbENKUlNS_4lang4TileENSP_6BufferERNSP_3est8JacobianENSS_6FactorERNSS_11JacobianSetERNSS_14FactorOrderingESR_NSP_5ArrayISR_EENS10_ISY_EERNSP_6ScalarERNSS_16BlockMatrixArrayENSS_22SchurEliminatedHessianES11_SR_SR_E_clESQ_SR_SU_SV_SX_SZ_SR_S11_S12_S14_S16_S17_S11_SR_SR_ENKUlNS_4ExprEE_clES19_EUlS19_E_, 
                       __ZTIZZZN2gc3est17SymmetrizeDiagJtJ10kernelFuncEvENKUlNS_4lang4TileERNS2_3est11BlockMatrixEE_clES3_S6_ENKUlNS_4ExprENS2_6MatrixEE_clES8_S9_EUlvE_, 
                       __ZTIZZZN2gc3est18ImplicitSchurJtJp218kernelFuncVariadicEjENKUlNS_4lang4TileERNS2_3est8JacobianENS4_14FactorOrderingENS2_6BufferES8_S8_S8_E_clES3_S6_S7_S8_S8_S8_S8_ENKUlNS_4ExprEE_clESA_EUlvE_, 
                       __ZTIZZZN2gc3est20MaterializeJacobians10kernelFuncERKNS0_16ArgumentGroupingERKNSt3__16vectorINS0_13eJacobianTypeENS5_9allocatorIS7_EEEEENKUlNS_4lang4TileENSD_3est6FactorENSD_6BufferENSD_5ArrayINSF_14FactorOrderingEEENSF_11VariableSetENSI_ISH_EESM_E_clESE_SG_SH_SK_SL_SM_SM_ENKUlNS_4ExprEE_clESO_EUlvE_, 
                       __ZTIZZZN2gc3est20SchurBackSubstitute110kernelFuncERKNSt3__16vectorINS0_13ArgumentGroupENS2_9allocatorIS4_EEEERKNS2_3mapINS2_12basic_stringIcNS2_11char_traitsIcEENS5_IcEEEEjNS2_4lessISF_EENS5_INS2_4pairIKSF_jEEEEEEbENKUlNS_4lang4TileENSP_6BufferENSP_5ArrayISR_EEST_NSP_3est6FactorERNSU_14FactorOrderingENSU_22SchurEliminatedHessianESR_E_clESQ_SR_ST_ST_SV_SX_SY_SR_ENKUlNS_4ExprEE_clES10_EUlvE_, 
                       __ZTIZZZN2gc3est22EvaluateBatchGradients10kernelFuncERKNS0_13ArgumentGroupENS0_13eJacobianTypeEENKUlNS_4lang4TileENS6_3est14FactorOrderingENS8_6FactorENS8_11VariableSetENS6_6ScalarERNS6_6BufferEE_clES7_S9_SA_SB_SC_SE_ENKUlT_T0_E_clINS_4ExprESK_EEDaSG_SH_EUlSG_E_, 
                       __ZTIZZZN2gc3est22EvaluateBatchGradients10kernelFuncERKNS0_13ArgumentGroupENS0_13eJacobianTypeEENKUlNS_4lang4TileENS6_3est14FactorOrderingENS8_6FactorENS8_11VariableSetENS6_6ScalarERNS6_6BufferEE_clES7_S9_SA_SB_SC_SE_ENKUlT_T0_E_clINS_4ExprESK_EEDaSG_SH_EUlvE_, 
                       __ZTIZZZN2gc3est24ImplicitSchurInitialize310kernelFuncEvENKUlNS_4lang4TileERNS2_3est8JacobianENS4_14FactorOrderingES7_NS2_6BufferES8_S8_S8_S8_S8_E_clES3_S6_S7_S7_S8_S8_S8_S8_S8_S8_ENKUlNS_4ExprESA_E_clESA_SA_EUlSA_E_, 
                       __ZTIZZZN2gc3est28ImplicitSchurBackSubstitute110kernelFuncERKNSt3__16vectorINS0_13ArgumentGroupENS2_9allocatorIS4_EEEERKNS2_3mapINS2_12basic_stringIcNS2_11char_traitsIcEENS5_IcEEEEjNS2_4lessISF_EENS5_INS2_4pairIKSF_jEEEEEEENKUlNS_4lang4TileERNSP_3est11JacobianSetENSP_5ArrayINSR_14FactorOrderingEEENSU_INSP_6BufferEEESY_SX_E_clESQ_ST_SW_SY_SY_SX_ENKUlvE_clEvEUlNS_4ExprEE_, 
                       __ZTIZZZN2gc3est30ApplyAdditiveLMDampingExplicit10kernelFuncEvENKUlNS_4lang4TileENS2_6ScalarERNS2_3est11BlockMatrixEE_clES3_S4_S7_ENKUlNS_4ExprENS2_6MatrixEE_clES9_SA_EUlvE_, 
                       __ZTIZZZN2gc3est36ApplyMultiplicativeLMDampingExplicit10kernelFuncEvENKUlNS_4lang4TileENS2_6ScalarERNS2_3est11BlockMatrixEE_clES3_S4_S7_ENKUlNS_4ExprENS2_6MatrixEE_clES9_SA_EUlvE_, 
                       __ZTIZZZN2gc4lang4simd29LargeKInnerProductAccumulatorC1ENSt3__110shared_ptrINS1_18InnerProductMatrixEEES6_RNS0_6BufferERKNS1_16MatMulParametersENS_4ExprERKNS3_6vectorISC_NS3_9allocatorISC_EEEESI_SI_ENKUlSI_E_clESI_ENKUlvE_clEvEUlT_E_, 
                       __ZTIZZZZN2gc3est10EvaluateHp10kernelFuncEvENKUlNS_4lang4TileERNS2_3est11BlockMatrixENS2_6BufferES7_S7_RS7_E_clES3_S6_S7_S7_S7_S8_ENKUlvE_clEvENKUlNS_4ExprENS2_6MatrixEE_clESB_SC_EUlvE_, 
                       __ZTIZZZZN2gc3est11EvaluateJtJ21kernelFuncOffDiagonalEvENKUlNS_4lang4TileENS2_3est13BlockOrderingENS4_14FactorOrderingES6_RNS4_11JacobianSetERNS4_11BlockMatrixEE_clES3_S5_S6_S6_S8_SA_ENKUlNS_4ExprEE_clESC_ENKUlSC_E_clESC_EUlvE_, 
                       __ZTIZZZZN2gc3est14ExtractDiagJtJ10kernelFuncEvENKUlNS_4lang4TileERNS2_3est11BlockMatrixENS2_6BufferES7_S7_E_clES3_S6_S7_S7_S7_ENKUlNS_4ExprENS2_6MatrixEE_clES9_SA_ENKUlvE_clEvEUlvE_, 
                       __ZTIZZZZN2gc3est14SchurLinearize16factorKernelFuncERKNSt3__16vectorINS0_13ArgumentGroupENS2_9allocatorIS4_EEEERKNS2_3mapINS2_12basic_stringIcNS2_11char_traitsIcEENS5_IcEEEEjNS2_4lessISF_EENS5_INS2_4pairIKSF_jEEEEEEbENKUlNS_4lang4TileENSP_6BufferENSP_3est6FactorERNSS_11JacobianSetENSP_5ArrayISR_EENSW_INSS_14FactorOrderingEEERNSS_16BlockMatrixArrayESX_E_clESQ_SR_ST_SV_SX_SZ_S11_SX_ENKUlvE_clEvENKUlNS_4ExprEE_clES14_EUlvE_, 
                       __ZTIZZZZN2gc3est14SchurLinearize28eliminatedVariableKernelFuncERKNSt3__16vectorINS0_13ArgumentGroupENS2_9allocatorIS4_EEEERKNS2_3mapINS2_12basic_stringIcNS2_11char_traitsIcEENS5_IcEEEEjNS2_4lessISF_EENS5_INS2_4pairIKSF_jEEEEEEbENKUlNS_4lang4TileENSP_6BufferERNSP_3est8JacobianENSS_6FactorERNSS_11JacobianSetERNSS_14FactorOrderingESR_NSP_5ArrayISR_EENS10_ISY_EERNSP_6ScalarERNSS_16BlockMatrixArrayENSS_22SchurEliminatedHessianES11_SR_SR_E_clESQ_SR_SU_SV_SX_SZ_SR_S11_S12_S14_S16_S17_S11_SR_SR_ENKUlNS_4ExprEE0_clES19_ENKUlvE_clEvEUlS19_E_, 
                       __ZTIZZZZN2gc3est14SchurLinearize28eliminatedVariableKernelFuncERKNSt3__16vectorINS0_13ArgumentGroupENS2_9allocatorIS4_EEEERKNS2_3mapINS2_12basic_stringIcNS2_11char_traitsIcEENS5_IcEEEEjNS2_4lessISF_EENS5_INS2_4pairIKSF_jEEEEEEbENKUlNS_4lang4TileENSP_6BufferERNSP_3est8JacobianENSS_6FactorERNSS_11JacobianSetERNSS_14FactorOrderingESR_NSP_5ArrayISR_EENS10_ISY_EERNSP_6ScalarERNSS_16BlockMatrixArrayENSS_22SchurEliminatedHessianES11_SR_SR_E_clESQ_SR_SU_SV_SX_SZ_SR_S11_S12_S14_S16_S17_S11_SR_SR_ENKUlNS_4ExprEE_clES19_ENKUlS19_E_clES19_EUlvE_, 
                       __ZTIZZZZN2gc3est18ImplicitSchurJtJp218kernelFuncVariadicEjENKUlNS_4lang4TileERNS2_3est8JacobianENS4_14FactorOrderingENS2_6BufferES8_S8_S8_E_clES3_S6_S7_S8_S8_S8_S8_ENKUlNS_4ExprEE_clESA_ENKUlvE_clEvEUlvE_, 
                       __ZTIZZZZN2gc3est20MaterializeJacobians10kernelFuncERKNS0_16ArgumentGroupingERKNSt3__16vectorINS0_13eJacobianTypeENS5_9allocatorIS7_EEEEENKUlNS_4lang4TileENSD_3est6FactorENSD_6BufferENSD_5ArrayINSF_14FactorOrderingEEENSF_11VariableSetENSI_ISH_EESM_E_clESE_SG_SH_SK_SL_SM_SM_ENKUlNS_4ExprEE_clESO_ENKUlvE_clEvEUlvE0_, 
                       __ZTIZZZZN2gc3est20MaterializeJacobians10kernelFuncERKNS0_16ArgumentGroupingERKNSt3__16vectorINS0_13eJacobianTypeENS5_9allocatorIS7_EEEEENKUlNS_4lang4TileENSD_3est6FactorENSD_6BufferENSD_5ArrayINSF_14FactorOrderingEEENSF_11VariableSetENSI_ISH_EESM_E_clESE_SG_SH_SK_SL_SM_SM_ENKUlNS_4ExprEE_clESO_ENKUlvE_clEvEUlvE_, 
                       __ZTIZZZZN2gc3est22EvaluateBatchGradients10kernelFuncERKNS0_13ArgumentGroupENS0_13eJacobianTypeEENKUlNS_4lang4TileENS6_3est14FactorOrderingENS8_6FactorENS8_11VariableSetENS6_6ScalarERNS6_6BufferEE_clES7_S9_SA_SB_SC_SE_ENKUlT_T0_E_clINS_4ExprESK_EEDaSG_SH_ENKUlSG_E_clISK_EESL_SG_EUlvE_, 
                       __ZTIZZZZN2gc3est24ImplicitSchurInitialize310kernelFuncEvENKUlNS_4lang4TileERNS2_3est8JacobianENS4_14FactorOrderingES7_NS2_6BufferES8_S8_S8_S8_S8_E_clES3_S6_S7_S7_S8_S8_S8_S8_S8_S8_ENKUlNS_4ExprESA_E_clESA_SA_ENKUlSA_E_clESA_EUlvE0_, 
                       __ZTIZZZZN2gc3est24ImplicitSchurInitialize310kernelFuncEvENKUlNS_4lang4TileERNS2_3est8JacobianENS4_14FactorOrderingES7_NS2_6BufferES8_S8_S8_S8_S8_E_clES3_S6_S7_S7_S8_S8_S8_S8_S8_S8_ENKUlNS_4ExprESA_E_clESA_SA_ENKUlSA_E_clESA_EUlvE_, 
                       __ZTIZZZZN2gc3est30ApplyAdditiveLMDampingExplicit10kernelFuncEvENKUlNS_4lang4TileENS2_6ScalarERNS2_3est11BlockMatrixEE_clES3_S4_S7_ENKUlNS_4ExprENS2_6MatrixEE_clES9_SA_ENKUlvE_clEvEUlT_E_, 
                       __ZTIZZZZN2gc3est36ApplyMultiplicativeLMDampingExplicit10kernelFuncEvENKUlNS_4lang4TileENS2_6ScalarERNS2_3est11BlockMatrixEE_clES3_S4_S7_ENKUlNS_4ExprENS2_6MatrixEE_clES9_SA_ENKUlvE_clEvEUlT_E_, 
                       __ZTIZZZZZN2gc3est11EvaluateJtJ21kernelFuncOffDiagonalEvENKUlNS_4lang4TileENS2_3est13BlockOrderingENS4_14FactorOrderingES6_RNS4_11JacobianSetERNS4_11BlockMatrixEE_clES3_S5_S6_S6_S8_SA_ENKUlNS_4ExprEE_clESC_ENKUlSC_E_clESC_ENKUlvE_clEvEUlSC_E_, 
                       __ZTIZZZZZN2gc3est14SchurLinearize16factorKernelFuncERKNSt3__16vectorINS0_13ArgumentGroupENS2_9allocatorIS4_EEEERKNS2_3mapINS2_12basic_stringIcNS2_11char_traitsIcEENS5_IcEEEEjNS2_4lessISF_EENS5_INS2_4pairIKSF_jEEEEEEbENKUlNS_4lang4TileENSP_6BufferENSP_3est6FactorERNSS_11JacobianSetENSP_5ArrayISR_EENSW_INSS_14FactorOrderingEEERNSS_16BlockMatrixArrayESX_E_clESQ_SR_ST_SV_SX_SZ_S11_SX_ENKUlvE_clEvENKUlNS_4ExprEE_clES14_ENKUlvE_clEvEUlS14_E_, 
                       __ZTIZZZZZN2gc3est14SchurLinearize28eliminatedVariableKernelFuncERKNSt3__16vectorINS0_13ArgumentGroupENS2_9allocatorIS4_EEEERKNS2_3mapINS2_12basic_stringIcNS2_11char_traitsIcEENS5_IcEEEEjNS2_4lessISF_EENS5_INS2_4pairIKSF_jEEEEEEbENKUlNS_4lang4TileENSP_6BufferERNSP_3est8JacobianENSS_6FactorERNSS_11JacobianSetERNSS_14FactorOrderingESR_NSP_5ArrayISR_EENS10_ISY_EERNSP_6ScalarERNSS_16BlockMatrixArrayENSS_22SchurEliminatedHessianES11_SR_SR_E_clESQ_SR_SU_SV_SX_SZ_SR_S11_S12_S14_S16_S17_S11_SR_SR_ENKUlNS_4ExprEE0_clES19_ENKUlvE_clEvENKUlS19_E_clES19_EUlvE_, 
                       __ZTIZZZZZN2gc3est14SchurLinearize28eliminatedVariableKernelFuncERKNSt3__16vectorINS0_13ArgumentGroupENS2_9allocatorIS4_EEEERKNS2_3mapINS2_12basic_stringIcNS2_11char_traitsIcEENS5_IcEEEEjNS2_4lessISF_EENS5_INS2_4pairIKSF_jEEEEEEbENKUlNS_4lang4TileENSP_6BufferERNSP_3est8JacobianENSS_6FactorERNSS_11JacobianSetERNSS_14FactorOrderingESR_NSP_5ArrayISR_EENS10_ISY_EERNSP_6ScalarERNSS_16BlockMatrixArrayENSS_22SchurEliminatedHessianES11_SR_SR_E_clESQ_SR_SU_SV_SX_SZ_SR_S11_S12_S14_S16_S17_S11_SR_SR_ENKUlNS_4ExprEE_clES19_ENKUlS19_E_clES19_ENKUlvE_clEvEUlvE_, 
                       __ZTIZZZZZZN2gc3est11EvaluateJtJ21kernelFuncOffDiagonalEvENKUlNS_4lang4TileENS2_3est13BlockOrderingENS4_14FactorOrderingES6_RNS4_11JacobianSetERNS4_11BlockMatrixEE_clES3_S5_S6_S6_S8_SA_ENKUlNS_4ExprEE_clESC_ENKUlSC_E_clESC_ENKUlvE_clEvENKUlSC_E_clESC_EUlvE_, 
                       __ZTIZZZZZZN2gc3est14SchurLinearize16factorKernelFuncERKNSt3__16vectorINS0_13ArgumentGroupENS2_9allocatorIS4_EEEERKNS2_3mapINS2_12basic_stringIcNS2_11char_traitsIcEENS5_IcEEEEjNS2_4lessISF_EENS5_INS2_4pairIKSF_jEEEEEEbENKUlNS_4lang4TileENSP_6BufferENSP_3est6FactorERNSS_11JacobianSetENSP_5ArrayISR_EENSW_INSS_14FactorOrderingEEERNSS_16BlockMatrixArrayESX_E_clESQ_SR_ST_SV_SX_SZ_S11_SX_ENKUlvE_clEvENKUlNS_4ExprEE_clES14_ENKUlvE_clEvENKUlS14_E_clES14_EUlvE_, 
                       __ZTIZZZZZZN2gc3est14SchurLinearize28eliminatedVariableKernelFuncERKNSt3__16vectorINS0_13ArgumentGroupENS2_9allocatorIS4_EEEERKNS2_3mapINS2_12basic_stringIcNS2_11char_traitsIcEENS5_IcEEEEjNS2_4lessISF_EENS5_INS2_4pairIKSF_jEEEEEEbENKUlNS_4lang4TileENSP_6BufferERNSP_3est8JacobianENSS_6FactorERNSS_11JacobianSetERNSS_14FactorOrderingESR_NSP_5ArrayISR_EENS10_ISY_EERNSP_6ScalarERNSS_16BlockMatrixArrayENSS_22SchurEliminatedHessianES11_SR_SR_E_clESQ_SR_SU_SV_SX_SZ_SR_S11_S12_S14_S16_S17_S11_SR_SR_ENKUlNS_4ExprEE0_clES19_ENKUlvE_clEvENKUlS19_E_clES19_ENKUlvE_clEvEUlvE_, 
                       __ZTIZZZZZZN2gc3est14SchurLinearize28eliminatedVariableKernelFuncERKNSt3__16vectorINS0_13ArgumentGroupENS2_9allocatorIS4_EEEERKNS2_3mapINS2_12basic_stringIcNS2_11char_traitsIcEENS5_IcEEEEjNS2_4lessISF_EENS5_INS2_4pairIKSF_jEEEEEEbENKUlNS_4lang4TileENSP_6BufferERNSP_3est8JacobianENSS_6FactorERNSS_11JacobianSetERNSS_14FactorOrderingESR_NSP_5ArrayISR_EENS10_ISY_EERNSP_6ScalarERNSS_16BlockMatrixArrayENSS_22SchurEliminatedHessianES11_SR_SR_E_clESQ_SR_SU_SV_SX_SZ_SR_S11_S12_S14_S16_S17_S11_SR_SR_ENKUlNS_4ExprEE_clES19_ENKUlS19_E_clES19_ENKUlvE_clEvENKUlvE_clEvEUlvE_, 
                       __ZTIZZZZZZZN2gc3est14SchurLinearize28eliminatedVariableKernelFuncERKNSt3__16vectorINS0_13ArgumentGroupENS2_9allocatorIS4_EEEERKNS2_3mapINS2_12basic_stringIcNS2_11char_traitsIcEENS5_IcEEEEjNS2_4lessISF_EENS5_INS2_4pairIKSF_jEEEEEEbENKUlNS_4lang4TileENSP_6BufferERNSP_3est8JacobianENSS_6FactorERNSS_11JacobianSetERNSS_14FactorOrderingESR_NSP_5ArrayISR_EENS10_ISY_EERNSP_6ScalarERNSS_16BlockMatrixArrayENSS_22SchurEliminatedHessianES11_SR_SR_E_clESQ_SR_SU_SV_SX_SZ_SR_S11_S12_S14_S16_S17_S11_SR_SR_ENKUlNS_4ExprEE_clES19_ENKUlS19_E_clES19_ENKUlvE_clEvENKUlvE_clEvENKUlvE_clEvEUlS19_E_, 
                       __ZTSN2gc11TypedIRStmtILNS_9eStmtTypeE0EEE, __ZTSN2gc11TypedKernelINS_4lang4TileEJEEE, 
                       __ZTSN2gc11TypedKernelINS_4lang4TileEJNS1_3est13BlockOrderingENS3_14FactorOrderingERNS3_8JacobianERNS3_11BlockMatrixEEEE, 
                       __ZTSN2gc11TypedKernelINS_4lang4TileEJNS1_3est13BlockOrderingENS3_14FactorOrderingES5_RNS3_11JacobianSetERNS3_11BlockMatrixEEEE, 
                       __ZTSN2gc11TypedKernelINS_4lang4TileEJNS1_3est14FactorOrderingENS3_6FactorENS3_11VariableSetENS1_6ScalarERNS1_6BufferEEEE, 
                       __ZTSN2gc11TypedKernelINS_4lang4TileEJNS1_3est14FactorOrderingERNS3_8JacobianENS1_6BufferES7_EEE, 
                       __ZTSN2gc11TypedKernelINS_4lang4TileEJNS1_3est6FactorENS1_6BufferENS1_5ArrayINS3_14FactorOrderingEEENS3_11VariableSetENS6_IS5_EESA_EEE, 
                       __ZTSN2gc11TypedKernelINS_4lang4TileEJNS1_3est6FactorENS3_11VariableSetENS1_6BufferEEEE, 
                       __ZTSN2gc11TypedKernelINS_4lang4TileEJNS1_3est6FactorENS3_11VariableSetENS1_6BufferES6_EEE, 
                       __ZTSN2gc11TypedKernelINS_4lang4TileEJNS1_3est8VariableEEEE, 
                       __ZTSN2gc11TypedKernelINS_4lang4TileEJNS1_3est8VariableENS1_6ScalarEEEE, 
                       __ZTSN2gc11TypedKernelINS_4lang4TileEJNS1_5ArrayINS1_6BufferEEES5_EEE, 
                       __ZTSN2gc11TypedKernelINS_4lang4TileEJNS1_6BufferEEEE, __ZTSN2gc11TypedKernelINS_4lang4TileEJNS1_6BufferENS1_3est6FactorERNS4_11JacobianSetENS1_5ArrayIS3_EENS8_INS4_14FactorOrderingEEERNS4_16BlockMatrixArrayES9_EEE, 
                       __ZTSN2gc11TypedKernelINS_4lang4TileEJNS1_6BufferENS1_3est8VariableEEEE, 
                       __ZTSN2gc11TypedKernelINS_4lang4TileEJNS1_6BufferENS1_5ArrayINS1_3est8VariableEEEEEE, 
                       __ZTSN2gc11TypedKernelINS_4lang4TileEJNS1_6BufferENS1_5ArrayIS3_EES5_NS1_3est6FactorERNS6_14FactorOrderingENS6_22SchurEliminatedHessianES3_EEE, 
                       __ZTSN2gc11TypedKernelINS_4lang4TileEJNS1_6BufferENS1_6ScalarES3_EEE, 
                       __ZTSN2gc11TypedKernelINS_4lang4TileEJNS1_6BufferENS1_6ScalarES3_S3_EEE, 
                       __ZTSN2gc11TypedKernelINS_4lang4TileEJNS1_6BufferENS1_6ScalarES4_S4_S4_S4_S3_S3_S3_EEE, 
                       __ZTSN2gc11TypedKernelINS_4lang4TileEJNS1_6BufferERNS1_3est8JacobianENS4_14FactorOrderingENS1_6ScalarES3_S3_EEE, 
                       __ZTSN2gc11TypedKernelINS_4lang4TileEJNS1_6BufferERNS1_3est8JacobianENS4_14FactorOrderingES3_S3_S3_S3_S3_EEE, 
                       __ZTSN2gc11TypedKernelINS_4lang4TileEJNS1_6BufferERNS1_3est8JacobianENS4_6FactorERNS4_11JacobianSetERNS4_14FactorOrderingES3_NS1_5ArrayIS3_EENSC_ISA_EERNS1_6ScalarERNS4_16BlockMatrixArrayENS4_22SchurEliminatedHessianESD_S3_S3_EEE, 
                       __ZTSN2gc11TypedKernelINS_4lang4TileEJNS1_6BufferERNS1_3est8JacobianES3_S3_EEE, 
                       __ZTSN2gc11TypedKernelINS_4lang4TileEJNS1_6BufferES3_EEE, 
                       __ZTSN2gc11TypedKernelINS_4lang4TileEJNS1_6BufferES3_NS1_5ArrayINS1_3est8VariableEEEEEE, 
                       __ZTSN2gc11TypedKernelINS_4lang4TileEJNS1_6BufferES3_RNS1_3est8JacobianES3_S3_EEE, 
                       __ZTSN2gc11TypedKernelINS_4lang4TileEJNS1_6BufferES3_S3_EEE, 
                       __ZTSN2gc11TypedKernelINS_4lang4TileEJNS1_6BufferES3_S3_S3_EEE, 
                       __ZTSN2gc11TypedKernelINS_4lang4TileEJNS1_6BufferES3_S3_S3_S3_S3_S3_EEE, 
                       __ZTSN2gc11TypedKernelINS_4lang4TileEJNS1_6ScalarENS1_6BufferES4_EEE, 
                       __ZTSN2gc11TypedKernelINS_4lang4TileEJNS1_6ScalarERNS1_3est11BlockMatrixEEEE, 
                       __ZTSN2gc11TypedKernelINS_4lang4TileEJRNS1_3est11BlockMatrixEEEE, 
                       __ZTSN2gc11TypedKernelINS_4lang4TileEJRNS1_3est11BlockMatrixENS1_6BufferES6_EEE, 
                       __ZTSN2gc11TypedKernelINS_4lang4TileEJRNS1_3est11BlockMatrixENS1_6BufferES6_S6_EEE, 
                       __ZTSN2gc11TypedKernelINS_4lang4TileEJRNS1_3est11BlockMatrixENS1_6BufferES6_S6_RS6_EEE, 
                       __ZTSN2gc11TypedKernelINS_4lang4TileEJRNS1_3est11JacobianSetENS1_5ArrayINS3_14FactorOrderingEEENS6_INS1_6BufferEEESA_S9_EEE, 
                       __ZTSN2gc11TypedKernelINS_4lang4TileEJRNS1_3est14FactorOrderingENS1_6BufferERNS3_8JacobianES6_S6_EEE, 
                       __ZTSN2gc11TypedKernelINS_4lang4TileEJRNS1_3est14FactorOrderingERNS3_8JacobianENS1_6BufferERS8_EEE, 
                       __ZTSN2gc11TypedKernelINS_4lang4TileEJRNS1_3est14FactorOrderingERNS3_8JacobianENS1_6BufferES8_EEE, 
                       __ZTSN2gc11TypedKernelINS_4lang4TileEJRNS1_3est14FactorOrderingERNS3_8JacobianENS1_6BufferES8_S8_EEE, 
                       __ZTSN2gc11TypedKernelINS_4lang4TileEJRNS1_3est8JacobianENS1_6BufferES6_EEE, 
                       __ZTSN2gc11TypedKernelINS_4lang4TileEJRNS1_3est8JacobianENS1_6BufferES6_S6_EEE, 
                       __ZTSN2gc11TypedKernelINS_4lang4TileEJRNS1_3est8JacobianENS1_6BufferES6_S6_RS6_EEE, 
                       __ZTSN2gc11TypedKernelINS_4lang4TileEJRNS1_3est8JacobianENS1_6BufferES6_S6_S6_EEE, 
                       __ZTSN2gc11TypedKernelINS_4lang4TileEJRNS1_3est8JacobianENS1_6BufferES6_S6_S6_S6_EEE, 
                       __ZTSN2gc11TypedKernelINS_4lang4TileEJRNS1_3est8JacobianENS3_14FactorOrderingENS1_6BufferES7_EEE, 
                       __ZTSN2gc11TypedKernelINS_4lang4TileEJRNS1_3est8JacobianENS3_14FactorOrderingENS1_6BufferES7_S7_EEE, 
                       __ZTSN2gc11TypedKernelINS_4lang4TileEJRNS1_3est8JacobianENS3_14FactorOrderingENS1_6BufferES7_S7_S7_EEE, 
                       __ZTSN2gc11TypedKernelINS_4lang4TileEJRNS1_3est8JacobianENS3_14FactorOrderingES6_NS1_6BufferES7_S7_S7_S7_S7_EEE, 
                       __ZTSN2gc12BindableTypeE, __ZTSN2gc13BufferDeleterE, __ZTSN2gc14BufferRegistryE, 
                       __ZTSN2gc16BindableArgumentINS_4lang3est11BlockMatrixEEE, 
                       __ZTSN2gc16BindableArgumentINS_4lang3est11JacobianSetEEE, 
                       __ZTSN2gc16BindableArgumentINS_4lang3est11VariableSetEEE, 
                       __ZTSN2gc16BindableArgumentINS_4lang3est12CostFunctionEEE, 
                       __ZTSN2gc16BindableArgumentINS_4lang3est13BlockOrderingEEE, 
                       __ZTSN2gc16BindableArgumentINS_4lang3est14FactorOrderingEEE, 
                       __ZTSN2gc16BindableArgumentINS_4lang3est16BlockMatrixArrayEEE, 
                       __ZTSN2gc16BindableArgumentINS_4lang3est22SchurEliminatedHessianEEE, 
                       __ZTSN2gc16BindableArgumentINS_4lang3est6FactorEEE, __ZTSN2gc16BindableArgumentINS_4lang3est8JacobianEEE, 
                       __ZTSN2gc16BindableArgumentINS_4lang3est8VariableEEE, __ZTSN2gc16BindableArgumentINS_4lang5ArrayINS1_3est14FactorOrderingEEEEE, 
                       __ZTSN2gc16BindableArgumentINS_4lang5ArrayINS1_3est8VariableEEEEE, 
                       __ZTSN2gc16BindableArgumentINS_4lang5ArrayINS1_6BufferEEEEE, 
                       __ZTSN2gc16BindableArgumentINS_4lang6BufferEEE, __ZTSN2gc16BindableArgumentINS_4lang6ScalarEEE, 
                       __ZTSN2gc16FunctionArgumentINS_4lang3est11VariableSetES3_EE, 
                       __ZTSN2gc16FunctionArgumentINS_4lang3est13BlockOrderingES3_EE, 
                       __ZTSN2gc16FunctionArgumentINS_4lang3est14FactorOrderingES3_EE, 
                       __ZTSN2gc16FunctionArgumentINS_4lang3est22SchurEliminatedHessianES3_EE, 
                       __ZTSN2gc16FunctionArgumentINS_4lang3est6FactorES3_EE, __ZTSN2gc16FunctionArgumentINS_4lang3est8VariableES3_EE, 
                       __ZTSN2gc16FunctionArgumentINS_4lang5ArrayINS1_3est14FactorOrderingEEES5_EE, 
                       __ZTSN2gc16FunctionArgumentINS_4lang5ArrayINS1_3est8VariableEEES5_EE, 
                       __ZTSN2gc16FunctionArgumentINS_4lang5ArrayINS1_6BufferEEES4_EE, 
                       __ZTSN2gc16FunctionArgumentINS_4lang6BufferES2_EE, __ZTSN2gc16FunctionArgumentINS_4lang6ScalarES2_EE, 
                       __ZTSN2gc16FunctionArgumentIRNS_4lang3est11BlockMatrixES3_EE, 
                       __ZTSN2gc16FunctionArgumentIRNS_4lang3est11JacobianSetES3_EE, 
                       __ZTSN2gc16FunctionArgumentIRNS_4lang3est14FactorOrderingES3_EE, 
                       __ZTSN2gc16FunctionArgumentIRNS_4lang3est16BlockMatrixArrayES3_EE, 
                       __ZTSN2gc16FunctionArgumentIRNS_4lang3est8JacobianES3_EE, 
                       __ZTSN2gc16FunctionArgumentIRNS_4lang6BufferES2_EE, __ZTSN2gc16FunctionArgumentIRNS_4lang6ScalarES2_EE, 
                       __ZTSN2gc17ScheduleTraitImplE, __ZTSN2gc22OpaqueBindableArgumentE, 
                       __ZTSN2gc22TypedScheduleTraitImplI17loopkit_rt_type_tEE, __ZTSN2gc22TypedScheduleTraitImplINS_11eTargetASANEEE, 
                       __ZTSN2gc22TypedScheduleTraitImplINS_12eParallelismEEE, __ZTSN2gc22TypedScheduleTraitImplINS_12eTargetDebugEEE, 
                       __ZTSN2gc22TypedScheduleTraitImplINS_13eCustomKernelEEE, __ZTSN2gc22TypedScheduleTraitImplINS_13eKernelFusionEEE, 
                       __ZTSN2gc22TypedScheduleTraitImplINS_13eTargetAssertEEE, __ZTSN2gc22TypedScheduleTraitImplINS_13eTargetDeviceEEE, 
                       __ZTSN2gc22TypedScheduleTraitImplINS_16eTargetProfilingEEE, 
                       __ZTSN2gc22TypedScheduleTraitImplINS_16eTargetSignpostsEEE, 
                       __ZTSN2gc22TypedScheduleTraitImplINS_3est13eJacobianTypeEEE, 
                       __ZTSN2gc3est10NoiseModelE, __ZTSN2gc3est10TripletSetE, __ZTSN2gc3est11BlockMatrixE, 
                       __ZTSN2gc3est11VariableMapE, __ZTSN2gc3est11VariableSetE, 
                       __ZTSN2gc3est12CostFunctionE, __ZTSN2gc3est12LinearSolverE, 
                       __ZTSN2gc3est12LossFunctionE, __ZTSN2gc3est13FactorBuffersE, 
                       __ZTSN2gc3est13ModelFunctionE, __ZTSN2gc3est13TypedBoxMinusINS_4lang6VectorENS2_3SE3EEE, 
                       __ZTSN2gc3est13TypedBoxMinusINS_4lang6VectorENS2_3SO3EEE, 
                       __ZTSN2gc3est14FactorOrderingE, __ZTSN2gc3est14InformationMapE, 
                       __ZTSN2gc3est14PreconditionerE, __ZTSN2gc3est15TypedTripletSetIdEE, 
                       __ZTSN2gc3est15TypedTripletSetIfEE, __ZTSN2gc3est18LevenbergMarquardtINS0_33ExplicitHessianLinearizationPointEEE, 
                       __ZTSN2gc3est18LevenbergMarquardtINS0_33ImplicitHessianLinearizationPointEEE, 
                       __ZTSN2gc3est18TypedModelFunctionINS_4lang3SE3EJRKS3_EEE, 
                       __ZTSN2gc3est18TypedModelFunctionINS_4lang3SO3EJRKS3_EEE, 
                       __ZTSN2gc3est18TypedModelFunctionINS_4lang6ScalarEJRKS3_EEE, 
                       __ZTSN2gc3est18TypedModelFunctionINS_4lang6VectorEJRKS3_EEE, 
                       __ZTSN2gc3est19DenseLDLTSolverDataE, __ZTSN2gc3est19TrustRegionStrategyE, 
                       __ZTSN2gc3est20MaterializeJacobiansE, __ZTSN2gc3est20SparseLDLTSolverDataE, 
                       __ZTSN2gc3est21StandardGaussianNoiseE, __ZTSN2gc3est22SchurEliminatedHessianE, 
                       __ZTSN2gc3est24LeastSquaresLossFunctionE, __ZTSN2gc3est24TypedDenseLDLTSolverDataIdEE, 
                       __ZTSN2gc3est24TypedDenseLDLTSolverDataIfEE, __ZTSN2gc3est25TypedJacobiPreconditionerINS0_33ExplicitHessianLinearizationPointEEE, 
                       __ZTSN2gc3est25TypedJacobiPreconditionerINS0_33ImplicitHessianLinearizationPointEEE, 
                       __ZTSN2gc3est25TypedSparseLDLTSolverDataIdEE, __ZTSN2gc3est25TypedSparseLDLTSolverDataIfEE, 
                       __ZTSN2gc3est29SecondOrderLinearizationPointE, __ZTSN2gc3est29TypedLeastSquaresLossFunctionIJNS_4lang6ScalarEEEE, 
                       __ZTSN2gc3est8BoxMinusE, __ZTSN2gc3est9BufferMapE, __ZTSN2gc3est9MinimizerE, 
                       __ZTSN2gc3ops11AddAssignTTE, __ZTSN2gc3ops12PreIncrementE, 
                       __ZTSN2gc3ops14AssignmentOpTTINS0_11AddAssignTTEEE, __ZTSN2gc3ops16AutoDiffBackpropE, 
                       __ZTSN2gc3ops3AtGE, __ZTSN2gc3ops3GBtE, __ZTSN2gc3ops4CopyE, 
                       __ZTSN2gc3ops6DiffOpE, __ZTSN2gc3ops6ModuleE, __ZTSN2gc3ops6OpBaseE, 
                       __ZTSN2gc3ops6detail12ScatterZerosE, __ZTSN2gc3ops6detail22FunctionReturnTypeImplE, 
                       __ZTSN2gc3ops6detail27TypedFunctionReturnTypeImplILm0EEE, 
                       __ZTSN2gc3ops6detail27TypedFunctionReturnTypeImplILm1EEE, 
                       __ZTSN2gc3ops6detail9VarAssignE, __ZTSN2gc3ops8FunctionE, 
                       __ZTSN2gc4lang12StringStreamE, __ZTSN2gc4lang3est11BlockMatrixE, 
                       __ZTSN2gc4lang3est11JacobianSet16JacobianInstanceE, __ZTSN2gc4lang3est11JacobianSet28MaterializedJacobianInstanceE, 
                       __ZTSN2gc4lang3est11JacobianSetE, __ZTSN2gc4lang3est11VariableSetE, 
                       __ZTSN2gc4lang3est12CostFunctionE, __ZTSN2gc4lang3est13BlockOrderingE, 
                       __ZTSN2gc4lang3est14FactorOrderingE, __ZTSN2gc4lang3est16BlockMatrixArrayE, 
                       __ZTSN2gc4lang3est18FactorOrderingImplE, __ZTSN2gc4lang3est20MaterializedJacobianE, 
                       __ZTSN2gc4lang3est22SchurEliminatedHessianE, __ZTSN2gc4lang3est6FactorE, 
                       __ZTSN2gc4lang3est8JacobianE, __ZTSN2gc4lang3est8VariableE, 
                       __ZTSN2gc4lang4simd11MatMultPlanE, __ZTSN2gc4lang4simd15SIMDMatMultPlanE, 
                       __ZTSN2gc4lang4simd18GeneralMatMultPlanE, __ZTSN2gc4lang4simd18InnerProductMatrixE, 
                       __ZTSN2gc4lang4simd21SIMDLargeKMatMultPlanE, __ZTSN2gc4lang4simd21SIMDSmallKMatMultPlanE, 
                       __ZTSN2gc4lang4simd22SIMDInnerProductMatrixE, __ZTSN2gc4lang4simd23InnerProductAccumulatorE, 
                       __ZTSN2gc4lang4simd25GeneralInnerProductMatrixE, __ZTSN2gc4lang4simd27SIMDInnerProductAccumulatorE, 
                       __ZTSN2gc4lang4simd28SIMDCachedInnerProductMatrixE, __ZTSN2gc4lang4simd29LargeKInnerProductAccumulatorE, 
                       __ZTSN2gc4lang4simd29SmallKInnerProductAccumulatorE, __ZTSN2gc4lang4simd30GeneralInnerProductAccumulatorE, 
                       __ZTSN2gc4lang5ArrayINS0_3est14FactorOrderingEEE, __ZTSN2gc4lang5ArrayINS0_3est8VariableEEE, 
                       __ZTSN2gc4lang5ArrayINS0_6BufferEEE, __ZTSN2gc4lang5RangeE, 
                       __ZTSN2gc4lang6BufferE, __ZTSN2gc4lang6MatrixE, __ZTSN2gc4lang6ScalarE, 
                       __ZTSN2gc4lang6StringE, __ZTSN2gc4lang6TensorE, __ZTSN2gc4lang6VectorE, 
                       __ZTSN2gc4lang8BlockRefE, __ZTSN2gc4lang8VariableE, __ZTSN2gc6IRStmtE, 
                       __ZTSN2gc6KernelE, __ZTSN2gc6ObjectE, __ZTSN2gc6ScalarE, __ZTSN2gc6VectorE, 
                       __ZTSN2gc8RangeMapE, __ZTSN8nlohmann6detail10type_errorE, 
                       __ZTSN8nlohmann6detail11parse_errorE, __ZTSN8nlohmann6detail12out_of_rangeE, 
                       __ZTSN8nlohmann6detail16invalid_iteratorE, __ZTSN8nlohmann6detail21output_stream_adapterIcEE, 
                       __ZTSN8nlohmann6detail23output_adapter_protocolIcEE, __ZTSN8nlohmann6detail9exceptionE, 
                       __ZTSNSt3__110__function34__maybe_derive_from_unary_functionIFN2gc4util10TaggedBoolINS2_3est15IsEliminableTagEEERKNS5_8VariableEEEE, 
                       __ZTSNSt3__110__function34__maybe_derive_from_unary_functionIFvN2gc4lang4TileEEEE, 
                       __ZTSNSt3__110__function34__maybe_derive_from_unary_functionIFvN2gc4lang4TileENS3_3est13BlockOrderingENS5_14FactorOrderingERNS5_8JacobianERNS5_11BlockMatrixEEEE, 
                       __ZTSNSt3__110__function34__maybe_derive_from_unary_functionIFvN2gc4lang4TileENS3_3est13BlockOrderingENS5_14FactorOrderingES7_RNS5_11JacobianSetERNS5_11BlockMatrixEEEE, 
                       __ZTSNSt3__110__function34__maybe_derive_from_unary_functionIFvN2gc4lang4TileENS3_3est14FactorOrderingENS5_6FactorENS5_11VariableSetENS3_6ScalarERNS3_6BufferEEEE, 
                       __ZTSNSt3__110__function34__maybe_derive_from_unary_functionIFvN2gc4lang4TileENS3_3est14FactorOrderingERNS5_8JacobianENS3_6BufferES9_EEE, 
                       __ZTSNSt3__110__function34__maybe_derive_from_unary_functionIFvN2gc4lang4TileENS3_3est6FactorENS3_6BufferENS3_5ArrayINS5_14FactorOrderingEEENS5_11VariableSetENS8_IS7_EESC_EEE, 
                       __ZTSNSt3__110__function34__maybe_derive_from_unary_functionIFvN2gc4lang4TileENS3_3est6FactorENS5_11VariableSetENS3_6BufferEEEE, 
                       __ZTSNSt3__110__function34__maybe_derive_from_unary_functionIFvN2gc4lang4TileENS3_3est6FactorENS5_11VariableSetENS3_6BufferES8_EEE, 
                       __ZTSNSt3__110__function34__maybe_derive_from_unary_functionIFvN2gc4lang4TileENS3_3est8VariableEEEE, 
                       __ZTSNSt3__110__function34__maybe_derive_from_unary_functionIFvN2gc4lang4TileENS3_3est8VariableENS3_6ScalarEEEE, 
                       __ZTSNSt3__110__function34__maybe_derive_from_unary_functionIFvN2gc4lang4TileENS3_5ArrayINS3_6BufferEEES7_EEE, 
                       __ZTSNSt3__110__function34__maybe_derive_from_unary_functionIFvN2gc4lang4TileENS3_6BufferEEEE, 
                       __ZTSNSt3__110__function34__maybe_derive_from_unary_functionIFvN2gc4lang4TileENS3_6BufferENS3_3est6FactorERNS6_11JacobianSetENS3_5ArrayIS5_EENSA_INS6_14FactorOrderingEEERNS6_16BlockMatrixArrayESB_EEE, 
                       __ZTSNSt3__110__function34__maybe_derive_from_unary_functionIFvN2gc4lang4TileENS3_6BufferENS3_3est8VariableEEEE, 
                       __ZTSNSt3__110__function34__maybe_derive_from_unary_functionIFvN2gc4lang4TileENS3_6BufferENS3_5ArrayINS3_3est8VariableEEEEEE, 
                       __ZTSNSt3__110__function34__maybe_derive_from_unary_functionIFvN2gc4lang4TileENS3_6BufferENS3_5ArrayIS5_EES7_NS3_3est6FactorERNS8_14FactorOrderingENS8_22SchurEliminatedHessianES5_EEE, 
                       __ZTSNSt3__110__function34__maybe_derive_from_unary_functionIFvN2gc4lang4TileENS3_6BufferENS3_6ScalarES5_EEE, 
                       __ZTSNSt3__110__function34__maybe_derive_from_unary_functionIFvN2gc4lang4TileENS3_6BufferENS3_6ScalarES5_S5_EEE, 
                       __ZTSNSt3__110__function34__maybe_derive_from_unary_functionIFvN2gc4lang4TileENS3_6BufferENS3_6ScalarES6_S6_S6_S6_S5_S5_S5_EEE, 
                       __ZTSNSt3__110__function34__maybe_derive_from_unary_functionIFvN2gc4lang4TileENS3_6BufferERNS3_3est8JacobianENS6_14FactorOrderingENS3_6ScalarES5_S5_EEE, 
                       __ZTSNSt3__110__function34__maybe_derive_from_unary_functionIFvN2gc4lang4TileENS3_6BufferERNS3_3est8JacobianENS6_14FactorOrderingES5_S5_S5_S5_S5_EEE, 
                       __ZTSNSt3__110__function34__maybe_derive_from_unary_functionIFvN2gc4lang4TileENS3_6BufferERNS3_3est8JacobianENS6_6FactorERNS6_11JacobianSetERNS6_14FactorOrderingES5_NS3_5ArrayIS5_EENSE_ISC_EERNS3_6ScalarERNS6_16BlockMatrixArrayENS6_22SchurEliminatedHessianESF_S5_S5_EEE, 
                       __ZTSNSt3__110__function34__maybe_derive_from_unary_functionIFvN2gc4lang4TileENS3_6BufferERNS3_3est8JacobianES5_S5_EEE, 
                       __ZTSNSt3__110__function34__maybe_derive_from_unary_functionIFvN2gc4lang4TileENS3_6BufferES5_EEE, 
                       __ZTSNSt3__110__function34__maybe_derive_from_unary_functionIFvN2gc4lang4TileENS3_6BufferES5_NS3_5ArrayINS3_3est8VariableEEEEEE, 
                       __ZTSNSt3__110__function34__maybe_derive_from_unary_functionIFvN2gc4lang4TileENS3_6BufferES5_RNS3_3est8JacobianES5_S5_EEE, 
                       __ZTSNSt3__110__function34__maybe_derive_from_unary_functionIFvN2gc4lang4TileENS3_6BufferES5_S5_EEE, 
                       __ZTSNSt3__110__function34__maybe_derive_from_unary_functionIFvN2gc4lang4TileENS3_6BufferES5_S5_S5_EEE, 
                       __ZTSNSt3__110__function34__maybe_derive_from_unary_functionIFvN2gc4lang4TileENS3_6BufferES5_S5_S5_S5_S5_S5_EEE, 
                       __ZTSNSt3__110__function34__maybe_derive_from_unary_functionIFvN2gc4lang4TileENS3_6ScalarENS3_6BufferES6_EEE, 
                       __ZTSNSt3__110__function34__maybe_derive_from_unary_functionIFvN2gc4lang4TileENS3_6ScalarERNS3_3est11BlockMatrixEEEE, 
                       __ZTSNSt3__110__function34__maybe_derive_from_unary_functionIFvN2gc4lang4TileERNS3_3est11BlockMatrixEEEE, 
                       __ZTSNSt3__110__function34__maybe_derive_from_unary_functionIFvN2gc4lang4TileERNS3_3est11BlockMatrixENS3_6BufferES8_EEE, 
                       __ZTSNSt3__110__function34__maybe_derive_from_unary_functionIFvN2gc4lang4TileERNS3_3est11BlockMatrixENS3_6BufferES8_S8_EEE, 
                       __ZTSNSt3__110__function34__maybe_derive_from_unary_functionIFvN2gc4lang4TileERNS3_3est11BlockMatrixENS3_6BufferES8_S8_RS8_EEE, 
                       __ZTSNSt3__110__function34__maybe_derive_from_unary_functionIFvN2gc4lang4TileERNS3_3est11JacobianSetENS3_5ArrayINS5_14FactorOrderingEEENS8_INS3_6BufferEEESC_SB_EEE, 
                       __ZTSNSt3__110__function34__maybe_derive_from_unary_functionIFvN2gc4lang4TileERNS3_3est14FactorOrderingENS3_6BufferERNS5_8JacobianES8_S8_EEE, 
                       __ZTSNSt3__110__function34__maybe_derive_from_unary_functionIFvN2gc4lang4TileERNS3_3est14FactorOrderingERNS5_8JacobianENS3_6BufferERSA_EEE, 
                       __ZTSNSt3__110__function34__maybe_derive_from_unary_functionIFvN2gc4lang4TileERNS3_3est14FactorOrderingERNS5_8JacobianENS3_6BufferESA_EEE, 
                       __ZTSNSt3__110__function34__maybe_derive_from_unary_functionIFvN2gc4lang4TileERNS3_3est14FactorOrderingERNS5_8JacobianENS3_6BufferESA_SA_EEE, 
                       __ZTSNSt3__110__function34__maybe_derive_from_unary_functionIFvN2gc4lang4TileERNS3_3est8JacobianENS3_6BufferES8_EEE, 
                       __ZTSNSt3__110__function34__maybe_derive_from_unary_functionIFvN2gc4lang4TileERNS3_3est8JacobianENS3_6BufferES8_S8_EEE, 
                       __ZTSNSt3__110__function34__maybe_derive_from_unary_functionIFvN2gc4lang4TileERNS3_3est8JacobianENS3_6BufferES8_S8_RS8_EEE, 
                       __ZTSNSt3__110__function34__maybe_derive_from_unary_functionIFvN2gc4lang4TileERNS3_3est8JacobianENS3_6BufferES8_S8_S8_EEE, 
                       __ZTSNSt3__110__function34__maybe_derive_from_unary_functionIFvN2gc4lang4TileERNS3_3est8JacobianENS3_6BufferES8_S8_S8_S8_EEE, 
                       __ZTSNSt3__110__function34__maybe_derive_from_unary_functionIFvN2gc4lang4TileERNS3_3est8JacobianENS5_14FactorOrderingENS3_6BufferES9_EEE, 
                       __ZTSNSt3__110__function34__maybe_derive_from_unary_functionIFvN2gc4lang4TileERNS3_3est8JacobianENS5_14FactorOrderingENS3_6BufferES9_S9_EEE, 
                       __ZTSNSt3__110__function34__maybe_derive_from_unary_functionIFvN2gc4lang4TileERNS3_3est8JacobianENS5_14FactorOrderingENS3_6BufferES9_S9_S9_EEE, 
                       __ZTSNSt3__110__function34__maybe_derive_from_unary_functionIFvN2gc4lang4TileERNS3_3est8JacobianENS5_14FactorOrderingES8_NS3_6BufferES9_S9_S9_S9_S9_EEE, 
                       __ZTSNSt3__110__function35__maybe_derive_from_binary_functionIFN2gc4util10TaggedBoolINS2_3est15IsEliminableTagEEERKNS5_8VariableEEEE, 
                       __ZTSNSt3__110__function35__maybe_derive_from_binary_functionIFvN2gc4lang4TileEEEE, 
                       __ZTSNSt3__110__function35__maybe_derive_from_binary_functionIFvN2gc4lang4TileENS3_3est13BlockOrderingENS5_14FactorOrderingERNS5_8JacobianERNS5_11BlockMatrixEEEE, 
                       __ZTSNSt3__110__function35__maybe_derive_from_binary_functionIFvN2gc4lang4TileENS3_3est13BlockOrderingENS5_14FactorOrderingES7_RNS5_11JacobianSetERNS5_11BlockMatrixEEEE, 
                       __ZTSNSt3__110__function35__maybe_derive_from_binary_functionIFvN2gc4lang4TileENS3_3est14FactorOrderingENS5_6FactorENS5_11VariableSetENS3_6ScalarERNS3_6BufferEEEE, 
                       __ZTSNSt3__110__function35__maybe_derive_from_binary_functionIFvN2gc4lang4TileENS3_3est14FactorOrderingERNS5_8JacobianENS3_6BufferES9_EEE, 
                       __ZTSNSt3__110__function35__maybe_derive_from_binary_functionIFvN2gc4lang4TileENS3_3est6FactorENS3_6BufferENS3_5ArrayINS5_14FactorOrderingEEENS5_11VariableSetENS8_IS7_EESC_EEE, 
                       __ZTSNSt3__110__function35__maybe_derive_from_binary_functionIFvN2gc4lang4TileENS3_3est6FactorENS5_11VariableSetENS3_6BufferEEEE, 
                       __ZTSNSt3__110__function35__maybe_derive_from_binary_functionIFvN2gc4lang4TileENS3_3est6FactorENS5_11VariableSetENS3_6BufferES8_EEE, 
                       __ZTSNSt3__110__function35__maybe_derive_from_binary_functionIFvN2gc4lang4TileENS3_3est8VariableEEEE, 
                       __ZTSNSt3__110__function35__maybe_derive_from_binary_functionIFvN2gc4lang4TileENS3_3est8VariableENS3_6ScalarEEEE, 
                       __ZTSNSt3__110__function35__maybe_derive_from_binary_functionIFvN2gc4lang4TileENS3_5ArrayINS3_6BufferEEES7_EEE, 
                       __ZTSNSt3__110__function35__maybe_derive_from_binary_functionIFvN2gc4lang4TileENS3_6BufferEEEE, 
                       __ZTSNSt3__110__function35__maybe_derive_from_binary_functionIFvN2gc4lang4TileENS3_6BufferENS3_3est6FactorERNS6_11JacobianSetENS3_5ArrayIS5_EENSA_INS6_14FactorOrderingEEERNS6_16BlockMatrixArrayESB_EEE, 
                       __ZTSNSt3__110__function35__maybe_derive_from_binary_functionIFvN2gc4lang4TileENS3_6BufferENS3_3est8VariableEEEE, 
                       __ZTSNSt3__110__function35__maybe_derive_from_binary_functionIFvN2gc4lang4TileENS3_6BufferENS3_5ArrayINS3_3est8VariableEEEEEE, 
                       __ZTSNSt3__110__function35__maybe_derive_from_binary_functionIFvN2gc4lang4TileENS3_6BufferENS3_5ArrayIS5_EES7_NS3_3est6FactorERNS8_14FactorOrderingENS8_22SchurEliminatedHessianES5_EEE, 
                       __ZTSNSt3__110__function35__maybe_derive_from_binary_functionIFvN2gc4lang4TileENS3_6BufferENS3_6ScalarES5_EEE, 
                       __ZTSNSt3__110__function35__maybe_derive_from_binary_functionIFvN2gc4lang4TileENS3_6BufferENS3_6ScalarES5_S5_EEE, 
                       __ZTSNSt3__110__function35__maybe_derive_from_binary_functionIFvN2gc4lang4TileENS3_6BufferENS3_6ScalarES6_S6_S6_S6_S5_S5_S5_EEE, 
                       __ZTSNSt3__110__function35__maybe_derive_from_binary_functionIFvN2gc4lang4TileENS3_6BufferERNS3_3est8JacobianENS6_14FactorOrderingENS3_6ScalarES5_S5_EEE, 
                       __ZTSNSt3__110__function35__maybe_derive_from_binary_functionIFvN2gc4lang4TileENS3_6BufferERNS3_3est8JacobianENS6_14FactorOrderingES5_S5_S5_S5_S5_EEE, 
                       __ZTSNSt3__110__function35__maybe_derive_from_binary_functionIFvN2gc4lang4TileENS3_6BufferERNS3_3est8JacobianENS6_6FactorERNS6_11JacobianSetERNS6_14FactorOrderingES5_NS3_5ArrayIS5_EENSE_ISC_EERNS3_6ScalarERNS6_16BlockMatrixArrayENS6_22SchurEliminatedHessianESF_S5_S5_EEE, 
                       __ZTSNSt3__110__function35__maybe_derive_from_binary_functionIFvN2gc4lang4TileENS3_6BufferERNS3_3est8JacobianES5_S5_EEE, 
                       __ZTSNSt3__110__function35__maybe_derive_from_binary_functionIFvN2gc4lang4TileENS3_6BufferES5_EEE, 
                       __ZTSNSt3__110__function35__maybe_derive_from_binary_functionIFvN2gc4lang4TileENS3_6BufferES5_NS3_5ArrayINS3_3est8VariableEEEEEE, 
                       __ZTSNSt3__110__function35__maybe_derive_from_binary_functionIFvN2gc4lang4TileENS3_6BufferES5_RNS3_3est8JacobianES5_S5_EEE, 
                       __ZTSNSt3__110__function35__maybe_derive_from_binary_functionIFvN2gc4lang4TileENS3_6BufferES5_S5_EEE, 
                       __ZTSNSt3__110__function35__maybe_derive_from_binary_functionIFvN2gc4lang4TileENS3_6BufferES5_S5_S5_EEE, 
                       __ZTSNSt3__110__function35__maybe_derive_from_binary_functionIFvN2gc4lang4TileENS3_6BufferES5_S5_S5_S5_S5_S5_EEE, 
                       __ZTSNSt3__110__function35__maybe_derive_from_binary_functionIFvN2gc4lang4TileENS3_6ScalarENS3_6BufferES6_EEE, 
                       __ZTSNSt3__110__function35__maybe_derive_from_binary_functionIFvN2gc4lang4TileENS3_6ScalarERNS3_3est11BlockMatrixEEEE, 
                       __ZTSNSt3__110__function35__maybe_derive_from_binary_functionIFvN2gc4lang4TileERNS3_3est11BlockMatrixEEEE, 
                       __ZTSNSt3__110__function35__maybe_derive_from_binary_functionIFvN2gc4lang4TileERNS3_3est11BlockMatrixENS3_6BufferES8_EEE, 
                       __ZTSNSt3__110__function35__maybe_derive_from_binary_functionIFvN2gc4lang4TileERNS3_3est11BlockMatrixENS3_6BufferES8_S8_EEE, 
                       __ZTSNSt3__110__function35__maybe_derive_from_binary_functionIFvN2gc4lang4TileERNS3_3est11BlockMatrixENS3_6BufferES8_S8_RS8_EEE, 
                       __ZTSNSt3__110__function35__maybe_derive_from_binary_functionIFvN2gc4lang4TileERNS3_3est11JacobianSetENS3_5ArrayINS5_14FactorOrderingEEENS8_INS3_6BufferEEESC_SB_EEE, 
                       __ZTSNSt3__110__function35__maybe_derive_from_binary_functionIFvN2gc4lang4TileERNS3_3est14FactorOrderingENS3_6BufferERNS5_8JacobianES8_S8_EEE, 
                       __ZTSNSt3__110__function35__maybe_derive_from_binary_functionIFvN2gc4lang4TileERNS3_3est14FactorOrderingERNS5_8JacobianENS3_6BufferERSA_EEE, 
                       __ZTSNSt3__110__function35__maybe_derive_from_binary_functionIFvN2gc4lang4TileERNS3_3est14FactorOrderingERNS5_8JacobianENS3_6BufferESA_EEE, 
                       __ZTSNSt3__110__function35__maybe_derive_from_binary_functionIFvN2gc4lang4TileERNS3_3est14FactorOrderingERNS5_8JacobianENS3_6BufferESA_SA_EEE, 
                       __ZTSNSt3__110__function35__maybe_derive_from_binary_functionIFvN2gc4lang4TileERNS3_3est8JacobianENS3_6BufferES8_EEE, 
                       __ZTSNSt3__110__function35__maybe_derive_from_binary_functionIFvN2gc4lang4TileERNS3_3est8JacobianENS3_6BufferES8_S8_EEE, 
                       __ZTSNSt3__110__function35__maybe_derive_from_binary_functionIFvN2gc4lang4TileERNS3_3est8JacobianENS3_6BufferES8_S8_RS8_EEE, 
                       __ZTSNSt3__110__function35__maybe_derive_from_binary_functionIFvN2gc4lang4TileERNS3_3est8JacobianENS3_6BufferES8_S8_S8_EEE, 
                       __ZTSNSt3__110__function35__maybe_derive_from_binary_functionIFvN2gc4lang4TileERNS3_3est8JacobianENS3_6BufferES8_S8_S8_S8_EEE, 
                       __ZTSNSt3__110__function35__maybe_derive_from_binary_functionIFvN2gc4lang4TileERNS3_3est8JacobianENS5_14FactorOrderingENS3_6BufferES9_EEE, 
                       __ZTSNSt3__110__function35__maybe_derive_from_binary_functionIFvN2gc4lang4TileERNS3_3est8JacobianENS5_14FactorOrderingENS3_6BufferES9_S9_EEE, 
                       __ZTSNSt3__110__function35__maybe_derive_from_binary_functionIFvN2gc4lang4TileERNS3_3est8JacobianENS5_14FactorOrderingENS3_6BufferES9_S9_S9_EEE, 
                       __ZTSNSt3__110__function35__maybe_derive_from_binary_functionIFvN2gc4lang4TileERNS3_3est8JacobianENS5_14FactorOrderingES8_NS3_6BufferES9_S9_S9_S9_S9_EEE, 
                       __ZTSNSt3__110__function6__baseIF17loopkit_rt_type_tRKNS_6vectorIS2_NS_9allocatorIS2_EEEEEEE, 
                       __ZTSNSt3__110__function6__baseIFN2gc12BlockExtentsERKNS_6vectorIS3_NS_9allocatorIS3_EEEEEEE, 
                       __ZTSNSt3__110__function6__baseIFN2gc12BlockExtentsERKS3_EEE, 
                       __ZTSNSt3__110__function6__baseIFN2gc14ElementExtentsERKNS_6vectorIS3_NS_9allocatorIS3_EEEEEEE, 
                       __ZTSNSt3__110__function6__baseIFN2gc14ElementExtentsERKS3_EEE, 
                       __ZTSNSt3__110__function6__baseIFN2gc3est13eJacobianTypeERKNS_12basic_stringIcNS_11char_traitsIcEENS_9allocatorIcEEEESC_EEE, 
                       __ZTSNSt3__110__function6__baseIFN2gc3ops18FunctionReturnTypeEvEEE, 
                       __ZTSNSt3__110__function6__baseIFN2gc4StmtES3_EEE, __ZTSNSt3__110__function6__baseIFN2gc4lang2ad12AdjointArrayERKS5_EEE, 
                       __ZTSNSt3__110__function6__baseIFN2gc4lang3SE3ERKS4_EEE, __ZTSNSt3__110__function6__baseIFN2gc4lang3SO3ERKS4_EEE, 
                       __ZTSNSt3__110__function6__baseIFN2gc4lang6ScalarERKS4_EEE, 
                       __ZTSNSt3__110__function6__baseIFN2gc4lang6TensorENS3_6ScalarES5_EEE, 
                       __ZTSNSt3__110__function6__baseIFN2gc4lang6TensorERKNS_6vectorINS2_4ExprENS_9allocatorIS6_EEEEEEE, 
                       __ZTSNSt3__110__function6__baseIFN2gc4lang6TensorES4_EEE, 
                       __ZTSNSt3__110__function6__baseIFN2gc4lang6VectorENS3_3SE3ES5_EEE, 
                       __ZTSNSt3__110__function6__baseIFN2gc4lang6VectorENS3_3SO3ES5_EEE, 
                       __ZTSNSt3__110__function6__baseIFN2gc4lang6VectorERKS4_EEE, 
                       __ZTSNSt3__110__function6__baseIFN2gc4lang8VariableERKNS_6vectorIS4_NS_9allocatorIS4_EEEEEEE, 
                       __ZTSNSt3__110__function6__baseIFN2gc4lang8VariableERKS4_RKNS_6vectorIS4_NS_9allocatorIS4_EEEEEEE, 
                       __ZTSNSt3__110__function6__baseIFN2gc4lang8VariableERKS4_S6_EEE, 
                       __ZTSNSt3__110__function6__baseIFN2gc4util10TaggedBoolINS2_3est15IsEliminableTagEEERKNS5_8VariableEEEE, 
                       __ZTSNSt3__110__function6__baseIFN2gc5ShapeERKNS_6vectorIS3_NS_9allocatorIS3_EEEEEEE, 
                       __ZTSNSt3__110__function6__baseIFN2gc6ExtentEvEEE, __ZTSNSt3__110__function6__baseIFN2gc9float16_tEvEEE, 
                       __ZTSNSt3__110__function6__baseIFavEEE, __ZTSNSt3__110__function6__baseIFbNS_10shared_ptrIN2gc16BufferParametersEEEEEE, 
                       __ZTSNSt3__110__function6__baseIFbNS_10shared_ptrIN2gc3ops6OpBaseEEEEEE, 
                       __ZTSNSt3__110__function6__baseIFbPN2gc12ComputeGraph4NodeEEEE, 
                       __ZTSNSt3__110__function6__baseIFbRKN2gc3est8VariableEEEE, 
                       __ZTSNSt3__110__function6__baseIFbjjEEE, __ZTSNSt3__110__function6__baseIFbvEEE, 
                       __ZTSNSt3__110__function6__baseIFdvEEE, __ZTSNSt3__110__function6__baseIFfvEEE, 
                       __ZTSNSt3__110__function6__baseIFhvEEE, __ZTSNSt3__110__function6__baseIFivEEE, 
                       __ZTSNSt3__110__function6__baseIFjvEEE, __ZTSNSt3__110__function6__baseIFsvEEE, 
                       __ZTSNSt3__110__function6__baseIFtvEEE, __ZTSNSt3__110__function6__baseIFvN2gc4ExprEEEE, 
                       __ZTSNSt3__110__function6__baseIFvN2gc4ExprES3_EEE, __ZTSNSt3__110__function6__baseIFvN2gc4lang4TileEEEE, 
                       __ZTSNSt3__110__function6__baseIFvN2gc4lang4TileENS3_3est13BlockOrderingENS5_14FactorOrderingERNS5_8JacobianERNS5_11BlockMatrixEEEE, 
                       __ZTSNSt3__110__function6__baseIFvN2gc4lang4TileENS3_3est13BlockOrderingENS5_14FactorOrderingES7_RNS5_11JacobianSetERNS5_11BlockMatrixEEEE, 
                       __ZTSNSt3__110__function6__baseIFvN2gc4lang4TileENS3_3est14FactorOrderingENS5_6FactorENS5_11VariableSetENS3_6ScalarERNS3_6BufferEEEE, 
                       __ZTSNSt3__110__function6__baseIFvN2gc4lang4TileENS3_3est14FactorOrderingERNS5_8JacobianENS3_6BufferES9_EEE, 
                       __ZTSNSt3__110__function6__baseIFvN2gc4lang4TileENS3_3est6FactorENS3_6BufferENS3_5ArrayINS5_14FactorOrderingEEENS5_11VariableSetENS8_IS7_EESC_EEE, 
                       __ZTSNSt3__110__function6__baseIFvN2gc4lang4TileENS3_3est6FactorENS5_11VariableSetENS3_6BufferEEEE, 
                       __ZTSNSt3__110__function6__baseIFvN2gc4lang4TileENS3_3est6FactorENS5_11VariableSetENS3_6BufferES8_EEE, 
                       __ZTSNSt3__110__function6__baseIFvN2gc4lang4TileENS3_3est8VariableEEEE, 
                       __ZTSNSt3__110__function6__baseIFvN2gc4lang4TileENS3_3est8VariableENS3_6ScalarEEEE, 
                       __ZTSNSt3__110__function6__baseIFvN2gc4lang4TileENS3_5ArrayINS3_6BufferEEES7_EEE, 
                       __ZTSNSt3__110__function6__baseIFvN2gc4lang4TileENS3_6BufferEEEE, 
                       __ZTSNSt3__110__function6__baseIFvN2gc4lang4TileENS3_6BufferENS3_3est6FactorERNS6_11JacobianSetENS3_5ArrayIS5_EENSA_INS6_14FactorOrderingEEERNS6_16BlockMatrixArrayESB_EEE, 
                       __ZTSNSt3__110__function6__baseIFvN2gc4lang4TileENS3_6BufferENS3_3est8VariableEEEE, 
                       __ZTSNSt3__110__function6__baseIFvN2gc4lang4TileENS3_6BufferENS3_5ArrayINS3_3est8VariableEEEEEE, 
                       __ZTSNSt3__110__function6__baseIFvN2gc4lang4TileENS3_6BufferENS3_5ArrayIS5_EES7_NS3_3est6FactorERNS8_14FactorOrderingENS8_22SchurEliminatedHessianES5_EEE, 
                       __ZTSNSt3__110__function6__baseIFvN2gc4lang4TileENS3_6BufferENS3_6ScalarES5_EEE, 
                       __ZTSNSt3__110__function6__baseIFvN2gc4lang4TileENS3_6BufferENS3_6ScalarES5_S5_EEE, 
                       __ZTSNSt3__110__function6__baseIFvN2gc4lang4TileENS3_6BufferENS3_6ScalarES6_S6_S6_S6_S5_S5_S5_EEE, 
                       __ZTSNSt3__110__function6__baseIFvN2gc4lang4TileENS3_6BufferERNS3_3est8JacobianENS6_14FactorOrderingENS3_6ScalarES5_S5_EEE, 
                       __ZTSNSt3__110__function6__baseIFvN2gc4lang4TileENS3_6BufferERNS3_3est8JacobianENS6_14FactorOrderingES5_S5_S5_S5_S5_EEE, 
                       __ZTSNSt3__110__function6__baseIFvN2gc4lang4TileENS3_6BufferERNS3_3est8JacobianENS6_6FactorERNS6_11JacobianSetERNS6_14FactorOrderingES5_NS3_5ArrayIS5_EENSE_ISC_EERNS3_6ScalarERNS6_16BlockMatrixArrayENS6_22SchurEliminatedHessianESF_S5_S5_EEE, 
                       __ZTSNSt3__110__function6__baseIFvN2gc4lang4TileENS3_6BufferERNS3_3est8JacobianES5_S5_EEE, 
                       __ZTSNSt3__110__function6__baseIFvN2gc4lang4TileENS3_6BufferES5_EEE, 
                       __ZTSNSt3__110__function6__baseIFvN2gc4lang4TileENS3_6BufferES5_NS3_5ArrayINS3_3est8VariableEEEEEE, 
                       __ZTSNSt3__110__function6__baseIFvN2gc4lang4TileENS3_6BufferES5_RNS3_3est8JacobianES5_S5_EEE, 
                       __ZTSNSt3__110__function6__baseIFvN2gc4lang4TileENS3_6BufferES5_S5_EEE, 
                       __ZTSNSt3__110__function6__baseIFvN2gc4lang4TileENS3_6BufferES5_S5_S5_EEE, 
                       __ZTSNSt3__110__function6__baseIFvN2gc4lang4TileENS3_6BufferES5_S5_S5_S5_S5_S5_EEE, 
                       __ZTSNSt3__110__function6__baseIFvN2gc4lang4TileENS3_6ScalarENS3_6BufferES6_EEE, 
                       __ZTSNSt3__110__function6__baseIFvN2gc4lang4TileENS3_6ScalarERNS3_3est11BlockMatrixEEEE, 
                       __ZTSNSt3__110__function6__baseIFvN2gc4lang4TileERNS3_3est11BlockMatrixEEEE, 
                       __ZTSNSt3__110__function6__baseIFvN2gc4lang4TileERNS3_3est11BlockMatrixENS3_6BufferES8_EEE, 
                       __ZTSNSt3__110__function6__baseIFvN2gc4lang4TileERNS3_3est11BlockMatrixENS3_6BufferES8_S8_EEE, 
                       __ZTSNSt3__110__function6__baseIFvN2gc4lang4TileERNS3_3est11BlockMatrixENS3_6BufferES8_S8_RS8_EEE, 
                       __ZTSNSt3__110__function6__baseIFvN2gc4lang4TileERNS3_3est11JacobianSetENS3_5ArrayINS5_14FactorOrderingEEENS8_INS3_6BufferEEESC_SB_EEE, 
                       __ZTSNSt3__110__function6__baseIFvN2gc4lang4TileERNS3_3est14FactorOrderingENS3_6BufferERNS5_8JacobianES8_S8_EEE, 
                       __ZTSNSt3__110__function6__baseIFvN2gc4lang4TileERNS3_3est14FactorOrderingERNS5_8JacobianENS3_6BufferERSA_EEE, 
                       __ZTSNSt3__110__function6__baseIFvN2gc4lang4TileERNS3_3est14FactorOrderingERNS5_8JacobianENS3_6BufferESA_EEE, 
                       __ZTSNSt3__110__function6__baseIFvN2gc4lang4TileERNS3_3est14FactorOrderingERNS5_8JacobianENS3_6BufferESA_SA_EEE, 
                       __ZTSNSt3__110__function6__baseIFvN2gc4lang4TileERNS3_3est8JacobianENS3_6BufferES8_EEE, 
                       __ZTSNSt3__110__function6__baseIFvN2gc4lang4TileERNS3_3est8JacobianENS3_6BufferES8_S8_EEE, 
                       __ZTSNSt3__110__function6__baseIFvN2gc4lang4TileERNS3_3est8JacobianENS3_6BufferES8_S8_RS8_EEE, 
                       __ZTSNSt3__110__function6__baseIFvN2gc4lang4TileERNS3_3est8JacobianENS3_6BufferES8_S8_S8_EEE, 
                       __ZTSNSt3__110__function6__baseIFvN2gc4lang4TileERNS3_3est8JacobianENS3_6BufferES8_S8_S8_S8_EEE, 
                       __ZTSNSt3__110__function6__baseIFvN2gc4lang4TileERNS3_3est8JacobianENS5_14FactorOrderingENS3_6BufferES9_EEE, 
                       __ZTSNSt3__110__function6__baseIFvN2gc4lang4TileERNS3_3est8JacobianENS5_14FactorOrderingENS3_6BufferES9_S9_EEE, 
                       __ZTSNSt3__110__function6__baseIFvN2gc4lang4TileERNS3_3est8JacobianENS5_14FactorOrderingENS3_6BufferES9_S9_S9_EEE, 
                       __ZTSNSt3__110__function6__baseIFvN2gc4lang4TileERNS3_3est8JacobianENS5_14FactorOrderingES8_NS3_6BufferES9_S9_S9_S9_S9_EEE, 
                       __ZTSNSt3__110__function6__baseIFvRKN2gc4ExprEEEE, __ZTSNSt3__110__function6__baseIFvRKN2gc4lang4TileEEEE, 
                       __ZTSNSt3__110__function6__baseIFvRKN2gc4lang4TileENS3_3est13BlockOrderingENS7_14FactorOrderingERNS7_8JacobianERNS7_11BlockMatrixEEEE, 
                       __ZTSNSt3__110__function6__baseIFvRKN2gc4lang4TileENS3_3est13BlockOrderingENS7_14FactorOrderingES9_RNS7_11JacobianSetERNS7_11BlockMatrixEEEE, 
                       __ZTSNSt3__110__function6__baseIFvRKN2gc4lang4TileENS3_3est14FactorOrderingENS7_6FactorENS7_11VariableSetENS3_6ScalarERNS3_6BufferEEEE, 
                       __ZTSNSt3__110__function6__baseIFvRKN2gc4lang4TileENS3_3est14FactorOrderingERNS7_8JacobianENS3_6BufferESB_EEE, 
                       __ZTSNSt3__110__function6__baseIFvRKN2gc4lang4TileENS3_3est6FactorENS3_6BufferENS3_5ArrayINS7_14FactorOrderingEEENS7_11VariableSetENSA_IS9_EESE_EEE, 
                       __ZTSNSt3__110__function6__baseIFvRKN2gc4lang4TileENS3_3est6FactorENS7_11VariableSetENS3_6BufferEEEE, 
                       __ZTSNSt3__110__function6__baseIFvRKN2gc4lang4TileENS3_3est6FactorENS7_11VariableSetENS3_6BufferESA_EEE, 
                       __ZTSNSt3__110__function6__baseIFvRKN2gc4lang4TileENS3_3est8VariableEEEE, 
                       __ZTSNSt3__110__function6__baseIFvRKN2gc4lang4TileENS3_3est8VariableENS3_6ScalarEEEE, 
                       __ZTSNSt3__110__function6__baseIFvRKN2gc4lang4TileENS3_5ArrayINS3_6BufferEEES9_EEE, 
                       __ZTSNSt3__110__function6__baseIFvRKN2gc4lang4TileENS3_6BufferEEEE, 
                       __ZTSNSt3__110__function6__baseIFvRKN2gc4lang4TileENS3_6BufferENS3_3est6FactorERNS8_11JacobianSetENS3_5ArrayIS7_EENSC_INS8_14FactorOrderingEEERNS8_16BlockMatrixArrayESD_EEE, 
                       __ZTSNSt3__110__function6__baseIFvRKN2gc4lang4TileENS3_6BufferENS3_3est8VariableEEEE, 
                       __ZTSNSt3__110__function6__baseIFvRKN2gc4lang4TileENS3_6BufferENS3_5ArrayINS3_3est8VariableEEEEEE, 
                       __ZTSNSt3__110__function6__baseIFvRKN2gc4lang4TileENS3_6BufferENS3_5ArrayIS7_EES9_NS3_3est6FactorERNSA_14FactorOrderingENSA_22SchurEliminatedHessianES7_EEE, 
                       __ZTSNSt3__110__function6__baseIFvRKN2gc4lang4TileENS3_6BufferENS3_6ScalarES7_EEE, 
                       __ZTSNSt3__110__function6__baseIFvRKN2gc4lang4TileENS3_6BufferENS3_6ScalarES7_S7_EEE, 
                       __ZTSNSt3__110__function6__baseIFvRKN2gc4lang4TileENS3_6BufferENS3_6ScalarES8_S8_S8_S8_S7_S7_S7_EEE, 
                       __ZTSNSt3__110__function6__baseIFvRKN2gc4lang4TileENS3_6BufferERNS3_3est8JacobianENS8_14FactorOrderingENS3_6ScalarES7_S7_EEE, 
                       __ZTSNSt3__110__function6__baseIFvRKN2gc4lang4TileENS3_6BufferERNS3_3est8JacobianENS8_14FactorOrderingES7_S7_S7_S7_S7_EEE, 
                       __ZTSNSt3__110__function6__baseIFvRKN2gc4lang4TileENS3_6BufferERNS3_3est8JacobianENS8_6FactorERNS8_11JacobianSetERNS8_14FactorOrderingES7_NS3_5ArrayIS7_EENSG_ISE_EERNS3_6ScalarERNS8_16BlockMatrixArrayENS8_22SchurEliminatedHessianESH_S7_S7_EEE, 
                       __ZTSNSt3__110__function6__baseIFvRKN2gc4lang4TileENS3_6BufferERNS3_3est8JacobianES7_S7_EEE, 
                       __ZTSNSt3__110__function6__baseIFvRKN2gc4lang4TileENS3_6BufferES7_EEE, 
                       __ZTSNSt3__110__function6__baseIFvRKN2gc4lang4TileENS3_6BufferES7_NS3_5ArrayINS3_3est8VariableEEEEEE, 
                       __ZTSNSt3__110__function6__baseIFvRKN2gc4lang4TileENS3_6BufferES7_RNS3_3est8JacobianES7_S7_EEE, 
                       __ZTSNSt3__110__function6__baseIFvRKN2gc4lang4TileENS3_6BufferES7_S7_EEE, 
                       __ZTSNSt3__110__function6__baseIFvRKN2gc4lang4TileENS3_6BufferES7_S7_S7_EEE, 
                       __ZTSNSt3__110__function6__baseIFvRKN2gc4lang4TileENS3_6BufferES7_S7_S7_S7_S7_S7_EEE, 
                       __ZTSNSt3__110__function6__baseIFvRKN2gc4lang4TileENS3_6ScalarENS3_6BufferES8_EEE, 
                       __ZTSNSt3__110__function6__baseIFvRKN2gc4lang4TileENS3_6ScalarERNS3_3est11BlockMatrixEEEE, 
                       __ZTSNSt3__110__function6__baseIFvRKN2gc4lang4TileERNS3_3est11BlockMatrixEEEE, 
                       __ZTSNSt3__110__function6__baseIFvRKN2gc4lang4TileERNS3_3est11BlockMatrixENS3_6BufferESA_EEE, 
                       __ZTSNSt3__110__function6__baseIFvRKN2gc4lang4TileERNS3_3est11BlockMatrixENS3_6BufferESA_SA_EEE, 
                       __ZTSNSt3__110__function6__baseIFvRKN2gc4lang4TileERNS3_3est11BlockMatrixENS3_6BufferESA_SA_RSA_EEE, 
                       __ZTSNSt3__110__function6__baseIFvRKN2gc4lang4TileERNS3_3est11JacobianSetENS3_5ArrayINS7_14FactorOrderingEEENSA_INS3_6BufferEEESE_SD_EEE, 
                       __ZTSNSt3__110__function6__baseIFvRKN2gc4lang4TileERNS3_3est14FactorOrderingENS3_6BufferERNS7_8JacobianESA_SA_EEE, 
                       __ZTSNSt3__110__function6__baseIFvRKN2gc4lang4TileERNS3_3est14FactorOrderingERNS7_8JacobianENS3_6BufferERSC_EEE, 
                       __ZTSNSt3__110__function6__baseIFvRKN2gc4lang4TileERNS3_3est14FactorOrderingERNS7_8JacobianENS3_6BufferESC_EEE, 
                       __ZTSNSt3__110__function6__baseIFvRKN2gc4lang4TileERNS3_3est14FactorOrderingERNS7_8JacobianENS3_6BufferESC_SC_EEE, 
                       __ZTSNSt3__110__function6__baseIFvRKN2gc4lang4TileERNS3_3est8JacobianENS3_6BufferESA_EEE, 
                       __ZTSNSt3__110__function6__baseIFvRKN2gc4lang4TileERNS3_3est8JacobianENS3_6BufferESA_SA_EEE, 
                       __ZTSNSt3__110__function6__baseIFvRKN2gc4lang4TileERNS3_3est8JacobianENS3_6BufferESA_SA_RSA_EEE, 
                       __ZTSNSt3__110__function6__baseIFvRKN2gc4lang4TileERNS3_3est8JacobianENS3_6BufferESA_SA_SA_EEE, 
                       __ZTSNSt3__110__function6__baseIFvRKN2gc4lang4TileERNS3_3est8JacobianENS3_6BufferESA_SA_SA_SA_EEE, 
                       __ZTSNSt3__110__function6__baseIFvRKN2gc4lang4TileERNS3_3est8JacobianENS7_14FactorOrderingENS3_6BufferESB_EEE, 
                       __ZTSNSt3__110__function6__baseIFvRKN2gc4lang4TileERNS3_3est8JacobianENS7_14FactorOrderingENS3_6BufferESB_SB_EEE, 
                       __ZTSNSt3__110__function6__baseIFvRKN2gc4lang4TileERNS3_3est8JacobianENS7_14FactorOrderingENS3_6BufferESB_SB_SB_EEE, 
                       __ZTSNSt3__110__function6__baseIFvRKN2gc4lang4TileERNS3_3est8JacobianENS7_14FactorOrderingESA_NS3_6BufferESB_SB_SB_SB_SB_EEE, 
                       __ZTSNSt3__110__function6__baseIFvRKNS_6vectorIN2gc4ExprENS_9allocatorIS4_EEEEEEE, 
                       __ZTSNSt3__110__function6__baseIFvvEEE, __ZTSNSt3__110__function6__baseIFxvEEE, 
                       __ZTSNSt3__110__function6__baseIFyvEEE, __ZTSNSt3__110__function6__funcINS_8functionIFN2gc4util10TaggedBoolINS3_3est15IsEliminableTagEEERKNS6_8VariableEEEENS_9allocatorISD_EEFbSB_EEE, 
                       __ZTSNSt3__110__function6__funcINS_8functionIFvN2gc4lang4TileEEEENS_9allocatorIS7_EEFvRKS5_EEE, 
                       __ZTSNSt3__110__function6__funcINS_8functionIFvN2gc4lang4TileENS4_3est13BlockOrderingENS6_14FactorOrderingERNS6_8JacobianERNS6_11BlockMatrixEEEENS_9allocatorISE_EEFvRKS5_S7_S8_SA_SC_EEE, 
                       __ZTSNSt3__110__function6__funcINS_8functionIFvN2gc4lang4TileENS4_3est13BlockOrderingENS6_14FactorOrderingES8_RNS6_11JacobianSetERNS6_11BlockMatrixEEEENS_9allocatorISE_EEFvRKS5_S7_S8_S8_SA_SC_EEE, 
                       __ZTSNSt3__110__function6__funcINS_8functionIFvN2gc4lang4TileENS4_3est14FactorOrderingENS6_6FactorENS6_11VariableSetENS4_6ScalarERNS4_6BufferEEEENS_9allocatorISE_EEFvRKS5_S7_S8_S9_SA_SC_EEE, 
                       __ZTSNSt3__110__function6__funcINS_8functionIFvN2gc4lang4TileENS4_3est14FactorOrderingERNS6_8JacobianENS4_6BufferESA_EEENS_9allocatorISC_EEFvRKS5_S7_S9_SA_SA_EEE, 
                       __ZTSNSt3__110__function6__funcINS_8functionIFvN2gc4lang4TileENS4_3est6FactorENS4_6BufferENS4_5ArrayINS6_14FactorOrderingEEENS6_11VariableSetENS9_IS8_EESD_EEENS_9allocatorISF_EEFvRKS5_S7_S8_SB_SC_SD_SD_EEE, 
                       __ZTSNSt3__110__function6__funcINS_8functionIFvN2gc4lang4TileENS4_3est6FactorENS6_11VariableSetENS4_6BufferEEEENS_9allocatorISB_EEFvRKS5_S7_S8_S9_EEE, 
                       __ZTSNSt3__110__function6__funcINS_8functionIFvN2gc4lang4TileENS4_3est6FactorENS6_11VariableSetENS4_6BufferES9_EEENS_9allocatorISB_EEFvRKS5_S7_S8_S9_S9_EEE, 
                       __ZTSNSt3__110__function6__funcINS_8functionIFvN2gc4lang4TileENS4_3est8VariableEEEENS_9allocatorIS9_EEFvRKS5_S7_EEE, 
                       __ZTSNSt3__110__function6__funcINS_8functionIFvN2gc4lang4TileENS4_3est8VariableENS4_6ScalarEEEENS_9allocatorISA_EEFvRKS5_S7_S8_EEE, 
                       __ZTSNSt3__110__function6__funcINS_8functionIFvN2gc4lang4TileENS4_5ArrayINS4_6BufferEEES8_EEENS_9allocatorISA_EEFvRKS5_S8_S8_EEE, 
                       __ZTSNSt3__110__function6__funcINS_8functionIFvN2gc4lang4TileENS4_6BufferEEEENS_9allocatorIS8_EEFvRKS5_S6_EEE, 
                       __ZTSNSt3__110__function6__funcINS_8functionIFvN2gc4lang4TileENS4_6BufferENS4_3est6FactorERNS7_11JacobianSetENS4_5ArrayIS6_EENSB_INS7_14FactorOrderingEEERNS7_16BlockMatrixArrayESC_EEENS_9allocatorISI_EEFvRKS5_S6_S8_SA_SC_SE_SG_SC_EEE, 
                       __ZTSNSt3__110__function6__funcINS_8functionIFvN2gc4lang4TileENS4_6BufferENS4_3est8VariableEEEENS_9allocatorISA_EEFvRKS5_S6_S8_EEE, 
                       __ZTSNSt3__110__function6__funcINS_8functionIFvN2gc4lang4TileENS4_6BufferENS4_5ArrayINS4_3est8VariableEEEEEENS_9allocatorISC_EEFvRKS5_S6_SA_EEE, 
                       __ZTSNSt3__110__function6__funcINS_8functionIFvN2gc4lang4TileENS4_6BufferENS4_5ArrayIS6_EES8_NS4_3est6FactorERNS9_14FactorOrderingENS9_22SchurEliminatedHessianES6_EEENS_9allocatorISF_EEFvRKS5_S6_S8_S8_SA_SC_SD_S6_EEE, 
                       __ZTSNSt3__110__function6__funcINS_8functionIFvN2gc4lang4TileENS4_6BufferENS4_6ScalarES6_EEENS_9allocatorIS9_EEFvRKS5_S6_S7_S6_EEE, 
                       __ZTSNSt3__110__function6__funcINS_8functionIFvN2gc4lang4TileENS4_6BufferENS4_6ScalarES6_S6_EEENS_9allocatorIS9_EEFvRKS5_S6_S7_S6_S6_EEE, 
                       __ZTSNSt3__110__function6__funcINS_8functionIFvN2gc4lang4TileENS4_6BufferENS4_6ScalarES7_S7_S7_S7_S6_S6_S6_EEENS_9allocatorIS9_EEFvRKS5_S6_S7_S7_S7_S7_S7_S6_S6_S6_EEE, 
                       __ZTSNSt3__110__function6__funcINS_8functionIFvN2gc4lang4TileENS4_6BufferERNS4_3est8JacobianENS7_14FactorOrderingENS4_6ScalarES6_S6_EEENS_9allocatorISD_EEFvRKS5_S6_S9_SA_SB_S6_S6_EEE, 
                       __ZTSNSt3__110__function6__funcINS_8functionIFvN2gc4lang4TileENS4_6BufferERNS4_3est8JacobianENS7_14FactorOrderingES6_S6_S6_S6_S6_EEENS_9allocatorISC_EEFvRKS5_S6_S9_SA_S6_S6_S6_S6_S6_EEE, 
                       __ZTSNSt3__110__function6__funcINS_8functionIFvN2gc4lang4TileENS4_6BufferERNS4_3est8JacobianENS7_6FactorERNS7_11JacobianSetERNS7_14FactorOrderingES6_NS4_5ArrayIS6_EENSF_ISD_EERNS4_6ScalarERNS7_16BlockMatrixArrayENS7_22SchurEliminatedHessianESG_S6_S6_EEENS_9allocatorISO_EEFvRKS5_S6_S9_SA_SC_SE_S6_SG_SH_SJ_SL_SM_SG_S6_S6_EEE, 
                       __ZTSNSt3__110__function6__funcINS_8functionIFvN2gc4lang4TileENS4_6BufferERNS4_3est8JacobianES6_S6_EEENS_9allocatorISB_EEFvRKS5_S6_S9_S6_S6_EEE, 
                       __ZTSNSt3__110__function6__funcINS_8functionIFvN2gc4lang4TileENS4_6BufferES6_EEENS_9allocatorIS8_EEFvRKS5_S6_S6_EEE, 
                       __ZTSNSt3__110__function6__funcINS_8functionIFvN2gc4lang4TileENS4_6BufferES6_NS4_5ArrayINS4_3est8VariableEEEEEENS_9allocatorISC_EEFvRKS5_S6_S6_SA_EEE, 
                       __ZTSNSt3__110__function6__funcINS_8functionIFvN2gc4lang4TileENS4_6BufferES6_RNS4_3est8JacobianES6_S6_EEENS_9allocatorISB_EEFvRKS5_S6_S6_S9_S6_S6_EEE, 
                       __ZTSNSt3__110__function6__funcINS_8functionIFvN2gc4lang4TileENS4_6BufferES6_S6_EEENS_9allocatorIS8_EEFvRKS5_S6_S6_S6_EEE, 
                       __ZTSNSt3__110__function6__funcINS_8functionIFvN2gc4lang4TileENS4_6BufferES6_S6_S6_EEENS_9allocatorIS8_EEFvRKS5_S6_S6_S6_S6_EEE, 
                       __ZTSNSt3__110__function6__funcINS_8functionIFvN2gc4lang4TileENS4_6BufferES6_S6_S6_S6_S6_S6_EEENS_9allocatorIS8_EEFvRKS5_S6_S6_S6_S6_S6_S6_S6_EEE, 
                       __ZTSNSt3__110__function6__funcINS_8functionIFvN2gc4lang4TileENS4_6ScalarENS4_6BufferES7_EEENS_9allocatorIS9_EEFvRKS5_S6_S7_S7_EEE, 
                       __ZTSNSt3__110__function6__funcINS_8functionIFvN2gc4lang4TileENS4_6ScalarERNS4_3est11BlockMatrixEEEENS_9allocatorISB_EEFvRKS5_S6_S9_EEE, 
                       __ZTSNSt3__110__function6__funcINS_8functionIFvN2gc4lang4TileERNS4_3est11BlockMatrixEEEENS_9allocatorISA_EEFvRKS5_S8_EEE, 
                       __ZTSNSt3__110__function6__funcINS_8functionIFvN2gc4lang4TileERNS4_3est11BlockMatrixENS4_6BufferES9_EEENS_9allocatorISB_EEFvRKS5_S8_S9_S9_EEE, 
                       __ZTSNSt3__110__function6__funcINS_8functionIFvN2gc4lang4TileERNS4_3est11BlockMatrixENS4_6BufferES9_S9_EEENS_9allocatorISB_EEFvRKS5_S8_S9_S9_S9_EEE, 
                       __ZTSNSt3__110__function6__funcINS_8functionIFvN2gc4lang4TileERNS4_3est11BlockMatrixENS4_6BufferES9_S9_RS9_EEENS_9allocatorISC_EEFvRKS5_S8_S9_S9_S9_SA_EEE, 
                       __ZTSNSt3__110__function6__funcINS_8functionIFvN2gc4lang4TileERNS4_3est11JacobianSetENS4_5ArrayINS6_14FactorOrderingEEENS9_INS4_6BufferEEESD_SC_EEENS_9allocatorISF_EEFvRKS5_S8_SB_SD_SD_SC_EEE, 
                       __ZTSNSt3__110__function6__funcINS_8functionIFvN2gc4lang4TileERNS4_3est14FactorOrderingENS4_6BufferERNS6_8JacobianES9_S9_EEENS_9allocatorISD_EEFvRKS5_S8_S9_SB_S9_S9_EEE, 
                       __ZTSNSt3__110__function6__funcINS_8functionIFvN2gc4lang4TileERNS4_3est14FactorOrderingERNS6_8JacobianENS4_6BufferERSB_EEENS_9allocatorISE_EEFvRKS5_S8_SA_SB_SC_EEE, 
                       __ZTSNSt3__110__function6__funcINS_8functionIFvN2gc4lang4TileERNS4_3est14FactorOrderingERNS6_8JacobianENS4_6BufferESB_EEENS_9allocatorISD_EEFvRKS5_S8_SA_SB_SB_EEE, 
                       __ZTSNSt3__110__function6__funcINS_8functionIFvN2gc4lang4TileERNS4_3est14FactorOrderingERNS6_8JacobianENS4_6BufferESB_SB_EEENS_9allocatorISD_EEFvRKS5_S8_SA_SB_SB_SB_EEE, 
                       __ZTSNSt3__110__function6__funcINS_8functionIFvN2gc4lang4TileERNS4_3est8JacobianENS4_6BufferES9_EEENS_9allocatorISB_EEFvRKS5_S8_S9_S9_EEE, 
                       __ZTSNSt3__110__function6__funcINS_8functionIFvN2gc4lang4TileERNS4_3est8JacobianENS4_6BufferES9_S9_EEENS_9allocatorISB_EEFvRKS5_S8_S9_S9_S9_EEE, 
                       __ZTSNSt3__110__function6__funcINS_8functionIFvN2gc4lang4TileERNS4_3est8JacobianENS4_6BufferES9_S9_RS9_EEENS_9allocatorISC_EEFvRKS5_S8_S9_S9_S9_SA_EEE, 
                       __ZTSNSt3__110__function6__funcINS_8functionIFvN2gc4lang4TileERNS4_3est8JacobianENS4_6BufferES9_S9_S9_EEENS_9allocatorISB_EEFvRKS5_S8_S9_S9_S9_S9_EEE, 
                       __ZTSNSt3__110__function6__funcINS_8functionIFvN2gc4lang4TileERNS4_3est8JacobianENS4_6BufferES9_S9_S9_S9_EEENS_9allocatorISB_EEFvRKS5_S8_S9_S9_S9_S9_S9_EEE, 
                       __ZTSNSt3__110__function6__funcINS_8functionIFvN2gc4lang4TileERNS4_3est8JacobianENS6_14FactorOrderingENS4_6BufferESA_EEENS_9allocatorISC_EEFvRKS5_S8_S9_SA_SA_EEE, 
                       __ZTSNSt3__110__function6__funcINS_8functionIFvN2gc4lang4TileERNS4_3est8JacobianENS6_14FactorOrderingENS4_6BufferESA_SA_EEENS_9allocatorISC_EEFvRKS5_S8_S9_SA_SA_SA_EEE, 
                       __ZTSNSt3__110__function6__funcINS_8functionIFvN2gc4lang4TileERNS4_3est8JacobianENS6_14FactorOrderingENS4_6BufferESA_SA_SA_EEENS_9allocatorISC_EEFvRKS5_S8_S9_SA_SA_SA_SA_EEE, 
                       __ZTSNSt3__110__function6__funcINS_8functionIFvN2gc4lang4TileERNS4_3est8JacobianENS6_14FactorOrderingES9_NS4_6BufferESA_SA_SA_SA_SA_EEENS_9allocatorISC_EEFvRKS5_S8_S9_S9_SA_SA_SA_SA_SA_SA_EEE, 
                       __ZTSNSt3__110__function6__funcIZN2gc15ScalarInvariant6createINS2_6ExtentEEENS_10shared_ptrINS2_17BindableInvariantEEENS_8functionIFT_vEEENS_6vectorINS6_INS2_6BufferEEENS_9allocatorISF_EEEEEUlvE_NSG_ISJ_EEFdvEEE, 
                       __ZTSNSt3__110__function6__funcIZN2gc24FunctionOfRangeInvariant6createENS_10shared_ptrINS2_6BufferEEENS_8functionIFNS2_12BlockExtentsERKS8_EEEEUlRKNS_6vectorIS8_NS_9allocatorIS8_EEEEE_NSE_ISJ_EEFS8_SI_EEE, 
                       __ZTSNSt3__110__function6__funcIZN2gc24FunctionOfShapeInvariant6createENS_10shared_ptrINS2_6BufferEEENS_8functionIFNS2_5ShapeERKS8_EEEEUlRKNS_6vectorIS8_NS_9allocatorIS8_EEEEE_NSE_ISJ_EEFS8_SI_EEE, 
                       __ZTSNSt3__110__function6__funcIZN2gc26FunctionOfElementInvariant6createENS_10shared_ptrINS2_6BufferEEENS_8functionIFNS2_14ElementExtentsERKS8_EEEEUlRKNS_6vectorIS8_NS_9allocatorIS8_EEEEE_NSE_ISJ_EEFS8_SI_EEE, 
                       __ZTSNSt3__110__function6__funcIZN2gc3est10EvaluateHp10kernelFuncEvEUlNS2_4lang4TileERNS5_3est11BlockMatrixENS5_6BufferESA_SA_RSA_E_NS_9allocatorISC_EEFvS6_S9_SA_SA_SA_SB_EEE, 
                       __ZTSNSt3__110__function6__funcIZN2gc3est10EvaluateHp19kernelFuncNoOffsetsEvEUlNS2_4lang4TileERNS5_3est11BlockMatrixENS5_6BufferESA_E_NS_9allocatorISB_EEFvS6_S9_SA_SA_EEE, 
                       __ZTSNSt3__110__function6__funcIZN2gc3est10EvaluateJp10kernelFuncEjEUlNS2_4lang4TileENS5_6BufferES7_RNS5_3est8JacobianES7_S7_E_NS_9allocatorISB_EEFvS6_S7_S7_SA_S7_S7_EEE, 
                       __ZTSNSt3__110__function6__funcIZN2gc3est10EvaluateJp18kernelFuncUnsortedEjEUlNS2_4lang4TileENS5_6BufferERNS5_3est8JacobianES7_S7_E_NS_9allocatorISB_EEFvS6_S7_SA_S7_S7_EEE, 
                       __ZTSNSt3__110__function6__funcIZN2gc3est10EvaluateJp18kernelFuncVariadicEjEUlNS2_4lang4TileERNS5_3est14FactorOrderingENS5_6BufferERNS7_8JacobianESA_SA_E_NS_9allocatorISD_EEFvS6_S9_SA_SC_SA_SA_EEE, 
                       __ZTSNSt3__110__function6__funcIZN2gc3est10EvaluateJp19kernelFuncNoOffsetsEjEUlNS2_4lang4TileENS5_6BufferERNS5_3est8JacobianES7_S7_E_NS_9allocatorISB_EEFvS6_S7_SA_S7_S7_EEE, 
                       __ZTSNSt3__110__function6__funcIZN2gc3est10EvaluateJp27kernelFuncUnsortedNoOffsetsEjEUlNS2_4lang4TileERNS5_3est8JacobianENS5_6BufferESA_E_NS_9allocatorISB_EEFvS6_S9_SA_SA_EEE, 
                       __ZTSNSt3__110__function6__funcIZN2gc3est10EvaluateJp27kernelFuncVariadicNoOffsetsEjEUlNS2_4lang4TileERNS5_3est14FactorOrderingERNS7_8JacobianENS5_6BufferESC_E_NS_9allocatorISD_EEFvS6_S9_SB_SC_SC_EEE, 
                       __ZTSNSt3__110__function6__funcIZN2gc3est11EvaluateJtJ18kernelFuncDiagonalEvEUlNS2_4lang4TileENS5_3est13BlockOrderingENS7_14FactorOrderingERNS7_8JacobianERNS7_11BlockMatrixEE_NS_9allocatorISE_EEFvS6_S8_S9_SB_SD_EEE, 
                       __ZTSNSt3__110__function6__funcIZN2gc3est11EvaluateJtJ21kernelFuncOffDiagonalEvEUlNS2_4lang4TileENS5_3est13BlockOrderingENS7_14FactorOrderingES9_RNS7_11JacobianSetERNS7_11BlockMatrixEE_NS_9allocatorISE_EEFvS6_S8_S9_S9_SB_SD_EEE, 
                       __ZTSNSt3__110__function6__funcIZN2gc3est11EvaluateJte10kernelFuncEvEUlNS2_4lang4TileENS5_3est14FactorOrderingERNS7_8JacobianENS5_6BufferESB_E_NS_9allocatorISC_EEFvS6_S8_SA_SB_SB_EEE, 
                       __ZTSNSt3__110__function6__funcIZN2gc3est11PCGIterate110kernelFuncEvEUlNS2_4lang4TileENS5_6BufferES7_S7_S7_S7_S7_S7_E_NS_9allocatorIS8_EEFvS6_S7_S7_S7_S7_S7_S7_S7_EEE, 
                       __ZTSNSt3__110__function6__funcIZN2gc3est11PCGIterate210kernelFuncEvEUlNS2_4lang4TileENS5_6BufferES7_S7_E_NS_9allocatorIS8_EEFvS6_S7_S7_S7_EEE, 
                       __ZTSNSt3__110__function6__funcIZN2gc3est12EvaluateJtJp10kernelFuncEjEUlNS2_4lang4TileERNS5_3est14FactorOrderingERNS7_8JacobianENS5_6BufferERSC_E_NS_9allocatorISE_EEFvS6_S9_SB_SC_SD_EEE, 
                       __ZTSNSt3__110__function6__funcIZN2gc3est12EvaluateJteM10kernelFuncEvEUlNS2_4lang4TileERNS5_3est14FactorOrderingERNS7_8JacobianENS5_6BufferESC_SC_E_NS_9allocatorISD_EEFvS6_S9_SB_SC_SC_SC_EEE, 
                       __ZTSNSt3__110__function6__funcIZN2gc3est12InvertBlockM10kernelFuncEvEUlNS2_4lang4TileENS5_6BufferES7_E_NS_9allocatorIS8_EEFvS6_S7_S7_EEE, 
                       __ZTSNSt3__110__function6__funcIZN2gc3est14EvaluateBlockM10kernelFuncEvEUlNS2_4lang4TileERNS5_3est14FactorOrderingERNS7_8JacobianENS5_6BufferESC_E_NS_9allocatorISD_EEFvS6_S9_SB_SC_SC_EEE, 
                       __ZTSNSt3__110__function6__funcIZN2gc3est14ExtractDiagJtJ10kernelFuncEvEUlNS2_4lang4TileERNS5_3est11BlockMatrixENS5_6BufferESA_SA_E_NS_9allocatorISB_EEFvS6_S9_SA_SA_SA_EEE, 
                       __ZTSNSt3__110__function6__funcIZN2gc3est14ExtractDiagJtJ19kernelFuncNoOffsetsEvEUlNS2_4lang4TileERNS5_3est11BlockMatrixENS5_6BufferESA_E_NS_9allocatorISB_EEFvS6_S9_SA_SA_EEE, 
                       __ZTSNSt3__110__function6__funcIZN2gc3est14SchurLinearize16factorKernelFuncERKNS_6vectorINS3_13ArgumentGroupENS_9allocatorIS6_EEEERKNS_3mapINS_12basic_stringIcNS_11char_traitsIcEENS7_IcEEEEjNS_4lessISH_EENS7_INS_4pairIKSH_jEEEEEEbEUlNS2_4lang4TileENSR_6BufferENSR_3est6FactorERNSU_11JacobianSetENSR_5ArrayIST_EENSY_INSU_14FactorOrderingEEERNSU_16BlockMatrixArrayESZ_E_NS7_IS14_EEFvSS_ST_SV_SX_SZ_S11_S13_SZ_EEE, 
                       __ZTSNSt3__110__function6__funcIZN2gc3est14SchurLinearize28eliminatedVariableKernelFuncERKNS_6vectorINS3_13ArgumentGroupENS_9allocatorIS6_EEEERKNS_3mapINS_12basic_stringIcNS_11char_traitsIcEENS7_IcEEEEjNS_4lessISH_EENS7_INS_4pairIKSH_jEEEEEEbEUlNS2_4lang4TileENSR_6BufferERNSR_3est8JacobianENSU_6FactorERNSU_11JacobianSetERNSU_14FactorOrderingEST_NSR_5ArrayIST_EENS12_IS10_EERNSR_6ScalarERNSU_16BlockMatrixArrayENSU_22SchurEliminatedHessianES13_ST_ST_E_NS7_IS1A_EEFvSS_ST_SW_SX_SZ_S11_ST_S13_S14_S16_S18_S19_S13_ST_ST_EEE, 
                       __ZTSNSt3__110__function6__funcIZN2gc3est17SymmetrizeDiagJtJ10kernelFuncEvEUlNS2_4lang4TileERNS5_3est11BlockMatrixEE_NS_9allocatorISA_EEFvS6_S9_EEE, 
                       __ZTSNSt3__110__function6__funcIZN2gc3est18ImplicitSchurJtJp110kernelFuncEvEUlNS2_4lang4TileERNS5_3est8JacobianENS7_14FactorOrderingENS5_6BufferESB_E_NS_9allocatorISC_EEFvS6_S9_SA_SB_SB_EEE, 
                       __ZTSNSt3__110__function6__funcIZN2gc3est18ImplicitSchurJtJp210kernelFuncEjEUlNS2_4lang4TileERNS5_3est8JacobianENS5_6BufferESA_SA_SA_SA_E_NS_9allocatorISB_EEFvS6_S9_SA_SA_SA_SA_SA_EEE, 
                       __ZTSNSt3__110__function6__funcIZN2gc3est18ImplicitSchurJtJp218kernelFuncUnsortedEjEUlNS2_4lang4TileERNS5_3est8JacobianENS5_6BufferESA_SA_SA_E_NS_9allocatorISB_EEFvS6_S9_SA_SA_SA_SA_EEE, 
                       __ZTSNSt3__110__function6__funcIZN2gc3est18ImplicitSchurJtJp218kernelFuncVariadicEjEUlNS2_4lang4TileERNS5_3est8JacobianENS7_14FactorOrderingENS5_6BufferESB_SB_SB_E_NS_9allocatorISC_EEFvS6_S9_SA_SB_SB_SB_SB_EEE, 
                       __ZTSNSt3__110__function6__funcIZN2gc3est18ImplicitSchurJtJp219kernelFuncNoOffsetsEjEUlNS2_4lang4TileERNS5_3est8JacobianENS5_6BufferESA_SA_RSA_E_NS_9allocatorISC_EEFvS6_S9_SA_SA_SA_SB_EEE, 
                       __ZTSNSt3__110__function6__funcIZN2gc3est18ImplicitSchurJtJp227kernelFuncUnsortedNoOffsetsEjEUlNS2_4lang4TileERNS5_3est8JacobianENS5_6BufferESA_SA_E_NS_9allocatorISB_EEFvS6_S9_SA_SA_SA_EEE, 
                       __ZTSNSt3__110__function6__funcIZN2gc3est18ImplicitSchurJtJp227kernelFuncVariadicNoOffsetsEjEUlNS2_4lang4TileERNS5_3est8JacobianENS7_14FactorOrderingENS5_6BufferESB_SB_E_NS_9allocatorISC_EEFvS6_S9_SA_SB_SB_SB_EEE, 
                       __ZTSNSt3__110__function6__funcIZN2gc3est20MaterializeJacobians10kernelFuncERKNS3_16ArgumentGroupingERKNS_6vectorINS3_13eJacobianTypeENS_9allocatorIS9_EEEEEUlNS2_4lang4TileENSF_3est6FactorENSF_6BufferENSF_5ArrayINSH_14FactorOrderingEEENSH_11VariableSetENSK_ISJ_EESO_E_NSA_ISP_EEFvSG_SI_SJ_SM_SN_SO_SO_EEE, 
                       __ZTSNSt3__110__function6__funcIZN2gc3est20SchurBackSubstitute110kernelFuncERKNS_6vectorINS3_13ArgumentGroupENS_9allocatorIS6_EEEERKNS_3mapINS_12basic_stringIcNS_11char_traitsIcEENS7_IcEEEEjNS_4lessISH_EENS7_INS_4pairIKSH_jEEEEEEbEUlNS2_4lang4TileENSR_6BufferENSR_5ArrayIST_EESV_NSR_3est6FactorERNSW_14FactorOrderingENSW_22SchurEliminatedHessianEST_E_NS7_IS11_EEFvSS_ST_SV_SV_SX_SZ_S10_ST_EEE, 
                       __ZTSNSt3__110__function6__funcIZN2gc3est20SchurBackSubstitute210kernelFuncEvEUlNS2_4lang4TileENS5_6BufferES7_E_NS_9allocatorIS8_EEFvS6_S7_S7_EEE, 
                       __ZTSNSt3__110__function6__funcIZN2gc3est22EvaluateBatchGradients10kernelFuncERKNS3_13ArgumentGroupENS3_13eJacobianTypeEEUlNS2_4lang4TileENS9_3est14FactorOrderingENSB_6FactorENSB_11VariableSetENS9_6ScalarERNS9_6BufferEE_NS_9allocatorISI_EEFvSA_SC_SD_SE_SF_SH_EEE, 
                       __ZTSNSt3__110__function6__funcIZN2gc3est24ImplicitSchurInitialize110kernelFuncEvEUlNS2_4lang4TileENS5_6BufferERNS5_3est8JacobianENS8_14FactorOrderingENS5_6ScalarES7_S7_E_NS_9allocatorISD_EEFvS6_S7_SA_SB_SC_S7_S7_EEE, 
                       __ZTSNSt3__110__function6__funcIZN2gc3est24ImplicitSchurInitialize210kernelFuncEjEUlNS2_4lang4TileENS5_6BufferERNS5_3est8JacobianENS8_14FactorOrderingES7_S7_S7_S7_S7_E_NS_9allocatorISC_EEFvS6_S7_SA_SB_S7_S7_S7_S7_S7_EEE, 
                       __ZTSNSt3__110__function6__funcIZN2gc3est24ImplicitSchurInitialize310kernelFuncEvEUlNS2_4lang4TileERNS5_3est8JacobianENS7_14FactorOrderingESA_NS5_6BufferESB_SB_SB_SB_SB_E_NS_9allocatorISC_EEFvS6_S9_SA_SA_SB_SB_SB_SB_SB_SB_EEE, 
                       __ZTSNSt3__110__function6__funcIZN2gc3est25ApplyJacobiPreconditioner10kernelFuncEvEUlNS2_4lang4TileENS5_6BufferES7_S7_E_NS_9allocatorIS8_EEFvS6_S7_S7_S7_EEE, 
                       __ZTSNSt3__110__function6__funcIZN2gc3est28ImplicitSchurBackSubstitute110kernelFuncERKNS_6vectorINS3_13ArgumentGroupENS_9allocatorIS6_EEEERKNS_3mapINS_12basic_stringIcNS_11char_traitsIcEENS7_IcEEEEjNS_4lessISH_EENS7_INS_4pairIKSH_jEEEEEEEUlNS2_4lang4TileERNSR_3est11JacobianSetENSR_5ArrayINST_14FactorOrderingEEENSW_INSR_6BufferEEES10_SZ_E_NS7_IS11_EEFvSS_SV_SY_S10_S10_SZ_EEE, 
                       __ZTSNSt3__110__function6__funcIZN2gc3est28ImplicitSchurBackSubstitute210kernelFuncEvEUlNS2_4lang4TileENS5_6BufferES7_S7_S7_E_NS_9allocatorIS8_EEFvS6_S7_S7_S7_S7_EEE, 
                       __ZTSNSt3__110__function6__funcIZN2gc3est30ApplyAdditiveLMDampingExplicit10kernelFuncEvEUlNS2_4lang4TileENS5_6ScalarERNS5_3est11BlockMatrixEE_NS_9allocatorISB_EEFvS6_S7_SA_EEE, 
                       __ZTSNSt3__110__function6__funcIZN2gc3est30ApplyAdditiveLMDampingImplicit10kernelFuncEvEUlNS2_4lang4TileENS5_6BufferENS5_6ScalarES7_E_NS_9allocatorIS9_EEFvS6_S7_S8_S7_EEE, 
                       __ZTSNSt3__110__function6__funcIZN2gc3est30ApplyBlockJacobiPreconditioner10kernelFuncEvEUlNS2_4lang4TileENS5_6BufferES7_S7_E_NS_9allocatorIS8_EEFvS6_S7_S7_S7_EEE, 
                       __ZTSNSt3__110__function6__funcIZN2gc3est33ApplyAdditiveLMDampingToDiagonals10kernelFuncEvEUlNS2_4lang4TileENS5_6ScalarENS5_6BufferES8_E_NS_9allocatorIS9_EEFvS6_S7_S8_S8_EEE, 
                       __ZTSNSt3__110__function6__funcIZN2gc3est36ApplyMultiplicativeLMDampingExplicit10kernelFuncEvEUlNS2_4lang4TileENS5_6ScalarERNS5_3est11BlockMatrixEE_NS_9allocatorISB_EEFvS6_S7_SA_EEE, 
                       __ZTSNSt3__110__function6__funcIZN2gc3est36ApplyMultiplicativeLMDampingImplicit10kernelFuncEvEUlNS2_4lang4TileENS5_6BufferENS5_6ScalarES7_S7_E_NS_9allocatorIS9_EEFvS6_S7_S8_S7_S7_EEE, 
                       __ZTSNSt3__110__function6__funcIZN2gc3est39ApplyMultiplicativeLMDampingToDiagonals10kernelFuncEvEUlNS2_4lang4TileENS5_6ScalarENS5_6BufferES8_E_NS_9allocatorIS9_EEFvS6_S7_S8_S8_EEE, 
                       __ZTSNSt3__110__function6__funcIZN2gc3est7InvertM10kernelFuncEvEUlNS2_4lang4TileENS5_6BufferES7_E_NS_9allocatorIS8_EEFvS6_S7_S7_EEE, 
                       __ZTSNSt3__110__function6__funcIZN2gc3ops11AddAssignTTC1EvEUlNS2_4lang4TileENS5_6BufferES7_E_NS_9allocatorIS8_EEFvS6_S7_S7_EEE, 
                       __ZTSNSt3__110__function6__funcIZN2gc3ops12PreIncrement6kernelERKNS2_8ScheduleEEUlNS2_4lang4TileENS8_6BufferEE_NS_9allocatorISB_EEFvS9_SA_EEE, 
                       __ZTSNSt3__110__function6__funcIZN2gc3ops16AutoDiffBackprop6kernelERKNS2_8ScheduleEEUlNS2_4StmtEE_NS_9allocatorIS9_EEFS8_S8_EEE, 
                       __ZTSNSt3__110__function6__funcIZN2gc3ops4Copy6kernelERKNS2_8ScheduleEEUlNS2_4lang4TileENS8_6BufferESA_E_NS_9allocatorISB_EEFvS9_SA_SA_EEE, 
                       __ZTSNSt3__110__function6__funcIZN2gc3ops6detail12ScatterZeros6kernelERKNS2_8ScheduleEEUlNS2_4lang4TileENS9_6BufferESB_SB_E_NS_9allocatorISC_EEFvSA_SB_SB_SB_EEE, 
                       __ZTSNSt3__110__function6__funcIZN2gc3ops6detail9VarAssign6kernelERKNS2_8ScheduleEEUlNS2_4lang4TileENS9_6BufferESB_E_NS_9allocatorISC_EEFvSA_SB_SB_EEE, 
                       __ZTSNSt3__110__function6__funcIZN2gc4lang3est11BlockMatrix13forEachColumnIZZNS2_3est10EvaluateHp19kernelFuncNoOffsetsEvENKUlNS3_4TileERS5_NS3_6BufferESB_E_clES9_SA_SB_SB_EUlNS2_4ExprENS3_6MatrixEE_EEvRKSD_OT_EUlSI_E_NS_9allocatorISK_EEFvSH_EEE, 
                       __ZTSNSt3__110__function6__funcIZN2gc4lang3est11BlockMatrix13forEachColumnIZZNS2_3est14ExtractDiagJtJ10kernelFuncEvENKUlNS3_4TileERS5_NS3_6BufferESB_SB_E_clES9_SA_SB_SB_SB_EUlNS2_4ExprENS3_6MatrixEE_EEvRKSD_OT_EUlSI_E_NS_9allocatorISK_EEFvSH_EEE, 
                       __ZTSNSt3__110__function6__funcIZN2gc4lang3est11BlockMatrix13forEachColumnIZZNS2_3est14ExtractDiagJtJ19kernelFuncNoOffsetsEvENKUlNS3_4TileERS5_NS3_6BufferESB_E_clES9_SA_SB_SB_EUlNS2_4ExprENS3_6MatrixEE_EEvRKSD_OT_EUlSI_E_NS_9allocatorISK_EEFvSH_EEE, 
                       __ZTSNSt3__110__function6__funcIZN2gc4lang3est11BlockMatrix13forEachColumnIZZNS2_3est17SymmetrizeDiagJtJ10kernelFuncEvENKUlNS3_4TileERS5_E_clES9_SA_EUlNS2_4ExprENS3_6MatrixEE_EEvRKSC_OT_EUlSH_E_NS_9allocatorISJ_EEFvSG_EEE, 
                       __ZTSNSt3__110__function6__funcIZN2gc4lang3est11BlockMatrix13forEachColumnIZZNS2_3est30ApplyAdditiveLMDampingExplicit10kernelFuncEvENKUlNS3_4TileENS3_6ScalarERS5_E_clES9_SA_SB_EUlNS2_4ExprENS3_6MatrixEE_EEvRKSD_OT_EUlSI_E_NS_9allocatorISK_EEFvSH_EEE, 
                       __ZTSNSt3__110__function6__funcIZN2gc4lang3est11BlockMatrix13forEachColumnIZZNS2_3est36ApplyMultiplicativeLMDampingExplicit10kernelFuncEvENKUlNS3_4TileENS3_6ScalarERS5_E_clES9_SA_SB_EUlNS2_4ExprENS3_6MatrixEE_EEvRKSD_OT_EUlSI_E_NS_9allocatorISK_EEFvSH_EEE, 
                       __ZTSNSt3__110__function6__funcIZN2gc4lang3est11BlockMatrix13forEachColumnIZZZNS2_3est10EvaluateHp10kernelFuncEvENKUlNS3_4TileERS5_NS3_6BufferESB_SB_RSB_E_clES9_SA_SB_SB_SB_SC_ENKUlvE_clEvEUlNS2_4ExprENS3_6MatrixEE_EEvRKSF_OT_EUlSK_E_NS_9allocatorISM_EEFvSJ_EEE, 
                       __ZTSNSt3__110__function6__funcIZN2gc4lang4simd22SIMDInnerProductMatrixC1ERKNS3_6BufferERKNS4_16MatMulParameters11InputMatrixERKNS_6vectorINS2_4ExprENS_9allocatorISE_EEEEEUlSJ_E_NSF_ISK_EEFNS3_6TensorESJ_EEE, 
                       __ZTSNSt3__110__function6__funcIZN2gc4lang4simd25GeneralInnerProductMatrixC1ERKNS3_6BufferERKNS4_16MatMulParameters11InputMatrixEEUlRKNS_6vectorINS2_4ExprENS_9allocatorISE_EEEEE_NSF_ISK_EEFNS3_6TensorESJ_EEE, 
                       __ZTSNSt3__110__function6__funcIZN2gc4lang4simd27SIMDInnerProductAccumulatorC1ENS_10shared_ptrINS4_18InnerProductMatrixEEES8_RNS3_6BufferERKNS4_16MatMulParametersENS2_4ExprERKNS_6vectorISE_NS_9allocatorISE_EEEEEUlSK_E0_NSG_ISL_EEFvSK_EEE, 
                       __ZTSNSt3__110__function6__funcIZN2gc4lang4simd27SIMDInnerProductAccumulatorC1ENS_10shared_ptrINS4_18InnerProductMatrixEEES8_RNS3_6BufferERKNS4_16MatMulParametersENS2_4ExprERKNS_6vectorISE_NS_9allocatorISE_EEEEEUlSK_E_NSG_ISL_EEFvSK_EEE, 
                       __ZTSNSt3__110__function6__funcIZN2gc4lang4simd28SIMDCachedInnerProductMatrixC1ERKNS3_6BufferERKNS4_16MatMulParameters11InputMatrixERKNS9_7CachingENS2_4ExprERKNS_6vectorISG_NS_9allocatorISG_EEEESM_SM_EUlSM_E_NSI_ISN_EEFNS3_6TensorESM_EEE, 
                       __ZTSNSt3__110__function6__funcIZN2gc4lang4simd28SIMDCachedInnerProductMatrixC1ERKNS3_6BufferERKNS4_16MatMulParameters11InputMatrixERKNS9_7CachingENS2_4ExprERKNS_6vectorISG_NS_9allocatorISG_EEEESM_SM_EUlT_E_NSI_ISO_EEFvRKSG_EEE, 
                       __ZTSNSt3__110__function6__funcIZN2gc4lang4simd29LargeKInnerProductAccumulatorC1ENS_10shared_ptrINS4_18InnerProductMatrixEEES8_RNS3_6BufferERKNS4_16MatMulParametersENS2_4ExprERKNS_6vectorISE_NS_9allocatorISE_EEEESK_SK_EUlSK_E0_NSG_ISL_EEFvSK_EEE, 
                       __ZTSNSt3__110__function6__funcIZN2gc4lang4simd29LargeKInnerProductAccumulatorC1ENS_10shared_ptrINS4_18InnerProductMatrixEEES8_RNS3_6BufferERKNS4_16MatMulParametersENS2_4ExprERKNS_6vectorISE_NS_9allocatorISE_EEEESK_SK_EUlSK_E_NSG_ISL_EEFvSK_EEE, 
                       __ZTSNSt3__110__function6__funcIZN2gc4lang4simd29SmallKInnerProductAccumulatorC1ENS_10shared_ptrINS4_18InnerProductMatrixEEES8_RNS3_6BufferERKNS4_16MatMulParametersENS2_4ExprERKNS_6vectorISE_NS_9allocatorISE_EEEESK_SK_EUlSK_E0_NSG_ISL_EEFvSK_EEE, 
                       __ZTSNSt3__110__function6__funcIZN2gc4lang4simd29SmallKInnerProductAccumulatorC1ENS_10shared_ptrINS4_18InnerProductMatrixEEES8_RNS3_6BufferERKNS4_16MatMulParametersENS2_4ExprERKNS_6vectorISE_NS_9allocatorISE_EEEESK_SK_EUlSK_E_NSG_ISL_EEFvSK_EEE, 
                       __ZTSNSt3__110__function6__funcIZN2gc4lang4simd30GeneralInnerProductAccumulatorC1ENS_10shared_ptrINS4_18InnerProductMatrixEEES8_RNS3_6BufferENS2_4ExprEEUlRKNS_6vectorISB_NS_9allocatorISB_EEEEE0_NSD_ISI_EEFvSH_EEE, 
                       __ZTSNSt3__110__function6__funcIZN2gc4lang4simd30GeneralInnerProductAccumulatorC1ENS_10shared_ptrINS4_18InnerProductMatrixEEES8_RNS3_6BufferENS2_4ExprEEUlRKNS_6vectorISB_NS_9allocatorISB_EEEEE_NSD_ISI_EEFvSH_EEE, 
                       __ZTSNSt3__110__function6__funcIZNK2gc4lang3est13BlockOrdering13forEachFactorIZZNS2_3est11EvaluateJtJ18kernelFuncDiagonalEvENKUlNS3_4TileES5_NS4_14FactorOrderingERNS4_8JacobianERNS4_11BlockMatrixEE_clES9_S5_SA_SC_SE_EUlNS2_4ExprEE_EEvRKSG_OT_EUlSK_E_NS_9allocatorISM_EEFvSJ_EEE, 
                       __ZTSNSt3__110__function6__funcIZNK2gc4lang3est13BlockOrdering13forEachFactorIZZNS2_3est11EvaluateJtJ21kernelFuncOffDiagonalEvENKUlNS3_4TileES5_NS4_14FactorOrderingESA_RNS4_11JacobianSetERNS4_11BlockMatrixEE_clES9_S5_SA_SA_SC_SE_EUlNS2_4ExprEE_EEvRKSG_OT_EUlSK_E_NS_9allocatorISM_EEFvSJ_EEE, 
                       __ZTSNSt3__110__function6__funcIZZN2gc3est10EvaluateHp10kernelFuncEvENKUlNS2_4lang4TileERNS5_3est11BlockMatrixENS5_6BufferESA_SA_RSA_E_clES6_S9_SA_SA_SA_SB_EUlvE_NS_9allocatorISD_EEFvvEEE, 
                       __ZTSNSt3__110__function6__funcIZZN2gc3est10EvaluateJp18kernelFuncUnsortedEjENKUlNS2_4lang4TileENS5_6BufferERNS5_3est8JacobianES7_S7_E_clES6_S7_SA_S7_S7_EUlvE_NS_9allocatorISC_EEFvvEEE, 
                       __ZTSNSt3__110__function6__funcIZZN2gc3est10EvaluateJp18kernelFuncVariadicEjENKUlNS2_4lang4TileERNS5_3est14FactorOrderingENS5_6BufferERNS7_8JacobianESA_SA_E_clES6_S9_SA_SC_SA_SA_EUlNS2_4ExprEE_NS_9allocatorISF_EEFvSE_EEE, 
                       __ZTSNSt3__110__function6__funcIZZN2gc3est10EvaluateJp27kernelFuncVariadicNoOffsetsEjENKUlNS2_4lang4TileERNS5_3est14FactorOrderingERNS7_8JacobianENS5_6BufferESC_E_clES6_S9_SB_SC_SC_EUlNS2_4ExprEE_NS_9allocatorISF_EEFvSE_EEE, 
                       __ZTSNSt3__110__function6__funcIZZN2gc3est11EvaluateJte10kernelFuncEvENKUlNS2_4lang4TileENS5_3est14FactorOrderingERNS7_8JacobianENS5_6BufferESB_E_clES6_S8_SA_SB_SB_EUlNS2_4ExprESD_E_NS_9allocatorISE_EEFvSD_SD_EEE, 
                       __ZTSNSt3__110__function6__funcIZZN2gc3est12EvaluateJtJp10kernelFuncEjENKUlNS2_4lang4TileERNS5_3est14FactorOrderingERNS7_8JacobianENS5_6BufferERSC_E_clES6_S9_SB_SC_SD_EUlNS2_4ExprESF_E_NS_9allocatorISG_EEFvSF_SF_EEE, 
                       __ZTSNSt3__110__function6__funcIZZN2gc3est12EvaluateJteM10kernelFuncEvENKUlNS2_4lang4TileERNS5_3est14FactorOrderingERNS7_8JacobianENS5_6BufferESC_SC_E_clES6_S9_SB_SC_SC_SC_EUlNS2_4ExprESE_E_NS_9allocatorISF_EEFvSE_SE_EEE, 
                       __ZTSNSt3__110__function6__funcIZZN2gc3est12InvertBlockM10kernelFuncEvENKUlNS2_4lang4TileENS5_6BufferES7_E_clES6_S7_S7_EUlT_E_NS_9allocatorISA_EEFvRKNS2_4ExprEEEE, 
                       __ZTSNSt3__110__function6__funcIZZN2gc3est12InvertBlockM10kernelFuncEvENKUlNS2_4lang4TileENS5_6BufferES7_E_clES6_S7_S7_EUlvE0_NS_9allocatorIS9_EEFvvEEE, 
                       __ZTSNSt3__110__function6__funcIZZN2gc3est12InvertBlockM10kernelFuncEvENKUlNS2_4lang4TileENS5_6BufferES7_E_clES6_S7_S7_EUlvE_NS_9allocatorIS9_EEFvvEEE, 
                       __ZTSNSt3__110__function6__funcIZZN2gc3est14EvaluateBlockM10kernelFuncEvENKUlNS2_4lang4TileERNS5_3est14FactorOrderingERNS7_8JacobianENS5_6BufferESC_E_clES6_S9_SB_SC_SC_EUlNS2_4ExprESE_E_NS_9allocatorISF_EEFvSE_SE_EEE, 
                       __ZTSNSt3__110__function6__funcIZZN2gc3est14SchurLinearize16factorKernelFuncERKNS_6vectorINS3_13ArgumentGroupENS_9allocatorIS6_EEEERKNS_3mapINS_12basic_stringIcNS_11char_traitsIcEENS7_IcEEEEjNS_4lessISH_EENS7_INS_4pairIKSH_jEEEEEEbENKUlNS2_4lang4TileENSR_6BufferENSR_3est6FactorERNSU_11JacobianSetENSR_5ArrayIST_EENSY_INSU_14FactorOrderingEEERNSU_16BlockMatrixArrayESZ_E_clESS_ST_SV_SX_SZ_S11_S13_SZ_EUlvE_NS7_IS15_EEFvvEEE, 
                       __ZTSNSt3__110__function6__funcIZZN2gc3est14SchurLinearize28eliminatedVariableKernelFuncERKNS_6vectorINS3_13ArgumentGroupENS_9allocatorIS6_EEEERKNS_3mapINS_12basic_stringIcNS_11char_traitsIcEENS7_IcEEEEjNS_4lessISH_EENS7_INS_4pairIKSH_jEEEEEEbENKUlNS2_4lang4TileENSR_6BufferERNSR_3est8JacobianENSU_6FactorERNSU_11JacobianSetERNSU_14FactorOrderingEST_NSR_5ArrayIST_EENS12_IS10_EERNSR_6ScalarERNSU_16BlockMatrixArrayENSU_22SchurEliminatedHessianES13_ST_ST_E_clESS_ST_SW_SX_SZ_S11_ST_S13_S14_S16_S18_S19_S13_ST_ST_EUlNS2_4ExprEE0_NS7_IS1C_EEFvRKS1B_EEE, 
                       __ZTSNSt3__110__function6__funcIZZN2gc3est14SchurLinearize28eliminatedVariableKernelFuncERKNS_6vectorINS3_13ArgumentGroupENS_9allocatorIS6_EEEERKNS_3mapINS_12basic_stringIcNS_11char_traitsIcEENS7_IcEEEEjNS_4lessISH_EENS7_INS_4pairIKSH_jEEEEEEbENKUlNS2_4lang4TileENSR_6BufferERNSR_3est8JacobianENSU_6FactorERNSU_11JacobianSetERNSU_14FactorOrderingEST_NSR_5ArrayIST_EENS12_IS10_EERNSR_6ScalarERNSU_16BlockMatrixArrayENSU_22SchurEliminatedHessianES13_ST_ST_E_clESS_ST_SW_SX_SZ_S11_ST_S13_S14_S16_S18_S19_S13_ST_ST_EUlNS2_4ExprEE_NS7_IS1C_EEFvRKS1B_EEE, 
                       __ZTSNSt3__110__function6__funcIZZN2gc3est14SchurLinearize28eliminatedVariableKernelFuncERKNS_6vectorINS3_13ArgumentGroupENS_9allocatorIS6_EEEERKNS_3mapINS_12basic_stringIcNS_11char_traitsIcEENS7_IcEEEEjNS_4lessISH_EENS7_INS_4pairIKSH_jEEEEEEbENKUlNS2_4lang4TileENSR_6BufferERNSR_3est8JacobianENSU_6FactorERNSU_11JacobianSetERNSU_14FactorOrderingEST_NSR_5ArrayIST_EENS12_IS10_EERNSR_6ScalarERNSU_16BlockMatrixArrayENSU_22SchurEliminatedHessianES13_ST_ST_E_clESS_ST_SW_SX_SZ_S11_ST_S13_S14_S16_S18_S19_S13_ST_ST_EUlT_E0_NS7_IS1C_EEFvRKNS2_4ExprEEEE, 
                       __ZTSNSt3__110__function6__funcIZZN2gc3est14SchurLinearize28eliminatedVariableKernelFuncERKNS_6vectorINS3_13ArgumentGroupENS_9allocatorIS6_EEEERKNS_3mapINS_12basic_stringIcNS_11char_traitsIcEENS7_IcEEEEjNS_4lessISH_EENS7_INS_4pairIKSH_jEEEEEEbENKUlNS2_4lang4TileENSR_6BufferERNSR_3est8JacobianENSU_6FactorERNSU_11JacobianSetERNSU_14FactorOrderingEST_NSR_5ArrayIST_EENS12_IS10_EERNSR_6ScalarERNSU_16BlockMatrixArrayENSU_22SchurEliminatedHessianES13_ST_ST_E_clESS_ST_SW_SX_SZ_S11_ST_S13_S14_S16_S18_S19_S13_ST_ST_EUlT_E_NS7_IS1C_EEFvRKNS2_4ExprEEEE, 
                       __ZTSNSt3__110__function6__funcIZZN2gc3est14SchurLinearize28eliminatedVariableKernelFuncERKNS_6vectorINS3_13ArgumentGroupENS_9allocatorIS6_EEEERKNS_3mapINS_12basic_stringIcNS_11char_traitsIcEENS7_IcEEEEjNS_4lessISH_EENS7_INS_4pairIKSH_jEEEEEEbENKUlNS2_4lang4TileENSR_6BufferERNSR_3est8JacobianENSU_6FactorERNSU_11JacobianSetERNSU_14FactorOrderingEST_NSR_5ArrayIST_EENS12_IS10_EERNSR_6ScalarERNSU_16BlockMatrixArrayENSU_22SchurEliminatedHessianES13_ST_ST_E_clESS_ST_SW_SX_SZ_S11_ST_S13_S14_S16_S18_S19_S13_ST_ST_EUlvE_NS7_IS1B_EEFvvEEE, 
                       __ZTSNSt3__110__function6__funcIZZN2gc3est18ImplicitSchurJtJp110kernelFuncEvENKUlNS2_4lang4TileERNS5_3est8JacobianENS7_14FactorOrderingENS5_6BufferESB_E_clES6_S9_SA_SB_SB_EUlNS2_4ExprESD_E_NS_9allocatorISE_EEFvSD_SD_EEE, 
                       __ZTSNSt3__110__function6__funcIZZN2gc3est18ImplicitSchurJtJp218kernelFuncUnsortedEjENKUlNS2_4lang4TileERNS5_3est8JacobianENS5_6BufferESA_SA_SA_E_clES6_S9_SA_SA_SA_SA_EUlvE_NS_9allocatorISC_EEFvvEEE, 
                       __ZTSNSt3__110__function6__funcIZZN2gc3est18ImplicitSchurJtJp218kernelFuncVariadicEjENKUlNS2_4lang4TileERNS5_3est8JacobianENS7_14FactorOrderingENS5_6BufferESB_SB_SB_E_clES6_S9_SA_SB_SB_SB_SB_EUlNS2_4ExprEE_NS_9allocatorISE_EEFvSD_EEE, 
                       __ZTSNSt3__110__function6__funcIZZN2gc3est18ImplicitSchurJtJp227kernelFuncVariadicNoOffsetsEjENKUlNS2_4lang4TileERNS5_3est8JacobianENS7_14FactorOrderingENS5_6BufferESB_SB_E_clES6_S9_SA_SB_SB_SB_EUlNS2_4ExprEE_NS_9allocatorISE_EEFvSD_EEE, 
                       __ZTSNSt3__110__function6__funcIZZN2gc3est20MaterializeJacobians10kernelFuncERKNS3_16ArgumentGroupingERKNS_6vectorINS3_13eJacobianTypeENS_9allocatorIS9_EEEEENKUlNS2_4lang4TileENSF_3est6FactorENSF_6BufferENSF_5ArrayINSH_14FactorOrderingEEENSH_11VariableSetENSK_ISJ_EESO_E_clESG_SI_SJ_SM_SN_SO_SO_EUlNS2_4ExprEE_NSA_ISR_EEFvSQ_EEE, 
                       __ZTSNSt3__110__function6__funcIZZN2gc3est20SchurBackSubstitute110kernelFuncERKNS_6vectorINS3_13ArgumentGroupENS_9allocatorIS6_EEEERKNS_3mapINS_12basic_stringIcNS_11char_traitsIcEENS7_IcEEEEjNS_4lessISH_EENS7_INS_4pairIKSH_jEEEEEEbENKUlNS2_4lang4TileENSR_6BufferENSR_5ArrayIST_EESV_NSR_3est6FactorERNSW_14FactorOrderingENSW_22SchurEliminatedHessianEST_E_clESS_ST_SV_SV_SX_SZ_S10_ST_EUlNS2_4ExprEE_NS7_IS13_EEFvS12_EEE, 
                       __ZTSNSt3__110__function6__funcIZZN2gc3est22EvaluateBatchGradients10kernelFuncERKNS3_13ArgumentGroupENS3_13eJacobianTypeEENKUlNS2_4lang4TileENS9_3est14FactorOrderingENSB_6FactorENSB_11VariableSetENS9_6ScalarERNS9_6BufferEE_clESA_SC_SD_SE_SF_SH_EUlT_T0_E_NS_9allocatorISL_EEFvNS2_4ExprESO_EEE, 
                       __ZTSNSt3__110__function6__funcIZZN2gc3est24ImplicitSchurInitialize110kernelFuncEvENKUlNS2_4lang4TileENS5_6BufferERNS5_3est8JacobianENS8_14FactorOrderingENS5_6ScalarES7_S7_E_clES6_S7_SA_SB_SC_S7_S7_EUlNS2_4ExprESE_E_NS_9allocatorISF_EEFvSE_SE_EEE, 
                       __ZTSNSt3__110__function6__funcIZZN2gc3est24ImplicitSchurInitialize110kernelFuncEvENKUlNS2_4lang4TileENS5_6BufferERNS5_3est8JacobianENS8_14FactorOrderingENS5_6ScalarES7_S7_E_clES6_S7_SA_SB_SC_S7_S7_EUlT_E0_NS_9allocatorISF_EEFvRKNS2_4ExprEEEE, 
                       __ZTSNSt3__110__function6__funcIZZN2gc3est24ImplicitSchurInitialize110kernelFuncEvENKUlNS2_4lang4TileENS5_6BufferERNS5_3est8JacobianENS8_14FactorOrderingENS5_6ScalarES7_S7_E_clES6_S7_SA_SB_SC_S7_S7_EUlT_E_NS_9allocatorISF_EEFvRKNS2_4ExprEEEE, 
                       __ZTSNSt3__110__function6__funcIZZN2gc3est24ImplicitSchurInitialize110kernelFuncEvENKUlNS2_4lang4TileENS5_6BufferERNS5_3est8JacobianENS8_14FactorOrderingENS5_6ScalarES7_S7_E_clES6_S7_SA_SB_SC_S7_S7_EUlvE_NS_9allocatorISE_EEFvvEEE, 
                       __ZTSNSt3__110__function6__funcIZZN2gc3est24ImplicitSchurInitialize310kernelFuncEvENKUlNS2_4lang4TileERNS5_3est8JacobianENS7_14FactorOrderingESA_NS5_6BufferESB_SB_SB_SB_SB_E_clES6_S9_SA_SA_SB_SB_SB_SB_SB_SB_EUlNS2_4ExprESD_E_NS_9allocatorISE_EEFvSD_SD_EEE, 
                       __ZTSNSt3__110__function6__funcIZZN2gc3est28ImplicitSchurBackSubstitute110kernelFuncERKNS_6vectorINS3_13ArgumentGroupENS_9allocatorIS6_EEEERKNS_3mapINS_12basic_stringIcNS_11char_traitsIcEENS7_IcEEEEjNS_4lessISH_EENS7_INS_4pairIKSH_jEEEEEEENKUlNS2_4lang4TileERNSR_3est11JacobianSetENSR_5ArrayINST_14FactorOrderingEEENSW_INSR_6BufferEEES10_SZ_E_clESS_SV_SY_S10_S10_SZ_EUlvE_NS7_IS12_EEFvvEEE, 
                       __ZTSNSt3__110__function6__funcIZZN2gc3est33ApplyAdditiveLMDampingToDiagonals10kernelFuncEvENKUlNS2_4lang4TileENS5_6ScalarENS5_6BufferES8_E_clES6_S7_S8_S8_EUlT_E_NS_9allocatorISB_EEFvRKNS2_4ExprEEEE, 
                       __ZTSNSt3__110__function6__funcIZZN2gc3est39ApplyMultiplicativeLMDampingToDiagonals10kernelFuncEvENKUlNS2_4lang4TileENS5_6ScalarENS5_6BufferES8_E_clES6_S7_S8_S8_EUlT_E_NS_9allocatorISB_EEFvRKNS2_4ExprEEEE, 
                       __ZTSNSt3__110__function6__funcIZZN2gc4lang3est11BlockMatrix13forEachColumnIZZNS2_3est10EvaluateHp19kernelFuncNoOffsetsEvENKUlNS3_4TileERS5_NS3_6BufferESB_E_clES9_SA_SB_SB_EUlNS2_4ExprENS3_6MatrixEE_EEvRKSD_OT_ENKUlSI_E_clISD_EEDaSI_EUlvE_NS_9allocatorISN_EEFvvEEE, 
                       __ZTSNSt3__110__function6__funcIZZN2gc4lang3est11BlockMatrix13forEachColumnIZZNS2_3est14ExtractDiagJtJ10kernelFuncEvENKUlNS3_4TileERS5_NS3_6BufferESB_SB_E_clES9_SA_SB_SB_SB_EUlNS2_4ExprENS3_6MatrixEE_EEvRKSD_OT_ENKUlSI_E_clISD_EEDaSI_EUlvE_NS_9allocatorISN_EEFvvEEE, 
                       __ZTSNSt3__110__function6__funcIZZN2gc4lang3est11BlockMatrix13forEachColumnIZZNS2_3est14ExtractDiagJtJ19kernelFuncNoOffsetsEvENKUlNS3_4TileERS5_NS3_6BufferESB_E_clES9_SA_SB_SB_EUlNS2_4ExprENS3_6MatrixEE_EEvRKSD_OT_ENKUlSI_E_clISD_EEDaSI_EUlvE_NS_9allocatorISN_EEFvvEEE, 
                       __ZTSNSt3__110__function6__funcIZZN2gc4lang3est11BlockMatrix13forEachColumnIZZNS2_3est17SymmetrizeDiagJtJ10kernelFuncEvENKUlNS3_4TileERS5_E_clES9_SA_EUlNS2_4ExprENS3_6MatrixEE_EEvRKSC_OT_ENKUlSH_E_clISC_EEDaSH_EUlvE_NS_9allocatorISM_EEFvvEEE, 
                       __ZTSNSt3__110__function6__funcIZZN2gc4lang3est11BlockMatrix13forEachColumnIZZNS2_3est30ApplyAdditiveLMDampingExplicit10kernelFuncEvENKUlNS3_4TileENS3_6ScalarERS5_E_clES9_SA_SB_EUlNS2_4ExprENS3_6MatrixEE_EEvRKSD_OT_ENKUlSI_E_clISD_EEDaSI_EUlvE_NS_9allocatorISN_EEFvvEEE, 
                       __ZTSNSt3__110__function6__funcIZZN2gc4lang3est11BlockMatrix13forEachColumnIZZNS2_3est36ApplyMultiplicativeLMDampingExplicit10kernelFuncEvENKUlNS3_4TileENS3_6ScalarERS5_E_clES9_SA_SB_EUlNS2_4ExprENS3_6MatrixEE_EEvRKSD_OT_ENKUlSI_E_clISD_EEDaSI_EUlvE_NS_9allocatorISN_EEFvvEEE, 
                       __ZTSNSt3__110__function6__funcIZZN2gc4lang3est11BlockMatrix13forEachColumnIZZZNS2_3est10EvaluateHp10kernelFuncEvENKUlNS3_4TileERS5_NS3_6BufferESB_SB_RSB_E_clES9_SA_SB_SB_SB_SC_ENKUlvE_clEvEUlNS2_4ExprENS3_6MatrixEE_EEvRKSF_OT_ENKUlSK_E_clISF_EEDaSK_EUlvE_NS_9allocatorISP_EEFvvEEE, 
                       __ZTSNSt3__110__function6__funcIZZN2gc4lang4simd27SIMDInnerProductAccumulatorC1ENS_10shared_ptrINS4_18InnerProductMatrixEEES8_RNS3_6BufferERKNS4_16MatMulParametersENS2_4ExprERKNS_6vectorISE_NS_9allocatorISE_EEEEENKUlSK_E0_clESK_EUlT_E_NSG_ISN_EEFvRKSE_EEE, 
                       __ZTSNSt3__110__function6__funcIZZN2gc4lang4simd29LargeKInnerProductAccumulatorC1ENS_10shared_ptrINS4_18InnerProductMatrixEEES8_RNS3_6BufferERKNS4_16MatMulParametersENS2_4ExprERKNS_6vectorISE_NS_9allocatorISE_EEEESK_SK_ENKUlSK_E0_clESK_EUlT_E_NSG_ISN_EEFvRKSE_EEE, 
                       __ZTSNSt3__110__function6__funcIZZN2gc4lang4simd29LargeKInnerProductAccumulatorC1ENS_10shared_ptrINS4_18InnerProductMatrixEEES8_RNS3_6BufferERKNS4_16MatMulParametersENS2_4ExprERKNS_6vectorISE_NS_9allocatorISE_EEEESK_SK_ENKUlSK_E_clESK_EUlvE_NSG_ISM_EEFvvEEE, 
                       __ZTSNSt3__110__function6__funcIZZN2gc4lang4simd29SmallKInnerProductAccumulatorC1ENS_10shared_ptrINS4_18InnerProductMatrixEEES8_RNS3_6BufferERKNS4_16MatMulParametersENS2_4ExprERKNS_6vectorISE_NS_9allocatorISE_EEEESK_SK_ENKUlSK_E0_clESK_EUlT_E_NSG_ISN_EEFvRKSE_EEE, 
                       __ZTSNSt3__110__function6__funcIZZN2gc4lang4simd30GeneralInnerProductAccumulatorC1ENS_10shared_ptrINS4_18InnerProductMatrixEEES8_RNS3_6BufferENS2_4ExprEENKUlRKNS_6vectorISB_NS_9allocatorISB_EEEEE_clESH_EUlT_E_NSD_ISK_EEFvRKSB_EEE, 
                       __ZTSNSt3__110__function6__funcIZZZN2gc3est10EvaluateJp18kernelFuncVariadicEjENKUlNS2_4lang4TileERNS5_3est14FactorOrderingENS5_6BufferERNS7_8JacobianESA_SA_E_clES6_S9_SA_SC_SA_SA_ENKUlNS2_4ExprEE_clESE_EUlvE_NS_9allocatorISG_EEFvvEEE, 
                       __ZTSNSt3__110__function6__funcIZZZN2gc3est11EvaluateJtJ18kernelFuncDiagonalEvENKUlNS2_4lang4TileENS5_3est13BlockOrderingENS7_14FactorOrderingERNS7_8JacobianERNS7_11BlockMatrixEE_clES6_S8_S9_SB_SD_ENKUlNS2_4ExprEE_clESF_EUlSF_E_NS_9allocatorISH_EEFvSF_EEE, 
                       __ZTSNSt3__110__function6__funcIZZZN2gc3est11EvaluateJtJ21kernelFuncOffDiagonalEvENKUlNS2_4lang4TileENS5_3est13BlockOrderingENS7_14FactorOrderingES9_RNS7_11JacobianSetERNS7_11BlockMatrixEE_clES6_S8_S9_S9_SB_SD_ENKUlNS2_4ExprEE_clESF_EUlSF_E_NS_9allocatorISH_EEFvSF_EEE, 
                       __ZTSNSt3__110__function6__funcIZZZN2gc3est12EvaluateJteM10kernelFuncEvENKUlNS2_4lang4TileERNS5_3est14FactorOrderingERNS7_8JacobianENS5_6BufferESC_SC_E_clES6_S9_SB_SC_SC_SC_ENKUlNS2_4ExprESE_E_clESE_SE_EUlT_E_NS_9allocatorISH_EEFvRKSE_EEE, 
                       __ZTSNSt3__110__function6__funcIZZZN2gc3est12InvertBlockM10kernelFuncEvENKUlNS2_4lang4TileENS5_6BufferES7_E_clES6_S7_S7_ENKUlvE0_clEvEUlT_E_NS_9allocatorISB_EEFvRKNS2_4ExprEEEE, 
                       __ZTSNSt3__110__function6__funcIZZZN2gc3est14ExtractDiagJtJ10kernelFuncEvENKUlNS2_4lang4TileERNS5_3est11BlockMatrixENS5_6BufferESA_SA_E_clES6_S9_SA_SA_SA_ENKUlNS2_4ExprENS5_6MatrixEE_clESC_SD_EUlvE_NS_9allocatorISF_EEFvvEEE, 
                       __ZTSNSt3__110__function6__funcIZZZN2gc3est14ExtractDiagJtJ19kernelFuncNoOffsetsEvENKUlNS2_4lang4TileERNS5_3est11BlockMatrixENS5_6BufferESA_E_clES6_S9_SA_SA_ENKUlNS2_4ExprENS5_6MatrixEE_clESC_SD_EUlvE_NS_9allocatorISF_EEFvvEEE, 
                       __ZTSNSt3__110__function6__funcIZZZN2gc3est14SchurLinearize16factorKernelFuncERKNS_6vectorINS3_13ArgumentGroupENS_9allocatorIS6_EEEERKNS_3mapINS_12basic_stringIcNS_11char_traitsIcEENS7_IcEEEEjNS_4lessISH_EENS7_INS_4pairIKSH_jEEEEEEbENKUlNS2_4lang4TileENSR_6BufferENSR_3est6FactorERNSU_11JacobianSetENSR_5ArrayIST_EENSY_INSU_14FactorOrderingEEERNSU_16BlockMatrixArrayESZ_E_clESS_ST_SV_SX_SZ_S11_S13_SZ_ENKUlvE_clEvEUlNS2_4ExprEE_NS7_IS17_EEFvS16_EEE, 
                       __ZTSNSt3__110__function6__funcIZZZN2gc3est14SchurLinearize28eliminatedVariableKernelFuncERKNS_6vectorINS3_13ArgumentGroupENS_9allocatorIS6_EEEERKNS_3mapINS_12basic_stringIcNS_11char_traitsIcEENS7_IcEEEEjNS_4lessISH_EENS7_INS_4pairIKSH_jEEEEEEbENKUlNS2_4lang4TileENSR_6BufferERNSR_3est8JacobianENSU_6FactorERNSU_11JacobianSetERNSU_14FactorOrderingEST_NSR_5ArrayIST_EENS12_IS10_EERNSR_6ScalarERNSU_16BlockMatrixArrayENSU_22SchurEliminatedHessianES13_ST_ST_E_clESS_ST_SW_SX_SZ_S11_ST_S13_S14_S16_S18_S19_S13_ST_ST_ENKUlNS2_4ExprEE0_clES1B_EUlvE_NS7_IS1D_EEFvvEEE, 
                       __ZTSNSt3__110__function6__funcIZZZN2gc3est14SchurLinearize28eliminatedVariableKernelFuncERKNS_6vectorINS3_13ArgumentGroupENS_9allocatorIS6_EEEERKNS_3mapINS_12basic_stringIcNS_11char_traitsIcEENS7_IcEEEEjNS_4lessISH_EENS7_INS_4pairIKSH_jEEEEEEbENKUlNS2_4lang4TileENSR_6BufferERNSR_3est8JacobianENSU_6FactorERNSU_11JacobianSetERNSU_14FactorOrderingEST_NSR_5ArrayIST_EENS12_IS10_EERNSR_6ScalarERNSU_16BlockMatrixArrayENSU_22SchurEliminatedHessianES13_ST_ST_E_clESS_ST_SW_SX_SZ_S11_ST_S13_S14_S16_S18_S19_S13_ST_ST_ENKUlNS2_4ExprEE_clES1B_EUlS1B_E_NS7_IS1D_EEFvS1B_EEE, 
                       __ZTSNSt3__110__function6__funcIZZZN2gc3est17SymmetrizeDiagJtJ10kernelFuncEvENKUlNS2_4lang4TileERNS5_3est11BlockMatrixEE_clES6_S9_ENKUlNS2_4ExprENS5_6MatrixEE_clESB_SC_EUlvE_NS_9allocatorISE_EEFvvEEE, 
                       __ZTSNSt3__110__function6__funcIZZZN2gc3est18ImplicitSchurJtJp218kernelFuncVariadicEjENKUlNS2_4lang4TileERNS5_3est8JacobianENS7_14FactorOrderingENS5_6BufferESB_SB_SB_E_clES6_S9_SA_SB_SB_SB_SB_ENKUlNS2_4ExprEE_clESD_EUlvE_NS_9allocatorISF_EEFvvEEE, 
                       __ZTSNSt3__110__function6__funcIZZZN2gc3est20MaterializeJacobians10kernelFuncERKNS3_16ArgumentGroupingERKNS_6vectorINS3_13eJacobianTypeENS_9allocatorIS9_EEEEENKUlNS2_4lang4TileENSF_3est6FactorENSF_6BufferENSF_5ArrayINSH_14FactorOrderingEEENSH_11VariableSetENSK_ISJ_EESO_E_clESG_SI_SJ_SM_SN_SO_SO_ENKUlNS2_4ExprEE_clESQ_EUlvE_NSA_ISS_EEFvvEEE, 
                       __ZTSNSt3__110__function6__funcIZZZN2gc3est20SchurBackSubstitute110kernelFuncERKNS_6vectorINS3_13ArgumentGroupENS_9allocatorIS6_EEEERKNS_3mapINS_12basic_stringIcNS_11char_traitsIcEENS7_IcEEEEjNS_4lessISH_EENS7_INS_4pairIKSH_jEEEEEEbENKUlNS2_4lang4TileENSR_6BufferENSR_5ArrayIST_EESV_NSR_3est6FactorERNSW_14FactorOrderingENSW_22SchurEliminatedHessianEST_E_clESS_ST_SV_SV_SX_SZ_S10_ST_ENKUlNS2_4ExprEE_clES12_EUlvE_NS7_IS14_EEFvvEEE, 
                       __ZTSNSt3__110__function6__funcIZZZN2gc3est22EvaluateBatchGradients10kernelFuncERKNS3_13ArgumentGroupENS3_13eJacobianTypeEENKUlNS2_4lang4TileENS9_3est14FactorOrderingENSB_6FactorENSB_11VariableSetENS9_6ScalarERNS9_6BufferEE_clESA_SC_SD_SE_SF_SH_ENKUlT_T0_E_clINS2_4ExprESN_EEDaSJ_SK_EUlSJ_E_NS_9allocatorISP_EEFvRKSN_EEE, 
                       __ZTSNSt3__110__function6__funcIZZZN2gc3est22EvaluateBatchGradients10kernelFuncERKNS3_13ArgumentGroupENS3_13eJacobianTypeEENKUlNS2_4lang4TileENS9_3est14FactorOrderingENSB_6FactorENSB_11VariableSetENS9_6ScalarERNS9_6BufferEE_clESA_SC_SD_SE_SF_SH_ENKUlT_T0_E_clINS2_4ExprESN_EEDaSJ_SK_EUlvE_NS_9allocatorISP_EEFvvEEE, 
                       __ZTSNSt3__110__function6__funcIZZZN2gc3est24ImplicitSchurInitialize310kernelFuncEvENKUlNS2_4lang4TileERNS5_3est8JacobianENS7_14FactorOrderingESA_NS5_6BufferESB_SB_SB_SB_SB_E_clES6_S9_SA_SA_SB_SB_SB_SB_SB_SB_ENKUlNS2_4ExprESD_E_clESD_SD_EUlSD_E_NS_9allocatorISF_EEFvSD_EEE, 
                       __ZTSNSt3__110__function6__funcIZZZN2gc3est28ImplicitSchurBackSubstitute110kernelFuncERKNS_6vectorINS3_13ArgumentGroupENS_9allocatorIS6_EEEERKNS_3mapINS_12basic_stringIcNS_11char_traitsIcEENS7_IcEEEEjNS_4lessISH_EENS7_INS_4pairIKSH_jEEEEEEENKUlNS2_4lang4TileERNSR_3est11JacobianSetENSR_5ArrayINST_14FactorOrderingEEENSW_INSR_6BufferEEES10_SZ_E_clESS_SV_SY_S10_S10_SZ_ENKUlvE_clEvEUlNS2_4ExprEE_NS7_IS14_EEFvS13_EEE, 
                       __ZTSNSt3__110__function6__funcIZZZN2gc3est30ApplyAdditiveLMDampingExplicit10kernelFuncEvENKUlNS2_4lang4TileENS5_6ScalarERNS5_3est11BlockMatrixEE_clES6_S7_SA_ENKUlNS2_4ExprENS5_6MatrixEE_clESC_SD_EUlvE_NS_9allocatorISF_EEFvvEEE, 
                       __ZTSNSt3__110__function6__funcIZZZN2gc3est36ApplyMultiplicativeLMDampingExplicit10kernelFuncEvENKUlNS2_4lang4TileENS5_6ScalarERNS5_3est11BlockMatrixEE_clES6_S7_SA_ENKUlNS2_4ExprENS5_6MatrixEE_clESC_SD_EUlvE_NS_9allocatorISF_EEFvvEEE, 
                       __ZTSNSt3__110__function6__funcIZZZN2gc4lang4simd29LargeKInnerProductAccumulatorC1ENS_10shared_ptrINS4_18InnerProductMatrixEEES8_RNS3_6BufferERKNS4_16MatMulParametersENS2_4ExprERKNS_6vectorISE_NS_9allocatorISE_EEEESK_SK_ENKUlSK_E_clESK_ENKUlvE_clEvEUlT_E_NSG_ISO_EEFvRKSE_EEE, 
                       __ZTSNSt3__110__function6__funcIZZZZN2gc3est10EvaluateHp10kernelFuncEvENKUlNS2_4lang4TileERNS5_3est11BlockMatrixENS5_6BufferESA_SA_RSA_E_clES6_S9_SA_SA_SA_SB_ENKUlvE_clEvENKUlNS2_4ExprENS5_6MatrixEE_clESE_SF_EUlvE_NS_9allocatorISH_EEFvvEEE, 
                       __ZTSNSt3__110__function6__funcIZZZZN2gc3est11EvaluateJtJ21kernelFuncOffDiagonalEvENKUlNS2_4lang4TileENS5_3est13BlockOrderingENS7_14FactorOrderingES9_RNS7_11JacobianSetERNS7_11BlockMatrixEE_clES6_S8_S9_S9_SB_SD_ENKUlNS2_4ExprEE_clESF_ENKUlSF_E_clESF_EUlvE_NS_9allocatorISI_EEFvvEEE, 
                       __ZTSNSt3__110__function6__funcIZZZZN2gc3est14ExtractDiagJtJ10kernelFuncEvENKUlNS2_4lang4TileERNS5_3est11BlockMatrixENS5_6BufferESA_SA_E_clES6_S9_SA_SA_SA_ENKUlNS2_4ExprENS5_6MatrixEE_clESC_SD_ENKUlvE_clEvEUlvE_NS_9allocatorISG_EEFvvEEE, 
                       __ZTSNSt3__110__function6__funcIZZZZN2gc3est14SchurLinearize16factorKernelFuncERKNS_6vectorINS3_13ArgumentGroupENS_9allocatorIS6_EEEERKNS_3mapINS_12basic_stringIcNS_11char_traitsIcEENS7_IcEEEEjNS_4lessISH_EENS7_INS_4pairIKSH_jEEEEEEbENKUlNS2_4lang4TileENSR_6BufferENSR_3est6FactorERNSU_11JacobianSetENSR_5ArrayIST_EENSY_INSU_14FactorOrderingEEERNSU_16BlockMatrixArrayESZ_E_clESS_ST_SV_SX_SZ_S11_S13_SZ_ENKUlvE_clEvENKUlNS2_4ExprEE_clES16_EUlvE_NS7_IS18_EEFvvEEE, 
                       __ZTSNSt3__110__function6__funcIZZZZN2gc3est14SchurLinearize28eliminatedVariableKernelFuncERKNS_6vectorINS3_13ArgumentGroupENS_9allocatorIS6_EEEERKNS_3mapINS_12basic_stringIcNS_11char_traitsIcEENS7_IcEEEEjNS_4lessISH_EENS7_INS_4pairIKSH_jEEEEEEbENKUlNS2_4lang4TileENSR_6BufferERNSR_3est8JacobianENSU_6FactorERNSU_11JacobianSetERNSU_14FactorOrderingEST_NSR_5ArrayIST_EENS12_IS10_EERNSR_6ScalarERNSU_16BlockMatrixArrayENSU_22SchurEliminatedHessianES13_ST_ST_E_clESS_ST_SW_SX_SZ_S11_ST_S13_S14_S16_S18_S19_S13_ST_ST_ENKUlNS2_4ExprEE0_clES1B_ENKUlvE_clEvEUlS1B_E_NS7_IS1E_EEFvRKS1B_EEE, 
                       __ZTSNSt3__110__function6__funcIZZZZN2gc3est14SchurLinearize28eliminatedVariableKernelFuncERKNS_6vectorINS3_13ArgumentGroupENS_9allocatorIS6_EEEERKNS_3mapINS_12basic_stringIcNS_11char_traitsIcEENS7_IcEEEEjNS_4lessISH_EENS7_INS_4pairIKSH_jEEEEEEbENKUlNS2_4lang4TileENSR_6BufferERNSR_3est8JacobianENSU_6FactorERNSU_11JacobianSetERNSU_14FactorOrderingEST_NSR_5ArrayIST_EENS12_IS10_EERNSR_6ScalarERNSU_16BlockMatrixArrayENSU_22SchurEliminatedHessianES13_ST_ST_E_clESS_ST_SW_SX_SZ_S11_ST_S13_S14_S16_S18_S19_S13_ST_ST_ENKUlNS2_4ExprEE_clES1B_ENKUlS1B_E_clES1B_EUlvE_NS7_IS1E_EEFvvEEE, 
                       __ZTSNSt3__110__function6__funcIZZZZN2gc3est18ImplicitSchurJtJp218kernelFuncVariadicEjENKUlNS2_4lang4TileERNS5_3est8JacobianENS7_14FactorOrderingENS5_6BufferESB_SB_SB_E_clES6_S9_SA_SB_SB_SB_SB_ENKUlNS2_4ExprEE_clESD_ENKUlvE_clEvEUlvE_NS_9allocatorISG_EEFvvEEE, 
                       __ZTSNSt3__110__function6__funcIZZZZN2gc3est20MaterializeJacobians10kernelFuncERKNS3_16ArgumentGroupingERKNS_6vectorINS3_13eJacobianTypeENS_9allocatorIS9_EEEEENKUlNS2_4lang4TileENSF_3est6FactorENSF_6BufferENSF_5ArrayINSH_14FactorOrderingEEENSH_11VariableSetENSK_ISJ_EESO_E_clESG_SI_SJ_SM_SN_SO_SO_ENKUlNS2_4ExprEE_clESQ_ENKUlvE_clEvEUlvE0_NSA_IST_EEFvvEEE, 
                       __ZTSNSt3__110__function6__funcIZZZZN2gc3est20MaterializeJacobians10kernelFuncERKNS3_16ArgumentGroupingERKNS_6vectorINS3_13eJacobianTypeENS_9allocatorIS9_EEEEENKUlNS2_4lang4TileENSF_3est6FactorENSF_6BufferENSF_5ArrayINSH_14FactorOrderingEEENSH_11VariableSetENSK_ISJ_EESO_E_clESG_SI_SJ_SM_SN_SO_SO_ENKUlNS2_4ExprEE_clESQ_ENKUlvE_clEvEUlvE_NSA_IST_EEFvvEEE, 
                       __ZTSNSt3__110__function6__funcIZZZZN2gc3est22EvaluateBatchGradients10kernelFuncERKNS3_13ArgumentGroupENS3_13eJacobianTypeEENKUlNS2_4lang4TileENS9_3est14FactorOrderingENSB_6FactorENSB_11VariableSetENS9_6ScalarERNS9_6BufferEE_clESA_SC_SD_SE_SF_SH_ENKUlT_T0_E_clINS2_4ExprESN_EEDaSJ_SK_ENKUlSJ_E_clISN_EESO_SJ_EUlvE_NS_9allocatorISR_EEFvvEEE, 
                       __ZTSNSt3__110__function6__funcIZZZZN2gc3est24ImplicitSchurInitialize310kernelFuncEvENKUlNS2_4lang4TileERNS5_3est8JacobianENS7_14FactorOrderingESA_NS5_6BufferESB_SB_SB_SB_SB_E_clES6_S9_SA_SA_SB_SB_SB_SB_SB_SB_ENKUlNS2_4ExprESD_E_clESD_SD_ENKUlSD_E_clESD_EUlvE0_NS_9allocatorISG_EEFvvEEE, 
                       __ZTSNSt3__110__function6__funcIZZZZN2gc3est24ImplicitSchurInitialize310kernelFuncEvENKUlNS2_4lang4TileERNS5_3est8JacobianENS7_14FactorOrderingESA_NS5_6BufferESB_SB_SB_SB_SB_E_clES6_S9_SA_SA_SB_SB_SB_SB_SB_SB_ENKUlNS2_4ExprESD_E_clESD_SD_ENKUlSD_E_clESD_EUlvE_NS_9allocatorISG_EEFvvEEE, 
                       __ZTSNSt3__110__function6__funcIZZZZN2gc3est30ApplyAdditiveLMDampingExplicit10kernelFuncEvENKUlNS2_4lang4TileENS5_6ScalarERNS5_3est11BlockMatrixEE_clES6_S7_SA_ENKUlNS2_4ExprENS5_6MatrixEE_clESC_SD_ENKUlvE_clEvEUlT_E_NS_9allocatorISH_EEFvRKSC_EEE, 
                       __ZTSNSt3__110__function6__funcIZZZZN2gc3est36ApplyMultiplicativeLMDampingExplicit10kernelFuncEvENKUlNS2_4lang4TileENS5_6ScalarERNS5_3est11BlockMatrixEE_clES6_S7_SA_ENKUlNS2_4ExprENS5_6MatrixEE_clESC_SD_ENKUlvE_clEvEUlT_E_NS_9allocatorISH_EEFvRKSC_EEE, 
                       __ZTSNSt3__110__function6__funcIZZZZZN2gc3est11EvaluateJtJ21kernelFuncOffDiagonalEvENKUlNS2_4lang4TileENS5_3est13BlockOrderingENS7_14FactorOrderingES9_RNS7_11JacobianSetERNS7_11BlockMatrixEE_clES6_S8_S9_S9_SB_SD_ENKUlNS2_4ExprEE_clESF_ENKUlSF_E_clESF_ENKUlvE_clEvEUlSF_E_NS_9allocatorISJ_EEFvSF_EEE, 
                       __ZTSNSt3__110__function6__funcIZZZZZN2gc3est14SchurLinearize16factorKernelFuncERKNS_6vectorINS3_13ArgumentGroupENS_9allocatorIS6_EEEERKNS_3mapINS_12basic_stringIcNS_11char_traitsIcEENS7_IcEEEEjNS_4lessISH_EENS7_INS_4pairIKSH_jEEEEEEbENKUlNS2_4lang4TileENSR_6BufferENSR_3est6FactorERNSU_11JacobianSetENSR_5ArrayIST_EENSY_INSU_14FactorOrderingEEERNSU_16BlockMatrixArrayESZ_E_clESS_ST_SV_SX_SZ_S11_S13_SZ_ENKUlvE_clEvENKUlNS2_4ExprEE_clES16_ENKUlvE_clEvEUlS16_E_NS7_IS19_EEFvS16_EEE, 
                       __ZTSNSt3__110__function6__funcIZZZZZN2gc3est14SchurLinearize28eliminatedVariableKernelFuncERKNS_6vectorINS3_13ArgumentGroupENS_9allocatorIS6_EEEERKNS_3mapINS_12basic_stringIcNS_11char_traitsIcEENS7_IcEEEEjNS_4lessISH_EENS7_INS_4pairIKSH_jEEEEEEbENKUlNS2_4lang4TileENSR_6BufferERNSR_3est8JacobianENSU_6FactorERNSU_11JacobianSetERNSU_14FactorOrderingEST_NSR_5ArrayIST_EENS12_IS10_EERNSR_6ScalarERNSU_16BlockMatrixArrayENSU_22SchurEliminatedHessianES13_ST_ST_E_clESS_ST_SW_SX_SZ_S11_ST_S13_S14_S16_S18_S19_S13_ST_ST_ENKUlNS2_4ExprEE0_clES1B_ENKUlvE_clEvENKUlS1B_E_clES1B_EUlvE_NS7_IS1F_EEFvvEEE, 
                       __ZTSNSt3__110__function6__funcIZZZZZN2gc3est14SchurLinearize28eliminatedVariableKernelFuncERKNS_6vectorINS3_13ArgumentGroupENS_9allocatorIS6_EEEERKNS_3mapINS_12basic_stringIcNS_11char_traitsIcEENS7_IcEEEEjNS_4lessISH_EENS7_INS_4pairIKSH_jEEEEEEbENKUlNS2_4lang4TileENSR_6BufferERNSR_3est8JacobianENSU_6FactorERNSU_11JacobianSetERNSU_14FactorOrderingEST_NSR_5ArrayIST_EENS12_IS10_EERNSR_6ScalarERNSU_16BlockMatrixArrayENSU_22SchurEliminatedHessianES13_ST_ST_E_clESS_ST_SW_SX_SZ_S11_ST_S13_S14_S16_S18_S19_S13_ST_ST_ENKUlNS2_4ExprEE_clES1B_ENKUlS1B_E_clES1B_ENKUlvE_clEvEUlvE_NS7_IS1F_EEFvvEEE, 
                       __ZTSNSt3__110__function6__funcIZZZZZZN2gc3est11EvaluateJtJ21kernelFuncOffDiagonalEvENKUlNS2_4lang4TileENS5_3est13BlockOrderingENS7_14FactorOrderingES9_RNS7_11JacobianSetERNS7_11BlockMatrixEE_clES6_S8_S9_S9_SB_SD_ENKUlNS2_4ExprEE_clESF_ENKUlSF_E_clESF_ENKUlvE_clEvENKUlSF_E_clESF_EUlvE_NS_9allocatorISK_EEFvvEEE, 
                       __ZTSNSt3__110__function6__funcIZZZZZZN2gc3est14SchurLinearize16factorKernelFuncERKNS_6vectorINS3_13ArgumentGroupENS_9allocatorIS6_EEEERKNS_3mapINS_12basic_stringIcNS_11char_traitsIcEENS7_IcEEEEjNS_4lessISH_EENS7_INS_4pairIKSH_jEEEEEEbENKUlNS2_4lang4TileENSR_6BufferENSR_3est6FactorERNSU_11JacobianSetENSR_5ArrayIST_EENSY_INSU_14FactorOrderingEEERNSU_16BlockMatrixArrayESZ_E_clESS_ST_SV_SX_SZ_S11_S13_SZ_ENKUlvE_clEvENKUlNS2_4ExprEE_clES16_ENKUlvE_clEvENKUlS16_E_clES16_EUlvE_NS7_IS1A_EEFvvEEE, 
                       __ZTSNSt3__110__function6__funcIZZZZZZN2gc3est14SchurLinearize28eliminatedVariableKernelFuncERKNS_6vectorINS3_13ArgumentGroupENS_9allocatorIS6_EEEERKNS_3mapINS_12basic_stringIcNS_11char_traitsIcEENS7_IcEEEEjNS_4lessISH_EENS7_INS_4pairIKSH_jEEEEEEbENKUlNS2_4lang4TileENSR_6BufferERNSR_3est8JacobianENSU_6FactorERNSU_11JacobianSetERNSU_14FactorOrderingEST_NSR_5ArrayIST_EENS12_IS10_EERNSR_6ScalarERNSU_16BlockMatrixArrayENSU_22SchurEliminatedHessianES13_ST_ST_E_clESS_ST_SW_SX_SZ_S11_ST_S13_S14_S16_S18_S19_S13_ST_ST_ENKUlNS2_4ExprEE0_clES1B_ENKUlvE_clEvENKUlS1B_E_clES1B_ENKUlvE_clEvEUlvE_NS7_IS1G_EEFvvEEE, 
                       __ZTSNSt3__110__function6__funcIZZZZZZN2gc3est14SchurLinearize28eliminatedVariableKernelFuncERKNS_6vectorINS3_13ArgumentGroupENS_9allocatorIS6_EEEERKNS_3mapINS_12basic_stringIcNS_11char_traitsIcEENS7_IcEEEEjNS_4lessISH_EENS7_INS_4pairIKSH_jEEEEEEbENKUlNS2_4lang4TileENSR_6BufferERNSR_3est8JacobianENSU_6FactorERNSU_11JacobianSetERNSU_14FactorOrderingEST_NSR_5ArrayIST_EENS12_IS10_EERNSR_6ScalarERNSU_16BlockMatrixArrayENSU_22SchurEliminatedHessianES13_ST_ST_E_clESS_ST_SW_SX_SZ_S11_ST_S13_S14_S16_S18_S19_S13_ST_ST_ENKUlNS2_4ExprEE_clES1B_ENKUlS1B_E_clES1B_ENKUlvE_clEvENKUlvE_clEvEUlvE_NS7_IS1G_EEFvvEEE, 
                       __ZTSNSt3__110__function6__funcIZZZZZZZN2gc3est14SchurLinearize28eliminatedVariableKernelFuncERKNS_6vectorINS3_13ArgumentGroupENS_9allocatorIS6_EEEERKNS_3mapINS_12basic_stringIcNS_11char_traitsIcEENS7_IcEEEEjNS_4lessISH_EENS7_INS_4pairIKSH_jEEEEEEbENKUlNS2_4lang4TileENSR_6BufferERNSR_3est8JacobianENSU_6FactorERNSU_11JacobianSetERNSU_14FactorOrderingEST_NSR_5ArrayIST_EENS12_IS10_EERNSR_6ScalarERNSU_16BlockMatrixArrayENSU_22SchurEliminatedHessianES13_ST_ST_E_clESS_ST_SW_SX_SZ_S11_ST_S13_S14_S16_S18_S19_S13_ST_ST_ENKUlNS2_4ExprEE_clES1B_ENKUlS1B_E_clES1B_ENKUlvE_clEvENKUlvE_clEvENKUlvE_clEvEUlS1B_E_NS7_IS1H_EEFvS1B_EEE, 
                       __ZTSNSt3__110shared_ptrIN2gc12BufferHandleEE27__shared_ptr_default_deleteIS2_S2_EE, 
                       __ZTSNSt3__110shared_ptrIN2gc12ComputeGraphEE27__shared_ptr_default_deleteIS2_S2_EE, 
                       __ZTSNSt3__110shared_ptrIN2gc12StagedKernelEE27__shared_ptr_default_deleteIS2_S2_EE, 
                       __ZTSNSt3__110shared_ptrIN2gc13ExtentsBufferEE27__shared_ptr_default_deleteIS2_S2_EE, 
                       __ZTSNSt3__110shared_ptrIN2gc16BufferHandleViewEE27__shared_ptr_default_deleteIS2_S2_EE, 
                       __ZTSNSt3__110shared_ptrIN2gc16BufferParametersEE27__shared_ptr_default_deleteIS2_S2_EE, 
                       __ZTSNSt3__110shared_ptrIN2gc16ExternalFunctionEE27__shared_ptr_default_deleteIS2_NS1_21TypedExternalFunctionILNS1_13eTargetDeviceE1EEEEE, 
                       __ZTSNSt3__110shared_ptrIN2gc16FunctionArgumentINS1_4lang3est11VariableSetES5_EEE27__shared_ptr_default_deleteIS6_S6_EE, 
                       __ZTSNSt3__110shared_ptrIN2gc16FunctionArgumentINS1_4lang3est13BlockOrderingES5_EEE27__shared_ptr_default_deleteIS6_S6_EE, 
                       __ZTSNSt3__110shared_ptrIN2gc16FunctionArgumentINS1_4lang3est14FactorOrderingES5_EEE27__shared_ptr_default_deleteIS6_S6_EE, 
                       __ZTSNSt3__110shared_ptrIN2gc16FunctionArgumentINS1_4lang3est22SchurEliminatedHessianES5_EEE27__shared_ptr_default_deleteIS6_S6_EE, 
                       __ZTSNSt3__110shared_ptrIN2gc16FunctionArgumentINS1_4lang3est6FactorES5_EEE27__shared_ptr_default_deleteIS6_S6_EE, 
                       __ZTSNSt3__110shared_ptrIN2gc16FunctionArgumentINS1_4lang3est8VariableES5_EEE27__shared_ptr_default_deleteIS6_S6_EE, 
                       __ZTSNSt3__110shared_ptrIN2gc16FunctionArgumentINS1_4lang5ArrayINS3_3est14FactorOrderingEEES7_EEE27__shared_ptr_default_deleteIS8_S8_EE, 
                       __ZTSNSt3__110shared_ptrIN2gc16FunctionArgumentINS1_4lang5ArrayINS3_3est8VariableEEES7_EEE27__shared_ptr_default_deleteIS8_S8_EE, 
                       __ZTSNSt3__110shared_ptrIN2gc16FunctionArgumentINS1_4lang5ArrayINS3_6BufferEEES6_EEE27__shared_ptr_default_deleteIS7_S7_EE, 
                       __ZTSNSt3__110shared_ptrIN2gc16FunctionArgumentINS1_4lang6BufferES4_EEE27__shared_ptr_default_deleteIS5_S5_EE, 
                       __ZTSNSt3__110shared_ptrIN2gc16FunctionArgumentINS1_4lang6ScalarES4_EEE27__shared_ptr_default_deleteIS5_S5_EE, 
                       __ZTSNSt3__110shared_ptrIN2gc16FunctionArgumentIRNS1_4lang3est11BlockMatrixES5_EEE27__shared_ptr_default_deleteIS7_S7_EE, 
                       __ZTSNSt3__110shared_ptrIN2gc16FunctionArgumentIRNS1_4lang3est11JacobianSetES5_EEE27__shared_ptr_default_deleteIS7_S7_EE, 
                       __ZTSNSt3__110shared_ptrIN2gc16FunctionArgumentIRNS1_4lang3est14FactorOrderingES5_EEE27__shared_ptr_default_deleteIS7_S7_EE, 
                       __ZTSNSt3__110shared_ptrIN2gc16FunctionArgumentIRNS1_4lang3est16BlockMatrixArrayES5_EEE27__shared_ptr_default_deleteIS7_S7_EE, 
                       __ZTSNSt3__110shared_ptrIN2gc16FunctionArgumentIRNS1_4lang3est8JacobianES5_EEE27__shared_ptr_default_deleteIS7_S7_EE, 
                       __ZTSNSt3__110shared_ptrIN2gc16FunctionArgumentIRNS1_4lang6BufferES4_EEE27__shared_ptr_default_deleteIS6_S6_EE, 
                       __ZTSNSt3__110shared_ptrIN2gc16FunctionArgumentIRNS1_4lang6ScalarES4_EEE27__shared_ptr_default_deleteIS6_S6_EE, 
                       __ZTSNSt3__110shared_ptrIN2gc17BindableInvariantEE27__shared_ptr_default_deleteIS2_NS1_14EqualInvariantEEE, 
                       __ZTSNSt3__110shared_ptrIN2gc17BindableInvariantEE27__shared_ptr_default_deleteIS2_NS1_15ScalarInvariantEEE, 
                       __ZTSNSt3__110shared_ptrIN2gc17BindableInvariantEE27__shared_ptr_default_deleteIS2_NS1_18EqualTypeInvariantEEE, 
                       __ZTSNSt3__110shared_ptrIN2gc17BindableInvariantEE27__shared_ptr_default_deleteIS2_NS1_18ExactTypeInvariantEEE, 
                       __ZTSNSt3__110shared_ptrIN2gc17BindableInvariantEE27__shared_ptr_default_deleteIS2_NS1_18MatrixProductRangeEEE, 
                       __ZTSNSt3__110shared_ptrIN2gc17BindableInvariantEE27__shared_ptr_default_deleteIS2_NS1_19EqualRangeInvariantEEE, 
                       __ZTSNSt3__110shared_ptrIN2gc17BindableInvariantEE27__shared_ptr_default_deleteIS2_NS1_19ExactBlockInvariantEEE, 
                       __ZTSNSt3__110shared_ptrIN2gc17BindableInvariantEE27__shared_ptr_default_deleteIS2_NS1_19ExactRangeInvariantEEE, 
                       __ZTSNSt3__110shared_ptrIN2gc17BindableInvariantEE27__shared_ptr_default_deleteIS2_NS1_20MatrixProductElementEEE, 
                       __ZTSNSt3__110shared_ptrIN2gc17BindableInvariantEE27__shared_ptr_default_deleteIS2_NS1_21StridedRangeInvariantEEE, 
                       __ZTSNSt3__110shared_ptrIN2gc17BindableInvariantEE27__shared_ptr_default_deleteIS2_NS1_22EqualElementsInvariantEEE, 
                       __ZTSNSt3__110shared_ptrIN2gc17BindableInvariantEE27__shared_ptr_default_deleteIS2_NS1_22ExactElementsInvariantEEE, 
                       __ZTSNSt3__110shared_ptrIN2gc17BindableInvariantEE27__shared_ptr_default_deleteIS2_NS1_23FunctionOfTypeInvariantEEE, 
                       __ZTSNSt3__110shared_ptrIN2gc17BindableInvariantEE27__shared_ptr_default_deleteIS2_NS1_24FunctionOfRangeInvariantEEE, 
                       __ZTSNSt3__110shared_ptrIN2gc17BindableInvariantEE27__shared_ptr_default_deleteIS2_NS1_24FunctionOfShapeInvariantEEE, 
                       __ZTSNSt3__110shared_ptrIN2gc17BindableInvariantEE27__shared_ptr_default_deleteIS2_NS1_24ScalarwiseRangeInvariantEEE, 
                       __ZTSNSt3__110shared_ptrIN2gc17BindableInvariantEE27__shared_ptr_default_deleteIS2_NS1_26FunctionOfElementInvariantEEE, 
                       __ZTSNSt3__110shared_ptrIN2gc17IntrinsicFunctionEE27__shared_ptr_default_deleteIS2_S2_EE, 
                       __ZTSNSt3__110shared_ptrIN2gc17ScheduleTraitImplEE27__shared_ptr_default_deleteIS2_NS1_22TypedScheduleTraitImplI17loopkit_rt_type_tEEEE, 
                       __ZTSNSt3__110shared_ptrIN2gc17ScheduleTraitImplEE27__shared_ptr_default_deleteIS2_NS1_22TypedScheduleTraitImplINS1_11eTargetASANEEEEE, 
                       __ZTSNSt3__110shared_ptrIN2gc17ScheduleTraitImplEE27__shared_ptr_default_deleteIS2_NS1_22TypedScheduleTraitImplINS1_12eParallelismEEEEE, 
                       __ZTSNSt3__110shared_ptrIN2gc17ScheduleTraitImplEE27__shared_ptr_default_deleteIS2_NS1_22TypedScheduleTraitImplINS1_12eTargetDebugEEEEE, 
                       __ZTSNSt3__110shared_ptrIN2gc17ScheduleTraitImplEE27__shared_ptr_default_deleteIS2_NS1_22TypedScheduleTraitImplINS1_13eCustomKernelEEEEE, 
                       __ZTSNSt3__110shared_ptrIN2gc17ScheduleTraitImplEE27__shared_ptr_default_deleteIS2_NS1_22TypedScheduleTraitImplINS1_13eKernelFusionEEEEE, 
                       __ZTSNSt3__110shared_ptrIN2gc17ScheduleTraitImplEE27__shared_ptr_default_deleteIS2_NS1_22TypedScheduleTraitImplINS1_13eTargetAssertEEEEE, 
                       __ZTSNSt3__110shared_ptrIN2gc17ScheduleTraitImplEE27__shared_ptr_default_deleteIS2_NS1_22TypedScheduleTraitImplINS1_13eTargetDeviceEEEEE, 
                       __ZTSNSt3__110shared_ptrIN2gc17ScheduleTraitImplEE27__shared_ptr_default_deleteIS2_NS1_22TypedScheduleTraitImplINS1_16eTargetProfilingEEEEE, 
                       __ZTSNSt3__110shared_ptrIN2gc17ScheduleTraitImplEE27__shared_ptr_default_deleteIS2_NS1_22TypedScheduleTraitImplINS1_16eTargetSignpostsEEEEE, 
                       __ZTSNSt3__110shared_ptrIN2gc17ScheduleTraitImplEE27__shared_ptr_default_deleteIS2_NS1_22TypedScheduleTraitImplINS1_3est13eJacobianTypeEEEEE, 
                       __ZTSNSt3__110shared_ptrIN2gc22OpaqueBindableArgumentEE27__shared_ptr_default_deleteIS2_NS1_16BindableArgumentINS1_4lang3est11BlockMatrixEEEEE, 
                       __ZTSNSt3__110shared_ptrIN2gc22OpaqueBindableArgumentEE27__shared_ptr_default_deleteIS2_NS1_16BindableArgumentINS1_4lang3est11VariableSetEEEEE, 
                       __ZTSNSt3__110shared_ptrIN2gc22OpaqueBindableArgumentEE27__shared_ptr_default_deleteIS2_NS1_16BindableArgumentINS1_4lang3est12CostFunctionEEEEE, 
                       __ZTSNSt3__110shared_ptrIN2gc22OpaqueBindableArgumentEE27__shared_ptr_default_deleteIS2_NS1_16BindableArgumentINS1_4lang3est14FactorOrderingEEEEE, 
                       __ZTSNSt3__110shared_ptrIN2gc22OpaqueBindableArgumentEE27__shared_ptr_default_deleteIS2_NS1_16BindableArgumentINS1_4lang3est6FactorEEEEE, 
                       __ZTSNSt3__110shared_ptrIN2gc22OpaqueBindableArgumentEE27__shared_ptr_default_deleteIS2_NS1_16BindableArgumentINS1_4lang3est8VariableEEEEE, 
                       __ZTSNSt3__110shared_ptrIN2gc22OpaqueBindableArgumentEE27__shared_ptr_default_deleteIS2_NS1_16BindableArgumentINS1_4lang5ArrayINS6_6BufferEEEEEEE, 
                       __ZTSNSt3__110shared_ptrIN2gc22OpaqueBindableArgumentEE27__shared_ptr_default_deleteIS2_NS1_16BindableArgumentINS1_4lang6BufferEEEEE, 
                       __ZTSNSt3__110shared_ptrIN2gc3est10NoiseModelEE27__shared_ptr_default_deleteIS3_NS2_21StandardGaussianNoiseEEE, 
                       __ZTSNSt3__110shared_ptrIN2gc3est10NoiseModelEE27__shared_ptr_default_deleteIS3_NS2_22IsotropicGaussianNoiseEEE, 
                       __ZTSNSt3__110shared_ptrIN2gc3est10NoiseModelEE27__shared_ptr_default_deleteIS3_NS2_24AnisotropicGaussianNoiseEEE, 
                       __ZTSNSt3__110shared_ptrIN2gc3est11BlockMatrixEE27__shared_ptr_default_deleteIS3_NS2_16DenseBlockMatrixEEE, 
                       __ZTSNSt3__110shared_ptrIN2gc3est11BlockMatrixEE27__shared_ptr_default_deleteIS3_NS2_20BitmappedBlockMatrixEEE, 
                       __ZTSNSt3__110shared_ptrIN2gc3est11BlockMatrixEE27__shared_ptr_default_deleteIS3_NS2_24CompressedRowBlockMatrixEEE, 
                       __ZTSNSt3__110shared_ptrIN2gc3est11FactorGraphEE27__shared_ptr_default_deleteIS3_S3_EE, 
                       __ZTSNSt3__110shared_ptrIN2gc3est11TypedFactorILNS2_11eFactorTypeE1EEEE27__shared_ptr_default_deleteIS5_S5_EE, 
                       __ZTSNSt3__110shared_ptrIN2gc3est12LinearSolverEE27__shared_ptr_default_deleteIS3_NS2_14TypedPCGSolverINS2_33ExplicitHessianLinearizationPointEEEEE, 
                       __ZTSNSt3__110shared_ptrIN2gc3est12LinearSolverEE27__shared_ptr_default_deleteIS3_NS2_14TypedPCGSolverINS2_33ImplicitHessianLinearizationPointEEEEE, 
                       __ZTSNSt3__110shared_ptrIN2gc3est12LinearSolverEE27__shared_ptr_default_deleteIS3_NS2_15DenseLDLTSolverEEE, 
                       __ZTSNSt3__110shared_ptrIN2gc3est12LinearSolverEE27__shared_ptr_default_deleteIS3_NS2_16SparseLDLTSolverEEE, 
                       __ZTSNSt3__110shared_ptrIN2gc3est13BlockOrderingEE27__shared_ptr_default_deleteIS3_S3_EE, 
                       __ZTSNSt3__110shared_ptrIN2gc3est13FactorBuffersEE27__shared_ptr_default_deleteIS3_NS2_18BasicFactorBuffersEEE, 
                       __ZTSNSt3__110shared_ptrIN2gc3est13FactorBuffersEE27__shared_ptr_default_deleteIS3_NS2_21VariadicFactorBuffersEEE, 
                       __ZTSNSt3__110shared_ptrIN2gc3est13TypedBoxMinusINS1_4lang6VectorENS4_3SE3EEEE27__shared_ptr_default_deleteIS7_S7_EE, 
                       __ZTSNSt3__110shared_ptrIN2gc3est13TypedBoxMinusINS1_4lang6VectorENS4_3SO3EEEE27__shared_ptr_default_deleteIS7_S7_EE, 
                       __ZTSNSt3__110shared_ptrIN2gc3est13VariableGroupEE27__shared_ptr_default_deleteIS3_S3_EE, 
                       __ZTSNSt3__110shared_ptrIN2gc3est14FactorOrderingEE27__shared_ptr_default_deleteIS3_NS2_19BasicFactorOrderingEEE, 
                       __ZTSNSt3__110shared_ptrIN2gc3est14FactorOrderingEE27__shared_ptr_default_deleteIS3_NS2_22VariadicFactorOrderingEEE, 
                       __ZTSNSt3__110shared_ptrIN2gc3est14PreconditionerEE27__shared_ptr_default_deleteIS3_NS2_53ExplicitHessianLinearizationPointJacobiPreconditionerEEE, 
                       __ZTSNSt3__110shared_ptrIN2gc3est14PreconditionerEE27__shared_ptr_default_deleteIS3_NS2_53ImplicitHessianLinearizationPointJacobiPreconditionerEEE, 
                       __ZTSNSt3__110shared_ptrIN2gc3est14PreconditionerEE27__shared_ptr_default_deleteIS3_NS2_58ExplicitHessianLinearizationPointBlockJacobiPreconditionerEEE, 
                       __ZTSNSt3__110shared_ptrIN2gc3est14PreconditionerEE27__shared_ptr_default_deleteIS3_NS2_58ImplicitHessianLinearizationPointBlockJacobiPreconditionerEEE, 
                       __ZTSNSt3__110shared_ptrIN2gc3est15FactorJacobiansEE27__shared_ptr_default_deleteIS3_S3_EE, 
                       __ZTSNSt3__110shared_ptrIN2gc3est18TypedModelFunctionINS1_4lang3SE3EJRKS5_EEEE27__shared_ptr_default_deleteIS8_S8_EE, 
                       __ZTSNSt3__110shared_ptrIN2gc3est18TypedModelFunctionINS1_4lang3SO3EJRKS5_EEEE27__shared_ptr_default_deleteIS8_S8_EE, 
                       __ZTSNSt3__110shared_ptrIN2gc3est18TypedModelFunctionINS1_4lang6ScalarEJRKS5_EEEE27__shared_ptr_default_deleteIS8_S8_EE, 
                       __ZTSNSt3__110shared_ptrIN2gc3est18TypedModelFunctionINS1_4lang6VectorEJRKS5_EEEE27__shared_ptr_default_deleteIS8_S8_EE, 
                       __ZTSNSt3__110shared_ptrIN2gc3est19TrustRegionStrategyEE27__shared_ptr_default_deleteIS3_NS2_51ExplicitHessianLinearizationPointLevenbergMarquardtEEE, 
                       __ZTSNSt3__110shared_ptrIN2gc3est19TrustRegionStrategyEE27__shared_ptr_default_deleteIS3_NS2_51ImplicitHessianLinearizationPointLevenbergMarquardtEEE, 
                       __ZTSNSt3__110shared_ptrIN2gc3est20TrustRegionMinimizerEE27__shared_ptr_default_deleteIS3_S3_EE, 
                       __ZTSNSt3__110shared_ptrIN2gc3est22ModelErrorCostFunctionEE27__shared_ptr_default_deleteIS3_S3_EE, 
                       __ZTSNSt3__110shared_ptrIN2gc3est24LeastSquaresCostFunctionEE27__shared_ptr_default_deleteIS3_S3_EE, 
                       __ZTSNSt3__110shared_ptrIN2gc3est26L2LeastSquaresLossFunctionEE27__shared_ptr_default_deleteIS3_S3_EE, 
                       __ZTSNSt3__110shared_ptrIN2gc3est29TypedLeastSquaresLossFunctionIJNS1_4lang6ScalarEEEEE27__shared_ptr_default_deleteIS6_S6_EE, 
                       __ZTSNSt3__110shared_ptrIN2gc3est32BatchGradientsLinearizationPointEE27__shared_ptr_default_deleteIS3_S3_EE, 
                       __ZTSNSt3__110shared_ptrIN2gc3est33ExplicitHessianLinearizationPointEE27__shared_ptr_default_deleteIS3_S3_EE, 
                       __ZTSNSt3__110shared_ptrIN2gc3est33ImplicitHessianLinearizationPointEE27__shared_ptr_default_deleteIS3_S3_EE, 
                       __ZTSNSt3__110shared_ptrIN2gc3est4AdamEE27__shared_ptr_default_deleteIS3_S3_EE, 
                       __ZTSNSt3__110shared_ptrIN2gc3est6FactorEE27__shared_ptr_default_deleteIS3_S3_EE, 
                       __ZTSNSt3__110shared_ptrIN2gc3est7ProblemEE27__shared_ptr_default_deleteIS3_S3_EE, 
                       __ZTSNSt3__110shared_ptrIN2gc3est8BoxMinusEE27__shared_ptr_default_deleteIS3_S3_EE, 
                       __ZTSNSt3__110shared_ptrIN2gc3est8VariableEE27__shared_ptr_default_deleteIS3_NS2_3SE3EEE, 
                       __ZTSNSt3__110shared_ptrIN2gc3est8VariableEE27__shared_ptr_default_deleteIS3_NS2_3SO3EEE, 
                       __ZTSNSt3__110shared_ptrIN2gc3est8VariableEE27__shared_ptr_default_deleteIS3_NS2_6ScalarEEE, 
                       __ZTSNSt3__110shared_ptrIN2gc3est8VariableEE27__shared_ptr_default_deleteIS3_NS2_6VectorEEE, 
                       __ZTSNSt3__110shared_ptrIN2gc3ops6detail22FunctionReturnTypeImplEE27__shared_ptr_default_deleteIS4_NS3_27TypedFunctionReturnTypeImplILm0EEEEE, 
                       __ZTSNSt3__110shared_ptrIN2gc3ops6detail22FunctionReturnTypeImplEE27__shared_ptr_default_deleteIS4_NS3_27TypedFunctionReturnTypeImplILm1EEEEE, 
                       __ZTSNSt3__110shared_ptrIN2gc4TileEE27__shared_ptr_default_deleteIS2_S2_EE, 
                       __ZTSNSt3__110shared_ptrIN2gc4lang3est18FactorOrderingImplEE27__shared_ptr_default_deleteIS4_NS3_19BasicFactorOrderingEEE, 
                       __ZTSNSt3__110shared_ptrIN2gc4lang3est18FactorOrderingImplEE27__shared_ptr_default_deleteIS4_NS3_22VariadicFactorOrderingEEE, 
                       __ZTSNSt3__110shared_ptrIN2gc4lang4simd11MatMultPlanEE27__shared_ptr_default_deleteIS4_NS3_15SIMDMatMultPlanEEE, 
                       __ZTSNSt3__110shared_ptrIN2gc4lang4simd11MatMultPlanEE27__shared_ptr_default_deleteIS4_NS3_18GeneralMatMultPlanEEE, 
                       __ZTSNSt3__110shared_ptrIN2gc4lang4simd11MatMultPlanEE27__shared_ptr_default_deleteIS4_NS3_21SIMDLargeKMatMultPlanEEE, 
                       __ZTSNSt3__110shared_ptrIN2gc4lang4simd11MatMultPlanEE27__shared_ptr_default_deleteIS4_NS3_21SIMDSmallKMatMultPlanEEE, 
                       __ZTSNSt3__110shared_ptrIN2gc4lang4simd18InnerProductMatrixEE27__shared_ptr_default_deleteIS4_NS3_22SIMDInnerProductMatrixEEE, 
                       __ZTSNSt3__110shared_ptrIN2gc4lang4simd18InnerProductMatrixEE27__shared_ptr_default_deleteIS4_NS3_25GeneralInnerProductMatrixEEE, 
                       __ZTSNSt3__110shared_ptrIN2gc4lang4simd18InnerProductMatrixEE27__shared_ptr_default_deleteIS4_NS3_28SIMDCachedInnerProductMatrixEEE, 
                       __ZTSNSt3__110shared_ptrIN2gc4lang4simd23InnerProductAccumulatorEE27__shared_ptr_default_deleteIS4_NS3_27SIMDInnerProductAccumulatorEEE, 
                       __ZTSNSt3__110shared_ptrIN2gc4lang4simd23InnerProductAccumulatorEE27__shared_ptr_default_deleteIS4_NS3_29LargeKInnerProductAccumulatorEEE, 
                       __ZTSNSt3__110shared_ptrIN2gc4lang4simd23InnerProductAccumulatorEE27__shared_ptr_default_deleteIS4_NS3_29SmallKInnerProductAccumulatorEEE, 
                       __ZTSNSt3__110shared_ptrIN2gc4lang4simd23InnerProductAccumulatorEE27__shared_ptr_default_deleteIS4_NS3_30GeneralInnerProductAccumulatorEEE, 
                       __ZTSNSt3__110shared_ptrIN2gc5RangeEE27__shared_ptr_default_deleteIS2_S2_EE, 
                       __ZTSNSt3__110shared_ptrIN2gc6BufferEE27__shared_ptr_default_deleteIS2_S2_EE, 
                       __ZTSNSt3__110shared_ptrIN2gc6KernelEE27__shared_ptr_default_deleteIS2_NS1_11TypedKernelINS1_4lang4TileEJEEEEE, 
                       __ZTSNSt3__110shared_ptrIN2gc6KernelEE27__shared_ptr_default_deleteIS2_NS1_11TypedKernelINS1_4lang4TileEJNS6_3est13BlockOrderingENS8_14FactorOrderingERNS8_8JacobianERNS8_11BlockMatrixEEEEEE, 
                       __ZTSNSt3__110shared_ptrIN2gc6KernelEE27__shared_ptr_default_deleteIS2_NS1_11TypedKernelINS1_4lang4TileEJNS6_3est13BlockOrderingENS8_14FactorOrderingESA_RNS8_11JacobianSetERNS8_11BlockMatrixEEEEEE, 
                       __ZTSNSt3__110shared_ptrIN2gc6KernelEE27__shared_ptr_default_deleteIS2_NS1_11TypedKernelINS1_4lang4TileEJNS6_3est14FactorOrderingENS8_6FactorENS8_11VariableSetENS6_6ScalarERNS6_6BufferEEEEEE, 
                       __ZTSNSt3__110shared_ptrIN2gc6KernelEE27__shared_ptr_default_deleteIS2_NS1_11TypedKernelINS1_4lang4TileEJNS6_3est14FactorOrderingERNS8_8JacobianENS6_6BufferESC_EEEEE, 
                       __ZTSNSt3__110shared_ptrIN2gc6KernelEE27__shared_ptr_default_deleteIS2_NS1_11TypedKernelINS1_4lang4TileEJNS6_3est6FactorENS6_6BufferENS6_5ArrayINS8_14FactorOrderingEEENS8_11VariableSetENSB_ISA_EESF_EEEEE, 
                       __ZTSNSt3__110shared_ptrIN2gc6KernelEE27__shared_ptr_default_deleteIS2_NS1_11TypedKernelINS1_4lang4TileEJNS6_3est6FactorENS8_11VariableSetENS6_6BufferEEEEEE, 
                       __ZTSNSt3__110shared_ptrIN2gc6KernelEE27__shared_ptr_default_deleteIS2_NS1_11TypedKernelINS1_4lang4TileEJNS6_3est6FactorENS8_11VariableSetENS6_6BufferESB_EEEEE, 
                       __ZTSNSt3__110shared_ptrIN2gc6KernelEE27__shared_ptr_default_deleteIS2_NS1_11TypedKernelINS1_4lang4TileEJNS6_3est8VariableEEEEEE, 
                       __ZTSNSt3__110shared_ptrIN2gc6KernelEE27__shared_ptr_default_deleteIS2_NS1_11TypedKernelINS1_4lang4TileEJNS6_3est8VariableENS6_6ScalarEEEEEE, 
                       __ZTSNSt3__110shared_ptrIN2gc6KernelEE27__shared_ptr_default_deleteIS2_NS1_11TypedKernelINS1_4lang4TileEJNS6_5ArrayINS6_6BufferEEESA_EEEEE, 
                       __ZTSNSt3__110shared_ptrIN2gc6KernelEE27__shared_ptr_default_deleteIS2_NS1_11TypedKernelINS1_4lang4TileEJNS6_6BufferEEEEEE, 
                       __ZTSNSt3__110shared_ptrIN2gc6KernelEE27__shared_ptr_default_deleteIS2_NS1_11TypedKernelINS1_4lang4TileEJNS6_6BufferENS6_3est6FactorERNS9_11JacobianSetENS6_5ArrayIS8_EENSD_INS9_14FactorOrderingEEERNS9_16BlockMatrixArrayESE_EEEEE, 
                       __ZTSNSt3__110shared_ptrIN2gc6KernelEE27__shared_ptr_default_deleteIS2_NS1_11TypedKernelINS1_4lang4TileEJNS6_6BufferENS6_3est8VariableEEEEEE, 
                       __ZTSNSt3__110shared_ptrIN2gc6KernelEE27__shared_ptr_default_deleteIS2_NS1_11TypedKernelINS1_4lang4TileEJNS6_6BufferENS6_5ArrayINS6_3est8VariableEEEEEEEE, 
                       __ZTSNSt3__110shared_ptrIN2gc6KernelEE27__shared_ptr_default_deleteIS2_NS1_11TypedKernelINS1_4lang4TileEJNS6_6BufferENS6_5ArrayIS8_EESA_NS6_3est6FactorERNSB_14FactorOrderingENSB_22SchurEliminatedHessianES8_EEEEE, 
                       __ZTSNSt3__110shared_ptrIN2gc6KernelEE27__shared_ptr_default_deleteIS2_NS1_11TypedKernelINS1_4lang4TileEJNS6_6BufferENS6_6ScalarES8_EEEEE, 
                       __ZTSNSt3__110shared_ptrIN2gc6KernelEE27__shared_ptr_default_deleteIS2_NS1_11TypedKernelINS1_4lang4TileEJNS6_6BufferENS6_6ScalarES8_S8_EEEEE, 
                       __ZTSNSt3__110shared_ptrIN2gc6KernelEE27__shared_ptr_default_deleteIS2_NS1_11TypedKernelINS1_4lang4TileEJNS6_6BufferENS6_6ScalarES9_S9_S9_S9_S8_S8_S8_EEEEE, 
                       __ZTSNSt3__110shared_ptrIN2gc6KernelEE27__shared_ptr_default_deleteIS2_NS1_11TypedKernelINS1_4lang4TileEJNS6_6BufferERNS6_3est8JacobianENS9_14FactorOrderingENS6_6ScalarES8_S8_EEEEE, 
                       __ZTSNSt3__110shared_ptrIN2gc6KernelEE27__shared_ptr_default_deleteIS2_NS1_11TypedKernelINS1_4lang4TileEJNS6_6BufferERNS6_3est8JacobianENS9_14FactorOrderingES8_S8_S8_S8_S8_EEEEE, 
                       __ZTSNSt3__110shared_ptrIN2gc6KernelEE27__shared_ptr_default_deleteIS2_NS1_11TypedKernelINS1_4lang4TileEJNS6_6BufferERNS6_3est8JacobianENS9_6FactorERNS9_11JacobianSetERNS9_14FactorOrderingES8_NS6_5ArrayIS8_EENSH_ISF_EERNS6_6ScalarERNS9_16BlockMatrixArrayENS9_22SchurEliminatedHessianESI_S8_S8_EEEEE, 
                       __ZTSNSt3__110shared_ptrIN2gc6KernelEE27__shared_ptr_default_deleteIS2_NS1_11TypedKernelINS1_4lang4TileEJNS6_6BufferERNS6_3est8JacobianES8_S8_EEEEE, 
                       __ZTSNSt3__110shared_ptrIN2gc6KernelEE27__shared_ptr_default_deleteIS2_NS1_11TypedKernelINS1_4lang4TileEJNS6_6BufferES8_EEEEE, 
                       __ZTSNSt3__110shared_ptrIN2gc6KernelEE27__shared_ptr_default_deleteIS2_NS1_11TypedKernelINS1_4lang4TileEJNS6_6BufferES8_NS6_5ArrayINS6_3est8VariableEEEEEEEE, 
                       __ZTSNSt3__110shared_ptrIN2gc6KernelEE27__shared_ptr_default_deleteIS2_NS1_11TypedKernelINS1_4lang4TileEJNS6_6BufferES8_RNS6_3est8JacobianES8_S8_EEEEE, 
                       __ZTSNSt3__110shared_ptrIN2gc6KernelEE27__shared_ptr_default_deleteIS2_NS1_11TypedKernelINS1_4lang4TileEJNS6_6BufferES8_S8_EEEEE, 
                       __ZTSNSt3__110shared_ptrIN2gc6KernelEE27__shared_ptr_default_deleteIS2_NS1_11TypedKernelINS1_4lang4TileEJNS6_6BufferES8_S8_S8_EEEEE, 
                       __ZTSNSt3__110shared_ptrIN2gc6KernelEE27__shared_ptr_default_deleteIS2_NS1_11TypedKernelINS1_4lang4TileEJNS6_6BufferES8_S8_S8_S8_S8_S8_EEEEE, 
                       __ZTSNSt3__110shared_ptrIN2gc6KernelEE27__shared_ptr_default_deleteIS2_NS1_11TypedKernelINS1_4lang4TileEJNS6_6ScalarENS6_6BufferES9_EEEEE, 
                       __ZTSNSt3__110shared_ptrIN2gc6KernelEE27__shared_ptr_default_deleteIS2_NS1_11TypedKernelINS1_4lang4TileEJNS6_6ScalarERNS6_3est11BlockMatrixEEEEEE, 
                       __ZTSNSt3__110shared_ptrIN2gc6KernelEE27__shared_ptr_default_deleteIS2_NS1_11TypedKernelINS1_4lang4TileEJRNS6_3est11BlockMatrixEEEEEE, 
                       __ZTSNSt3__110shared_ptrIN2gc6KernelEE27__shared_ptr_default_deleteIS2_NS1_11TypedKernelINS1_4lang4TileEJRNS6_3est11BlockMatrixENS6_6BufferESB_EEEEE, 
                       __ZTSNSt3__110shared_ptrIN2gc6KernelEE27__shared_ptr_default_deleteIS2_NS1_11TypedKernelINS1_4lang4TileEJRNS6_3est11BlockMatrixENS6_6BufferESB_SB_EEEEE, 
                       __ZTSNSt3__110shared_ptrIN2gc6KernelEE27__shared_ptr_default_deleteIS2_NS1_11TypedKernelINS1_4lang4TileEJRNS6_3est11BlockMatrixENS6_6BufferESB_SB_RSB_EEEEE, 
                       __ZTSNSt3__110shared_ptrIN2gc6KernelEE27__shared_ptr_default_deleteIS2_NS1_11TypedKernelINS1_4lang4TileEJRNS6_3est11JacobianSetENS6_5ArrayINS8_14FactorOrderingEEENSB_INS6_6BufferEEESF_SE_EEEEE, 
                       __ZTSNSt3__110shared_ptrIN2gc6KernelEE27__shared_ptr_default_deleteIS2_NS1_11TypedKernelINS1_4lang4TileEJRNS6_3est14FactorOrderingENS6_6BufferERNS8_8JacobianESB_SB_EEEEE, 
                       __ZTSNSt3__110shared_ptrIN2gc6KernelEE27__shared_ptr_default_deleteIS2_NS1_11TypedKernelINS1_4lang4TileEJRNS6_3est14FactorOrderingERNS8_8JacobianENS6_6BufferERSD_EEEEE, 
                       __ZTSNSt3__110shared_ptrIN2gc6KernelEE27__shared_ptr_default_deleteIS2_NS1_11TypedKernelINS1_4lang4TileEJRNS6_3est14FactorOrderingERNS8_8JacobianENS6_6BufferESD_EEEEE, 
                       __ZTSNSt3__110shared_ptrIN2gc6KernelEE27__shared_ptr_default_deleteIS2_NS1_11TypedKernelINS1_4lang4TileEJRNS6_3est14FactorOrderingERNS8_8JacobianENS6_6BufferESD_SD_EEEEE, 
                       __ZTSNSt3__110shared_ptrIN2gc6KernelEE27__shared_ptr_default_deleteIS2_NS1_11TypedKernelINS1_4lang4TileEJRNS6_3est8JacobianENS6_6BufferESB_EEEEE, 
                       __ZTSNSt3__110shared_ptrIN2gc6KernelEE27__shared_ptr_default_deleteIS2_NS1_11TypedKernelINS1_4lang4TileEJRNS6_3est8JacobianENS6_6BufferESB_SB_EEEEE, 
                       __ZTSNSt3__110shared_ptrIN2gc6KernelEE27__shared_ptr_default_deleteIS2_NS1_11TypedKernelINS1_4lang4TileEJRNS6_3est8JacobianENS6_6BufferESB_SB_RSB_EEEEE, 
                       __ZTSNSt3__110shared_ptrIN2gc6KernelEE27__shared_ptr_default_deleteIS2_NS1_11TypedKernelINS1_4lang4TileEJRNS6_3est8JacobianENS6_6BufferESB_SB_SB_EEEEE, 
                       __ZTSNSt3__110shared_ptrIN2gc6KernelEE27__shared_ptr_default_deleteIS2_NS1_11TypedKernelINS1_4lang4TileEJRNS6_3est8JacobianENS6_6BufferESB_SB_SB_SB_EEEEE, 
                       __ZTSNSt3__110shared_ptrIN2gc6KernelEE27__shared_ptr_default_deleteIS2_NS1_11TypedKernelINS1_4lang4TileEJRNS6_3est8JacobianENS8_14FactorOrderingENS6_6BufferESC_EEEEE, 
                       __ZTSNSt3__110shared_ptrIN2gc6KernelEE27__shared_ptr_default_deleteIS2_NS1_11TypedKernelINS1_4lang4TileEJRNS6_3est8JacobianENS8_14FactorOrderingENS6_6BufferESC_SC_EEEEE, 
                       __ZTSNSt3__110shared_ptrIN2gc6KernelEE27__shared_ptr_default_deleteIS2_NS1_11TypedKernelINS1_4lang4TileEJRNS6_3est8JacobianENS8_14FactorOrderingENS6_6BufferESC_SC_SC_EEEEE, 
                       __ZTSNSt3__110shared_ptrIN2gc6KernelEE27__shared_ptr_default_deleteIS2_NS1_11TypedKernelINS1_4lang4TileEJRNS6_3est8JacobianENS8_14FactorOrderingESB_NS6_6BufferESC_SC_SC_SC_SC_EEEEE, 
                       __ZTSNSt3__110shared_ptrIN2gc6ObjectEE27__shared_ptr_default_deleteIS2_NS1_11TypedObjectILNS1_11eObjectTypeE1EEEEE, 
                       __ZTSNSt3__110shared_ptrIN2gc6ScalarEE27__shared_ptr_default_deleteIS2_S2_EE, 
                       __ZTSNSt3__110shared_ptrIN2gc6VectorEE27__shared_ptr_default_deleteIS2_S2_EE, 
                       __ZTSNSt3__110shared_ptrIN2gc7LibraryEE27__shared_ptr_default_deleteIS2_S2_EE, 
                       __ZTSNSt3__110shared_ptrIN2gc7ProgramEE27__shared_ptr_default_deleteIS2_S2_EE, 
                       __ZTSNSt3__110shared_ptrIN2gc8PipelineEE27__shared_ptr_default_deleteIS2_S2_EE, 
                       __ZTSNSt3__110shared_ptrIN2gc8RangeMapEE27__shared_ptr_default_deleteIS2_NS1_18IncreasingRangeMapEEE, 
                       __ZTSNSt3__110shared_ptrIN2gc9GeneratorEE27__shared_ptr_default_deleteIS2_NS1_16DefaultGeneratorEEE, 
                       __ZTSNSt3__110shared_ptrIN2gc9GeneratorEE27__shared_ptr_default_deleteIS2_NS1_3est10EvaluateHpEEE, 
                       __ZTSNSt3__110shared_ptrIN2gc9GeneratorEE27__shared_ptr_default_deleteIS2_NS1_3est10EvaluateJpEEE, 
                       __ZTSNSt3__110shared_ptrIN2gc9GeneratorEE27__shared_ptr_default_deleteIS2_NS1_3est11EvaluateJtJEEE, 
                       __ZTSNSt3__110shared_ptrIN2gc9GeneratorEE27__shared_ptr_default_deleteIS2_NS1_3est11EvaluateJteEEE, 
                       __ZTSNSt3__110shared_ptrIN2gc9GeneratorEE27__shared_ptr_default_deleteIS2_NS1_3est11PCGIterate1EEE, 
                       __ZTSNSt3__110shared_ptrIN2gc9GeneratorEE27__shared_ptr_default_deleteIS2_NS1_3est11PCGIterate2EEE, 
                       __ZTSNSt3__110shared_ptrIN2gc9GeneratorEE27__shared_ptr_default_deleteIS2_NS1_3est12EvaluateJtJpEEE, 
                       __ZTSNSt3__110shared_ptrIN2gc9GeneratorEE27__shared_ptr_default_deleteIS2_NS1_3est12InvertBlockMEEE, 
                       __ZTSNSt3__110shared_ptrIN2gc9GeneratorEE27__shared_ptr_default_deleteIS2_NS1_3est14EvaluateBlockMEEE, 
                       __ZTSNSt3__110shared_ptrIN2gc9GeneratorEE27__shared_ptr_default_deleteIS2_NS1_3est14ExtractDiagJtJEEE, 
                       __ZTSNSt3__110shared_ptrIN2gc9GeneratorEE27__shared_ptr_default_deleteIS2_NS1_3est14SchurLinearizeEEE, 
                       __ZTSNSt3__110shared_ptrIN2gc9GeneratorEE27__shared_ptr_default_deleteIS2_NS1_3est17SymmetrizeDiagJtJEEE, 
                       __ZTSNSt3__110shared_ptrIN2gc9GeneratorEE27__shared_ptr_default_deleteIS2_NS1_3est18ImplicitSchurJtJp1EEE, 
                       __ZTSNSt3__110shared_ptrIN2gc9GeneratorEE27__shared_ptr_default_deleteIS2_NS1_3est18ImplicitSchurJtJp2EEE, 
                       __ZTSNSt3__110shared_ptrIN2gc9GeneratorEE27__shared_ptr_default_deleteIS2_NS1_3est20MaterializeJacobiansEEE, 
                       __ZTSNSt3__110shared_ptrIN2gc9GeneratorEE27__shared_ptr_default_deleteIS2_NS1_3est20SchurBackSubstitute1EEE, 
                       __ZTSNSt3__110shared_ptrIN2gc9GeneratorEE27__shared_ptr_default_deleteIS2_NS1_3est20SchurBackSubstitute2EEE, 
                       __ZTSNSt3__110shared_ptrIN2gc9GeneratorEE27__shared_ptr_default_deleteIS2_NS1_3est22EvaluateBatchGradientsEEE, 
                       __ZTSNSt3__110shared_ptrIN2gc9GeneratorEE27__shared_ptr_default_deleteIS2_NS1_3est24ImplicitSchurInitialize1EEE, 
                       __ZTSNSt3__110shared_ptrIN2gc9GeneratorEE27__shared_ptr_default_deleteIS2_NS1_3est24ImplicitSchurInitialize2EEE, 
                       __ZTSNSt3__110shared_ptrIN2gc9GeneratorEE27__shared_ptr_default_deleteIS2_NS1_3est24ImplicitSchurInitialize3EEE, 
                       __ZTSNSt3__110shared_ptrIN2gc9GeneratorEE27__shared_ptr_default_deleteIS2_NS1_3est25ApplyJacobiPreconditionerEEE, 
                       __ZTSNSt3__110shared_ptrIN2gc9GeneratorEE27__shared_ptr_default_deleteIS2_NS1_3est28ImplicitSchurBackSubstitute1EEE, 
                       __ZTSNSt3__110shared_ptrIN2gc9GeneratorEE27__shared_ptr_default_deleteIS2_NS1_3est28ImplicitSchurBackSubstitute2EEE, 
                       __ZTSNSt3__110shared_ptrIN2gc9GeneratorEE27__shared_ptr_default_deleteIS2_NS1_3est30ApplyAdditiveLMDampingExplicitEEE, 
                       __ZTSNSt3__110shared_ptrIN2gc9GeneratorEE27__shared_ptr_default_deleteIS2_NS1_3est30ApplyAdditiveLMDampingImplicitEEE, 
                       __ZTSNSt3__110shared_ptrIN2gc9GeneratorEE27__shared_ptr_default_deleteIS2_NS1_3est30ApplyBlockJacobiPreconditionerEEE, 
                       __ZTSNSt3__110shared_ptrIN2gc9GeneratorEE27__shared_ptr_default_deleteIS2_NS1_3est33ApplyAdditiveLMDampingToDiagonalsEEE, 
                       __ZTSNSt3__110shared_ptrIN2gc9GeneratorEE27__shared_ptr_default_deleteIS2_NS1_3est36ApplyMultiplicativeLMDampingExplicitEEE, 
                       __ZTSNSt3__110shared_ptrIN2gc9GeneratorEE27__shared_ptr_default_deleteIS2_NS1_3est36ApplyMultiplicativeLMDampingImplicitEEE, 
                       __ZTSNSt3__110shared_ptrIN2gc9GeneratorEE27__shared_ptr_default_deleteIS2_NS1_3est39ApplyMultiplicativeLMDampingToDiagonalsEEE, 
                       __ZTSNSt3__110shared_ptrIN2gc9GeneratorEE27__shared_ptr_default_deleteIS2_NS1_3est7InvertMEEE, 
                       __ZTSNSt3__110shared_ptrIN2gc9GeneratorEE27__shared_ptr_default_deleteIS2_NS1_3ops11OpGeneratorEEE, 
                       __ZTSNSt3__117bad_function_callE, __ZTSNSt3__120__shared_ptr_emplaceIN2gc10FileTargetENS_9allocatorIS2_EEEE, 
                       __ZTSNSt3__120__shared_ptr_emplaceIN2gc11OsLogTargetENS_9allocatorIS2_EEEE, 
                       __ZTSNSt3__120__shared_ptr_emplaceIN2gc13ConsoleTargetENS_9allocatorIS2_EEEE, 
                       __ZTSNSt3__120__shared_ptr_emplaceIN2gc14ScheduleTraitsENS_9allocatorIS2_EEEE, 
                       __ZTSNSt3__120__shared_ptr_emplaceIN2gc3est15FactorGradientsENS_9allocatorIS3_EEEE, 
                       __ZTSNSt3__120__shared_ptr_emplaceIN2gc3ops11AddAssignTTENS_9allocatorIS3_EEEE, 
                       __ZTSNSt3__120__shared_ptr_emplaceIN2gc3ops12PreIncrementENS_9allocatorIS3_EEEE, 
                       __ZTSNSt3__120__shared_ptr_emplaceIN2gc3ops13ScatterUpdateENS_9allocatorIS3_EEEE, 
                       __ZTSNSt3__120__shared_ptr_emplaceIN2gc3ops16AutoDiffBackpropENS_9allocatorIS3_EEEE, 
                       __ZTSNSt3__120__shared_ptr_emplaceIN2gc3ops3AtGENS_9allocatorIS3_EEEE, 
                       __ZTSNSt3__120__shared_ptr_emplaceIN2gc3ops3GBtENS_9allocatorIS3_EEEE, 
                       __ZTSNSt3__120__shared_ptr_emplaceIN2gc3ops4CopyENS_9allocatorIS3_EEEE, 
                       __ZTSNSt3__120__shared_ptr_emplaceIN2gc3ops5SplitENS_9allocatorIS3_EEEE, 
                       __ZTSNSt3__120__shared_ptr_emplaceIN2gc3ops6ConcatENS_9allocatorIS3_EEEE, 
                       __ZTSNSt3__120__shared_ptr_emplaceIN2gc3ops6GatherENS_9allocatorIS3_EEEE, 
                       __ZTSNSt3__120__shared_ptr_emplaceIN2gc3ops6MatMulENS_9allocatorIS3_EEEE, 
                       __ZTSNSt3__120__shared_ptr_emplaceIN2gc3ops6detail12ScatterZerosENS_9allocatorIS4_EEEE, 
                       __ZTSNSt3__120__shared_ptr_emplaceIN2gc3ops6detail9VarAssignENS_9allocatorIS4_EEEE, 
                       __ZTSNSt3__120__shared_ptr_emplaceIN2gc3ops7ScatterENS_9allocatorIS3_EEEE, 
                       __ZTSNSt3__120__shared_ptr_emplaceIN2gc3ops9BroadcastENS_9allocatorIS3_EEEE, 
                       __ZTSNSt3__120__shared_ptr_emplaceIN2gc3ops9TransposeENS_9allocatorIS3_EEEE, 
                       __ZTSNSt3__120__shared_ptr_emplaceIN8nlohmann6detail21output_stream_adapterIcEENS_9allocatorIS4_EEEE, 
                       __ZTSNSt3__120__shared_ptr_pointerIPN2gc11TypedKernelINS1_4lang4TileEJEEENS_10shared_ptrINS1_6KernelEE27__shared_ptr_default_deleteIS8_S5_EENS_9allocatorIS5_EEEE, 
                       __ZTSNSt3__120__shared_ptr_pointerIPN2gc11TypedKernelINS1_4lang4TileEJNS3_3est13BlockOrderingENS5_14FactorOrderingERNS5_8JacobianERNS5_11BlockMatrixEEEENS_10shared_ptrINS1_6KernelEE27__shared_ptr_default_deleteISF_SC_EENS_9allocatorISC_EEEE, 
                       __ZTSNSt3__120__shared_ptr_pointerIPN2gc11TypedKernelINS1_4lang4TileEJNS3_3est13BlockOrderingENS5_14FactorOrderingES7_RNS5_11JacobianSetERNS5_11BlockMatrixEEEENS_10shared_ptrINS1_6KernelEE27__shared_ptr_default_deleteISF_SC_EENS_9allocatorISC_EEEE, 
                       __ZTSNSt3__120__shared_ptr_pointerIPN2gc11TypedKernelINS1_4lang4TileEJNS3_3est14FactorOrderingENS5_6FactorENS5_11VariableSetENS3_6ScalarERNS3_6BufferEEEENS_10shared_ptrINS1_6KernelEE27__shared_ptr_default_deleteISF_SC_EENS_9allocatorISC_EEEE, 
                       __ZTSNSt3__120__shared_ptr_pointerIPN2gc11TypedKernelINS1_4lang4TileEJNS3_3est14FactorOrderingERNS5_8JacobianENS3_6BufferES9_EEENS_10shared_ptrINS1_6KernelEE27__shared_ptr_default_deleteISD_SA_EENS_9allocatorISA_EEEE, 
                       __ZTSNSt3__120__shared_ptr_pointerIPN2gc11TypedKernelINS1_4lang4TileEJNS3_3est6FactorENS3_6BufferENS3_5ArrayINS5_14FactorOrderingEEENS5_11VariableSetENS8_IS7_EESC_EEENS_10shared_ptrINS1_6KernelEE27__shared_ptr_default_deleteISG_SD_EENS_9allocatorISD_EEEE, 
                       __ZTSNSt3__120__shared_ptr_pointerIPN2gc11TypedKernelINS1_4lang4TileEJNS3_3est6FactorENS5_11VariableSetENS3_6BufferEEEENS_10shared_ptrINS1_6KernelEE27__shared_ptr_default_deleteISC_S9_EENS_9allocatorIS9_EEEE, 
                       __ZTSNSt3__120__shared_ptr_pointerIPN2gc11TypedKernelINS1_4lang4TileEJNS3_3est6FactorENS5_11VariableSetENS3_6BufferES8_EEENS_10shared_ptrINS1_6KernelEE27__shared_ptr_default_deleteISC_S9_EENS_9allocatorIS9_EEEE, 
                       __ZTSNSt3__120__shared_ptr_pointerIPN2gc11TypedKernelINS1_4lang4TileEJNS3_3est8VariableEEEENS_10shared_ptrINS1_6KernelEE27__shared_ptr_default_deleteISA_S7_EENS_9allocatorIS7_EEEE, 
                       __ZTSNSt3__120__shared_ptr_pointerIPN2gc11TypedKernelINS1_4lang4TileEJNS3_3est8VariableENS3_6ScalarEEEENS_10shared_ptrINS1_6KernelEE27__shared_ptr_default_deleteISB_S8_EENS_9allocatorIS8_EEEE, 
                       __ZTSNSt3__120__shared_ptr_pointerIPN2gc11TypedKernelINS1_4lang4TileEJNS3_5ArrayINS3_6BufferEEES7_EEENS_10shared_ptrINS1_6KernelEE27__shared_ptr_default_deleteISB_S8_EENS_9allocatorIS8_EEEE, 
                       __ZTSNSt3__120__shared_ptr_pointerIPN2gc11TypedKernelINS1_4lang4TileEJNS3_6BufferEEEENS_10shared_ptrINS1_6KernelEE27__shared_ptr_default_deleteIS9_S6_EENS_9allocatorIS6_EEEE, 
                       __ZTSNSt3__120__shared_ptr_pointerIPN2gc11TypedKernelINS1_4lang4TileEJNS3_6BufferENS3_3est6FactorERNS6_11JacobianSetENS3_5ArrayIS5_EENSA_INS6_14FactorOrderingEEERNS6_16BlockMatrixArrayESB_EEENS_10shared_ptrINS1_6KernelEE27__shared_ptr_default_deleteISJ_SG_EENS_9allocatorISG_EEEE, 
                       __ZTSNSt3__120__shared_ptr_pointerIPN2gc11TypedKernelINS1_4lang4TileEJNS3_6BufferENS3_3est8VariableEEEENS_10shared_ptrINS1_6KernelEE27__shared_ptr_default_deleteISB_S8_EENS_9allocatorIS8_EEEE, 
                       __ZTSNSt3__120__shared_ptr_pointerIPN2gc11TypedKernelINS1_4lang4TileEJNS3_6BufferENS3_5ArrayINS3_3est8VariableEEEEEENS_10shared_ptrINS1_6KernelEE27__shared_ptr_default_deleteISD_SA_EENS_9allocatorISA_EEEE, 
                       __ZTSNSt3__120__shared_ptr_pointerIPN2gc11TypedKernelINS1_4lang4TileEJNS3_6BufferENS3_5ArrayIS5_EES7_NS3_3est6FactorERNS8_14FactorOrderingENS8_22SchurEliminatedHessianES5_EEENS_10shared_ptrINS1_6KernelEE27__shared_ptr_default_deleteISG_SD_EENS_9allocatorISD_EEEE, 
                       __ZTSNSt3__120__shared_ptr_pointerIPN2gc11TypedKernelINS1_4lang4TileEJNS3_6BufferENS3_6ScalarES5_EEENS_10shared_ptrINS1_6KernelEE27__shared_ptr_default_deleteISA_S7_EENS_9allocatorIS7_EEEE, 
                       __ZTSNSt3__120__shared_ptr_pointerIPN2gc11TypedKernelINS1_4lang4TileEJNS3_6BufferENS3_6ScalarES5_S5_EEENS_10shared_ptrINS1_6KernelEE27__shared_ptr_default_deleteISA_S7_EENS_9allocatorIS7_EEEE, 
                       __ZTSNSt3__120__shared_ptr_pointerIPN2gc11TypedKernelINS1_4lang4TileEJNS3_6BufferENS3_6ScalarES6_S6_S6_S6_S5_S5_S5_EEENS_10shared_ptrINS1_6KernelEE27__shared_ptr_default_deleteISA_S7_EENS_9allocatorIS7_EEEE, 
                       __ZTSNSt3__120__shared_ptr_pointerIPN2gc11TypedKernelINS1_4lang4TileEJNS3_6BufferERNS3_3est8JacobianENS6_14FactorOrderingENS3_6ScalarES5_S5_EEENS_10shared_ptrINS1_6KernelEE27__shared_ptr_default_deleteISE_SB_EENS_9allocatorISB_EEEE, 
                       __ZTSNSt3__120__shared_ptr_pointerIPN2gc11TypedKernelINS1_4lang4TileEJNS3_6BufferERNS3_3est8JacobianENS6_14FactorOrderingES5_S5_S5_S5_S5_EEENS_10shared_ptrINS1_6KernelEE27__shared_ptr_default_deleteISD_SA_EENS_9allocatorISA_EEEE, 
                       __ZTSNSt3__120__shared_ptr_pointerIPN2gc11TypedKernelINS1_4lang4TileEJNS3_6BufferERNS3_3est8JacobianENS6_6FactorERNS6_11JacobianSetERNS6_14FactorOrderingES5_NS3_5ArrayIS5_EENSE_ISC_EERNS3_6ScalarERNS6_16BlockMatrixArrayENS6_22SchurEliminatedHessianESF_S5_S5_EEENS_10shared_ptrINS1_6KernelEE27__shared_ptr_default_deleteISP_SM_EENS_9allocatorISM_EEEE, 
                       __ZTSNSt3__120__shared_ptr_pointerIPN2gc11TypedKernelINS1_4lang4TileEJNS3_6BufferERNS3_3est8JacobianES5_S5_EEENS_10shared_ptrINS1_6KernelEE27__shared_ptr_default_deleteISC_S9_EENS_9allocatorIS9_EEEE, 
                       __ZTSNSt3__120__shared_ptr_pointerIPN2gc11TypedKernelINS1_4lang4TileEJNS3_6BufferES5_EEENS_10shared_ptrINS1_6KernelEE27__shared_ptr_default_deleteIS9_S6_EENS_9allocatorIS6_EEEE, 
                       __ZTSNSt3__120__shared_ptr_pointerIPN2gc11TypedKernelINS1_4lang4TileEJNS3_6BufferES5_NS3_5ArrayINS3_3est8VariableEEEEEENS_10shared_ptrINS1_6KernelEE27__shared_ptr_default_deleteISD_SA_EENS_9allocatorISA_EEEE, 
                       __ZTSNSt3__120__shared_ptr_pointerIPN2gc11TypedKernelINS1_4lang4TileEJNS3_6BufferES5_RNS3_3est8JacobianES5_S5_EEENS_10shared_ptrINS1_6KernelEE27__shared_ptr_default_deleteISC_S9_EENS_9allocatorIS9_EEEE, 
                       __ZTSNSt3__120__shared_ptr_pointerIPN2gc11TypedKernelINS1_4lang4TileEJNS3_6BufferES5_S5_EEENS_10shared_ptrINS1_6KernelEE27__shared_ptr_default_deleteIS9_S6_EENS_9allocatorIS6_EEEE, 
                       __ZTSNSt3__120__shared_ptr_pointerIPN2gc11TypedKernelINS1_4lang4TileEJNS3_6BufferES5_S5_S5_EEENS_10shared_ptrINS1_6KernelEE27__shared_ptr_default_deleteIS9_S6_EENS_9allocatorIS6_EEEE, 
                       __ZTSNSt3__120__shared_ptr_pointerIPN2gc11TypedKernelINS1_4lang4TileEJNS3_6BufferES5_S5_S5_S5_S5_S5_EEENS_10shared_ptrINS1_6KernelEE27__shared_ptr_default_deleteIS9_S6_EENS_9allocatorIS6_EEEE, 
                       __ZTSNSt3__120__shared_ptr_pointerIPN2gc11TypedKernelINS1_4lang4TileEJNS3_6ScalarENS3_6BufferES6_EEENS_10shared_ptrINS1_6KernelEE27__shared_ptr_default_deleteISA_S7_EENS_9allocatorIS7_EEEE, 
                       __ZTSNSt3__120__shared_ptr_pointerIPN2gc11TypedKernelINS1_4lang4TileEJNS3_6ScalarERNS3_3est11BlockMatrixEEEENS_10shared_ptrINS1_6KernelEE27__shared_ptr_default_deleteISC_S9_EENS_9allocatorIS9_EEEE, 
                       __ZTSNSt3__120__shared_ptr_pointerIPN2gc11TypedKernelINS1_4lang4TileEJRNS3_3est11BlockMatrixEEEENS_10shared_ptrINS1_6KernelEE27__shared_ptr_default_deleteISB_S8_EENS_9allocatorIS8_EEEE, 
                       __ZTSNSt3__120__shared_ptr_pointerIPN2gc11TypedKernelINS1_4lang4TileEJRNS3_3est11BlockMatrixENS3_6BufferES8_EEENS_10shared_ptrINS1_6KernelEE27__shared_ptr_default_deleteISC_S9_EENS_9allocatorIS9_EEEE, 
                       __ZTSNSt3__120__shared_ptr_pointerIPN2gc11TypedKernelINS1_4lang4TileEJRNS3_3est11BlockMatrixENS3_6BufferES8_S8_EEENS_10shared_ptrINS1_6KernelEE27__shared_ptr_default_deleteISC_S9_EENS_9allocatorIS9_EEEE, 
                       __ZTSNSt3__120__shared_ptr_pointerIPN2gc11TypedKernelINS1_4lang4TileEJRNS3_3est11BlockMatrixENS3_6BufferES8_S8_RS8_EEENS_10shared_ptrINS1_6KernelEE27__shared_ptr_default_deleteISD_SA_EENS_9allocatorISA_EEEE, 
                       __ZTSNSt3__120__shared_ptr_pointerIPN2gc11TypedKernelINS1_4lang4TileEJRNS3_3est11JacobianSetENS3_5ArrayINS5_14FactorOrderingEEENS8_INS3_6BufferEEESC_SB_EEENS_10shared_ptrINS1_6KernelEE27__shared_ptr_default_deleteISG_SD_EENS_9allocatorISD_EEEE, 
                       __ZTSNSt3__120__shared_ptr_pointerIPN2gc11TypedKernelINS1_4lang4TileEJRNS3_3est14FactorOrderingENS3_6BufferERNS5_8JacobianES8_S8_EEENS_10shared_ptrINS1_6KernelEE27__shared_ptr_default_deleteISE_SB_EENS_9allocatorISB_EEEE, 
                       __ZTSNSt3__120__shared_ptr_pointerIPN2gc11TypedKernelINS1_4lang4TileEJRNS3_3est14FactorOrderingERNS5_8JacobianENS3_6BufferERSA_EEENS_10shared_ptrINS1_6KernelEE27__shared_ptr_default_deleteISF_SC_EENS_9allocatorISC_EEEE, 
                       __ZTSNSt3__120__shared_ptr_pointerIPN2gc11TypedKernelINS1_4lang4TileEJRNS3_3est14FactorOrderingERNS5_8JacobianENS3_6BufferESA_EEENS_10shared_ptrINS1_6KernelEE27__shared_ptr_default_deleteISE_SB_EENS_9allocatorISB_EEEE, 
                       __ZTSNSt3__120__shared_ptr_pointerIPN2gc11TypedKernelINS1_4lang4TileEJRNS3_3est14FactorOrderingERNS5_8JacobianENS3_6BufferESA_SA_EEENS_10shared_ptrINS1_6KernelEE27__shared_ptr_default_deleteISE_SB_EENS_9allocatorISB_EEEE, 
                       __ZTSNSt3__120__shared_ptr_pointerIPN2gc11TypedKernelINS1_4lang4TileEJRNS3_3est8JacobianENS3_6BufferES8_EEENS_10shared_ptrINS1_6KernelEE27__shared_ptr_default_deleteISC_S9_EENS_9allocatorIS9_EEEE, 
                       __ZTSNSt3__120__shared_ptr_pointerIPN2gc11TypedKernelINS1_4lang4TileEJRNS3_3est8JacobianENS3_6BufferES8_S8_EEENS_10shared_ptrINS1_6KernelEE27__shared_ptr_default_deleteISC_S9_EENS_9allocatorIS9_EEEE, 
                       __ZTSNSt3__120__shared_ptr_pointerIPN2gc11TypedKernelINS1_4lang4TileEJRNS3_3est8JacobianENS3_6BufferES8_S8_RS8_EEENS_10shared_ptrINS1_6KernelEE27__shared_ptr_default_deleteISD_SA_EENS_9allocatorISA_EEEE, 
                       __ZTSNSt3__120__shared_ptr_pointerIPN2gc11TypedKernelINS1_4lang4TileEJRNS3_3est8JacobianENS3_6BufferES8_S8_S8_EEENS_10shared_ptrINS1_6KernelEE27__shared_ptr_default_deleteISC_S9_EENS_9allocatorIS9_EEEE, 
                       __ZTSNSt3__120__shared_ptr_pointerIPN2gc11TypedKernelINS1_4lang4TileEJRNS3_3est8JacobianENS3_6BufferES8_S8_S8_S8_EEENS_10shared_ptrINS1_6KernelEE27__shared_ptr_default_deleteISC_S9_EENS_9allocatorIS9_EEEE, 
                       __ZTSNSt3__120__shared_ptr_pointerIPN2gc11TypedKernelINS1_4lang4TileEJRNS3_3est8JacobianENS5_14FactorOrderingENS3_6BufferES9_EEENS_10shared_ptrINS1_6KernelEE27__shared_ptr_default_deleteISD_SA_EENS_9allocatorISA_EEEE, 
                       __ZTSNSt3__120__shared_ptr_pointerIPN2gc11TypedKernelINS1_4lang4TileEJRNS3_3est8JacobianENS5_14FactorOrderingENS3_6BufferES9_S9_EEENS_10shared_ptrINS1_6KernelEE27__shared_ptr_default_deleteISD_SA_EENS_9allocatorISA_EEEE, 
                       __ZTSNSt3__120__shared_ptr_pointerIPN2gc11TypedKernelINS1_4lang4TileEJRNS3_3est8JacobianENS5_14FactorOrderingENS3_6BufferES9_S9_S9_EEENS_10shared_ptrINS1_6KernelEE27__shared_ptr_default_deleteISD_SA_EENS_9allocatorISA_EEEE, 
                       __ZTSNSt3__120__shared_ptr_pointerIPN2gc11TypedKernelINS1_4lang4TileEJRNS3_3est8JacobianENS5_14FactorOrderingES8_NS3_6BufferES9_S9_S9_S9_S9_EEENS_10shared_ptrINS1_6KernelEE27__shared_ptr_default_deleteISD_SA_EENS_9allocatorISA_EEEE, 
                       __ZTSNSt3__120__shared_ptr_pointerIPN2gc11TypedObjectILNS1_11eObjectTypeE1EEENS_10shared_ptrINS1_6ObjectEE27__shared_ptr_default_deleteIS7_S4_EENS_9allocatorIS4_EEEE, 
                       __ZTSNSt3__120__shared_ptr_pointerIPN2gc12BufferHandleENS_10shared_ptrIS2_E27__shared_ptr_default_deleteIS2_S2_EENS_9allocatorIS2_EEEE, 
                       __ZTSNSt3__120__shared_ptr_pointerIPN2gc12ComputeGraphENS_10shared_ptrIS2_E27__shared_ptr_default_deleteIS2_S2_EENS_9allocatorIS2_EEEE, 
                       __ZTSNSt3__120__shared_ptr_pointerIPN2gc12StagedKernelENS_10shared_ptrIS2_E27__shared_ptr_default_deleteIS2_S2_EENS_9allocatorIS2_EEEE, 
                       __ZTSNSt3__120__shared_ptr_pointerIPN2gc13ExtentsBufferENS_10shared_ptrIS2_E27__shared_ptr_default_deleteIS2_S2_EENS_9allocatorIS2_EEEE, 
                       __ZTSNSt3__120__shared_ptr_pointerIPN2gc14EqualInvariantENS_10shared_ptrINS1_17BindableInvariantEE27__shared_ptr_default_deleteIS5_S2_EENS_9allocatorIS2_EEEE, 
                       __ZTSNSt3__120__shared_ptr_pointerIPN2gc15ScalarInvariantENS_10shared_ptrINS1_17BindableInvariantEE27__shared_ptr_default_deleteIS5_S2_EENS_9allocatorIS2_EEEE, 
                       __ZTSNSt3__120__shared_ptr_pointerIPN2gc16BindableArgumentINS1_4lang3est11BlockMatrixEEENS_10shared_ptrINS1_22OpaqueBindableArgumentEE27__shared_ptr_default_deleteIS9_S6_EENS_9allocatorIS6_EEEE, 
                       __ZTSNSt3__120__shared_ptr_pointerIPN2gc16BindableArgumentINS1_4lang3est11VariableSetEEENS_10shared_ptrINS1_22OpaqueBindableArgumentEE27__shared_ptr_default_deleteIS9_S6_EENS_9allocatorIS6_EEEE, 
                       __ZTSNSt3__120__shared_ptr_pointerIPN2gc16BindableArgumentINS1_4lang3est12CostFunctionEEENS_10shared_ptrINS1_22OpaqueBindableArgumentEE27__shared_ptr_default_deleteIS9_S6_EENS_9allocatorIS6_EEEE, 
                       __ZTSNSt3__120__shared_ptr_pointerIPN2gc16BindableArgumentINS1_4lang3est14FactorOrderingEEENS_10shared_ptrINS1_22OpaqueBindableArgumentEE27__shared_ptr_default_deleteIS9_S6_EENS_9allocatorIS6_EEEE, 
                       __ZTSNSt3__120__shared_ptr_pointerIPN2gc16BindableArgumentINS1_4lang3est6FactorEEENS_10shared_ptrINS1_22OpaqueBindableArgumentEE27__shared_ptr_default_deleteIS9_S6_EENS_9allocatorIS6_EEEE, 
                       __ZTSNSt3__120__shared_ptr_pointerIPN2gc16BindableArgumentINS1_4lang3est8VariableEEENS_10shared_ptrINS1_22OpaqueBindableArgumentEE27__shared_ptr_default_deleteIS9_S6_EENS_9allocatorIS6_EEEE, 
                       __ZTSNSt3__120__shared_ptr_pointerIPN2gc16BindableArgumentINS1_4lang5ArrayINS3_6BufferEEEEENS_10shared_ptrINS1_22OpaqueBindableArgumentEE27__shared_ptr_default_deleteISA_S7_EENS_9allocatorIS7_EEEE, 
                       __ZTSNSt3__120__shared_ptr_pointerIPN2gc16BindableArgumentINS1_4lang6BufferEEENS_10shared_ptrINS1_22OpaqueBindableArgumentEE27__shared_ptr_default_deleteIS8_S5_EENS_9allocatorIS5_EEEE, 
                       __ZTSNSt3__120__shared_ptr_pointerIPN2gc16BufferHandleViewENS_10shared_ptrIS2_E27__shared_ptr_default_deleteIS2_S2_EENS_9allocatorIS2_EEEE, 
                       __ZTSNSt3__120__shared_ptr_pointerIPN2gc16BufferParametersENS_10shared_ptrIS2_E27__shared_ptr_default_deleteIS2_S2_EENS_9allocatorIS2_EEEE, 
                       __ZTSNSt3__120__shared_ptr_pointerIPN2gc16DefaultGeneratorENS_10shared_ptrINS1_9GeneratorEE27__shared_ptr_default_deleteIS5_S2_EENS_9allocatorIS2_EEEE, 
                       __ZTSNSt3__120__shared_ptr_pointerIPN2gc16FunctionArgumentINS1_4lang3est11VariableSetES5_EENS_10shared_ptrIS6_E27__shared_ptr_default_deleteIS6_S6_EENS_9allocatorIS6_EEEE, 
                       __ZTSNSt3__120__shared_ptr_pointerIPN2gc16FunctionArgumentINS1_4lang3est13BlockOrderingES5_EENS_10shared_ptrIS6_E27__shared_ptr_default_deleteIS6_S6_EENS_9allocatorIS6_EEEE, 
                       __ZTSNSt3__120__shared_ptr_pointerIPN2gc16FunctionArgumentINS1_4lang3est14FactorOrderingES5_EENS_10shared_ptrIS6_E27__shared_ptr_default_deleteIS6_S6_EENS_9allocatorIS6_EEEE, 
                       __ZTSNSt3__120__shared_ptr_pointerIPN2gc16FunctionArgumentINS1_4lang3est22SchurEliminatedHessianES5_EENS_10shared_ptrIS6_E27__shared_ptr_default_deleteIS6_S6_EENS_9allocatorIS6_EEEE, 
                       __ZTSNSt3__120__shared_ptr_pointerIPN2gc16FunctionArgumentINS1_4lang3est6FactorES5_EENS_10shared_ptrIS6_E27__shared_ptr_default_deleteIS6_S6_EENS_9allocatorIS6_EEEE, 
                       __ZTSNSt3__120__shared_ptr_pointerIPN2gc16FunctionArgumentINS1_4lang3est8VariableES5_EENS_10shared_ptrIS6_E27__shared_ptr_default_deleteIS6_S6_EENS_9allocatorIS6_EEEE, 
                       __ZTSNSt3__120__shared_ptr_pointerIPN2gc16FunctionArgumentINS1_4lang5ArrayINS3_3est14FactorOrderingEEES7_EENS_10shared_ptrIS8_E27__shared_ptr_default_deleteIS8_S8_EENS_9allocatorIS8_EEEE, 
                       __ZTSNSt3__120__shared_ptr_pointerIPN2gc16FunctionArgumentINS1_4lang5ArrayINS3_3est8VariableEEES7_EENS_10shared_ptrIS8_E27__shared_ptr_default_deleteIS8_S8_EENS_9allocatorIS8_EEEE, 
                       __ZTSNSt3__120__shared_ptr_pointerIPN2gc16FunctionArgumentINS1_4lang5ArrayINS3_6BufferEEES6_EENS_10shared_ptrIS7_E27__shared_ptr_default_deleteIS7_S7_EENS_9allocatorIS7_EEEE, 
                       __ZTSNSt3__120__shared_ptr_pointerIPN2gc16FunctionArgumentINS1_4lang6BufferES4_EENS_10shared_ptrIS5_E27__shared_ptr_default_deleteIS5_S5_EENS_9allocatorIS5_EEEE, 
                       __ZTSNSt3__120__shared_ptr_pointerIPN2gc16FunctionArgumentINS1_4lang6ScalarES4_EENS_10shared_ptrIS5_E27__shared_ptr_default_deleteIS5_S5_EENS_9allocatorIS5_EEEE, 
                       __ZTSNSt3__120__shared_ptr_pointerIPN2gc16FunctionArgumentIRNS1_4lang3est11BlockMatrixES5_EENS_10shared_ptrIS7_E27__shared_ptr_default_deleteIS7_S7_EENS_9allocatorIS7_EEEE, 
                       __ZTSNSt3__120__shared_ptr_pointerIPN2gc16FunctionArgumentIRNS1_4lang3est11JacobianSetES5_EENS_10shared_ptrIS7_E27__shared_ptr_default_deleteIS7_S7_EENS_9allocatorIS7_EEEE, 
                       __ZTSNSt3__120__shared_ptr_pointerIPN2gc16FunctionArgumentIRNS1_4lang3est14FactorOrderingES5_EENS_10shared_ptrIS7_E27__shared_ptr_default_deleteIS7_S7_EENS_9allocatorIS7_EEEE, 
                       __ZTSNSt3__120__shared_ptr_pointerIPN2gc16FunctionArgumentIRNS1_4lang3est16BlockMatrixArrayES5_EENS_10shared_ptrIS7_E27__shared_ptr_default_deleteIS7_S7_EENS_9allocatorIS7_EEEE, 
                       __ZTSNSt3__120__shared_ptr_pointerIPN2gc16FunctionArgumentIRNS1_4lang3est8JacobianES5_EENS_10shared_ptrIS7_E27__shared_ptr_default_deleteIS7_S7_EENS_9allocatorIS7_EEEE, 
                       __ZTSNSt3__120__shared_ptr_pointerIPN2gc16FunctionArgumentIRNS1_4lang6BufferES4_EENS_10shared_ptrIS6_E27__shared_ptr_default_deleteIS6_S6_EENS_9allocatorIS6_EEEE, 
                       __ZTSNSt3__120__shared_ptr_pointerIPN2gc16FunctionArgumentIRNS1_4lang6ScalarES4_EENS_10shared_ptrIS6_E27__shared_ptr_default_deleteIS6_S6_EENS_9allocatorIS6_EEEE, 
                       __ZTSNSt3__120__shared_ptr_pointerIPN2gc17IntrinsicFunctionENS_10shared_ptrIS2_E27__shared_ptr_default_deleteIS2_S2_EENS_9allocatorIS2_EEEE, 
                       __ZTSNSt3__120__shared_ptr_pointerIPN2gc18EqualTypeInvariantENS_10shared_ptrINS1_17BindableInvariantEE27__shared_ptr_default_deleteIS5_S2_EENS_9allocatorIS2_EEEE, 
                       __ZTSNSt3__120__shared_ptr_pointerIPN2gc18ExactTypeInvariantENS_10shared_ptrINS1_17BindableInvariantEE27__shared_ptr_default_deleteIS5_S2_EENS_9allocatorIS2_EEEE, 
                       __ZTSNSt3__120__shared_ptr_pointerIPN2gc18IncreasingRangeMapENS_10shared_ptrINS1_8RangeMapEE27__shared_ptr_default_deleteIS5_S2_EENS_9allocatorIS2_EEEE, 
                       __ZTSNSt3__120__shared_ptr_pointerIPN2gc18MatrixProductRangeENS_10shared_ptrINS1_17BindableInvariantEE27__shared_ptr_default_deleteIS5_S2_EENS_9allocatorIS2_EEEE, 
                       __ZTSNSt3__120__shared_ptr_pointerIPN2gc19EqualRangeInvariantENS_10shared_ptrINS1_17BindableInvariantEE27__shared_ptr_default_deleteIS5_S2_EENS_9allocatorIS2_EEEE, 
                       __ZTSNSt3__120__shared_ptr_pointerIPN2gc19ExactBlockInvariantENS_10shared_ptrINS1_17BindableInvariantEE27__shared_ptr_default_deleteIS5_S2_EENS_9allocatorIS2_EEEE, 
                       __ZTSNSt3__120__shared_ptr_pointerIPN2gc19ExactRangeInvariantENS_10shared_ptrINS1_17BindableInvariantEE27__shared_ptr_default_deleteIS5_S2_EENS_9allocatorIS2_EEEE, 
                       __ZTSNSt3__120__shared_ptr_pointerIPN2gc20MatrixProductElementENS_10shared_ptrINS1_17BindableInvariantEE27__shared_ptr_default_deleteIS5_S2_EENS_9allocatorIS2_EEEE, 
                       __ZTSNSt3__120__shared_ptr_pointerIPN2gc21StridedRangeInvariantENS_10shared_ptrINS1_17BindableInvariantEE27__shared_ptr_default_deleteIS5_S2_EENS_9allocatorIS2_EEEE, 
                       __ZTSNSt3__120__shared_ptr_pointerIPN2gc21TypedExternalFunctionILNS1_13eTargetDeviceE1EEENS_10shared_ptrINS1_16ExternalFunctionEE27__shared_ptr_default_deleteIS7_S4_EENS_9allocatorIS4_EEEE, 
                       __ZTSNSt3__120__shared_ptr_pointerIPN2gc22EqualElementsInvariantENS_10shared_ptrINS1_17BindableInvariantEE27__shared_ptr_default_deleteIS5_S2_EENS_9allocatorIS2_EEEE, 
                       __ZTSNSt3__120__shared_ptr_pointerIPN2gc22ExactElementsInvariantENS_10shared_ptrINS1_17BindableInvariantEE27__shared_ptr_default_deleteIS5_S2_EENS_9allocatorIS2_EEEE, 
                       __ZTSNSt3__120__shared_ptr_pointerIPN2gc22TypedScheduleTraitImplI17loopkit_rt_type_tEENS_10shared_ptrINS1_17ScheduleTraitImplEE27__shared_ptr_default_deleteIS7_S4_EENS_9allocatorIS4_EEEE, 
                       __ZTSNSt3__120__shared_ptr_pointerIPN2gc22TypedScheduleTraitImplINS1_11eTargetASANEEENS_10shared_ptrINS1_17ScheduleTraitImplEE27__shared_ptr_default_deleteIS7_S4_EENS_9allocatorIS4_EEEE, 
                       __ZTSNSt3__120__shared_ptr_pointerIPN2gc22TypedScheduleTraitImplINS1_12eParallelismEEENS_10shared_ptrINS1_17ScheduleTraitImplEE27__shared_ptr_default_deleteIS7_S4_EENS_9allocatorIS4_EEEE, 
                       __ZTSNSt3__120__shared_ptr_pointerIPN2gc22TypedScheduleTraitImplINS1_12eTargetDebugEEENS_10shared_ptrINS1_17ScheduleTraitImplEE27__shared_ptr_default_deleteIS7_S4_EENS_9allocatorIS4_EEEE, 
                       __ZTSNSt3__120__shared_ptr_pointerIPN2gc22TypedScheduleTraitImplINS1_13eCustomKernelEEENS_10shared_ptrINS1_17ScheduleTraitImplEE27__shared_ptr_default_deleteIS7_S4_EENS_9allocatorIS4_EEEE, 
                       __ZTSNSt3__120__shared_ptr_pointerIPN2gc22TypedScheduleTraitImplINS1_13eKernelFusionEEENS_10shared_ptrINS1_17ScheduleTraitImplEE27__shared_ptr_default_deleteIS7_S4_EENS_9allocatorIS4_EEEE, 
                       __ZTSNSt3__120__shared_ptr_pointerIPN2gc22TypedScheduleTraitImplINS1_13eTargetAssertEEENS_10shared_ptrINS1_17ScheduleTraitImplEE27__shared_ptr_default_deleteIS7_S4_EENS_9allocatorIS4_EEEE, 
                       __ZTSNSt3__120__shared_ptr_pointerIPN2gc22TypedScheduleTraitImplINS1_13eTargetDeviceEEENS_10shared_ptrINS1_17ScheduleTraitImplEE27__shared_ptr_default_deleteIS7_S4_EENS_9allocatorIS4_EEEE, 
                       __ZTSNSt3__120__shared_ptr_pointerIPN2gc22TypedScheduleTraitImplINS1_16eTargetProfilingEEENS_10shared_ptrINS1_17ScheduleTraitImplEE27__shared_ptr_default_deleteIS7_S4_EENS_9allocatorIS4_EEEE, 
                       __ZTSNSt3__120__shared_ptr_pointerIPN2gc22TypedScheduleTraitImplINS1_16eTargetSignpostsEEENS_10shared_ptrINS1_17ScheduleTraitImplEE27__shared_ptr_default_deleteIS7_S4_EENS_9allocatorIS4_EEEE, 
                       __ZTSNSt3__120__shared_ptr_pointerIPN2gc22TypedScheduleTraitImplINS1_3est13eJacobianTypeEEENS_10shared_ptrINS1_17ScheduleTraitImplEE27__shared_ptr_default_deleteIS8_S5_EENS_9allocatorIS5_EEEE, 
                       __ZTSNSt3__120__shared_ptr_pointerIPN2gc23FunctionOfTypeInvariantENS_10shared_ptrINS1_17BindableInvariantEE27__shared_ptr_default_deleteIS5_S2_EENS_9allocatorIS2_EEEE, 
                       __ZTSNSt3__120__shared_ptr_pointerIPN2gc24FunctionOfRangeInvariantENS_10shared_ptrINS1_17BindableInvariantEE27__shared_ptr_default_deleteIS5_S2_EENS_9allocatorIS2_EEEE, 
                       __ZTSNSt3__120__shared_ptr_pointerIPN2gc24FunctionOfShapeInvariantENS_10shared_ptrINS1_17BindableInvariantEE27__shared_ptr_default_deleteIS5_S2_EENS_9allocatorIS2_EEEE, 
                       __ZTSNSt3__120__shared_ptr_pointerIPN2gc24ScalarwiseRangeInvariantENS_10shared_ptrINS1_17BindableInvariantEE27__shared_ptr_default_deleteIS5_S2_EENS_9allocatorIS2_EEEE, 
                       __ZTSNSt3__120__shared_ptr_pointerIPN2gc26FunctionOfElementInvariantENS_10shared_ptrINS1_17BindableInvariantEE27__shared_ptr_default_deleteIS5_S2_EENS_9allocatorIS2_EEEE, 
                       __ZTSNSt3__120__shared_ptr_pointerIPN2gc3est10EvaluateHpENS_10shared_ptrINS1_9GeneratorEE27__shared_ptr_default_deleteIS6_S3_EENS_9allocatorIS3_EEEE, 
                       __ZTSNSt3__120__shared_ptr_pointerIPN2gc3est10EvaluateJpENS_10shared_ptrINS1_9GeneratorEE27__shared_ptr_default_deleteIS6_S3_EENS_9allocatorIS3_EEEE, 
                       __ZTSNSt3__120__shared_ptr_pointerIPN2gc3est11EvaluateJtJENS_10shared_ptrINS1_9GeneratorEE27__shared_ptr_default_deleteIS6_S3_EENS_9allocatorIS3_EEEE, 
                       __ZTSNSt3__120__shared_ptr_pointerIPN2gc3est11EvaluateJteENS_10shared_ptrINS1_9GeneratorEE27__shared_ptr_default_deleteIS6_S3_EENS_9allocatorIS3_EEEE, 
                       __ZTSNSt3__120__shared_ptr_pointerIPN2gc3est11FactorGraphENS_10shared_ptrIS3_E27__shared_ptr_default_deleteIS3_S3_EENS_9allocatorIS3_EEEE, 
                       __ZTSNSt3__120__shared_ptr_pointerIPN2gc3est11PCGIterate1ENS_10shared_ptrINS1_9GeneratorEE27__shared_ptr_default_deleteIS6_S3_EENS_9allocatorIS3_EEEE, 
                       __ZTSNSt3__120__shared_ptr_pointerIPN2gc3est11PCGIterate2ENS_10shared_ptrINS1_9GeneratorEE27__shared_ptr_default_deleteIS6_S3_EENS_9allocatorIS3_EEEE, 
                       __ZTSNSt3__120__shared_ptr_pointerIPN2gc3est11TypedFactorILNS2_11eFactorTypeE1EEENS_10shared_ptrIS5_E27__shared_ptr_default_deleteIS5_S5_EENS_9allocatorIS5_EEEE, 
                       __ZTSNSt3__120__shared_ptr_pointerIPN2gc3est12EvaluateJtJpENS_10shared_ptrINS1_9GeneratorEE27__shared_ptr_default_deleteIS6_S3_EENS_9allocatorIS3_EEEE, 
                       __ZTSNSt3__120__shared_ptr_pointerIPN2gc3est12InvertBlockMENS_10shared_ptrINS1_9GeneratorEE27__shared_ptr_default_deleteIS6_S3_EENS_9allocatorIS3_EEEE, 
                       __ZTSNSt3__120__shared_ptr_pointerIPN2gc3est13BlockOrderingENS_10shared_ptrIS3_E27__shared_ptr_default_deleteIS3_S3_EENS_9allocatorIS3_EEEE, 
                       __ZTSNSt3__120__shared_ptr_pointerIPN2gc3est13TypedBoxMinusINS1_4lang6VectorENS4_3SE3EEENS_10shared_ptrIS7_E27__shared_ptr_default_deleteIS7_S7_EENS_9allocatorIS7_EEEE, 
                       __ZTSNSt3__120__shared_ptr_pointerIPN2gc3est13TypedBoxMinusINS1_4lang6VectorENS4_3SO3EEENS_10shared_ptrIS7_E27__shared_ptr_default_deleteIS7_S7_EENS_9allocatorIS7_EEEE, 
                       __ZTSNSt3__120__shared_ptr_pointerIPN2gc3est13VariableGroupENS_10shared_ptrIS3_E27__shared_ptr_default_deleteIS3_S3_EENS_9allocatorIS3_EEEE, 
                       __ZTSNSt3__120__shared_ptr_pointerIPN2gc3est14EvaluateBlockMENS_10shared_ptrINS1_9GeneratorEE27__shared_ptr_default_deleteIS6_S3_EENS_9allocatorIS3_EEEE, 
                       __ZTSNSt3__120__shared_ptr_pointerIPN2gc3est14ExtractDiagJtJENS_10shared_ptrINS1_9GeneratorEE27__shared_ptr_default_deleteIS6_S3_EENS_9allocatorIS3_EEEE, 
                       __ZTSNSt3__120__shared_ptr_pointerIPN2gc3est14SchurLinearizeENS_10shared_ptrINS1_9GeneratorEE27__shared_ptr_default_deleteIS6_S3_EENS_9allocatorIS3_EEEE, 
                       __ZTSNSt3__120__shared_ptr_pointerIPN2gc3est14TypedPCGSolverINS2_33ExplicitHessianLinearizationPointEEENS_10shared_ptrINS2_12LinearSolverEE27__shared_ptr_default_deleteIS8_S5_EENS_9allocatorIS5_EEEE, 
                       __ZTSNSt3__120__shared_ptr_pointerIPN2gc3est14TypedPCGSolverINS2_33ImplicitHessianLinearizationPointEEENS_10shared_ptrINS2_12LinearSolverEE27__shared_ptr_default_deleteIS8_S5_EENS_9allocatorIS5_EEEE, 
                       __ZTSNSt3__120__shared_ptr_pointerIPN2gc3est15DenseLDLTSolverENS_10shared_ptrINS2_12LinearSolverEE27__shared_ptr_default_deleteIS6_S3_EENS_9allocatorIS3_EEEE, 
                       __ZTSNSt3__120__shared_ptr_pointerIPN2gc3est15FactorJacobiansENS_10shared_ptrIS3_E27__shared_ptr_default_deleteIS3_S3_EENS_9allocatorIS3_EEEE, 
                       __ZTSNSt3__120__shared_ptr_pointerIPN2gc3est16DenseBlockMatrixENS_10shared_ptrINS2_11BlockMatrixEE27__shared_ptr_default_deleteIS6_S3_EENS_9allocatorIS3_EEEE, 
                       __ZTSNSt3__120__shared_ptr_pointerIPN2gc3est16SparseLDLTSolverENS_10shared_ptrINS2_12LinearSolverEE27__shared_ptr_default_deleteIS6_S3_EENS_9allocatorIS3_EEEE, 
                       __ZTSNSt3__120__shared_ptr_pointerIPN2gc3est17SymmetrizeDiagJtJENS_10shared_ptrINS1_9GeneratorEE27__shared_ptr_default_deleteIS6_S3_EENS_9allocatorIS3_EEEE, 
                       __ZTSNSt3__120__shared_ptr_pointerIPN2gc3est18BasicFactorBuffersENS_10shared_ptrINS2_13FactorBuffersEE27__shared_ptr_default_deleteIS6_S3_EENS_9allocatorIS3_EEEE, 
                       __ZTSNSt3__120__shared_ptr_pointerIPN2gc3est18ImplicitSchurJtJp1ENS_10shared_ptrINS1_9GeneratorEE27__shared_ptr_default_deleteIS6_S3_EENS_9allocatorIS3_EEEE, 
                       __ZTSNSt3__120__shared_ptr_pointerIPN2gc3est18ImplicitSchurJtJp2ENS_10shared_ptrINS1_9GeneratorEE27__shared_ptr_default_deleteIS6_S3_EENS_9allocatorIS3_EEEE, 
                       __ZTSNSt3__120__shared_ptr_pointerIPN2gc3est18TypedModelFunctionINS1_4lang3SE3EJRKS5_EEENS_10shared_ptrIS8_E27__shared_ptr_default_deleteIS8_S8_EENS_9allocatorIS8_EEEE, 
                       __ZTSNSt3__120__shared_ptr_pointerIPN2gc3est18TypedModelFunctionINS1_4lang3SO3EJRKS5_EEENS_10shared_ptrIS8_E27__shared_ptr_default_deleteIS8_S8_EENS_9allocatorIS8_EEEE, 
                       __ZTSNSt3__120__shared_ptr_pointerIPN2gc3est18TypedModelFunctionINS1_4lang6ScalarEJRKS5_EEENS_10shared_ptrIS8_E27__shared_ptr_default_deleteIS8_S8_EENS_9allocatorIS8_EEEE, 
                       __ZTSNSt3__120__shared_ptr_pointerIPN2gc3est18TypedModelFunctionINS1_4lang6VectorEJRKS5_EEENS_10shared_ptrIS8_E27__shared_ptr_default_deleteIS8_S8_EENS_9allocatorIS8_EEEE, 
                       __ZTSNSt3__120__shared_ptr_pointerIPN2gc3est19BasicFactorOrderingENS_10shared_ptrINS2_14FactorOrderingEE27__shared_ptr_default_deleteIS6_S3_EENS_9allocatorIS3_EEEE, 
                       __ZTSNSt3__120__shared_ptr_pointerIPN2gc3est20BitmappedBlockMatrixENS_10shared_ptrINS2_11BlockMatrixEE27__shared_ptr_default_deleteIS6_S3_EENS_9allocatorIS3_EEEE, 
                       __ZTSNSt3__120__shared_ptr_pointerIPN2gc3est20MaterializeJacobiansENS_10shared_ptrINS1_9GeneratorEE27__shared_ptr_default_deleteIS6_S3_EENS_9allocatorIS3_EEEE, 
                       __ZTSNSt3__120__shared_ptr_pointerIPN2gc3est20SchurBackSubstitute1ENS_10shared_ptrINS1_9GeneratorEE27__shared_ptr_default_deleteIS6_S3_EENS_9allocatorIS3_EEEE, 
                       __ZTSNSt3__120__shared_ptr_pointerIPN2gc3est20SchurBackSubstitute2ENS_10shared_ptrINS1_9GeneratorEE27__shared_ptr_default_deleteIS6_S3_EENS_9allocatorIS3_EEEE, 
                       __ZTSNSt3__120__shared_ptr_pointerIPN2gc3est20TrustRegionMinimizerENS_10shared_ptrIS3_E27__shared_ptr_default_deleteIS3_S3_EENS_9allocatorIS3_EEEE, 
                       __ZTSNSt3__120__shared_ptr_pointerIPN2gc3est21StandardGaussianNoiseENS_10shared_ptrINS2_10NoiseModelEE27__shared_ptr_default_deleteIS6_S3_EENS_9allocatorIS3_EEEE, 
                       __ZTSNSt3__120__shared_ptr_pointerIPN2gc3est21VariadicFactorBuffersENS_10shared_ptrINS2_13FactorBuffersEE27__shared_ptr_default_deleteIS6_S3_EENS_9allocatorIS3_EEEE, 
                       __ZTSNSt3__120__shared_ptr_pointerIPN2gc3est22EvaluateBatchGradientsENS_10shared_ptrINS1_9GeneratorEE27__shared_ptr_default_deleteIS6_S3_EENS_9allocatorIS3_EEEE, 
                       __ZTSNSt3__120__shared_ptr_pointerIPN2gc3est22IsotropicGaussianNoiseENS_10shared_ptrINS2_10NoiseModelEE27__shared_ptr_default_deleteIS6_S3_EENS_9allocatorIS3_EEEE, 
                       __ZTSNSt3__120__shared_ptr_pointerIPN2gc3est22ModelErrorCostFunctionENS_10shared_ptrIS3_E27__shared_ptr_default_deleteIS3_S3_EENS_9allocatorIS3_EEEE, 
                       __ZTSNSt3__120__shared_ptr_pointerIPN2gc3est22VariadicFactorOrderingENS_10shared_ptrINS2_14FactorOrderingEE27__shared_ptr_default_deleteIS6_S3_EENS_9allocatorIS3_EEEE, 
                       __ZTSNSt3__120__shared_ptr_pointerIPN2gc3est24AnisotropicGaussianNoiseENS_10shared_ptrINS2_10NoiseModelEE27__shared_ptr_default_deleteIS6_S3_EENS_9allocatorIS3_EEEE, 
                       __ZTSNSt3__120__shared_ptr_pointerIPN2gc3est24CompressedRowBlockMatrixENS_10shared_ptrINS2_11BlockMatrixEE27__shared_ptr_default_deleteIS6_S3_EENS_9allocatorIS3_EEEE, 
                       __ZTSNSt3__120__shared_ptr_pointerIPN2gc3est24ImplicitSchurInitialize1ENS_10shared_ptrINS1_9GeneratorEE27__shared_ptr_default_deleteIS6_S3_EENS_9allocatorIS3_EEEE, 
                       __ZTSNSt3__120__shared_ptr_pointerIPN2gc3est24ImplicitSchurInitialize2ENS_10shared_ptrINS1_9GeneratorEE27__shared_ptr_default_deleteIS6_S3_EENS_9allocatorIS3_EEEE, 
                       __ZTSNSt3__120__shared_ptr_pointerIPN2gc3est24ImplicitSchurInitialize3ENS_10shared_ptrINS1_9GeneratorEE27__shared_ptr_default_deleteIS6_S3_EENS_9allocatorIS3_EEEE, 
                       __ZTSNSt3__120__shared_ptr_pointerIPN2gc3est24LeastSquaresCostFunctionENS_10shared_ptrIS3_E27__shared_ptr_default_deleteIS3_S3_EENS_9allocatorIS3_EEEE, 
                       __ZTSNSt3__120__shared_ptr_pointerIPN2gc3est25ApplyJacobiPreconditionerENS_10shared_ptrINS1_9GeneratorEE27__shared_ptr_default_deleteIS6_S3_EENS_9allocatorIS3_EEEE, 
                       __ZTSNSt3__120__shared_ptr_pointerIPN2gc3est26L2LeastSquaresLossFunctionENS_10shared_ptrIS3_E27__shared_ptr_default_deleteIS3_S3_EENS_9allocatorIS3_EEEE, 
                       __ZTSNSt3__120__shared_ptr_pointerIPN2gc3est28ImplicitSchurBackSubstitute1ENS_10shared_ptrINS1_9GeneratorEE27__shared_ptr_default_deleteIS6_S3_EENS_9allocatorIS3_EEEE, 
                       __ZTSNSt3__120__shared_ptr_pointerIPN2gc3est28ImplicitSchurBackSubstitute2ENS_10shared_ptrINS1_9GeneratorEE27__shared_ptr_default_deleteIS6_S3_EENS_9allocatorIS3_EEEE, 
                       __ZTSNSt3__120__shared_ptr_pointerIPN2gc3est29TypedLeastSquaresLossFunctionIJNS1_4lang6ScalarEEEENS_10shared_ptrIS6_E27__shared_ptr_default_deleteIS6_S6_EENS_9allocatorIS6_EEEE, 
                       __ZTSNSt3__120__shared_ptr_pointerIPN2gc3est30ApplyAdditiveLMDampingExplicitENS_10shared_ptrINS1_9GeneratorEE27__shared_ptr_default_deleteIS6_S3_EENS_9allocatorIS3_EEEE, 
                       __ZTSNSt3__120__shared_ptr_pointerIPN2gc3est30ApplyAdditiveLMDampingImplicitENS_10shared_ptrINS1_9GeneratorEE27__shared_ptr_default_deleteIS6_S3_EENS_9allocatorIS3_EEEE, 
                       __ZTSNSt3__120__shared_ptr_pointerIPN2gc3est30ApplyBlockJacobiPreconditionerENS_10shared_ptrINS1_9GeneratorEE27__shared_ptr_default_deleteIS6_S3_EENS_9allocatorIS3_EEEE, 
                       __ZTSNSt3__120__shared_ptr_pointerIPN2gc3est32BatchGradientsLinearizationPointENS_10shared_ptrIS3_E27__shared_ptr_default_deleteIS3_S3_EENS_9allocatorIS3_EEEE, 
                       __ZTSNSt3__120__shared_ptr_pointerIPN2gc3est33ApplyAdditiveLMDampingToDiagonalsENS_10shared_ptrINS1_9GeneratorEE27__shared_ptr_default_deleteIS6_S3_EENS_9allocatorIS3_EEEE, 
                       __ZTSNSt3__120__shared_ptr_pointerIPN2gc3est33ExplicitHessianLinearizationPointENS_10shared_ptrIS3_E27__shared_ptr_default_deleteIS3_S3_EENS_9allocatorIS3_EEEE, 
                       __ZTSNSt3__120__shared_ptr_pointerIPN2gc3est33ImplicitHessianLinearizationPointENS_10shared_ptrIS3_E27__shared_ptr_default_deleteIS3_S3_EENS_9allocatorIS3_EEEE, 
                       __ZTSNSt3__120__shared_ptr_pointerIPN2gc3est36ApplyMultiplicativeLMDampingExplicitENS_10shared_ptrINS1_9GeneratorEE27__shared_ptr_default_deleteIS6_S3_EENS_9allocatorIS3_EEEE, 
                       __ZTSNSt3__120__shared_ptr_pointerIPN2gc3est36ApplyMultiplicativeLMDampingImplicitENS_10shared_ptrINS1_9GeneratorEE27__shared_ptr_default_deleteIS6_S3_EENS_9allocatorIS3_EEEE, 
                       __ZTSNSt3__120__shared_ptr_pointerIPN2gc3est39ApplyMultiplicativeLMDampingToDiagonalsENS_10shared_ptrINS1_9GeneratorEE27__shared_ptr_default_deleteIS6_S3_EENS_9allocatorIS3_EEEE, 
                       __ZTSNSt3__120__shared_ptr_pointerIPN2gc3est3SE3ENS_10shared_ptrINS2_8VariableEE27__shared_ptr_default_deleteIS6_S3_EENS_9allocatorIS3_EEEE, 
                       __ZTSNSt3__120__shared_ptr_pointerIPN2gc3est3SO3ENS_10shared_ptrINS2_8VariableEE27__shared_ptr_default_deleteIS6_S3_EENS_9allocatorIS3_EEEE, 
                       __ZTSNSt3__120__shared_ptr_pointerIPN2gc3est4AdamENS_10shared_ptrIS3_E27__shared_ptr_default_deleteIS3_S3_EENS_9allocatorIS3_EEEE, 
                       __ZTSNSt3__120__shared_ptr_pointerIPN2gc3est51ExplicitHessianLinearizationPointLevenbergMarquardtENS_10shared_ptrINS2_19TrustRegionStrategyEE27__shared_ptr_default_deleteIS6_S3_EENS_9allocatorIS3_EEEE, 
                       __ZTSNSt3__120__shared_ptr_pointerIPN2gc3est51ImplicitHessianLinearizationPointLevenbergMarquardtENS_10shared_ptrINS2_19TrustRegionStrategyEE27__shared_ptr_default_deleteIS6_S3_EENS_9allocatorIS3_EEEE, 
                       __ZTSNSt3__120__shared_ptr_pointerIPN2gc3est53ExplicitHessianLinearizationPointJacobiPreconditionerENS_10shared_ptrINS2_14PreconditionerEE27__shared_ptr_default_deleteIS6_S3_EENS_9allocatorIS3_EEEE, 
                       __ZTSNSt3__120__shared_ptr_pointerIPN2gc3est53ImplicitHessianLinearizationPointJacobiPreconditionerENS_10shared_ptrINS2_14PreconditionerEE27__shared_ptr_default_deleteIS6_S3_EENS_9allocatorIS3_EEEE, 
                       __ZTSNSt3__120__shared_ptr_pointerIPN2gc3est58ExplicitHessianLinearizationPointBlockJacobiPreconditionerENS_10shared_ptrINS2_14PreconditionerEE27__shared_ptr_default_deleteIS6_S3_EENS_9allocatorIS3_EEEE, 
                       __ZTSNSt3__120__shared_ptr_pointerIPN2gc3est58ImplicitHessianLinearizationPointBlockJacobiPreconditionerENS_10shared_ptrINS2_14PreconditionerEE27__shared_ptr_default_deleteIS6_S3_EENS_9allocatorIS3_EEEE, 
                       __ZTSNSt3__120__shared_ptr_pointerIPN2gc3est6FactorENS_10shared_ptrIS3_E27__shared_ptr_default_deleteIS3_S3_EENS_9allocatorIS3_EEEE, 
                       __ZTSNSt3__120__shared_ptr_pointerIPN2gc3est6ScalarENS_10shared_ptrINS2_8VariableEE27__shared_ptr_default_deleteIS6_S3_EENS_9allocatorIS3_EEEE, 
                       __ZTSNSt3__120__shared_ptr_pointerIPN2gc3est6VectorENS_10shared_ptrINS2_8VariableEE27__shared_ptr_default_deleteIS6_S3_EENS_9allocatorIS3_EEEE, 
                       __ZTSNSt3__120__shared_ptr_pointerIPN2gc3est7InvertMENS_10shared_ptrINS1_9GeneratorEE27__shared_ptr_default_deleteIS6_S3_EENS_9allocatorIS3_EEEE, 
                       __ZTSNSt3__120__shared_ptr_pointerIPN2gc3est7ProblemENS_10shared_ptrIS3_E27__shared_ptr_default_deleteIS3_S3_EENS_9allocatorIS3_EEEE, 
                       __ZTSNSt3__120__shared_ptr_pointerIPN2gc3est8BoxMinusENS_10shared_ptrIS3_E27__shared_ptr_default_deleteIS3_S3_EENS_9allocatorIS3_EEEE, 
                       __ZTSNSt3__120__shared_ptr_pointerIPN2gc3ops11OpGeneratorENS_10shared_ptrINS1_9GeneratorEE27__shared_ptr_default_deleteIS6_S3_EENS_9allocatorIS3_EEEE, 
                       __ZTSNSt3__120__shared_ptr_pointerIPN2gc3ops6detail27TypedFunctionReturnTypeImplILm0EEENS_10shared_ptrINS3_22FunctionReturnTypeImplEE27__shared_ptr_default_deleteIS8_S5_EENS_9allocatorIS5_EEEE, 
                       __ZTSNSt3__120__shared_ptr_pointerIPN2gc3ops6detail27TypedFunctionReturnTypeImplILm1EEENS_10shared_ptrINS3_22FunctionReturnTypeImplEE27__shared_ptr_default_deleteIS8_S5_EENS_9allocatorIS5_EEEE, 
                       __ZTSNSt3__120__shared_ptr_pointerIPN2gc4TileENS_10shared_ptrIS2_E27__shared_ptr_default_deleteIS2_S2_EENS_9allocatorIS2_EEEE, 
                       __ZTSNSt3__120__shared_ptr_pointerIPN2gc4lang3est19BasicFactorOrderingENS_10shared_ptrINS3_18FactorOrderingImplEE27__shared_ptr_default_deleteIS7_S4_EENS_9allocatorIS4_EEEE, 
                       __ZTSNSt3__120__shared_ptr_pointerIPN2gc4lang3est22VariadicFactorOrderingENS_10shared_ptrINS3_18FactorOrderingImplEE27__shared_ptr_default_deleteIS7_S4_EENS_9allocatorIS4_EEEE, 
                       __ZTSNSt3__120__shared_ptr_pointerIPN2gc4lang4simd15SIMDMatMultPlanENS_10shared_ptrINS3_11MatMultPlanEE27__shared_ptr_default_deleteIS7_S4_EENS_9allocatorIS4_EEEE, 
                       __ZTSNSt3__120__shared_ptr_pointerIPN2gc4lang4simd18GeneralMatMultPlanENS_10shared_ptrINS3_11MatMultPlanEE27__shared_ptr_default_deleteIS7_S4_EENS_9allocatorIS4_EEEE, 
                       __ZTSNSt3__120__shared_ptr_pointerIPN2gc4lang4simd21SIMDLargeKMatMultPlanENS_10shared_ptrINS3_11MatMultPlanEE27__shared_ptr_default_deleteIS7_S4_EENS_9allocatorIS4_EEEE, 
                       __ZTSNSt3__120__shared_ptr_pointerIPN2gc4lang4simd21SIMDSmallKMatMultPlanENS_10shared_ptrINS3_11MatMultPlanEE27__shared_ptr_default_deleteIS7_S4_EENS_9allocatorIS4_EEEE, 
                       __ZTSNSt3__120__shared_ptr_pointerIPN2gc4lang4simd22SIMDInnerProductMatrixENS_10shared_ptrINS3_18InnerProductMatrixEE27__shared_ptr_default_deleteIS7_S4_EENS_9allocatorIS4_EEEE, 
                       __ZTSNSt3__120__shared_ptr_pointerIPN2gc4lang4simd25GeneralInnerProductMatrixENS_10shared_ptrINS3_18InnerProductMatrixEE27__shared_ptr_default_deleteIS7_S4_EENS_9allocatorIS4_EEEE, 
                       __ZTSNSt3__120__shared_ptr_pointerIPN2gc4lang4simd27SIMDInnerProductAccumulatorENS_10shared_ptrINS3_23InnerProductAccumulatorEE27__shared_ptr_default_deleteIS7_S4_EENS_9allocatorIS4_EEEE, 
                       __ZTSNSt3__120__shared_ptr_pointerIPN2gc4lang4simd28SIMDCachedInnerProductMatrixENS_10shared_ptrINS3_18InnerProductMatrixEE27__shared_ptr_default_deleteIS7_S4_EENS_9allocatorIS4_EEEE, 
                       __ZTSNSt3__120__shared_ptr_pointerIPN2gc4lang4simd29LargeKInnerProductAccumulatorENS_10shared_ptrINS3_23InnerProductAccumulatorEE27__shared_ptr_default_deleteIS7_S4_EENS_9allocatorIS4_EEEE, 
                       __ZTSNSt3__120__shared_ptr_pointerIPN2gc4lang4simd29SmallKInnerProductAccumulatorENS_10shared_ptrINS3_23InnerProductAccumulatorEE27__shared_ptr_default_deleteIS7_S4_EENS_9allocatorIS4_EEEE, 
                       __ZTSNSt3__120__shared_ptr_pointerIPN2gc4lang4simd30GeneralInnerProductAccumulatorENS_10shared_ptrINS3_23InnerProductAccumulatorEE27__shared_ptr_default_deleteIS7_S4_EENS_9allocatorIS4_EEEE, 
                       __ZTSNSt3__120__shared_ptr_pointerIPN2gc5RangeENS_10shared_ptrIS2_E27__shared_ptr_default_deleteIS2_S2_EENS_9allocatorIS2_EEEE, 
                       __ZTSNSt3__120__shared_ptr_pointerIPN2gc6BufferENS_10shared_ptrIS2_E27__shared_ptr_default_deleteIS2_S2_EENS_9allocatorIS2_EEEE, 
                       __ZTSNSt3__120__shared_ptr_pointerIPN2gc6ScalarENS_10shared_ptrIS2_E27__shared_ptr_default_deleteIS2_S2_EENS_9allocatorIS2_EEEE, 
                       __ZTSNSt3__120__shared_ptr_pointerIPN2gc6VectorENS_10shared_ptrIS2_E27__shared_ptr_default_deleteIS2_S2_EENS_9allocatorIS2_EEEE, 
                       __ZTSNSt3__120__shared_ptr_pointerIPN2gc7LibraryENS_10shared_ptrIS2_E27__shared_ptr_default_deleteIS2_S2_EENS_9allocatorIS2_EEEE, 
                       __ZTSNSt3__120__shared_ptr_pointerIPN2gc7ProgramENS_10shared_ptrIS2_E27__shared_ptr_default_deleteIS2_S2_EENS_9allocatorIS2_EEEE, 
                       __ZTSNSt3__120__shared_ptr_pointerIPN2gc8PipelineENS_10shared_ptrIS2_E27__shared_ptr_default_deleteIS2_S2_EENS_9allocatorIS2_EEEE, 
                       __ZTSNSt3__120__shared_ptr_pointerIPN2gc9float16_tENS1_13BufferDeleterENS_9allocatorIS2_EEEE, 
                       __ZTSNSt3__120__shared_ptr_pointerIPaN2gc13BufferDeleterENS_9allocatorIaEEEE, 
                       __ZTSNSt3__120__shared_ptr_pointerIPdN2gc13BufferDeleterENS_9allocatorIdEEEE, 
                       __ZTSNSt3__120__shared_ptr_pointerIPfN2gc13BufferDeleterENS_9allocatorIfEEEE, 
                       __ZTSNSt3__120__shared_ptr_pointerIPhN2gc13BufferDeleterENS_9allocatorIhEEEE, 
                       __ZTSNSt3__120__shared_ptr_pointerIPiN2gc13BufferDeleterENS_9allocatorIiEEEE, 
                       __ZTSNSt3__120__shared_ptr_pointerIPjN2gc13BufferDeleterENS_9allocatorIjEEEE, 
                       __ZTSNSt3__120__shared_ptr_pointerIPsN2gc13BufferDeleterENS_9allocatorIsEEEE, 
                       __ZTSNSt3__120__shared_ptr_pointerIPtN2gc13BufferDeleterENS_9allocatorItEEEE, 
                       __ZTSNSt3__120__shared_ptr_pointerIPxN2gc13BufferDeleterENS_9allocatorIxEEEE, 
                       __ZTSNSt3__120__shared_ptr_pointerIPyN2gc13BufferDeleterENS_9allocatorIyEEEE, 
                       __ZTSNSt3__123enable_shared_from_thisIN2gc12BufferHandleEEE, 
                       __ZTSNSt3__123enable_shared_from_thisIN2gc16GeneratorFactoryEEE, 
                       __ZTSNSt3__123enable_shared_from_thisIN2gc22OpaqueBindableArgumentEEE, 
                       __ZTSNSt3__123enable_shared_from_thisIN2gc3ops6OpBaseEEE, 
                       __ZTSNSt3__123enable_shared_from_thisIN2gc6BufferEEE, __ZTSNSt3__123enable_shared_from_thisIN2gc8RangeMapEEE, 
                       __ZTSNSt3__133__unary_function_keep_layout_baseIN2gc4lang4TileEvEE, 
                       __ZTSNSt3__133__unary_function_keep_layout_baseIRKN2gc3est8VariableENS1_4util10TaggedBoolINS2_15IsEliminableTagEEEEE, 
                       __ZTSNSt3__134__binary_function_keep_layout_baseIN2gc4lang4TileENS2_3est8VariableEvEE, 
                       __ZTSNSt3__134__binary_function_keep_layout_baseIN2gc4lang4TileENS2_6BufferEvEE, 
                       __ZTSNSt3__134__binary_function_keep_layout_baseIN2gc4lang4TileERNS2_3est11BlockMatrixEvEE, 
                       __ZTSNSt3__18functionIFN2gc4util10TaggedBoolINS1_3est15IsEliminableTagEEERKNS4_8VariableEEEE, 
                       __ZTSNSt3__18functionIFvN2gc4lang4TileEEEE, __ZTSNSt3__18functionIFvN2gc4lang4TileENS2_3est13BlockOrderingENS4_14FactorOrderingERNS4_8JacobianERNS4_11BlockMatrixEEEE, 
                       __ZTSNSt3__18functionIFvN2gc4lang4TileENS2_3est13BlockOrderingENS4_14FactorOrderingES6_RNS4_11JacobianSetERNS4_11BlockMatrixEEEE, 
                       __ZTSNSt3__18functionIFvN2gc4lang4TileENS2_3est14FactorOrderingENS4_6FactorENS4_11VariableSetENS2_6ScalarERNS2_6BufferEEEE, 
                       __ZTSNSt3__18functionIFvN2gc4lang4TileENS2_3est14FactorOrderingERNS4_8JacobianENS2_6BufferES8_EEE, 
                       __ZTSNSt3__18functionIFvN2gc4lang4TileENS2_3est6FactorENS2_6BufferENS2_5ArrayINS4_14FactorOrderingEEENS4_11VariableSetENS7_IS6_EESB_EEE, 
                       __ZTSNSt3__18functionIFvN2gc4lang4TileENS2_3est6FactorENS4_11VariableSetENS2_6BufferEEEE, 
                       __ZTSNSt3__18functionIFvN2gc4lang4TileENS2_3est6FactorENS4_11VariableSetENS2_6BufferES7_EEE, 
                       __ZTSNSt3__18functionIFvN2gc4lang4TileENS2_3est8VariableEEEE, 
                       __ZTSNSt3__18functionIFvN2gc4lang4TileENS2_3est8VariableENS2_6ScalarEEEE, 
                       __ZTSNSt3__18functionIFvN2gc4lang4TileENS2_5ArrayINS2_6BufferEEES6_EEE, 
                       __ZTSNSt3__18functionIFvN2gc4lang4TileENS2_6BufferEEEE, __ZTSNSt3__18functionIFvN2gc4lang4TileENS2_6BufferENS2_3est6FactorERNS5_11JacobianSetENS2_5ArrayIS4_EENS9_INS5_14FactorOrderingEEERNS5_16BlockMatrixArrayESA_EEE, 
                       __ZTSNSt3__18functionIFvN2gc4lang4TileENS2_6BufferENS2_3est8VariableEEEE, 
                       __ZTSNSt3__18functionIFvN2gc4lang4TileENS2_6BufferENS2_5ArrayINS2_3est8VariableEEEEEE, 
                       __ZTSNSt3__18functionIFvN2gc4lang4TileENS2_6BufferENS2_5ArrayIS4_EES6_NS2_3est6FactorERNS7_14FactorOrderingENS7_22SchurEliminatedHessianES4_EEE, 
                       __ZTSNSt3__18functionIFvN2gc4lang4TileENS2_6BufferENS2_6ScalarES4_EEE, 
                       __ZTSNSt3__18functionIFvN2gc4lang4TileENS2_6BufferENS2_6ScalarES4_S4_EEE, 
                       __ZTSNSt3__18functionIFvN2gc4lang4TileENS2_6BufferENS2_6ScalarES5_S5_S5_S5_S4_S4_S4_EEE, 
                       __ZTSNSt3__18functionIFvN2gc4lang4TileENS2_6BufferERNS2_3est8JacobianENS5_14FactorOrderingENS2_6ScalarES4_S4_EEE, 
                       __ZTSNSt3__18functionIFvN2gc4lang4TileENS2_6BufferERNS2_3est8JacobianENS5_14FactorOrderingES4_S4_S4_S4_S4_EEE, 
                       __ZTSNSt3__18functionIFvN2gc4lang4TileENS2_6BufferERNS2_3est8JacobianENS5_6FactorERNS5_11JacobianSetERNS5_14FactorOrderingES4_NS2_5ArrayIS4_EENSD_ISB_EERNS2_6ScalarERNS5_16BlockMatrixArrayENS5_22SchurEliminatedHessianESE_S4_S4_EEE, 
                       __ZTSNSt3__18functionIFvN2gc4lang4TileENS2_6BufferERNS2_3est8JacobianES4_S4_EEE, 
                       __ZTSNSt3__18functionIFvN2gc4lang4TileENS2_6BufferES4_EEE, 
                       __ZTSNSt3__18functionIFvN2gc4lang4TileENS2_6BufferES4_NS2_5ArrayINS2_3est8VariableEEEEEE, 
                       __ZTSNSt3__18functionIFvN2gc4lang4TileENS2_6BufferES4_RNS2_3est8JacobianES4_S4_EEE, 
                       __ZTSNSt3__18functionIFvN2gc4lang4TileENS2_6BufferES4_S4_EEE, 
                       __ZTSNSt3__18functionIFvN2gc4lang4TileENS2_6BufferES4_S4_S4_EEE, 
                       __ZTSNSt3__18functionIFvN2gc4lang4TileENS2_6BufferES4_S4_S4_S4_S4_S4_EEE, 
                       __ZTSNSt3__18functionIFvN2gc4lang4TileENS2_6ScalarENS2_6BufferES5_EEE, 
                       __ZTSNSt3__18functionIFvN2gc4lang4TileENS2_6ScalarERNS2_3est11BlockMatrixEEEE, 
                       __ZTSNSt3__18functionIFvN2gc4lang4TileERNS2_3est11BlockMatrixEEEE, 
                       __ZTSNSt3__18functionIFvN2gc4lang4TileERNS2_3est11BlockMatrixENS2_6BufferES7_EEE, 
                       __ZTSNSt3__18functionIFvN2gc4lang4TileERNS2_3est11BlockMatrixENS2_6BufferES7_S7_EEE, 
                       __ZTSNSt3__18functionIFvN2gc4lang4TileERNS2_3est11BlockMatrixENS2_6BufferES7_S7_RS7_EEE, 
                       __ZTSNSt3__18functionIFvN2gc4lang4TileERNS2_3est11JacobianSetENS2_5ArrayINS4_14FactorOrderingEEENS7_INS2_6BufferEEESB_SA_EEE, 
                       __ZTSNSt3__18functionIFvN2gc4lang4TileERNS2_3est14FactorOrderingENS2_6BufferERNS4_8JacobianES7_S7_EEE, 
                       __ZTSNSt3__18functionIFvN2gc4lang4TileERNS2_3est14FactorOrderingERNS4_8JacobianENS2_6BufferERS9_EEE, 
                       __ZTSNSt3__18functionIFvN2gc4lang4TileERNS2_3est14FactorOrderingERNS4_8JacobianENS2_6BufferES9_EEE, 
                       __ZTSNSt3__18functionIFvN2gc4lang4TileERNS2_3est14FactorOrderingERNS4_8JacobianENS2_6BufferES9_S9_EEE, 
                       __ZTSNSt3__18functionIFvN2gc4lang4TileERNS2_3est8JacobianENS2_6BufferES7_EEE, 
                       __ZTSNSt3__18functionIFvN2gc4lang4TileERNS2_3est8JacobianENS2_6BufferES7_S7_EEE, 
                       __ZTSNSt3__18functionIFvN2gc4lang4TileERNS2_3est8JacobianENS2_6BufferES7_S7_RS7_EEE, 
                       __ZTSNSt3__18functionIFvN2gc4lang4TileERNS2_3est8JacobianENS2_6BufferES7_S7_S7_EEE, 
                       __ZTSNSt3__18functionIFvN2gc4lang4TileERNS2_3est8JacobianENS2_6BufferES7_S7_S7_S7_EEE, 
                       __ZTSNSt3__18functionIFvN2gc4lang4TileERNS2_3est8JacobianENS4_14FactorOrderingENS2_6BufferES8_EEE, 
                       __ZTSNSt3__18functionIFvN2gc4lang4TileERNS2_3est8JacobianENS4_14FactorOrderingENS2_6BufferES8_S8_EEE, 
                       __ZTSNSt3__18functionIFvN2gc4lang4TileERNS2_3est8JacobianENS4_14FactorOrderingENS2_6BufferES8_S8_S8_EEE, 
                       __ZTSNSt3__18functionIFvN2gc4lang4TileERNS2_3est8JacobianENS4_14FactorOrderingES7_NS2_6BufferES8_S8_S8_S8_S8_EEE, 
                       __ZTSZN2gc15ScalarInvariant6createINS_6ExtentEEENSt3__110shared_ptrINS_17BindableInvariantEEENS3_8functionIFT_vEEENS3_6vectorINS4_INS_6BufferEEENS3_9allocatorISD_EEEEEUlvE_, 
                       __ZTSZN2gc24FunctionOfRangeInvariant6createENSt3__110shared_ptrINS_6BufferEEENS1_8functionIFNS_12BlockExtentsERKS6_EEEEUlRKNS1_6vectorIS6_NS1_9allocatorIS6_EEEEE_, 
                       __ZTSZN2gc24FunctionOfShapeInvariant6createENSt3__110shared_ptrINS_6BufferEEENS1_8functionIFNS_5ShapeERKS6_EEEEUlRKNS1_6vectorIS6_NS1_9allocatorIS6_EEEEE_, 
                       __ZTSZN2gc26FunctionOfElementInvariant6createENSt3__110shared_ptrINS_6BufferEEENS1_8functionIFNS_14ElementExtentsERKS6_EEEEUlRKNS1_6vectorIS6_NS1_9allocatorIS6_EEEEE_, 
                       __ZTSZN2gc3est10EvaluateHp10kernelFuncEvEUlNS_4lang4TileERNS2_3est11BlockMatrixENS2_6BufferES7_S7_RS7_E_, 
                       __ZTSZN2gc3est10EvaluateHp19kernelFuncNoOffsetsEvEUlNS_4lang4TileERNS2_3est11BlockMatrixENS2_6BufferES7_E_, 
                       __ZTSZN2gc3est10EvaluateJp10kernelFuncEjEUlNS_4lang4TileENS2_6BufferES4_RNS2_3est8JacobianES4_S4_E_, 
                       __ZTSZN2gc3est10EvaluateJp18kernelFuncUnsortedEjEUlNS_4lang4TileENS2_6BufferERNS2_3est8JacobianES4_S4_E_, 
                       __ZTSZN2gc3est10EvaluateJp18kernelFuncVariadicEjEUlNS_4lang4TileERNS2_3est14FactorOrderingENS2_6BufferERNS4_8JacobianES7_S7_E_, 
                       __ZTSZN2gc3est10EvaluateJp19kernelFuncNoOffsetsEjEUlNS_4lang4TileENS2_6BufferERNS2_3est8JacobianES4_S4_E_, 
                       __ZTSZN2gc3est10EvaluateJp27kernelFuncUnsortedNoOffsetsEjEUlNS_4lang4TileERNS2_3est8JacobianENS2_6BufferES7_E_, 
                       __ZTSZN2gc3est10EvaluateJp27kernelFuncVariadicNoOffsetsEjEUlNS_4lang4TileERNS2_3est14FactorOrderingERNS4_8JacobianENS2_6BufferES9_E_, 
                       __ZTSZN2gc3est11EvaluateJtJ18kernelFuncDiagonalEvEUlNS_4lang4TileENS2_3est13BlockOrderingENS4_14FactorOrderingERNS4_8JacobianERNS4_11BlockMatrixEE_, 
                       __ZTSZN2gc3est11EvaluateJtJ21kernelFuncOffDiagonalEvEUlNS_4lang4TileENS2_3est13BlockOrderingENS4_14FactorOrderingES6_RNS4_11JacobianSetERNS4_11BlockMatrixEE_, 
                       __ZTSZN2gc3est11EvaluateJte10kernelFuncEvEUlNS_4lang4TileENS2_3est14FactorOrderingERNS4_8JacobianENS2_6BufferES8_E_, 
                       __ZTSZN2gc3est11PCGIterate110kernelFuncEvEUlNS_4lang4TileENS2_6BufferES4_S4_S4_S4_S4_S4_E_, 
                       __ZTSZN2gc3est11PCGIterate210kernelFuncEvEUlNS_4lang4TileENS2_6BufferES4_S4_E_, 
                       __ZTSZN2gc3est12EvaluateJtJp10kernelFuncEjEUlNS_4lang4TileERNS2_3est14FactorOrderingERNS4_8JacobianENS2_6BufferERS9_E_, 
                       __ZTSZN2gc3est12EvaluateJteM10kernelFuncEvEUlNS_4lang4TileERNS2_3est14FactorOrderingERNS4_8JacobianENS2_6BufferES9_S9_E_, 
                       __ZTSZN2gc3est12InvertBlockM10kernelFuncEvEUlNS_4lang4TileENS2_6BufferES4_E_, 
                       __ZTSZN2gc3est14EvaluateBlockM10kernelFuncEvEUlNS_4lang4TileERNS2_3est14FactorOrderingERNS4_8JacobianENS2_6BufferES9_E_, 
                       __ZTSZN2gc3est14ExtractDiagJtJ10kernelFuncEvEUlNS_4lang4TileERNS2_3est11BlockMatrixENS2_6BufferES7_S7_E_, 
                       __ZTSZN2gc3est14ExtractDiagJtJ19kernelFuncNoOffsetsEvEUlNS_4lang4TileERNS2_3est11BlockMatrixENS2_6BufferES7_E_, 
                       __ZTSZN2gc3est14SchurLinearize16factorKernelFuncERKNSt3__16vectorINS0_13ArgumentGroupENS2_9allocatorIS4_EEEERKNS2_3mapINS2_12basic_stringIcNS2_11char_traitsIcEENS5_IcEEEEjNS2_4lessISF_EENS5_INS2_4pairIKSF_jEEEEEEbEUlNS_4lang4TileENSP_6BufferENSP_3est6FactorERNSS_11JacobianSetENSP_5ArrayISR_EENSW_INSS_14FactorOrderingEEERNSS_16BlockMatrixArrayESX_E_, 
                       __ZTSZN2gc3est14SchurLinearize28eliminatedVariableKernelFuncERKNSt3__16vectorINS0_13ArgumentGroupENS2_9allocatorIS4_EEEERKNS2_3mapINS2_12basic_stringIcNS2_11char_traitsIcEENS5_IcEEEEjNS2_4lessISF_EENS5_INS2_4pairIKSF_jEEEEEEbEUlNS_4lang4TileENSP_6BufferERNSP_3est8JacobianENSS_6FactorERNSS_11JacobianSetERNSS_14FactorOrderingESR_NSP_5ArrayISR_EENS10_ISY_EERNSP_6ScalarERNSS_16BlockMatrixArrayENSS_22SchurEliminatedHessianES11_SR_SR_E_, 
                       __ZTSZN2gc3est17SymmetrizeDiagJtJ10kernelFuncEvEUlNS_4lang4TileERNS2_3est11BlockMatrixEE_, 
                       __ZTSZN2gc3est18ImplicitSchurJtJp110kernelFuncEvEUlNS_4lang4TileERNS2_3est8JacobianENS4_14FactorOrderingENS2_6BufferES8_E_, 
                       __ZTSZN2gc3est18ImplicitSchurJtJp210kernelFuncEjEUlNS_4lang4TileERNS2_3est8JacobianENS2_6BufferES7_S7_S7_S7_E_, 
                       __ZTSZN2gc3est18ImplicitSchurJtJp218kernelFuncUnsortedEjEUlNS_4lang4TileERNS2_3est8JacobianENS2_6BufferES7_S7_S7_E_, 
                       __ZTSZN2gc3est18ImplicitSchurJtJp218kernelFuncVariadicEjEUlNS_4lang4TileERNS2_3est8JacobianENS4_14FactorOrderingENS2_6BufferES8_S8_S8_E_, 
                       __ZTSZN2gc3est18ImplicitSchurJtJp219kernelFuncNoOffsetsEjEUlNS_4lang4TileERNS2_3est8JacobianENS2_6BufferES7_S7_RS7_E_, 
                       __ZTSZN2gc3est18ImplicitSchurJtJp227kernelFuncUnsortedNoOffsetsEjEUlNS_4lang4TileERNS2_3est8JacobianENS2_6BufferES7_S7_E_, 
                       __ZTSZN2gc3est18ImplicitSchurJtJp227kernelFuncVariadicNoOffsetsEjEUlNS_4lang4TileERNS2_3est8JacobianENS4_14FactorOrderingENS2_6BufferES8_S8_E_, 
                       __ZTSZN2gc3est20MaterializeJacobians10kernelFuncERKNS0_16ArgumentGroupingERKNSt3__16vectorINS0_13eJacobianTypeENS5_9allocatorIS7_EEEEEUlNS_4lang4TileENSD_3est6FactorENSD_6BufferENSD_5ArrayINSF_14FactorOrderingEEENSF_11VariableSetENSI_ISH_EESM_E_, 
                       __ZTSZN2gc3est20SchurBackSubstitute110kernelFuncERKNSt3__16vectorINS0_13ArgumentGroupENS2_9allocatorIS4_EEEERKNS2_3mapINS2_12basic_stringIcNS2_11char_traitsIcEENS5_IcEEEEjNS2_4lessISF_EENS5_INS2_4pairIKSF_jEEEEEEbEUlNS_4lang4TileENSP_6BufferENSP_5ArrayISR_EEST_NSP_3est6FactorERNSU_14FactorOrderingENSU_22SchurEliminatedHessianESR_E_, 
                       __ZTSZN2gc3est20SchurBackSubstitute210kernelFuncEvEUlNS_4lang4TileENS2_6BufferES4_E_, 
                       __ZTSZN2gc3est22EvaluateBatchGradients10kernelFuncERKNS0_13ArgumentGroupENS0_13eJacobianTypeEEUlNS_4lang4TileENS6_3est14FactorOrderingENS8_6FactorENS8_11VariableSetENS6_6ScalarERNS6_6BufferEE_, 
                       __ZTSZN2gc3est24ImplicitSchurInitialize110kernelFuncEvEUlNS_4lang4TileENS2_6BufferERNS2_3est8JacobianENS5_14FactorOrderingENS2_6ScalarES4_S4_E_, 
                       __ZTSZN2gc3est24ImplicitSchurInitialize210kernelFuncEjEUlNS_4lang4TileENS2_6BufferERNS2_3est8JacobianENS5_14FactorOrderingES4_S4_S4_S4_S4_E_, 
                       __ZTSZN2gc3est24ImplicitSchurInitialize310kernelFuncEvEUlNS_4lang4TileERNS2_3est8JacobianENS4_14FactorOrderingES7_NS2_6BufferES8_S8_S8_S8_S8_E_, 
                       __ZTSZN2gc3est25ApplyJacobiPreconditioner10kernelFuncEvEUlNS_4lang4TileENS2_6BufferES4_S4_E_, 
                       __ZTSZN2gc3est28ImplicitSchurBackSubstitute110kernelFuncERKNSt3__16vectorINS0_13ArgumentGroupENS2_9allocatorIS4_EEEERKNS2_3mapINS2_12basic_stringIcNS2_11char_traitsIcEENS5_IcEEEEjNS2_4lessISF_EENS5_INS2_4pairIKSF_jEEEEEEEUlNS_4lang4TileERNSP_3est11JacobianSetENSP_5ArrayINSR_14FactorOrderingEEENSU_INSP_6BufferEEESY_SX_E_, 
                       __ZTSZN2gc3est28ImplicitSchurBackSubstitute210kernelFuncEvEUlNS_4lang4TileENS2_6BufferES4_S4_S4_E_, 
                       __ZTSZN2gc3est30ApplyAdditiveLMDampingExplicit10kernelFuncEvEUlNS_4lang4TileENS2_6ScalarERNS2_3est11BlockMatrixEE_, 
                       __ZTSZN2gc3est30ApplyAdditiveLMDampingImplicit10kernelFuncEvEUlNS_4lang4TileENS2_6BufferENS2_6ScalarES4_E_, 
                       __ZTSZN2gc3est30ApplyBlockJacobiPreconditioner10kernelFuncEvEUlNS_4lang4TileENS2_6BufferES4_S4_E_, 
                       __ZTSZN2gc3est33ApplyAdditiveLMDampingToDiagonals10kernelFuncEvEUlNS_4lang4TileENS2_6ScalarENS2_6BufferES5_E_, 
                       __ZTSZN2gc3est36ApplyMultiplicativeLMDampingExplicit10kernelFuncEvEUlNS_4lang4TileENS2_6ScalarERNS2_3est11BlockMatrixEE_, 
                       __ZTSZN2gc3est36ApplyMultiplicativeLMDampingImplicit10kernelFuncEvEUlNS_4lang4TileENS2_6BufferENS2_6ScalarES4_S4_E_, 
                       __ZTSZN2gc3est39ApplyMultiplicativeLMDampingToDiagonals10kernelFuncEvEUlNS_4lang4TileENS2_6ScalarENS2_6BufferES5_E_, 
                       __ZTSZN2gc3est7InvertM10kernelFuncEvEUlNS_4lang4TileENS2_6BufferES4_E_, 
                       __ZTSZN2gc3ops11AddAssignTTC1EvEUlNS_4lang4TileENS2_6BufferES4_E_, 
                       __ZTSZN2gc3ops12PreIncrement6kernelERKNS_8ScheduleEEUlNS_4lang4TileENS5_6BufferEE_, 
                       __ZTSZN2gc3ops16AutoDiffBackprop6kernelERKNS_8ScheduleEEUlNS_4StmtEE_, 
                       __ZTSZN2gc3ops4Copy6kernelERKNS_8ScheduleEEUlNS_4lang4TileENS5_6BufferES7_E_, 
                       __ZTSZN2gc3ops6detail12ScatterZeros6kernelERKNS_8ScheduleEEUlNS_4lang4TileENS6_6BufferES8_S8_E_, 
                       __ZTSZN2gc3ops6detail9VarAssign6kernelERKNS_8ScheduleEEUlNS_4lang4TileENS6_6BufferES8_E_, 
                       __ZTSZN2gc4lang3est11BlockMatrix13forEachColumnIZZNS_3est10EvaluateHp19kernelFuncNoOffsetsEvENKUlNS0_4TileERS2_NS0_6BufferES8_E_clES6_S7_S8_S8_EUlNS_4ExprENS0_6MatrixEE_EEvRKSA_OT_EUlSF_E_, 
                       __ZTSZN2gc4lang3est11BlockMatrix13forEachColumnIZZNS_3est14ExtractDiagJtJ10kernelFuncEvENKUlNS0_4TileERS2_NS0_6BufferES8_S8_E_clES6_S7_S8_S8_S8_EUlNS_4ExprENS0_6MatrixEE_EEvRKSA_OT_EUlSF_E_, 
                       __ZTSZN2gc4lang3est11BlockMatrix13forEachColumnIZZNS_3est14ExtractDiagJtJ19kernelFuncNoOffsetsEvENKUlNS0_4TileERS2_NS0_6BufferES8_E_clES6_S7_S8_S8_EUlNS_4ExprENS0_6MatrixEE_EEvRKSA_OT_EUlSF_E_, 
                       __ZTSZN2gc4lang3est11BlockMatrix13forEachColumnIZZNS_3est17SymmetrizeDiagJtJ10kernelFuncEvENKUlNS0_4TileERS2_E_clES6_S7_EUlNS_4ExprENS0_6MatrixEE_EEvRKS9_OT_EUlSE_E_, 
                       __ZTSZN2gc4lang3est11BlockMatrix13forEachColumnIZZNS_3est30ApplyAdditiveLMDampingExplicit10kernelFuncEvENKUlNS0_4TileENS0_6ScalarERS2_E_clES6_S7_S8_EUlNS_4ExprENS0_6MatrixEE_EEvRKSA_OT_EUlSF_E_, 
                       __ZTSZN2gc4lang3est11BlockMatrix13forEachColumnIZZNS_3est36ApplyMultiplicativeLMDampingExplicit10kernelFuncEvENKUlNS0_4TileENS0_6ScalarERS2_E_clES6_S7_S8_EUlNS_4ExprENS0_6MatrixEE_EEvRKSA_OT_EUlSF_E_, 
                       __ZTSZN2gc4lang3est11BlockMatrix13forEachColumnIZZZNS_3est10EvaluateHp10kernelFuncEvENKUlNS0_4TileERS2_NS0_6BufferES8_S8_RS8_E_clES6_S7_S8_S8_S8_S9_ENKUlvE_clEvEUlNS_4ExprENS0_6MatrixEE_EEvRKSC_OT_EUlSH_E_, 
                       __ZTSZN2gc4lang4simd22SIMDInnerProductMatrixC1ERKNS0_6BufferERKNS1_16MatMulParameters11InputMatrixERKNSt3__16vectorINS_4ExprENSA_9allocatorISC_EEEEEUlSH_E_, 
                       __ZTSZN2gc4lang4simd25GeneralInnerProductMatrixC1ERKNS0_6BufferERKNS1_16MatMulParameters11InputMatrixEEUlRKNSt3__16vectorINS_4ExprENSA_9allocatorISC_EEEEE_, 
                       __ZTSZN2gc4lang4simd27SIMDInnerProductAccumulatorC1ENSt3__110shared_ptrINS1_18InnerProductMatrixEEES6_RNS0_6BufferERKNS1_16MatMulParametersENS_4ExprERKNS3_6vectorISC_NS3_9allocatorISC_EEEEEUlSI_E0_, 
                       __ZTSZN2gc4lang4simd27SIMDInnerProductAccumulatorC1ENSt3__110shared_ptrINS1_18InnerProductMatrixEEES6_RNS0_6BufferERKNS1_16MatMulParametersENS_4ExprERKNS3_6vectorISC_NS3_9allocatorISC_EEEEEUlSI_E_, 
                       __ZTSZN2gc4lang4simd28SIMDCachedInnerProductMatrixC1ERKNS0_6BufferERKNS1_16MatMulParameters11InputMatrixERKNS6_7CachingENS_4ExprERKNSt3__16vectorISD_NSE_9allocatorISD_EEEESK_SK_EUlSK_E_, 
                       __ZTSZN2gc4lang4simd28SIMDCachedInnerProductMatrixC1ERKNS0_6BufferERKNS1_16MatMulParameters11InputMatrixERKNS6_7CachingENS_4ExprERKNSt3__16vectorISD_NSE_9allocatorISD_EEEESK_SK_EUlT_E_, 
                       __ZTSZN2gc4lang4simd29LargeKInnerProductAccumulatorC1ENSt3__110shared_ptrINS1_18InnerProductMatrixEEES6_RNS0_6BufferERKNS1_16MatMulParametersENS_4ExprERKNS3_6vectorISC_NS3_9allocatorISC_EEEESI_SI_EUlSI_E0_, 
                       __ZTSZN2gc4lang4simd29LargeKInnerProductAccumulatorC1ENSt3__110shared_ptrINS1_18InnerProductMatrixEEES6_RNS0_6BufferERKNS1_16MatMulParametersENS_4ExprERKNS3_6vectorISC_NS3_9allocatorISC_EEEESI_SI_EUlSI_E_, 
                       __ZTSZN2gc4lang4simd29SmallKInnerProductAccumulatorC1ENSt3__110shared_ptrINS1_18InnerProductMatrixEEES6_RNS0_6BufferERKNS1_16MatMulParametersENS_4ExprERKNS3_6vectorISC_NS3_9allocatorISC_EEEESI_SI_EUlSI_E0_, 
                       __ZTSZN2gc4lang4simd29SmallKInnerProductAccumulatorC1ENSt3__110shared_ptrINS1_18InnerProductMatrixEEES6_RNS0_6BufferERKNS1_16MatMulParametersENS_4ExprERKNS3_6vectorISC_NS3_9allocatorISC_EEEESI_SI_EUlSI_E_, 
                       __ZTSZN2gc4lang4simd30GeneralInnerProductAccumulatorC1ENSt3__110shared_ptrINS1_18InnerProductMatrixEEES6_RNS0_6BufferENS_4ExprEEUlRKNS3_6vectorIS9_NS3_9allocatorIS9_EEEEE0_, 
                       __ZTSZN2gc4lang4simd30GeneralInnerProductAccumulatorC1ENSt3__110shared_ptrINS1_18InnerProductMatrixEEES6_RNS0_6BufferENS_4ExprEEUlRKNS3_6vectorIS9_NS3_9allocatorIS9_EEEEE_, 
                       __ZTSZNK2gc4lang3est13BlockOrdering13forEachFactorIZZNS_3est11EvaluateJtJ18kernelFuncDiagonalEvENKUlNS0_4TileES2_NS1_14FactorOrderingERNS1_8JacobianERNS1_11BlockMatrixEE_clES6_S2_S7_S9_SB_EUlNS_4ExprEE_EEvRKSD_OT_EUlSH_E_, 
                       __ZTSZNK2gc4lang3est13BlockOrdering13forEachFactorIZZNS_3est11EvaluateJtJ21kernelFuncOffDiagonalEvENKUlNS0_4TileES2_NS1_14FactorOrderingES7_RNS1_11JacobianSetERNS1_11BlockMatrixEE_clES6_S2_S7_S7_S9_SB_EUlNS_4ExprEE_EEvRKSD_OT_EUlSH_E_, 
                       __ZTSZZN2gc3est10EvaluateHp10kernelFuncEvENKUlNS_4lang4TileERNS2_3est11BlockMatrixENS2_6BufferES7_S7_RS7_E_clES3_S6_S7_S7_S7_S8_EUlvE_, 
                       __ZTSZZN2gc3est10EvaluateJp18kernelFuncUnsortedEjENKUlNS_4lang4TileENS2_6BufferERNS2_3est8JacobianES4_S4_E_clES3_S4_S7_S4_S4_EUlvE_, 
                       __ZTSZZN2gc3est10EvaluateJp18kernelFuncVariadicEjENKUlNS_4lang4TileERNS2_3est14FactorOrderingENS2_6BufferERNS4_8JacobianES7_S7_E_clES3_S6_S7_S9_S7_S7_EUlNS_4ExprEE_, 
                       __ZTSZZN2gc3est10EvaluateJp27kernelFuncVariadicNoOffsetsEjENKUlNS_4lang4TileERNS2_3est14FactorOrderingERNS4_8JacobianENS2_6BufferES9_E_clES3_S6_S8_S9_S9_EUlNS_4ExprEE_, 
                       __ZTSZZN2gc3est11EvaluateJte10kernelFuncEvENKUlNS_4lang4TileENS2_3est14FactorOrderingERNS4_8JacobianENS2_6BufferES8_E_clES3_S5_S7_S8_S8_EUlNS_4ExprESA_E_, 
                       __ZTSZZN2gc3est12EvaluateJtJp10kernelFuncEjENKUlNS_4lang4TileERNS2_3est14FactorOrderingERNS4_8JacobianENS2_6BufferERS9_E_clES3_S6_S8_S9_SA_EUlNS_4ExprESC_E_, 
                       __ZTSZZN2gc3est12EvaluateJteM10kernelFuncEvENKUlNS_4lang4TileERNS2_3est14FactorOrderingERNS4_8JacobianENS2_6BufferES9_S9_E_clES3_S6_S8_S9_S9_S9_EUlNS_4ExprESB_E_, 
                       __ZTSZZN2gc3est12InvertBlockM10kernelFuncEvENKUlNS_4lang4TileENS2_6BufferES4_E_clES3_S4_S4_EUlT_E_, 
                       __ZTSZZN2gc3est12InvertBlockM10kernelFuncEvENKUlNS_4lang4TileENS2_6BufferES4_E_clES3_S4_S4_EUlvE0_, 
                       __ZTSZZN2gc3est12InvertBlockM10kernelFuncEvENKUlNS_4lang4TileENS2_6BufferES4_E_clES3_S4_S4_EUlvE_, 
                       __ZTSZZN2gc3est14EvaluateBlockM10kernelFuncEvENKUlNS_4lang4TileERNS2_3est14FactorOrderingERNS4_8JacobianENS2_6BufferES9_E_clES3_S6_S8_S9_S9_EUlNS_4ExprESB_E_, 
                       __ZTSZZN2gc3est14SchurLinearize16factorKernelFuncERKNSt3__16vectorINS0_13ArgumentGroupENS2_9allocatorIS4_EEEERKNS2_3mapINS2_12basic_stringIcNS2_11char_traitsIcEENS5_IcEEEEjNS2_4lessISF_EENS5_INS2_4pairIKSF_jEEEEEEbENKUlNS_4lang4TileENSP_6BufferENSP_3est6FactorERNSS_11JacobianSetENSP_5ArrayISR_EENSW_INSS_14FactorOrderingEEERNSS_16BlockMatrixArrayESX_E_clESQ_SR_ST_SV_SX_SZ_S11_SX_EUlvE_, 
                       __ZTSZZN2gc3est14SchurLinearize28eliminatedVariableKernelFuncERKNSt3__16vectorINS0_13ArgumentGroupENS2_9allocatorIS4_EEEERKNS2_3mapINS2_12basic_stringIcNS2_11char_traitsIcEENS5_IcEEEEjNS2_4lessISF_EENS5_INS2_4pairIKSF_jEEEEEEbENKUlNS_4lang4TileENSP_6BufferERNSP_3est8JacobianENSS_6FactorERNSS_11JacobianSetERNSS_14FactorOrderingESR_NSP_5ArrayISR_EENS10_ISY_EERNSP_6ScalarERNSS_16BlockMatrixArrayENSS_22SchurEliminatedHessianES11_SR_SR_E_clESQ_SR_SU_SV_SX_SZ_SR_S11_S12_S14_S16_S17_S11_SR_SR_EUlNS_4ExprEE0_, 
                       __ZTSZZN2gc3est14SchurLinearize28eliminatedVariableKernelFuncERKNSt3__16vectorINS0_13ArgumentGroupENS2_9allocatorIS4_EEEERKNS2_3mapINS2_12basic_stringIcNS2_11char_traitsIcEENS5_IcEEEEjNS2_4lessISF_EENS5_INS2_4pairIKSF_jEEEEEEbENKUlNS_4lang4TileENSP_6BufferERNSP_3est8JacobianENSS_6FactorERNSS_11JacobianSetERNSS_14FactorOrderingESR_NSP_5ArrayISR_EENS10_ISY_EERNSP_6ScalarERNSS_16BlockMatrixArrayENSS_22SchurEliminatedHessianES11_SR_SR_E_clESQ_SR_SU_SV_SX_SZ_SR_S11_S12_S14_S16_S17_S11_SR_SR_EUlNS_4ExprEE_, 
                       __ZTSZZN2gc3est14SchurLinearize28eliminatedVariableKernelFuncERKNSt3__16vectorINS0_13ArgumentGroupENS2_9allocatorIS4_EEEERKNS2_3mapINS2_12basic_stringIcNS2_11char_traitsIcEENS5_IcEEEEjNS2_4lessISF_EENS5_INS2_4pairIKSF_jEEEEEEbENKUlNS_4lang4TileENSP_6BufferERNSP_3est8JacobianENSS_6FactorERNSS_11JacobianSetERNSS_14FactorOrderingESR_NSP_5ArrayISR_EENS10_ISY_EERNSP_6ScalarERNSS_16BlockMatrixArrayENSS_22SchurEliminatedHessianES11_SR_SR_E_clESQ_SR_SU_SV_SX_SZ_SR_S11_S12_S14_S16_S17_S11_SR_SR_EUlT_E0_, 
                       __ZTSZZN2gc3est14SchurLinearize28eliminatedVariableKernelFuncERKNSt3__16vectorINS0_13ArgumentGroupENS2_9allocatorIS4_EEEERKNS2_3mapINS2_12basic_stringIcNS2_11char_traitsIcEENS5_IcEEEEjNS2_4lessISF_EENS5_INS2_4pairIKSF_jEEEEEEbENKUlNS_4lang4TileENSP_6BufferERNSP_3est8JacobianENSS_6FactorERNSS_11JacobianSetERNSS_14FactorOrderingESR_NSP_5ArrayISR_EENS10_ISY_EERNSP_6ScalarERNSS_16BlockMatrixArrayENSS_22SchurEliminatedHessianES11_SR_SR_E_clESQ_SR_SU_SV_SX_SZ_SR_S11_S12_S14_S16_S17_S11_SR_SR_EUlT_E_, 
                       __ZTSZZN2gc3est14SchurLinearize28eliminatedVariableKernelFuncERKNSt3__16vectorINS0_13ArgumentGroupENS2_9allocatorIS4_EEEERKNS2_3mapINS2_12basic_stringIcNS2_11char_traitsIcEENS5_IcEEEEjNS2_4lessISF_EENS5_INS2_4pairIKSF_jEEEEEEbENKUlNS_4lang4TileENSP_6BufferERNSP_3est8JacobianENSS_6FactorERNSS_11JacobianSetERNSS_14FactorOrderingESR_NSP_5ArrayISR_EENS10_ISY_EERNSP_6ScalarERNSS_16BlockMatrixArrayENSS_22SchurEliminatedHessianES11_SR_SR_E_clESQ_SR_SU_SV_SX_SZ_SR_S11_S12_S14_S16_S17_S11_SR_SR_EUlvE_, 
                       __ZTSZZN2gc3est18ImplicitSchurJtJp110kernelFuncEvENKUlNS_4lang4TileERNS2_3est8JacobianENS4_14FactorOrderingENS2_6BufferES8_E_clES3_S6_S7_S8_S8_EUlNS_4ExprESA_E_, 
                       __ZTSZZN2gc3est18ImplicitSchurJtJp218kernelFuncUnsortedEjENKUlNS_4lang4TileERNS2_3est8JacobianENS2_6BufferES7_S7_S7_E_clES3_S6_S7_S7_S7_S7_EUlvE_, 
                       __ZTSZZN2gc3est18ImplicitSchurJtJp218kernelFuncVariadicEjENKUlNS_4lang4TileERNS2_3est8JacobianENS4_14FactorOrderingENS2_6BufferES8_S8_S8_E_clES3_S6_S7_S8_S8_S8_S8_EUlNS_4ExprEE_, 
                       __ZTSZZN2gc3est18ImplicitSchurJtJp227kernelFuncVariadicNoOffsetsEjENKUlNS_4lang4TileERNS2_3est8JacobianENS4_14FactorOrderingENS2_6BufferES8_S8_E_clES3_S6_S7_S8_S8_S8_EUlNS_4ExprEE_, 
                       __ZTSZZN2gc3est20MaterializeJacobians10kernelFuncERKNS0_16ArgumentGroupingERKNSt3__16vectorINS0_13eJacobianTypeENS5_9allocatorIS7_EEEEENKUlNS_4lang4TileENSD_3est6FactorENSD_6BufferENSD_5ArrayINSF_14FactorOrderingEEENSF_11VariableSetENSI_ISH_EESM_E_clESE_SG_SH_SK_SL_SM_SM_EUlNS_4ExprEE_, 
                       __ZTSZZN2gc3est20SchurBackSubstitute110kernelFuncERKNSt3__16vectorINS0_13ArgumentGroupENS2_9allocatorIS4_EEEERKNS2_3mapINS2_12basic_stringIcNS2_11char_traitsIcEENS5_IcEEEEjNS2_4lessISF_EENS5_INS2_4pairIKSF_jEEEEEEbENKUlNS_4lang4TileENSP_6BufferENSP_5ArrayISR_EEST_NSP_3est6FactorERNSU_14FactorOrderingENSU_22SchurEliminatedHessianESR_E_clESQ_SR_ST_ST_SV_SX_SY_SR_EUlNS_4ExprEE_, 
                       __ZTSZZN2gc3est22EvaluateBatchGradients10kernelFuncERKNS0_13ArgumentGroupENS0_13eJacobianTypeEENKUlNS_4lang4TileENS6_3est14FactorOrderingENS8_6FactorENS8_11VariableSetENS6_6ScalarERNS6_6BufferEE_clES7_S9_SA_SB_SC_SE_EUlT_T0_E_, 
                       __ZTSZZN2gc3est24ImplicitSchurInitialize110kernelFuncEvENKUlNS_4lang4TileENS2_6BufferERNS2_3est8JacobianENS5_14FactorOrderingENS2_6ScalarES4_S4_E_clES3_S4_S7_S8_S9_S4_S4_EUlNS_4ExprESB_E_, 
                       __ZTSZZN2gc3est24ImplicitSchurInitialize110kernelFuncEvENKUlNS_4lang4TileENS2_6BufferERNS2_3est8JacobianENS5_14FactorOrderingENS2_6ScalarES4_S4_E_clES3_S4_S7_S8_S9_S4_S4_EUlT_E0_, 
                       __ZTSZZN2gc3est24ImplicitSchurInitialize110kernelFuncEvENKUlNS_4lang4TileENS2_6BufferERNS2_3est8JacobianENS5_14FactorOrderingENS2_6ScalarES4_S4_E_clES3_S4_S7_S8_S9_S4_S4_EUlT_E_, 
                       __ZTSZZN2gc3est24ImplicitSchurInitialize110kernelFuncEvENKUlNS_4lang4TileENS2_6BufferERNS2_3est8JacobianENS5_14FactorOrderingENS2_6ScalarES4_S4_E_clES3_S4_S7_S8_S9_S4_S4_EUlvE_, 
                       __ZTSZZN2gc3est24ImplicitSchurInitialize310kernelFuncEvENKUlNS_4lang4TileERNS2_3est8JacobianENS4_14FactorOrderingES7_NS2_6BufferES8_S8_S8_S8_S8_E_clES3_S6_S7_S7_S8_S8_S8_S8_S8_S8_EUlNS_4ExprESA_E_, 
                       __ZTSZZN2gc3est28ImplicitSchurBackSubstitute110kernelFuncERKNSt3__16vectorINS0_13ArgumentGroupENS2_9allocatorIS4_EEEERKNS2_3mapINS2_12basic_stringIcNS2_11char_traitsIcEENS5_IcEEEEjNS2_4lessISF_EENS5_INS2_4pairIKSF_jEEEEEEENKUlNS_4lang4TileERNSP_3est11JacobianSetENSP_5ArrayINSR_14FactorOrderingEEENSU_INSP_6BufferEEESY_SX_E_clESQ_ST_SW_SY_SY_SX_EUlvE_, 
                       __ZTSZZN2gc3est33ApplyAdditiveLMDampingToDiagonals10kernelFuncEvENKUlNS_4lang4TileENS2_6ScalarENS2_6BufferES5_E_clES3_S4_S5_S5_EUlT_E_, 
                       __ZTSZZN2gc3est39ApplyMultiplicativeLMDampingToDiagonals10kernelFuncEvENKUlNS_4lang4TileENS2_6ScalarENS2_6BufferES5_E_clES3_S4_S5_S5_EUlT_E_, 
                       __ZTSZZN2gc4lang3est11BlockMatrix13forEachColumnIZZNS_3est10EvaluateHp19kernelFuncNoOffsetsEvENKUlNS0_4TileERS2_NS0_6BufferES8_E_clES6_S7_S8_S8_EUlNS_4ExprENS0_6MatrixEE_EEvRKSA_OT_ENKUlSF_E_clISA_EEDaSF_EUlvE_, 
                       __ZTSZZN2gc4lang3est11BlockMatrix13forEachColumnIZZNS_3est14ExtractDiagJtJ10kernelFuncEvENKUlNS0_4TileERS2_NS0_6BufferES8_S8_E_clES6_S7_S8_S8_S8_EUlNS_4ExprENS0_6MatrixEE_EEvRKSA_OT_ENKUlSF_E_clISA_EEDaSF_EUlvE_, 
                       __ZTSZZN2gc4lang3est11BlockMatrix13forEachColumnIZZNS_3est14ExtractDiagJtJ19kernelFuncNoOffsetsEvENKUlNS0_4TileERS2_NS0_6BufferES8_E_clES6_S7_S8_S8_EUlNS_4ExprENS0_6MatrixEE_EEvRKSA_OT_ENKUlSF_E_clISA_EEDaSF_EUlvE_, 
                       __ZTSZZN2gc4lang3est11BlockMatrix13forEachColumnIZZNS_3est17SymmetrizeDiagJtJ10kernelFuncEvENKUlNS0_4TileERS2_E_clES6_S7_EUlNS_4ExprENS0_6MatrixEE_EEvRKS9_OT_ENKUlSE_E_clIS9_EEDaSE_EUlvE_, 
                       __ZTSZZN2gc4lang3est11BlockMatrix13forEachColumnIZZNS_3est30ApplyAdditiveLMDampingExplicit10kernelFuncEvENKUlNS0_4TileENS0_6ScalarERS2_E_clES6_S7_S8_EUlNS_4ExprENS0_6MatrixEE_EEvRKSA_OT_ENKUlSF_E_clISA_EEDaSF_EUlvE_, 
                       __ZTSZZN2gc4lang3est11BlockMatrix13forEachColumnIZZNS_3est36ApplyMultiplicativeLMDampingExplicit10kernelFuncEvENKUlNS0_4TileENS0_6ScalarERS2_E_clES6_S7_S8_EUlNS_4ExprENS0_6MatrixEE_EEvRKSA_OT_ENKUlSF_E_clISA_EEDaSF_EUlvE_, 
                       __ZTSZZN2gc4lang3est11BlockMatrix13forEachColumnIZZZNS_3est10EvaluateHp10kernelFuncEvENKUlNS0_4TileERS2_NS0_6BufferES8_S8_RS8_E_clES6_S7_S8_S8_S8_S9_ENKUlvE_clEvEUlNS_4ExprENS0_6MatrixEE_EEvRKSC_OT_ENKUlSH_E_clISC_EEDaSH_EUlvE_, 
                       __ZTSZZN2gc4lang4simd27SIMDInnerProductAccumulatorC1ENSt3__110shared_ptrINS1_18InnerProductMatrixEEES6_RNS0_6BufferERKNS1_16MatMulParametersENS_4ExprERKNS3_6vectorISC_NS3_9allocatorISC_EEEEENKUlSI_E0_clESI_EUlT_E_, 
                       __ZTSZZN2gc4lang4simd29LargeKInnerProductAccumulatorC1ENSt3__110shared_ptrINS1_18InnerProductMatrixEEES6_RNS0_6BufferERKNS1_16MatMulParametersENS_4ExprERKNS3_6vectorISC_NS3_9allocatorISC_EEEESI_SI_ENKUlSI_E0_clESI_EUlT_E_, 
                       __ZTSZZN2gc4lang4simd29LargeKInnerProductAccumulatorC1ENSt3__110shared_ptrINS1_18InnerProductMatrixEEES6_RNS0_6BufferERKNS1_16MatMulParametersENS_4ExprERKNS3_6vectorISC_NS3_9allocatorISC_EEEESI_SI_ENKUlSI_E_clESI_EUlvE_, 
                       __ZTSZZN2gc4lang4simd29SmallKInnerProductAccumulatorC1ENSt3__110shared_ptrINS1_18InnerProductMatrixEEES6_RNS0_6BufferERKNS1_16MatMulParametersENS_4ExprERKNS3_6vectorISC_NS3_9allocatorISC_EEEESI_SI_ENKUlSI_E0_clESI_EUlT_E_, 
                       __ZTSZZN2gc4lang4simd30GeneralInnerProductAccumulatorC1ENSt3__110shared_ptrINS1_18InnerProductMatrixEEES6_RNS0_6BufferENS_4ExprEENKUlRKNS3_6vectorIS9_NS3_9allocatorIS9_EEEEE_clESF_EUlT_E_, 
                       __ZTSZZZN2gc3est10EvaluateJp18kernelFuncVariadicEjENKUlNS_4lang4TileERNS2_3est14FactorOrderingENS2_6BufferERNS4_8JacobianES7_S7_E_clES3_S6_S7_S9_S7_S7_ENKUlNS_4ExprEE_clESB_EUlvE_, 
                       __ZTSZZZN2gc3est11EvaluateJtJ18kernelFuncDiagonalEvENKUlNS_4lang4TileENS2_3est13BlockOrderingENS4_14FactorOrderingERNS4_8JacobianERNS4_11BlockMatrixEE_clES3_S5_S6_S8_SA_ENKUlNS_4ExprEE_clESC_EUlSC_E_, 
                       __ZTSZZZN2gc3est11EvaluateJtJ21kernelFuncOffDiagonalEvENKUlNS_4lang4TileENS2_3est13BlockOrderingENS4_14FactorOrderingES6_RNS4_11JacobianSetERNS4_11BlockMatrixEE_clES3_S5_S6_S6_S8_SA_ENKUlNS_4ExprEE_clESC_EUlSC_E_, 
                       __ZTSZZZN2gc3est12EvaluateJteM10kernelFuncEvENKUlNS_4lang4TileERNS2_3est14FactorOrderingERNS4_8JacobianENS2_6BufferES9_S9_E_clES3_S6_S8_S9_S9_S9_ENKUlNS_4ExprESB_E_clESB_SB_EUlT_E_, 
                       __ZTSZZZN2gc3est12InvertBlockM10kernelFuncEvENKUlNS_4lang4TileENS2_6BufferES4_E_clES3_S4_S4_ENKUlvE0_clEvEUlT_E_, 
                       __ZTSZZZN2gc3est14ExtractDiagJtJ10kernelFuncEvENKUlNS_4lang4TileERNS2_3est11BlockMatrixENS2_6BufferES7_S7_E_clES3_S6_S7_S7_S7_ENKUlNS_4ExprENS2_6MatrixEE_clES9_SA_EUlvE_, 
                       __ZTSZZZN2gc3est14ExtractDiagJtJ19kernelFuncNoOffsetsEvENKUlNS_4lang4TileERNS2_3est11BlockMatrixENS2_6BufferES7_E_clES3_S6_S7_S7_ENKUlNS_4ExprENS2_6MatrixEE_clES9_SA_EUlvE_, 
                       __ZTSZZZN2gc3est14SchurLinearize16factorKernelFuncERKNSt3__16vectorINS0_13ArgumentGroupENS2_9allocatorIS4_EEEERKNS2_3mapINS2_12basic_stringIcNS2_11char_traitsIcEENS5_IcEEEEjNS2_4lessISF_EENS5_INS2_4pairIKSF_jEEEEEEbENKUlNS_4lang4TileENSP_6BufferENSP_3est6FactorERNSS_11JacobianSetENSP_5ArrayISR_EENSW_INSS_14FactorOrderingEEERNSS_16BlockMatrixArrayESX_E_clESQ_SR_ST_SV_SX_SZ_S11_SX_ENKUlvE_clEvEUlNS_4ExprEE_, 
                       __ZTSZZZN2gc3est14SchurLinearize28eliminatedVariableKernelFuncERKNSt3__16vectorINS0_13ArgumentGroupENS2_9allocatorIS4_EEEERKNS2_3mapINS2_12basic_stringIcNS2_11char_traitsIcEENS5_IcEEEEjNS2_4lessISF_EENS5_INS2_4pairIKSF_jEEEEEEbENKUlNS_4lang4TileENSP_6BufferERNSP_3est8JacobianENSS_6FactorERNSS_11JacobianSetERNSS_14FactorOrderingESR_NSP_5ArrayISR_EENS10_ISY_EERNSP_6ScalarERNSS_16BlockMatrixArrayENSS_22SchurEliminatedHessianES11_SR_SR_E_clESQ_SR_SU_SV_SX_SZ_SR_S11_S12_S14_S16_S17_S11_SR_SR_ENKUlNS_4ExprEE0_clES19_EUlvE_, 
                       __ZTSZZZN2gc3est14SchurLinearize28eliminatedVariableKernelFuncERKNSt3__16vectorINS0_13ArgumentGroupENS2_9allocatorIS4_EEEERKNS2_3mapINS2_12basic_stringIcNS2_11char_traitsIcEENS5_IcEEEEjNS2_4lessISF_EENS5_INS2_4pairIKSF_jEEEEEEbENKUlNS_4lang4TileENSP_6BufferERNSP_3est8JacobianENSS_6FactorERNSS_11JacobianSetERNSS_14FactorOrderingESR_NSP_5ArrayISR_EENS10_ISY_EERNSP_6ScalarERNSS_16BlockMatrixArrayENSS_22SchurEliminatedHessianES11_SR_SR_E_clESQ_SR_SU_SV_SX_SZ_SR_S11_S12_S14_S16_S17_S11_SR_SR_ENKUlNS_4ExprEE_clES19_EUlS19_E_, 
                       __ZTSZZZN2gc3est17SymmetrizeDiagJtJ10kernelFuncEvENKUlNS_4lang4TileERNS2_3est11BlockMatrixEE_clES3_S6_ENKUlNS_4ExprENS2_6MatrixEE_clES8_S9_EUlvE_, 
                       __ZTSZZZN2gc3est18ImplicitSchurJtJp218kernelFuncVariadicEjENKUlNS_4lang4TileERNS2_3est8JacobianENS4_14FactorOrderingENS2_6BufferES8_S8_S8_E_clES3_S6_S7_S8_S8_S8_S8_ENKUlNS_4ExprEE_clESA_EUlvE_, 
                       __ZTSZZZN2gc3est20MaterializeJacobians10kernelFuncERKNS0_16ArgumentGroupingERKNSt3__16vectorINS0_13eJacobianTypeENS5_9allocatorIS7_EEEEENKUlNS_4lang4TileENSD_3est6FactorENSD_6BufferENSD_5ArrayINSF_14FactorOrderingEEENSF_11VariableSetENSI_ISH_EESM_E_clESE_SG_SH_SK_SL_SM_SM_ENKUlNS_4ExprEE_clESO_EUlvE_, 
                       __ZTSZZZN2gc3est20SchurBackSubstitute110kernelFuncERKNSt3__16vectorINS0_13ArgumentGroupENS2_9allocatorIS4_EEEERKNS2_3mapINS2_12basic_stringIcNS2_11char_traitsIcEENS5_IcEEEEjNS2_4lessISF_EENS5_INS2_4pairIKSF_jEEEEEEbENKUlNS_4lang4TileENSP_6BufferENSP_5ArrayISR_EEST_NSP_3est6FactorERNSU_14FactorOrderingENSU_22SchurEliminatedHessianESR_E_clESQ_SR_ST_ST_SV_SX_SY_SR_ENKUlNS_4ExprEE_clES10_EUlvE_, 
                       __ZTSZZZN2gc3est22EvaluateBatchGradients10kernelFuncERKNS0_13ArgumentGroupENS0_13eJacobianTypeEENKUlNS_4lang4TileENS6_3est14FactorOrderingENS8_6FactorENS8_11VariableSetENS6_6ScalarERNS6_6BufferEE_clES7_S9_SA_SB_SC_SE_ENKUlT_T0_E_clINS_4ExprESK_EEDaSG_SH_EUlSG_E_, 
                       __ZTSZZZN2gc3est22EvaluateBatchGradients10kernelFuncERKNS0_13ArgumentGroupENS0_13eJacobianTypeEENKUlNS_4lang4TileENS6_3est14FactorOrderingENS8_6FactorENS8_11VariableSetENS6_6ScalarERNS6_6BufferEE_clES7_S9_SA_SB_SC_SE_ENKUlT_T0_E_clINS_4ExprESK_EEDaSG_SH_EUlvE_, 
                       __ZTSZZZN2gc3est24ImplicitSchurInitialize310kernelFuncEvENKUlNS_4lang4TileERNS2_3est8JacobianENS4_14FactorOrderingES7_NS2_6BufferES8_S8_S8_S8_S8_E_clES3_S6_S7_S7_S8_S8_S8_S8_S8_S8_ENKUlNS_4ExprESA_E_clESA_SA_EUlSA_E_, 
                       __ZTSZZZN2gc3est28ImplicitSchurBackSubstitute110kernelFuncERKNSt3__16vectorINS0_13ArgumentGroupENS2_9allocatorIS4_EEEERKNS2_3mapINS2_12basic_stringIcNS2_11char_traitsIcEENS5_IcEEEEjNS2_4lessISF_EENS5_INS2_4pairIKSF_jEEEEEEENKUlNS_4lang4TileERNSP_3est11JacobianSetENSP_5ArrayINSR_14FactorOrderingEEENSU_INSP_6BufferEEESY_SX_E_clESQ_ST_SW_SY_SY_SX_ENKUlvE_clEvEUlNS_4ExprEE_, 
                       __ZTSZZZN2gc3est30ApplyAdditiveLMDampingExplicit10kernelFuncEvENKUlNS_4lang4TileENS2_6ScalarERNS2_3est11BlockMatrixEE_clES3_S4_S7_ENKUlNS_4ExprENS2_6MatrixEE_clES9_SA_EUlvE_, 
                       __ZTSZZZN2gc3est36ApplyMultiplicativeLMDampingExplicit10kernelFuncEvENKUlNS_4lang4TileENS2_6ScalarERNS2_3est11BlockMatrixEE_clES3_S4_S7_ENKUlNS_4ExprENS2_6MatrixEE_clES9_SA_EUlvE_, 
                       __ZTSZZZN2gc4lang4simd29LargeKInnerProductAccumulatorC1ENSt3__110shared_ptrINS1_18InnerProductMatrixEEES6_RNS0_6BufferERKNS1_16MatMulParametersENS_4ExprERKNS3_6vectorISC_NS3_9allocatorISC_EEEESI_SI_ENKUlSI_E_clESI_ENKUlvE_clEvEUlT_E_, 
                       __ZTSZZZZN2gc3est10EvaluateHp10kernelFuncEvENKUlNS_4lang4TileERNS2_3est11BlockMatrixENS2_6BufferES7_S7_RS7_E_clES3_S6_S7_S7_S7_S8_ENKUlvE_clEvENKUlNS_4ExprENS2_6MatrixEE_clESB_SC_EUlvE_, 
                       __ZTSZZZZN2gc3est11EvaluateJtJ21kernelFuncOffDiagonalEvENKUlNS_4lang4TileENS2_3est13BlockOrderingENS4_14FactorOrderingES6_RNS4_11JacobianSetERNS4_11BlockMatrixEE_clES3_S5_S6_S6_S8_SA_ENKUlNS_4ExprEE_clESC_ENKUlSC_E_clESC_EUlvE_, 
                       __ZTSZZZZN2gc3est14ExtractDiagJtJ10kernelFuncEvENKUlNS_4lang4TileERNS2_3est11BlockMatrixENS2_6BufferES7_S7_E_clES3_S6_S7_S7_S7_ENKUlNS_4ExprENS2_6MatrixEE_clES9_SA_ENKUlvE_clEvEUlvE_, 
                       __ZTSZZZZN2gc3est14SchurLinearize16factorKernelFuncERKNSt3__16vectorINS0_13ArgumentGroupENS2_9allocatorIS4_EEEERKNS2_3mapINS2_12basic_stringIcNS2_11char_traitsIcEENS5_IcEEEEjNS2_4lessISF_EENS5_INS2_4pairIKSF_jEEEEEEbENKUlNS_4lang4TileENSP_6BufferENSP_3est6FactorERNSS_11JacobianSetENSP_5ArrayISR_EENSW_INSS_14FactorOrderingEEERNSS_16BlockMatrixArrayESX_E_clESQ_SR_ST_SV_SX_SZ_S11_SX_ENKUlvE_clEvENKUlNS_4ExprEE_clES14_EUlvE_, 
                       __ZTSZZZZN2gc3est14SchurLinearize28eliminatedVariableKernelFuncERKNSt3__16vectorINS0_13ArgumentGroupENS2_9allocatorIS4_EEEERKNS2_3mapINS2_12basic_stringIcNS2_11char_traitsIcEENS5_IcEEEEjNS2_4lessISF_EENS5_INS2_4pairIKSF_jEEEEEEbENKUlNS_4lang4TileENSP_6BufferERNSP_3est8JacobianENSS_6FactorERNSS_11JacobianSetERNSS_14FactorOrderingESR_NSP_5ArrayISR_EENS10_ISY_EERNSP_6ScalarERNSS_16BlockMatrixArrayENSS_22SchurEliminatedHessianES11_SR_SR_E_clESQ_SR_SU_SV_SX_SZ_SR_S11_S12_S14_S16_S17_S11_SR_SR_ENKUlNS_4ExprEE0_clES19_ENKUlvE_clEvEUlS19_E_, 
                       __ZTSZZZZN2gc3est14SchurLinearize28eliminatedVariableKernelFuncERKNSt3__16vectorINS0_13ArgumentGroupENS2_9allocatorIS4_EEEERKNS2_3mapINS2_12basic_stringIcNS2_11char_traitsIcEENS5_IcEEEEjNS2_4lessISF_EENS5_INS2_4pairIKSF_jEEEEEEbENKUlNS_4lang4TileENSP_6BufferERNSP_3est8JacobianENSS_6FactorERNSS_11JacobianSetERNSS_14FactorOrderingESR_NSP_5ArrayISR_EENS10_ISY_EERNSP_6ScalarERNSS_16BlockMatrixArrayENSS_22SchurEliminatedHessianES11_SR_SR_E_clESQ_SR_SU_SV_SX_SZ_SR_S11_S12_S14_S16_S17_S11_SR_SR_ENKUlNS_4ExprEE_clES19_ENKUlS19_E_clES19_EUlvE_, 
                       __ZTSZZZZN2gc3est18ImplicitSchurJtJp218kernelFuncVariadicEjENKUlNS_4lang4TileERNS2_3est8JacobianENS4_14FactorOrderingENS2_6BufferES8_S8_S8_E_clES3_S6_S7_S8_S8_S8_S8_ENKUlNS_4ExprEE_clESA_ENKUlvE_clEvEUlvE_, 
                       __ZTSZZZZN2gc3est20MaterializeJacobians10kernelFuncERKNS0_16ArgumentGroupingERKNSt3__16vectorINS0_13eJacobianTypeENS5_9allocatorIS7_EEEEENKUlNS_4lang4TileENSD_3est6FactorENSD_6BufferENSD_5ArrayINSF_14FactorOrderingEEENSF_11VariableSetENSI_ISH_EESM_E_clESE_SG_SH_SK_SL_SM_SM_ENKUlNS_4ExprEE_clESO_ENKUlvE_clEvEUlvE0_, 
                       __ZTSZZZZN2gc3est20MaterializeJacobians10kernelFuncERKNS0_16ArgumentGroupingERKNSt3__16vectorINS0_13eJacobianTypeENS5_9allocatorIS7_EEEEENKUlNS_4lang4TileENSD_3est6FactorENSD_6BufferENSD_5ArrayINSF_14FactorOrderingEEENSF_11VariableSetENSI_ISH_EESM_E_clESE_SG_SH_SK_SL_SM_SM_ENKUlNS_4ExprEE_clESO_ENKUlvE_clEvEUlvE_, 
                       __ZTSZZZZN2gc3est22EvaluateBatchGradients10kernelFuncERKNS0_13ArgumentGroupENS0_13eJacobianTypeEENKUlNS_4lang4TileENS6_3est14FactorOrderingENS8_6FactorENS8_11VariableSetENS6_6ScalarERNS6_6BufferEE_clES7_S9_SA_SB_SC_SE_ENKUlT_T0_E_clINS_4ExprESK_EEDaSG_SH_ENKUlSG_E_clISK_EESL_SG_EUlvE_, 
                       __ZTSZZZZN2gc3est24ImplicitSchurInitialize310kernelFuncEvENKUlNS_4lang4TileERNS2_3est8JacobianENS4_14FactorOrderingES7_NS2_6BufferES8_S8_S8_S8_S8_E_clES3_S6_S7_S7_S8_S8_S8_S8_S8_S8_ENKUlNS_4ExprESA_E_clESA_SA_ENKUlSA_E_clESA_EUlvE0_, 
                       __ZTSZZZZN2gc3est24ImplicitSchurInitialize310kernelFuncEvENKUlNS_4lang4TileERNS2_3est8JacobianENS4_14FactorOrderingES7_NS2_6BufferES8_S8_S8_S8_S8_E_clES3_S6_S7_S7_S8_S8_S8_S8_S8_S8_ENKUlNS_4ExprESA_E_clESA_SA_ENKUlSA_E_clESA_EUlvE_, 
                       __ZTSZZZZN2gc3est30ApplyAdditiveLMDampingExplicit10kernelFuncEvENKUlNS_4lang4TileENS2_6ScalarERNS2_3est11BlockMatrixEE_clES3_S4_S7_ENKUlNS_4ExprENS2_6MatrixEE_clES9_SA_ENKUlvE_clEvEUlT_E_, 
                       __ZTSZZZZN2gc3est36ApplyMultiplicativeLMDampingExplicit10kernelFuncEvENKUlNS_4lang4TileENS2_6ScalarERNS2_3est11BlockMatrixEE_clES3_S4_S7_ENKUlNS_4ExprENS2_6MatrixEE_clES9_SA_ENKUlvE_clEvEUlT_E_, 
                       __ZTSZZZZZN2gc3est11EvaluateJtJ21kernelFuncOffDiagonalEvENKUlNS_4lang4TileENS2_3est13BlockOrderingENS4_14FactorOrderingES6_RNS4_11JacobianSetERNS4_11BlockMatrixEE_clES3_S5_S6_S6_S8_SA_ENKUlNS_4ExprEE_clESC_ENKUlSC_E_clESC_ENKUlvE_clEvEUlSC_E_, 
                       __ZTSZZZZZN2gc3est14SchurLinearize16factorKernelFuncERKNSt3__16vectorINS0_13ArgumentGroupENS2_9allocatorIS4_EEEERKNS2_3mapINS2_12basic_stringIcNS2_11char_traitsIcEENS5_IcEEEEjNS2_4lessISF_EENS5_INS2_4pairIKSF_jEEEEEEbENKUlNS_4lang4TileENSP_6BufferENSP_3est6FactorERNSS_11JacobianSetENSP_5ArrayISR_EENSW_INSS_14FactorOrderingEEERNSS_16BlockMatrixArrayESX_E_clESQ_SR_ST_SV_SX_SZ_S11_SX_ENKUlvE_clEvENKUlNS_4ExprEE_clES14_ENKUlvE_clEvEUlS14_E_, 
                       __ZTSZZZZZN2gc3est14SchurLinearize28eliminatedVariableKernelFuncERKNSt3__16vectorINS0_13ArgumentGroupENS2_9allocatorIS4_EEEERKNS2_3mapINS2_12basic_stringIcNS2_11char_traitsIcEENS5_IcEEEEjNS2_4lessISF_EENS5_INS2_4pairIKSF_jEEEEEEbENKUlNS_4lang4TileENSP_6BufferERNSP_3est8JacobianENSS_6FactorERNSS_11JacobianSetERNSS_14FactorOrderingESR_NSP_5ArrayISR_EENS10_ISY_EERNSP_6ScalarERNSS_16BlockMatrixArrayENSS_22SchurEliminatedHessianES11_SR_SR_E_clESQ_SR_SU_SV_SX_SZ_SR_S11_S12_S14_S16_S17_S11_SR_SR_ENKUlNS_4ExprEE0_clES19_ENKUlvE_clEvENKUlS19_E_clES19_EUlvE_, 
                       __ZTSZZZZZN2gc3est14SchurLinearize28eliminatedVariableKernelFuncERKNSt3__16vectorINS0_13ArgumentGroupENS2_9allocatorIS4_EEEERKNS2_3mapINS2_12basic_stringIcNS2_11char_traitsIcEENS5_IcEEEEjNS2_4lessISF_EENS5_INS2_4pairIKSF_jEEEEEEbENKUlNS_4lang4TileENSP_6BufferERNSP_3est8JacobianENSS_6FactorERNSS_11JacobianSetERNSS_14FactorOrderingESR_NSP_5ArrayISR_EENS10_ISY_EERNSP_6ScalarERNSS_16BlockMatrixArrayENSS_22SchurEliminatedHessianES11_SR_SR_E_clESQ_SR_SU_SV_SX_SZ_SR_S11_S12_S14_S16_S17_S11_SR_SR_ENKUlNS_4ExprEE_clES19_ENKUlS19_E_clES19_ENKUlvE_clEvEUlvE_, 
                       __ZTSZZZZZZN2gc3est11EvaluateJtJ21kernelFuncOffDiagonalEvENKUlNS_4lang4TileENS2_3est13BlockOrderingENS4_14FactorOrderingES6_RNS4_11JacobianSetERNS4_11BlockMatrixEE_clES3_S5_S6_S6_S8_SA_ENKUlNS_4ExprEE_clESC_ENKUlSC_E_clESC_ENKUlvE_clEvENKUlSC_E_clESC_EUlvE_, 
                       __ZTSZZZZZZN2gc3est14SchurLinearize16factorKernelFuncERKNSt3__16vectorINS0_13ArgumentGroupENS2_9allocatorIS4_EEEERKNS2_3mapINS2_12basic_stringIcNS2_11char_traitsIcEENS5_IcEEEEjNS2_4lessISF_EENS5_INS2_4pairIKSF_jEEEEEEbENKUlNS_4lang4TileENSP_6BufferENSP_3est6FactorERNSS_11JacobianSetENSP_5ArrayISR_EENSW_INSS_14FactorOrderingEEERNSS_16BlockMatrixArrayESX_E_clESQ_SR_ST_SV_SX_SZ_S11_SX_ENKUlvE_clEvENKUlNS_4ExprEE_clES14_ENKUlvE_clEvENKUlS14_E_clES14_EUlvE_, 
                       __ZTSZZZZZZN2gc3est14SchurLinearize28eliminatedVariableKernelFuncERKNSt3__16vectorINS0_13ArgumentGroupENS2_9allocatorIS4_EEEERKNS2_3mapINS2_12basic_stringIcNS2_11char_traitsIcEENS5_IcEEEEjNS2_4lessISF_EENS5_INS2_4pairIKSF_jEEEEEEbENKUlNS_4lang4TileENSP_6BufferERNSP_3est8JacobianENSS_6FactorERNSS_11JacobianSetERNSS_14FactorOrderingESR_NSP_5ArrayISR_EENS10_ISY_EERNSP_6ScalarERNSS_16BlockMatrixArrayENSS_22SchurEliminatedHessianES11_SR_SR_E_clESQ_SR_SU_SV_SX_SZ_SR_S11_S12_S14_S16_S17_S11_SR_SR_ENKUlNS_4ExprEE0_clES19_ENKUlvE_clEvENKUlS19_E_clES19_ENKUlvE_clEvEUlvE_, 
                       __ZTSZZZZZZN2gc3est14SchurLinearize28eliminatedVariableKernelFuncERKNSt3__16vectorINS0_13ArgumentGroupENS2_9allocatorIS4_EEEERKNS2_3mapINS2_12basic_stringIcNS2_11char_traitsIcEENS5_IcEEEEjNS2_4lessISF_EENS5_INS2_4pairIKSF_jEEEEEEbENKUlNS_4lang4TileENSP_6BufferERNSP_3est8JacobianENSS_6FactorERNSS_11JacobianSetERNSS_14FactorOrderingESR_NSP_5ArrayISR_EENS10_ISY_EERNSP_6ScalarERNSS_16BlockMatrixArrayENSS_22SchurEliminatedHessianES11_SR_SR_E_clESQ_SR_SU_SV_SX_SZ_SR_S11_S12_S14_S16_S17_S11_SR_SR_ENKUlNS_4ExprEE_clES19_ENKUlS19_E_clES19_ENKUlvE_clEvENKUlvE_clEvEUlvE_, 
                       __ZTSZZZZZZZN2gc3est14SchurLinearize28eliminatedVariableKernelFuncERKNSt3__16vectorINS0_13ArgumentGroupENS2_9allocatorIS4_EEEERKNS2_3mapINS2_12basic_stringIcNS2_11char_traitsIcEENS5_IcEEEEjNS2_4lessISF_EENS5_INS2_4pairIKSF_jEEEEEEbENKUlNS_4lang4TileENSP_6BufferERNSP_3est8JacobianENSS_6FactorERNSS_11JacobianSetERNSS_14FactorOrderingESR_NSP_5ArrayISR_EENS10_ISY_EERNSP_6ScalarERNSS_16BlockMatrixArrayENSS_22SchurEliminatedHessianES11_SR_SR_E_clESQ_SR_SU_SV_SX_SZ_SR_S11_S12_S14_S16_S17_S11_SR_SR_ENKUlNS_4ExprEE_clES19_ENKUlS19_E_clES19_ENKUlvE_clEvENKUlvE_clEvENKUlvE_clEvEUlS19_E_ ]
  - targets:         [ x86_64-macos, arm64-macos, arm64e-macos ]
    symbols:         [ __ZN2gc10CoreLogger18setMinimumSeverityENS_6Logger9eSeverityE, 
                       __ZN2gc10CoreLogger3logENS_6Logger9eSeverityEPKcz, __ZN2gc10CoreLogger8instanceEv, 
                       __ZN2gc10CoreLoggerC1Ev, __ZN2gc10CoreLoggerC2Ev, __ZN2gc10FileTargetC1EPKcbb, 
                       __ZN2gc10FileTargetC2EPKcbb, __ZN2gc10FileTargetD0Ev, __ZN2gc10FileTargetD1Ev, 
                       __ZN2gc10FileTargetD2Ev, __ZN2gc10fromStringERKNSt3__112basic_stringIcNS0_11char_traitsIcEENS0_9allocatorIcEEEER17loopkit_rt_type_t, 
                       __ZN2gc10isIntegralERK17loopkit_rt_type_t, __ZN2gc10logicalAndENS_4ExprES0_, 
                       __ZN2gc10logicalNotENS_4ExprE, __ZN2gc10noOpKernelERKNSt3__112basic_stringIcNS0_11char_traitsIcEENS0_9allocatorIcEEEE, 
                       __ZN2gc10uniqueNameERKNSt3__112basic_stringIcNS0_11char_traitsIcEENS0_9allocatorIcEEEE, 
                       __ZN2gc10uniqueNameEc, __ZN2gc11AOTRegistry16registerProgramsERKNSt3__13mapINS1_12basic_stringIcNS1_11char_traitsIcEENS1_9allocatorIcEEEENS1_6vectorIS8_NS6_IS8_EEEENS1_4lessIS8_EENS6_INS1_4pairIKS8_SB_EEEEEE, 
                       __ZN2gc11AOTRegistry17registerFunctionsERKNSt3__13mapINS1_12basic_stringIcNS1_11char_traitsIcEENS1_9allocatorIcEEEENS1_8functionIFiPPvEEENS1_4lessIS8_EENS6_INS1_4pairIKS8_SD_EEEEEE, 
                       __ZN2gc11AOTRegistry17registerSchedulesERKNSt3__13mapINS1_12basic_stringIcNS1_11char_traitsIcEENS1_9allocatorIcEEEENS_8ScheduleENS1_4lessIS8_EENS6_INS1_4pairIKS8_S9_EEEEEE, 
                       __ZN2gc11AOTRegistry5clearEv, __ZN2gc11AOTRegistry7programERKNSt3__112basic_stringIcNS1_11char_traitsIcEENS1_9allocatorIcEEEE, 
                       __ZN2gc11AOTRegistry8functionERKNSt3__112basic_stringIcNS1_11char_traitsIcEENS1_9allocatorIcEEEE, 
                       __ZN2gc11AOTRegistry8instanceEv, __ZN2gc11AOTRegistry8scheduleERKNSt3__112basic_stringIcNS1_11char_traitsIcEENS1_9allocatorIcEEEE, 
                       __ZN2gc11CompilerLog5EntryC1ENS0_9eSeverityERKNSt3__112basic_stringIcNS3_11char_traitsIcEENS3_9allocatorIcEEEE, 
                       __ZN2gc11CompilerLog5EntryC2ENS0_9eSeverityERKNSt3__112basic_stringIcNS3_11char_traitsIcEENS3_9allocatorIcEEEE, 
                       __ZN2gc11CompilerLog5clearEv, __ZN2gc11CompilerLog8addEntryENS0_9eSeverityERKNSt3__112basic_stringIcNS2_11char_traitsIcEENS2_9allocatorIcEEEE, 
                       __ZN2gc11CompilerLog8instanceEv, __ZN2gc11Environment18defaultSandboxPathEv, 
                       __ZN2gc11Environment19defaultMetalLibPathEv, __ZN2gc11Environment19defaultResourcePathEv, 
                       __ZN2gc11EnvironmentC1Ev, __ZN2gc11EnvironmentC2Ev, __ZN2gc11OsLogTarget12getOsLogTypeENS_6Logger9eSeverityE, 
                       __ZN2gc11TypedIRStmtILNS_9eStmtTypeE0EE4makeERK17loopkit_rt_type_tRKNSt3__112basic_stringIcNS6_11char_traitsIcEENS6_9allocatorIcEEEERKNS_4ExprE, 
                       __ZN2gc11TypedIRStmtILNS_9eStmtTypeE0EE4makeERK17loopkit_rt_type_tRKNSt3__112basic_stringIcNS6_11char_traitsIcEENS6_9allocatorIcEEEERKNS_4ExprEPK15halide_buffer_t, 
                       __ZN2gc11TypedIRStmtILNS_9eStmtTypeE0EE4makeERK17loopkit_rt_type_tRKNSt3__112basic_stringIcNS6_11char_traitsIcEENS6_9allocatorIcEEEERKNS_4ExprERK15halide_buffer_t, 
                       __ZN2gc11TypedIRStmtILNS_9eStmtTypeE0EEC1ERKNSt3__112basic_stringIcNS3_11char_traitsIcEENS3_9allocatorIcEEEE, 
                       __ZN2gc11TypedIRStmtILNS_9eStmtTypeE0EEC2ERKNSt3__112basic_stringIcNS3_11char_traitsIcEENS3_9allocatorIcEEEE, 
                       __ZN2gc11TypedIRStmtILNS_9eStmtTypeE1EE4makeERKNSt3__112basic_stringIcNS3_11char_traitsIcEENS3_9allocatorIcEEEERKNS_4ExprESE_, 
                       __ZN2gc11TypedIRStmtILNS_9eStmtTypeE1EEC1ERKNSt3__112basic_stringIcNS3_11char_traitsIcEENS3_9allocatorIcEEEERKNS_4ExprESE_, 
                       __ZN2gc11TypedIRStmtILNS_9eStmtTypeE1EEC2ERKNSt3__112basic_stringIcNS3_11char_traitsIcEENS3_9allocatorIcEEEERKNS_4ExprESE_, 
                       __ZN2gc11TypedIRStmtILNS_9eStmtTypeE2EE4makeERKNSt3__112basic_stringIcNS3_11char_traitsIcEENS3_9allocatorIcEEEERKNS3_6vectorINS_4ExprENS7_ISD_EEEERK17loopkit_rt_type_tRKNS_11eMemoryTypeESH_RKSD_, 
                       __ZN2gc11TypedIRStmtILNS_9eStmtTypeE2EEC1ERKNSt3__112basic_stringIcNS3_11char_traitsIcEENS3_9allocatorIcEEEERKNS3_6vectorINS_4ExprENS7_ISD_EEEERK17loopkit_rt_type_tRKNS_11eMemoryTypeESH_RKSD_, 
                       __ZN2gc11TypedIRStmtILNS_9eStmtTypeE2EEC2ERKNSt3__112basic_stringIcNS3_11char_traitsIcEENS3_9allocatorIcEEEERKNS3_6vectorINS_4ExprENS7_ISD_EEEERK17loopkit_rt_type_tRKNS_11eMemoryTypeESH_RKSD_, 
                       __ZN2gc11TypedIRStmtILNS_9eStmtTypeE3EE4makeERKNS_4ExprES5_NSt3__18functionIFvS5_EEERKNS6_12basic_stringIcNS6_11char_traitsIcEENS6_9allocatorIcEEEERKNS_8eForTypeE, 
                       __ZN2gc11TypedIRStmtILNS_9eStmtTypeE3EEC1ERKNS_4ExprES5_NSt3__18functionIFvS5_EEERKNS6_12basic_stringIcNS6_11char_traitsIcEENS6_9allocatorIcEEEERKNS_8eForTypeE, 
                       __ZN2gc11TypedIRStmtILNS_9eStmtTypeE3EEC2ERKNS_4ExprES5_NSt3__18functionIFvS5_EEERKNS6_12basic_stringIcNS6_11char_traitsIcEENS6_9allocatorIcEEEERKNS_8eForTypeE, 
                       __ZN2gc11TypedIRStmtILNS_9eStmtTypeE4EE4makeERKNS_4ExprENSt3__18functionIFvvEEE, 
                       __ZN2gc11TypedIRStmtILNS_9eStmtTypeE4EEC1ERKNS_4ExprENSt3__18functionIFvvEEE, 
                       __ZN2gc11TypedIRStmtILNS_9eStmtTypeE4EEC2ERKNS_4ExprENSt3__18functionIFvvEEE, 
                       __ZN2gc11TypedIRStmtILNS_9eStmtTypeE5EE4makeERKNS_4ExprENSt3__18functionIFvvEEES9_, 
                       __ZN2gc11TypedIRStmtILNS_9eStmtTypeE5EEC1ERKNS_4ExprENSt3__18functionIFvvEEES9_, 
                       __ZN2gc11TypedIRStmtILNS_9eStmtTypeE5EEC2ERKNS_4ExprENSt3__18functionIFvvEEES9_, 
                       __ZN2gc11TypedIRStmtILNS_9eStmtTypeE6EE4makeERKNSt3__16vectorINS_4ExprENS3_9allocatorIS5_EEEE, 
                       __ZN2gc11TypedIRStmtILNS_9eStmtTypeE6EEC1ERKNSt3__16vectorINS_4ExprENS3_9allocatorIS5_EEEE, 
                       __ZN2gc11TypedIRStmtILNS_9eStmtTypeE6EEC2ERKNSt3__16vectorINS_4ExprENS3_9allocatorIS5_EEEE, 
                       __ZN2gc11TypedIRStmtILNS_9eStmtTypeE7EE4makeERKNS_4ExprERKNSt3__16vectorIS3_NS6_9allocatorIS3_EEEE, 
                       __ZN2gc11TypedIRStmtILNS_9eStmtTypeE7EEC1ERKNS_4ExprERKNSt3__16vectorIS3_NS6_9allocatorIS3_EEEE, 
                       __ZN2gc11TypedIRStmtILNS_9eStmtTypeE7EEC2ERKNS_4ExprERKNSt3__16vectorIS3_NS6_9allocatorIS3_EEEE, 
                       __ZN2gc11TypedIRStmtILNS_9eStmtTypeE8EE4makeENSt3__110shared_ptrINS_16ExternalFunctionEEERKNS3_6vectorINS_4ExprENS3_9allocatorIS8_EEEE, 
                       __ZN2gc11TypedIRStmtILNS_9eStmtTypeE8EE4makeERK17loopkit_rt_type_tRKNSt3__112basic_stringIcNS6_11char_traitsIcEENS6_9allocatorIcEEEERKNS6_6vectorINS_4ExprENSA_ISG_EEEE, 
                       __ZN2gc11TypedIRStmtILNS_9eStmtTypeE8EEC1ENSt3__110shared_ptrINS_16ExternalFunctionEEERKNS3_6vectorINS_4ExprENS3_9allocatorIS8_EEEE, 
                       __ZN2gc11TypedIRStmtILNS_9eStmtTypeE8EEC1ERK17loopkit_rt_type_tRKNSt3__112basic_stringIcNS6_11char_traitsIcEENS6_9allocatorIcEEEERKNS6_6vectorINS_4ExprENSA_ISG_EEEE, 
                       __ZN2gc11TypedIRStmtILNS_9eStmtTypeE8EEC2ENSt3__110shared_ptrINS_16ExternalFunctionEEERKNS3_6vectorINS_4ExprENS3_9allocatorIS8_EEEE, 
                       __ZN2gc11TypedIRStmtILNS_9eStmtTypeE8EEC2ERK17loopkit_rt_type_tRKNSt3__112basic_stringIcNS6_11char_traitsIcEENS6_9allocatorIcEEEERKNS6_6vectorINS_4ExprENSA_ISG_EEEE, 
                       __ZN2gc11TypedIRStmtILNS_9eStmtTypeE9EE4makeENSt3__110shared_ptrINS_17IntrinsicFunctionEEERKNS3_6vectorINS_4ExprENS3_9allocatorIS8_EEEE, 
                       __ZN2gc11TypedIRStmtILNS_9eStmtTypeE9EEC1ENSt3__110shared_ptrINS_17IntrinsicFunctionEEERKNS3_6vectorINS_4ExprENS3_9allocatorIS8_EEEE, 
                       __ZN2gc11TypedIRStmtILNS_9eStmtTypeE9EEC2ENSt3__110shared_ptrINS_17IntrinsicFunctionEEERKNS3_6vectorINS_4ExprENS3_9allocatorIS8_EEEE, 
                       __ZN2gc11TypedObjectILNS_11eObjectTypeE1EE15generateOutputsENSt3__16vectorINS_15eLibraryOutputsENS3_9allocatorIS5_EEEENS3_12basic_stringIcNS3_11char_traitsIcEENS6_IcEEEE, 
                       __ZN2gc11TypedObjectILNS_11eObjectTypeE1EE6createENSt3__110shared_ptrINS_12StagedKernelEEERKNS3_8functionIFiPPvEEE, 
                       __ZN2gc11TypedObjectILNS_11eObjectTypeE1EEC1ENSt3__110shared_ptrINS_12StagedKernelEEERKNS3_8functionIFiPPvEEE, 
                       __ZN2gc11TypedObjectILNS_11eObjectTypeE1EEC2ENSt3__110shared_ptrINS_12StagedKernelEEERKNS3_8functionIFiPPvEEE, 
                       __ZN2gc11constExtentEj, __ZN2gc11deepCompareERKNS_4ExprES2_, 
                       __ZN2gc11fuseKernelsERKNSt3__112basic_stringIcNS0_11char_traitsIcEENS0_9allocatorIcEEEERKNS0_6vectorINS0_10shared_ptrINS_12StagedKernelEEENS4_ISC_EEEE, 
                       __ZN2gc12BlockExtentsC1ERKNS_7ExtentsE, __ZN2gc12BlockExtentsC2ERKNS_7ExtentsE, 
                       __ZN2gc12BufferHandle10identifierEv, __ZN2gc12BufferHandleC1ERKNS_5ShapeERK17loopkit_rt_type_tRKNSt3__112basic_stringIcNS7_11char_traitsIcEENS7_9allocatorIcEEEERKNS_4ExprEPK15halide_buffer_t, 
                       __ZN2gc12BufferHandleC2ERKNS_5ShapeERK17loopkit_rt_type_tRKNSt3__112basic_stringIcNS7_11char_traitsIcEENS7_9allocatorIcEEEERKNS_4ExprEPK15halide_buffer_t, 
                       __ZN2gc12ComputeGraph3endEv, __ZN2gc12ComputeGraph4Node3endEv, 
                       __ZN2gc12ComputeGraph4Node4findERKNSt3__112basic_stringIcNS2_11char_traitsIcEENS2_9allocatorIcEEEE, 
                       __ZN2gc12ComputeGraph4Node5beginEv, __ZN2gc12ComputeGraph4Node6createENSt3__110shared_ptrINS_6KernelEEE, 
                       __ZN2gc12ComputeGraph4findERKNSt3__112basic_stringIcNS1_11char_traitsIcEENS1_9allocatorIcEEEE, 
                       __ZN2gc12ComputeGraph4rootEv, __ZN2gc12ComputeGraph5beginEv, 
                       __ZN2gc12ComputeGraph6insertENSt3__110shared_ptrINS_6KernelEEE, 
                       __ZN2gc12ComputeGraph6removeERKNSt3__112basic_stringIcNS1_11char_traitsIcEENS1_9allocatorIcEEEE, 
                       __ZN2gc12ComputeGraph7compileERKNS_8ScheduleE, __ZN2gc12ComputeGraph7setNameERKNSt3__112basic_stringIcNS1_11char_traitsIcEENS1_9allocatorIcEEEE, 
                       __ZN2gc12ComputeGraph8consumesENSt3__110shared_ptrINS_6KernelEEE, 
                       __ZN2gc12ComputeGraph8consumesENSt3__110shared_ptrINS_6KernelEEES4_, 
                       __ZN2gc12ComputeGraph8consumesERKNSt3__112basic_stringIcNS1_11char_traitsIcEENS1_9allocatorIcEEEENS1_10shared_ptrINS_6KernelEEE, 
                       __ZN2gc12ComputeGraphC1ENSt3__110shared_ptrINS_6KernelEEE, 
                       __ZN2gc12ComputeGraphC1ERKNSt3__112basic_stringIcNS1_11char_traitsIcEENS1_9allocatorIcEEEE, 
                       __ZN2gc12ComputeGraphC1ERKNSt3__112basic_stringIcNS1_11char_traitsIcEENS1_9allocatorIcEEEENS1_10shared_ptrINS_6KernelEEE, 
                       __ZN2gc12ComputeGraphC2ENSt3__110shared_ptrINS_6KernelEEE, 
                       __ZN2gc12ComputeGraphC2ERKNSt3__112basic_stringIcNS1_11char_traitsIcEENS1_9allocatorIcEEEE, 
                       __ZN2gc12ComputeGraphC2ERKNSt3__112basic_stringIcNS1_11char_traitsIcEENS1_9allocatorIcEEEENS1_10shared_ptrINS_6KernelEEE, 
                       __ZN2gc12StagedKernel6createERKNSt3__110shared_ptrINS_6KernelEEERKNS_8ScheduleE, 
                       __ZN2gc12StagedKernel9argumentsEb, __ZN2gc12StagedKernelC1ERKNSt3__110shared_ptrINS_6KernelEEERKNS_8ScheduleE, 
                       __ZN2gc12StagedKernelC2ERKNSt3__110shared_ptrINS_6KernelEEERKNS_8ScheduleE, 
                       __ZN2gc12checkVersionERN8nlohmann10basic_jsonINS0_11ordered_mapENSt3__16vectorENS3_12basic_stringIcNS3_11char_traitsIcEENS3_9allocatorIcEEEEbxydS8_NS0_14adl_serializerENS4_IhNS8_IhEEEEEE, 
                       __ZN2gc12makeConstantE17loopkit_rt_type_ta, __ZN2gc12makeConstantE17loopkit_rt_type_tb, 
                       __ZN2gc12makeConstantE17loopkit_rt_type_td, __ZN2gc12makeConstantE17loopkit_rt_type_tf, 
                       __ZN2gc12makeConstantE17loopkit_rt_type_th, __ZN2gc12makeConstantE17loopkit_rt_type_ti, 
                       __ZN2gc12makeConstantE17loopkit_rt_type_tj, __ZN2gc12makeConstantE17loopkit_rt_type_ts, 
                       __ZN2gc12makeConstantE17loopkit_rt_type_tt, __ZN2gc12makeConstantE17loopkit_rt_type_tx, 
                       __ZN2gc12makeConstantE17loopkit_rt_type_ty, __ZN2gc12makeVariableE17loopkit_rt_type_tRKNSt3__112basic_stringIcNS1_11char_traitsIcEENS1_9allocatorIcEEEE, 
                       __ZN2gc12mergeKernelsERKNS_13StagedKernelsE, __ZN2gc12mergeKernelsERKNSt3__112basic_stringIcNS0_11char_traitsIcEENS0_9allocatorIcEEEERKNS0_6vectorINS0_10shared_ptrINS_12StagedKernelEEENS4_ISC_EEEE, 
                       __ZN2gc12stageKernelsENSt3__110shared_ptrINS_12ComputeGraphEEENS_8ScheduleERNS_13StagedKernelsE, 
                       __ZN2gc13BufferDeleterC1Em, __ZN2gc13BufferDeleterC2Em, __ZN2gc13ExtentsBuffer13laneIndexNameERKNSt3__112basic_stringIcNS1_11char_traitsIcEENS1_9allocatorIcEEEE, 
                       __ZN2gc13ExtentsBuffer14blockIndexNameERKNSt3__112basic_stringIcNS1_11char_traitsIcEENS1_9allocatorIcEEEENS_13eTargetDeviceE, 
                       __ZN2gc13ExtentsBuffer14blockIndexNameERKNSt3__112basic_stringIcNS1_11char_traitsIcEENS1_9allocatorIcEEEEjNS_13eTargetDeviceE, 
                       __ZN2gc13ExtentsBuffer14laneExtentNameERKNSt3__112basic_stringIcNS1_11char_traitsIcEENS1_9allocatorIcEEEE, 
                       __ZN2gc13ExtentsBuffer15blockExtentNameERKNSt3__112basic_stringIcNS1_11char_traitsIcEENS1_9allocatorIcEEEEj, 
                       __ZN2gc13ExtentsBuffer15threadIndexNameERKNSt3__112basic_stringIcNS1_11char_traitsIcEENS1_9allocatorIcEEEENS_13eTargetDeviceE, 
                       __ZN2gc13ExtentsBuffer15threadIndexNameERKNSt3__112basic_stringIcNS1_11char_traitsIcEENS1_9allocatorIcEEEEjNS_13eTargetDeviceE, 
                       __ZN2gc13ExtentsBuffer16threadExtentNameERKNSt3__112basic_stringIcNS1_11char_traitsIcEENS1_9allocatorIcEEEEj, 
                       __ZN2gc13ExtentsBuffer17blockPositionNameERKNSt3__112basic_stringIcNS1_11char_traitsIcEENS1_9allocatorIcEEEEj, 
                       __ZN2gc13ExtentsBuffer18threadPositionNameERKNSt3__112basic_stringIcNS1_11char_traitsIcEENS1_9allocatorIcEEEEj, 
                       __ZN2gc13ExtentsBuffer6updateEv, __ZN2gc13ExtentsBuffer8allocateERKNSt3__16vectorINS1_10shared_ptrINS_4TileEEENS1_9allocatorIS5_EEEERKNS_19BufferParametersSetE, 
                       __ZN2gc13ExtentsBufferC1Ev, __ZN2gc13ExtentsBufferC2Ev, __ZN2gc13createProgramERKNS_12MergedKernelE, 
                       __ZN2gc13loadSchedulesERKNSt3__14__fs10filesystem4pathERNS_8ScheduleE, 
                       __ZN2gc13saveSchedulesERKNSt3__14__fs10filesystem4pathERKNS_8ScheduleE, 
                       __ZN2gc13typeWithLanesERK17loopkit_rt_type_tj, __ZN2gc14ElementExtentsC1ENS_4util9TaggedIntIjNS_19ExtentsDimensionTagEEE, 
                       __ZN2gc14ElementExtentsC1ENS_6ExtentE, __ZN2gc14ElementExtentsC1ERKNSt3__16vectorINS_6ExtentENS1_9allocatorIS3_EEEE, 
                       __ZN2gc14ElementExtentsC1ERKNSt3__16vectorIjNS1_9allocatorIjEEEE, 
                       __ZN2gc14ElementExtentsC1ESt16initializer_listINS_6ExtentEE, 
                       __ZN2gc14ElementExtentsC2ENS_4util9TaggedIntIjNS_19ExtentsDimensionTagEEE, 
                       __ZN2gc14ElementExtentsC2ENS_6ExtentE, __ZN2gc14ElementExtentsC2ERKNSt3__16vectorINS_6ExtentENS1_9allocatorIS3_EEEE, 
                       __ZN2gc14ElementExtentsC2ERKNSt3__16vectorIjNS1_9allocatorIjEEEE, 
                       __ZN2gc14ElementExtentsC2ESt16initializer_listINS_6ExtentEE, 
                       __ZN2gc14EqualInvariant6createENSt3__110shared_ptrINS_6BufferEEE, 
                       __ZN2gc14EqualInvariant6createENSt3__16vectorINS1_10shared_ptrINS_6BufferEEENS1_9allocatorIS5_EEEE, 
                       __ZN2gc14EqualInvariantC1ENSt3__16vectorINS1_10shared_ptrINS_6BufferEEENS1_9allocatorIS5_EEEE, 
                       __ZN2gc14EqualInvariantC2ENSt3__16vectorINS1_10shared_ptrINS_6BufferEEENS1_9allocatorIS5_EEEE, 
                       __ZN2gc14deviceToStringENS_13eTargetDeviceE, __ZN2gc14scheduleTargetERKNS_8ScheduleERNS_6TargetE, 
                       __ZN2gc15ScalarInvariant6createENSt3__16vectorINS1_10shared_ptrINS_6BufferEEENS1_9allocatorIS5_EEEE, 
                       __ZN2gc15ScalarInvariantC1ENSt3__18functionIFdvEEENS1_6vectorINS1_10shared_ptrINS_6BufferEEENS1_9allocatorIS8_EEEE, 
                       __ZN2gc15ScalarInvariantC2ENSt3__18functionIFdvEEENS1_6vectorINS1_10shared_ptrINS_6BufferEEENS1_9allocatorIS8_EEEE, 
                       __ZN2gc15StreamIndentBuf8overflowEi, __ZN2gc15StreamIndentBufD0Ev, 
                       __ZN2gc15StreamIndentBufD1Ev, __ZN2gc15StreamIndentBufD2Ev, 
                       __ZN2gc15createGeneratorENSt3__110shared_ptrINS_12ComputeGraphEEE, 
                       __ZN2gc15createGeneratorENSt3__110shared_ptrINS_6KernelEEE, 
                       __ZN2gc15defaultScheduleEv, __ZN2gc15isFloatingPointERK17loopkit_rt_type_t, 
                       __ZN2gc15vmPageSizeBytesEv, __ZN2gc16BufferHandleView10identifierEv, 
                       __ZN2gc16BufferHandleView4makeENSt3__110shared_ptrINS_12BufferHandleEEERKNS_5ShapeERKNS_4ExprE, 
                       __ZN2gc16BufferHandleViewC1ENSt3__110shared_ptrINS_12BufferHandleEEERKNS_5ShapeERKNS_4ExprE, 
                       __ZN2gc16BufferHandleViewC2ENSt3__110shared_ptrINS_12BufferHandleEEERKNS_5ShapeERKNS_4ExprE, 
                       __ZN2gc16BufferParameters10equalRangeENSt3__110shared_ptrINS_6BufferEEE, 
                       __ZN2gc16BufferParameters10equalRangeENSt3__16vectorINS1_10shared_ptrINS_6BufferEEENS1_9allocatorIS5_EEEE, 
                       __ZN2gc16BufferParameters10invariantsEv, __ZN2gc16BufferParameters10scalarRowsENSt3__110shared_ptrINS_6BufferEEE, 
                       __ZN2gc16BufferParameters11exactBlocksERKNS_12BlockExtentsE, 
                       __ZN2gc16BufferParameters12addInvariantENSt3__110shared_ptrINS_17BindableInvariantEEE, 
                       __ZN2gc16BufferParameters12bufferHandleEv, __ZN2gc16BufferParameters12runTimeCheckEv, 
                       __ZN2gc16BufferParameters13equalElementsENSt3__110shared_ptrINS_6BufferEEE, 
                       __ZN2gc16BufferParameters13equalElementsENSt3__16vectorINS1_10shared_ptrINS_6BufferEEENS1_9allocatorIS5_EEEE, 
                       __ZN2gc16BufferParameters13exactElementsERKNS_14ElementExtentsE, 
                       __ZN2gc16BufferParameters13scalarColumnsENSt3__110shared_ptrINS_6BufferEEE, 
                       __ZN2gc16BufferParameters14functionOfTypeENSt3__110shared_ptrINS_6BufferEEENS1_8functionIF17loopkit_rt_type_tRKS6_EEE, 
                       __ZN2gc16BufferParameters15appendArgumentsERNSt3__16vectorIPvNS1_9allocatorIS3_EEEE, 
                       __ZN2gc16BufferParameters15functionOfRangeENSt3__110shared_ptrINS_6BufferEEENS1_8functionIFNS_12BlockExtentsERKS6_EEE, 
                       __ZN2gc16BufferParameters15functionOfShapeENSt3__110shared_ptrINS_6BufferEEENS1_8functionIFNS_5ShapeERKS6_EEE, 
                       __ZN2gc16BufferParameters15functionOfTypesENSt3__16vectorINS1_10shared_ptrINS_6BufferEEENS1_9allocatorIS5_EEEENS1_8functionIF17loopkit_rt_type_tRKNS2_ISA_NS6_ISA_EEEEEEE, 
                       __ZN2gc16BufferParameters16compileTimeCheckEv, __ZN2gc16BufferParameters16functionOfRangesERKNSt3__16vectorINS1_10shared_ptrINS_6BufferEEENS1_9allocatorIS5_EEEENS1_8functionIFNS_12BlockExtentsERKNS2_ISC_NS6_ISC_EEEEEEE, 
                       __ZN2gc16BufferParameters16functionOfShapesERKNSt3__16vectorINS1_10shared_ptrINS_6BufferEEENS1_9allocatorIS5_EEEENS1_8functionIFNS_5ShapeERKNS2_ISC_NS6_ISC_EEEEEEE, 
                       __ZN2gc16BufferParameters16makeBufferHandleENSt3__110shared_ptrINS_6BufferEEE, 
                       __ZN2gc16BufferParameters17functionOfElementENSt3__110shared_ptrINS_6BufferEEENS1_8functionIFNS_14ElementExtentsERKS6_EEE, 
                       __ZN2gc16BufferParameters18functionOfElementsERKNSt3__16vectorINS1_10shared_ptrINS_6BufferEEENS1_9allocatorIS5_EEEENS1_8functionIFNS_14ElementExtentsERKNS2_ISC_NS6_ISC_EEEEEEE, 
                       __ZN2gc16BufferParameters5equalENSt3__110shared_ptrINS_6BufferEEE, 
                       __ZN2gc16BufferParameters5equalENSt3__16vectorINS1_10shared_ptrINS_6BufferEEENS1_9allocatorIS5_EEEE, 
                       __ZN2gc16BufferParameters8constantEb, __ZN2gc16BufferParameters9equalTypeENSt3__110shared_ptrINS_6BufferEEE, 
                       __ZN2gc16BufferParameters9equalTypeENSt3__16vectorINS1_10shared_ptrINS_6BufferEEENS1_9allocatorIS5_EEEE, 
                       __ZN2gc16BufferParameters9exactTypeE17loopkit_rt_type_t, __ZN2gc16BufferParameters9temporaryEb, 
                       __ZN2gc16BufferParametersC1ENS_3ArgE, __ZN2gc16BufferParametersC1ENSt3__110shared_ptrINS_6BufferEEE, 
                       __ZN2gc16BufferParametersC2ENS_3ArgE, __ZN2gc16BufferParametersC2ENSt3__110shared_ptrINS_6BufferEEE, 
                       __ZN2gc16DefaultGenerator6createENSt3__110shared_ptrINS_12ComputeGraphEEE, 
                       __ZN2gc16DefaultGenerator6kernelERKNS_8ScheduleE, __ZN2gc16DefaultGeneratorC1ENSt3__110shared_ptrINS_12ComputeGraphEEE, 
                       __ZN2gc16DefaultGeneratorC2ENSt3__110shared_ptrINS_12ComputeGraphEEE, 
                       __ZN2gc16ExternalFunctionC1ERKNSt3__112basic_stringIcNS1_11char_traitsIcEENS1_9allocatorIcEEEES9_17loopkit_rt_type_tRKNS1_6vectorINS0_11eMutabilityENS5_ISC_EEEENS_13eTargetDeviceE, 
                       __ZN2gc16ExternalFunctionC2ERKNSt3__112basic_stringIcNS1_11char_traitsIcEENS1_9allocatorIcEEEES9_17loopkit_rt_type_tRKNS1_6vectorINS0_11eMutabilityENS5_ISC_EEEENS_13eTargetDeviceE, 
                       __ZN2gc16GeneratorFactory13customCompileERKNS_8ScheduleE, 
                       __ZN2gc16GeneratorFactory13removeFactoryENSt3__110shared_ptrIS0_EE, 
                       __ZN2gc16GeneratorFactory15defaultScheduleEv, __ZN2gc16GeneratorFactory15generateOutputsENSt3__16vectorINS_15eLibraryOutputsENS1_9allocatorIS3_EEEENS1_12basic_stringIcNS1_11char_traitsIcEENS4_IcEEEE, 
                       __ZN2gc16GeneratorFactory19findOwnedGeneratorsERKNSt3__112basic_stringIcNS1_11char_traitsIcEENS1_9allocatorIcEEEERNS1_6vectorINS1_10shared_ptrINS_9GeneratorEEENS5_ISD_EEEE, 
                       __ZN2gc16GeneratorFactory22recursiveCustomCompileEPS0_RKNS_8ScheduleE, 
                       __ZN2gc16GeneratorFactory3addENSt3__110shared_ptrINS_9GeneratorEEEb, 
                       __ZN2gc16GeneratorFactory3addERKNSt3__110shared_ptrIS0_EE, 
                       __ZN2gc16GeneratorFactory4findERKNSt3__112basic_stringIcNS1_11char_traitsIcEENS1_9allocatorIcEEEE, 
                       __ZN2gc16GeneratorFactory6removeENSt3__110shared_ptrINS_9GeneratorEEE, 
                       __ZN2gc16GeneratorFactory6removeERKNSt3__110shared_ptrIS0_EE, 
                       __ZN2gc16GeneratorFactory7compileENS_8ScheduleE, __ZN2gc16GeneratorFactory7compileEv, 
                       __ZN2gc16GeneratorFactory7libraryEv, __ZN2gc16GeneratorFactoryC1ERKNSt3__112basic_stringIcNS1_11char_traitsIcEENS1_9allocatorIcEEEENS1_10shared_ptrINS_7LibraryEEE, 
                       __ZN2gc16GeneratorFactoryC2ERKNSt3__112basic_stringIcNS1_11char_traitsIcEENS1_9allocatorIcEEEENS1_10shared_ptrINS_7LibraryEEE, 
                       __ZN2gc16GeneratorFactoryD1Ev, __ZN2gc16GeneratorFactoryD2Ev, 
                       __ZN2gc16targetToScheduleERKNS_6TargetERNS_8ScheduleE, __ZN2gc17BindableInvariantC2ENS_22eBindableInvariantMaskE, 
                       __ZN2gc17IntrinsicFunctionC1ERKNSt3__112basic_stringIcNS1_11char_traitsIcEENS1_9allocatorIcEEEERK17loopkit_rt_type_t, 
                       __ZN2gc17IntrinsicFunctionC2ERKNSt3__112basic_stringIcNS1_11char_traitsIcEENS1_9allocatorIcEEEERK17loopkit_rt_type_t, 
                       __ZN2gc17getTargetPlatformEv, __ZN2gc18BindableInvariants3addENSt3__110shared_ptrINS_17BindableInvariantEEE, 
                       __ZN2gc18BindableInvariants3endEv, __ZN2gc18BindableInvariants5beginEv, 
                       __ZN2gc18BindableInvariants5clearEv, __ZN2gc18BindableInvariantsC1Ev, 
                       __ZN2gc18BindableInvariantsC2Ev, __ZN2gc18EqualTypeInvariant6createENSt3__110shared_ptrINS_6BufferEEE, 
                       __ZN2gc18EqualTypeInvariant6createENSt3__16vectorINS1_10shared_ptrINS_6BufferEEENS1_9allocatorIS5_EEEE, 
                       __ZN2gc18EqualTypeInvariantC1ENSt3__16vectorINS1_10shared_ptrINS_6BufferEEENS1_9allocatorIS5_EEEE, 
                       __ZN2gc18EqualTypeInvariantC2ENSt3__16vectorINS1_10shared_ptrINS_6BufferEEENS1_9allocatorIS5_EEEE, 
                       __ZN2gc18ExactTypeInvariant6createE17loopkit_rt_type_t, __ZN2gc18ExactTypeInvariantC1E17loopkit_rt_type_tNSt3__18functionIFdvEEE, 
                       __ZN2gc18ExactTypeInvariantC2E17loopkit_rt_type_tNSt3__18functionIFdvEEE, 
                       __ZN2gc18IncreasingRangeMap6createENSt3__110shared_ptrINS_6BufferEEERKNS1_12basic_stringIcNS1_11char_traitsIcEENS1_9allocatorIcEEEE, 
                       __ZN2gc18IncreasingRangeMap7reorderEv, __ZN2gc18IncreasingRangeMapC1ENSt3__110shared_ptrINS_6BufferEEERKNS1_12basic_stringIcNS1_11char_traitsIcEENS1_9allocatorIcEEEE, 
                       __ZN2gc18IncreasingRangeMapC2ENSt3__110shared_ptrINS_6BufferEEERKNS1_12basic_stringIcNS1_11char_traitsIcEENS1_9allocatorIcEEEE, 
                       __ZN2gc18MatrixProductRange6createENSt3__110shared_ptrINS_6BufferEEES4_bbj, 
                       __ZN2gc18MatrixProductRangeC1ENSt3__110shared_ptrINS_6BufferEEES4_bbj, 
                       __ZN2gc18MatrixProductRangeC2ENSt3__110shared_ptrINS_6BufferEEES4_bbj, 
                       __ZN2gc18createComputeGraphENSt3__110shared_ptrINS_6KernelEEE, 
                       __ZN2gc18createComputeGraphERKNSt3__112basic_stringIcNS0_11char_traitsIcEENS0_9allocatorIcEEEENS0_10shared_ptrINS_6KernelEEE, 
                       __ZN2gc19BufferParametersSet12runTimeCheckEv, __ZN2gc19BufferParametersSet16compileTimeCheckEv, 
                       __ZN2gc19BufferParametersSet20sortBufferParametersEv, __ZN2gc19BufferParametersSet3endEv, 
                       __ZN2gc19BufferParametersSet4findERKNSt3__112basic_stringIcNS1_11char_traitsIcEENS1_9allocatorIcEEEE, 
                       __ZN2gc19BufferParametersSet5beginEv, __ZN2gc19BufferParametersSet5eraseERKNSt3__112basic_stringIcNS1_11char_traitsIcEENS1_9allocatorIcEEEE, 
                       __ZN2gc19BufferParametersSet7buffersEv, __ZN2gc19BufferParametersSet9argumentsEv, 
                       __ZN2gc19BufferParametersSet9push_backENSt3__110shared_ptrINS_16BufferParametersEEE, 
                       __ZN2gc19BufferParametersSetixEj, __ZN2gc19EqualRangeInvariant6createENSt3__110shared_ptrINS_6BufferEEE, 
                       __ZN2gc19EqualRangeInvariant6createENSt3__16vectorINS1_10shared_ptrINS_6BufferEEENS1_9allocatorIS5_EEEE, 
                       __ZN2gc19EqualRangeInvariantC1ENSt3__16vectorINS1_10shared_ptrINS_6BufferEEENS1_9allocatorIS5_EEEE, 
                       __ZN2gc19EqualRangeInvariantC2ENSt3__16vectorINS1_10shared_ptrINS_6BufferEEENS1_9allocatorIS5_EEEE, 
                       __ZN2gc19ExactBlockInvariant6createENS_12BlockExtentsE, __ZN2gc19ExactBlockInvariantC1ENS_12BlockExtentsE, 
                       __ZN2gc19ExactBlockInvariantC2ENS_12BlockExtentsE, __ZN2gc19ExactRangeInvariant6createENSt3__110shared_ptrINS_5RangeEEE, 
                       __ZN2gc19ExactRangeInvariantC1ENSt3__110shared_ptrINS_5RangeEEE, 
                       __ZN2gc19ExactRangeInvariantC2ENSt3__110shared_ptrINS_5RangeEEE, 
                       __ZN2gc19ExternalFunctionMap12registerCallENSt3__110shared_ptrINS_16ExternalFunctionEEERKNS1_6vectorINS_4ExprENS1_9allocatorIS6_EEEE, 
                       __ZN2gc19PerformanceCounters11setWallTimeEy, __ZN2gc19PerformanceCounters3endEv, 
                       __ZN2gc19PerformanceCounters4findERKNSt3__112basic_stringIcNS1_11char_traitsIcEENS1_9allocatorIcEEEE, 
                       __ZN2gc19PerformanceCounters5beginEv, __ZN2gc19PerformanceCounters6insertEONSt3__14pairINS1_12basic_stringIcNS1_11char_traitsIcEENS1_9allocatorIcEEEENS_18PerformanceCounterEEE, 
                       __ZN2gc19ScalarRowsInvariant6createENSt3__110shared_ptrINS_6BufferEEEj, 
                       __ZN2gc19threadToParallelismEj, __ZN2gc20MatrixProductElement6createENSt3__110shared_ptrINS_6BufferEEES4_bb, 
                       __ZN2gc20MatrixProductElementC1ENSt3__110shared_ptrINS_6BufferEEES4_bb, 
                       __ZN2gc20MatrixProductElementC2ENSt3__110shared_ptrINS_6BufferEEES4_bb, 
                       __ZN2gc20parallelismToThreadsENS_12eParallelismE, __ZN2gc21KernelPredicateBuffer5setUpEv, 
                       __ZN2gc21NAryBindableInvariantC2ENS_22eBindableInvariantMaskENSt3__16vectorINS2_10shared_ptrINS_6BufferEEENS2_9allocatorIS6_EEEE, 
                       __ZN2gc21StridedRangeInvariant6createENSt3__110shared_ptrINS_6BufferEEEj, 
                       __ZN2gc21StridedRangeInvariantC1ENSt3__110shared_ptrINS_6BufferEEEj, 
                       __ZN2gc21StridedRangeInvariantC2ENSt3__110shared_ptrINS_6BufferEEEj, 
                       __ZN2gc21TypedExternalFunctionILNS_13eTargetDeviceE1EE13parseFunctionERKNSt3__112basic_stringIcNS3_11char_traitsIcEENS3_9allocatorIcEEEESB_R17loopkit_rt_type_tRNS3_6vectorINS_16ExternalFunction11eMutabilityENS7_ISG_EEEE, 
                       __ZN2gc21TypedExternalFunctionILNS_13eTargetDeviceE1EE8readFileERKNSt3__14__fs10filesystem4pathERNS3_12basic_stringIcNS3_11char_traitsIcEENS3_9allocatorIcEEEE, 
                       __ZN2gc21defaultScheduleTraitsEv, __ZN2gc22EqualElementsInvariant6createENSt3__110shared_ptrINS_6BufferEEE, 
                       __ZN2gc22EqualElementsInvariant6createENSt3__16vectorINS1_10shared_ptrINS_6BufferEEENS1_9allocatorIS5_EEEE, 
                       __ZN2gc22EqualElementsInvariantC1ENSt3__16vectorINS1_10shared_ptrINS_6BufferEEENS1_9allocatorIS5_EEEE, 
                       __ZN2gc22EqualElementsInvariantC2ENSt3__16vectorINS1_10shared_ptrINS_6BufferEEENS1_9allocatorIS5_EEEE, 
                       __ZN2gc22ExactElementsInvariant6createENS_14ElementExtentsE, 
                       __ZN2gc22ExactElementsInvariantC1ENS_14ElementExtentsE, __ZN2gc22ExactElementsInvariantC2ENS_14ElementExtentsE, 
                       __ZN2gc22ScalarColumnsInvariant6createENSt3__110shared_ptrINS_6BufferEEEj, 
                       __ZN2gc23FunctionOfTypeInvariant6createENSt3__110shared_ptrINS_6BufferEEENS1_8functionIF17loopkit_rt_type_tRKS6_EEE, 
                       __ZN2gc23FunctionOfTypeInvariant6createENSt3__16vectorINS1_10shared_ptrINS_6BufferEEENS1_9allocatorIS5_EEEENS1_8functionIF17loopkit_rt_type_tRKNS2_ISA_NS6_ISA_EEEEEEE, 
                       __ZN2gc23FunctionOfTypeInvariantC1ENSt3__16vectorINS1_10shared_ptrINS_6BufferEEENS1_9allocatorIS5_EEEENS1_8functionIF17loopkit_rt_type_tRKNS2_ISA_NS6_ISA_EEEEEEE, 
                       __ZN2gc23FunctionOfTypeInvariantC2ENSt3__16vectorINS1_10shared_ptrINS_6BufferEEENS1_9allocatorIS5_EEEENS1_8functionIF17loopkit_rt_type_tRKNS2_ISA_NS6_ISA_EEEEEEE, 
                       __ZN2gc23GenericBindableArgument18allocateParametersERNS_19BufferParametersSetE, 
                       __ZN2gc23GenericBindableArgument2atEm, __ZN2gc23GenericBindableArgument3endEv, 
                       __ZN2gc23GenericBindableArgument5beginEv, __ZN2gc23GenericBindableArgument6insertENSt3__110shared_ptrINS_22OpaqueBindableArgumentEEE, 
                       __ZN2gc23resetUniqueNameCountersEv, __ZN2gc23savePerformanceCountersERKNSt3__14__fs10filesystem4pathERKNS_19PerformanceCountersE, 
                       __ZN2gc24BufferHandleViewRegistry13findOrEmplaceENSt3__110shared_ptrINS_12BufferHandleEEERKNS_5ShapeERKNS_4ExprE, 
                       __ZN2gc24BufferHandleViewRegistry8instanceEv, __ZN2gc24EqualToBindableInvariantC2ENS_22eBindableInvariantMaskENSt3__16vectorINS2_10shared_ptrINS_6BufferEEENS2_9allocatorIS6_EEEE, 
                       __ZN2gc24FunctionOfRangeInvariant6createENSt3__16vectorINS1_10shared_ptrINS_6BufferEEENS1_9allocatorIS5_EEEENS1_8functionIFNS_12BlockExtentsERKNS2_ISA_NS6_ISA_EEEEEEE, 
                       __ZN2gc24FunctionOfRangeInvariantC1ENSt3__16vectorINS1_10shared_ptrINS_6BufferEEENS1_9allocatorIS5_EEEENS1_8functionIFNS_12BlockExtentsERKNS2_ISA_NS6_ISA_EEEEEEE, 
                       __ZN2gc24FunctionOfRangeInvariantC2ENSt3__16vectorINS1_10shared_ptrINS_6BufferEEENS1_9allocatorIS5_EEEENS1_8functionIFNS_12BlockExtentsERKNS2_ISA_NS6_ISA_EEEEEEE, 
                       __ZN2gc24FunctionOfShapeInvariant6createENSt3__16vectorINS1_10shared_ptrINS_6BufferEEENS1_9allocatorIS5_EEEENS1_8functionIFNS_5ShapeERKNS2_ISA_NS6_ISA_EEEEEEE, 
                       __ZN2gc24FunctionOfShapeInvariantC1ENSt3__16vectorINS1_10shared_ptrINS_6BufferEEENS1_9allocatorIS5_EEEENS1_8functionIFNS_5ShapeERKNS2_ISA_NS6_ISA_EEEEEEE, 
                       __ZN2gc24FunctionOfShapeInvariantC2ENSt3__16vectorINS1_10shared_ptrINS_6BufferEEENS1_9allocatorIS5_EEEENS1_8functionIFNS_5ShapeERKNS2_ISA_NS6_ISA_EEEEEEE, 
                       __ZN2gc24ScalarwiseRangeInvariant6createENSt3__110shared_ptrINS_6BufferEEE, 
                       __ZN2gc24ScalarwiseRangeInvariant6createENSt3__16vectorINS1_10shared_ptrINS_6BufferEEENS1_9allocatorIS5_EEEE, 
                       __ZN2gc24ScalarwiseRangeInvariantC1ENSt3__16vectorINS1_10shared_ptrINS_6BufferEEENS1_9allocatorIS5_EEEE, 
                       __ZN2gc24ScalarwiseRangeInvariantC2ENSt3__16vectorINS1_10shared_ptrINS_6BufferEEENS1_9allocatorIS5_EEEE, 
                       __ZN2gc26FunctionOfElementInvariant6createENSt3__16vectorINS1_10shared_ptrINS_6BufferEEENS1_9allocatorIS5_EEEENS1_8functionIFNS_14ElementExtentsERKNS2_ISA_NS6_ISA_EEEEEEE, 
                       __ZN2gc26FunctionOfElementInvariantC1ENSt3__16vectorINS1_10shared_ptrINS_6BufferEEENS1_9allocatorIS5_EEEENS1_8functionIFNS_14ElementExtentsERKNS2_ISA_NS6_ISA_EEEEEEE, 
                       __ZN2gc26FunctionOfElementInvariantC2ENSt3__16vectorINS1_10shared_ptrINS_6BufferEEENS1_9allocatorIS5_EEEENS1_8functionIFNS_14ElementExtentsERKNS2_ISA_NS6_ISA_EEEEEEE, 
                       __ZN2gc2io7to_jsonERN8nlohmann10basic_jsonINS1_11ordered_mapENSt3__16vectorENS4_12basic_stringIcNS4_11char_traitsIcEENS4_9allocatorIcEEEEbxydS9_NS1_14adl_serializerENS5_IhNS9_IhEEEEEERKNS_18PerformanceCounterE, 
                       __ZN2gc2io7to_jsonERN8nlohmann10basic_jsonINS1_11ordered_mapENSt3__16vectorENS4_12basic_stringIcNS4_11char_traitsIcEENS4_9allocatorIcEEEEbxydS9_NS1_14adl_serializerENS5_IhNS9_IhEEEEEERKNS_19PerformanceCountersE, 
                       __ZN2gc2io7to_jsonERN8nlohmann10basic_jsonINS1_11ordered_mapENSt3__16vectorENS4_12basic_stringIcNS4_11char_traitsIcEENS4_9allocatorIcEEEEbxydS9_NS1_14adl_serializerENS5_IhNS9_IhEEEEEERKNS_8ScheduleE, 
                       __ZN2gc2io7to_jsonERN8nlohmann10basic_jsonINS1_11ordered_mapENSt3__16vectorENS4_12basic_stringIcNS4_11char_traitsIcEENS4_9allocatorIcEEEEbxydS9_NS1_14adl_serializerENS5_IhNS9_IhEEEEEERKNS_8ScheduleERKSB_RKNS_6detail16ScheduleTreeBaseISH_SB_E4NodeE, 
                       __ZN2gc2io9from_jsonERKN8nlohmann10basic_jsonINS1_11ordered_mapENSt3__16vectorENS4_12basic_stringIcNS4_11char_traitsIcEENS4_9allocatorIcEEEEbxydS9_NS1_14adl_serializerENS5_IhNS9_IhEEEEEERNS_8ScheduleE, 
                       __ZN2gc30getTargetPlatformArchitecturesEv, __ZN2gc3Arg4typeE17loopkit_rt_type_t, 
                       __ZN2gc3Arg4typeENSt3__110shared_ptrINS_6BufferEEE, __ZN2gc3Arg5equalENSt3__110shared_ptrINS_6BufferEEE, 
                       __ZN2gc3Arg5equalENSt3__16vectorINS1_10shared_ptrINS_6BufferEEENS1_9allocatorIS5_EEEE, 
                       __ZN2gc3Arg5rangeENSt3__110shared_ptrINS_5RangeEEE, __ZN2gc3Arg5rangeENSt3__110shared_ptrINS_6BufferEEE, 
                       __ZN2gc3Arg5rangeENSt3__16vectorINS1_10shared_ptrINS_6BufferEEENS1_9allocatorIS5_EEEE, 
                       __ZN2gc3Arg8constantEv, __ZN2gc3Arg8elementsENS_14ElementExtentsE, 
                       __ZN2gc3Arg8elementsENSt3__110shared_ptrINS_6BufferEEE, __ZN2gc3ArgC1ENSt3__110shared_ptrINS_6BufferEEE, 
                       __ZN2gc3ArgC1ERKNSt3__112basic_stringIcNS1_11char_traitsIcEENS1_9allocatorIcEEEE, 
                       __ZN2gc3ArgC2ENSt3__110shared_ptrINS_6BufferEEE, __ZN2gc3ArgC2ERKNSt3__112basic_stringIcNS1_11char_traitsIcEENS1_9allocatorIcEEEE, 
                       __ZN2gc3absENS_4ExprE, __ZN2gc3cosENS_4ExprE, __ZN2gc3est10EvaluateHp10createNameERKNSt3__112basic_stringIcNS2_11char_traitsIcEENS2_9allocatorIcEEEE, 
                       __ZN2gc3est10EvaluateHp14setTileExtentsEv, __ZN2gc3est10EvaluateHp6kernelERKNS_8ScheduleE, 
                       __ZN2gc3est10EvaluateHp8findTileEjj, __ZN2gc3est10EvaluateHpC1ERKNSt3__110shared_ptrINS0_11FactorGraphEEERKNS0_16BlockMatrixArrayERKNS0_11VariableMapERSB_, 
                       __ZN2gc3est10EvaluateHpC2ERKNSt3__110shared_ptrINS0_11FactorGraphEEERKNS0_16BlockMatrixArrayERKNS0_11VariableMapERSB_, 
                       __ZN2gc3est10EvaluateJp10createNameERKNSt3__112basic_stringIcNS2_11char_traitsIcEENS2_9allocatorIcEEEE, 
                       __ZN2gc3est10EvaluateJp14setTileExtentsEv, __ZN2gc3est10EvaluateJp6kernelERKNS_8ScheduleE, 
                       __ZN2gc3est10EvaluateJp8findTileERKNSt3__112basic_stringIcNS2_11char_traitsIcEENS2_9allocatorIcEEEEjb, 
                       __ZN2gc3est10EvaluateJpC1ENSt3__110shared_ptrINS0_11FactorGraphEEERKNS0_17FactorJacobianSetERKNS0_11VariableMapERKNS0_9FactorMapE, 
                       __ZN2gc3est10EvaluateJpC2ENSt3__110shared_ptrINS0_11FactorGraphEEERKNS0_17FactorJacobianSetERKNS0_11VariableMapERKNS0_9FactorMapE, 
                       __ZN2gc3est10NoiseModel13setParametersERKNSt3__16vectorIdNS2_9allocatorIdEEEE, 
                       __ZN2gc3est10NoiseModel5resetEj17loopkit_rt_type_tPvNS_8DeepCopyE, 
                       __ZN2gc3est10NoiseModel5resetEjPvNS_8DeepCopyE, __ZN2gc3est10NoiseModel6createE17loopkit_rt_type_tNS0_15eNoiseModelTypeEjNS_4util10TaggedBoolINS0_14HomogeneousTagEEE, 
                       __ZN2gc3est10NoiseModel6createE17loopkit_rt_type_tNS0_15eNoiseModelTypeEjjNS_4util10TaggedBoolINS0_14HomogeneousTagEEEPvNS_8DeepCopyE, 
                       __ZN2gc3est10SparseLDLtIdE5solveEiPdRKNS0_19SparseFactorizationIdEE, 
                       __ZN2gc3est10SparseLDLtIdE9factorizeERKNS0_16BlockMatrixArrayERNS0_19SparseFactorizationIdEE, 
                       __ZN2gc3est10SparseLDLtIfE5solveEiPfRKNS0_19SparseFactorizationIfEE, 
                       __ZN2gc3est10SparseLDLtIfE9factorizeERKNS0_16BlockMatrixArrayERNS0_19SparseFactorizationIfEE, 
                       __ZN2gc3est10TripletSetC2E17loopkit_rt_type_t, __ZN2gc3est11BlockMatrixC2ERKNS_14ElementExtentsERKNSt3__16vectorIjNS_15BufferAllocatorIjEEEE17loopkit_rt_type_t, 
                       __ZN2gc3est11EvaluateJtJ10createNameERKNSt3__112basic_stringIcNS2_11char_traitsIcEENS2_9allocatorIcEEEE, 
                       __ZN2gc3est11EvaluateJtJ14setTileExtentsEv, __ZN2gc3est11EvaluateJtJ6kernelERKNS_8ScheduleE, 
                       __ZN2gc3est11EvaluateJtJ8findTileERKNSt3__112basic_stringIcNS2_11char_traitsIcEENS2_9allocatorIcEEEEjj, 
                       __ZN2gc3est11EvaluateJtJC1ENSt3__110shared_ptrINS0_11FactorGraphEEERKNS0_17FactorJacobianSetERKNS0_16BlockOrderingSetERNS0_16BlockMatrixArrayE, 
                       __ZN2gc3est11EvaluateJtJC2ENSt3__110shared_ptrINS0_11FactorGraphEEERKNS0_17FactorJacobianSetERKNS0_16BlockOrderingSetERNS0_16BlockMatrixArrayE, 
                       __ZN2gc3est11EvaluateJte10createNameERKNSt3__112basic_stringIcNS2_11char_traitsIcEENS2_9allocatorIcEEEE, 
                       __ZN2gc3est11EvaluateJte14setTileExtentsEv, __ZN2gc3est11EvaluateJte6kernelERKNS_8ScheduleE, 
                       __ZN2gc3est11EvaluateJte8findTileERKNSt3__112basic_stringIcNS2_11char_traitsIcEENS2_9allocatorIcEEEEj, 
                       __ZN2gc3est11EvaluateJteC1ENSt3__110shared_ptrINS0_11FactorGraphEEERKNS0_17FactorJacobianSetERKNS0_11VariableMapE, 
                       __ZN2gc3est11EvaluateJteC2ENSt3__110shared_ptrINS0_11FactorGraphEEERKNS0_17FactorJacobianSetERKNS0_11VariableMapE, 
                       __ZN2gc3est11FactorGraph11addVariableENSt3__110shared_ptrINS0_8VariableEEENS_4util10TaggedBoolINS0_13IsConstantTagEEE, 
                       __ZN2gc3est11FactorGraph13customCompileERKNS_8ScheduleE, __ZN2gc3est11FactorGraph14groupVariablesERKNSt3__112basic_stringIcNS2_11char_traitsIcEENS2_9allocatorIcEEEERKNS2_6vectorIS8_NS6_IS8_EEEE, 
                       __ZN2gc3est11FactorGraph15updateVariablesERKNS0_9BufferMapENS_4util10TaggedBoolINS0_11FreeOnlyTagEEENS6_INS0_10RectifyTagEEE, 
                       __ZN2gc3est11FactorGraph16markAsEliminableERKNSt3__112basic_stringIcNS2_11char_traitsIcEENS2_9allocatorIcEEEE, 
                       __ZN2gc3est11FactorGraph5clearEv, __ZN2gc3est11FactorGraph6createERKNSt3__112basic_stringIcNS2_11char_traitsIcEENS2_9allocatorIcEEEENS2_10shared_ptrINS_7LibraryEEE, 
                       __ZN2gc3est11FactorGraph8allocateEv, __ZN2gc3est11FactorGraph8finalizeEv, 
                       __ZN2gc3est11FactorGraph8setStateERKNSt3__112basic_stringIcNS2_11char_traitsIcEENS2_9allocatorIcEEEEjNS0_14eVariableStateE, 
                       __ZN2gc3est11FactorGraph9addFactorENSt3__110shared_ptrINS0_6FactorEEE, 
                       __ZN2gc3est11FactorGraph9markDirtyEb, __ZN2gc3est11FactorGraph9setStatesERKNSt3__112basic_stringIcNS2_11char_traitsIcEENS2_9allocatorIcEEEERKNS2_3setIjNS2_4lessIjEENS6_IjEEEENS0_14eVariableStateE, 
                       __ZN2gc3est11JacobianMap5clearEv, __ZN2gc3est11JacobianMap7setZeroEv, 
                       __ZN2gc3est11JacobianMap8allocateE17loopkit_rt_type_tRKNS0_11FactorGraphE, 
                       __ZN2gc3est11PCGIterate110createNameERKNSt3__112basic_stringIcNS2_11char_traitsIcEENS2_9allocatorIcEEEE, 
                       __ZN2gc3est11PCGIterate114setTileExtentsEv, __ZN2gc3est11PCGIterate14setbERKNS0_9BufferMapE, 
                       __ZN2gc3est11PCGIterate16kernelERKNS_8ScheduleE, __ZN2gc3est11PCGIterate18findTileERKNSt3__112basic_stringIcNS2_11char_traitsIcEENS2_9allocatorIcEEEE, 
                       __ZN2gc3est11PCGIterate1C1ERKNSt3__112basic_stringIcNS2_11char_traitsIcEENS2_9allocatorIcEEEERKNS2_10shared_ptrINS_6BufferEEERKNS0_11VariableMapESI_SI_SI_SI_, 
                       __ZN2gc3est11PCGIterate1C2ERKNSt3__112basic_stringIcNS2_11char_traitsIcEENS2_9allocatorIcEEEERKNS2_10shared_ptrINS_6BufferEEERKNS0_11VariableMapESI_SI_SI_SI_, 
                       __ZN2gc3est11PCGIterate210createNameERKNSt3__112basic_stringIcNS2_11char_traitsIcEENS2_9allocatorIcEEEE, 
                       __ZN2gc3est11PCGIterate214setTileExtentsEv, __ZN2gc3est11PCGIterate26kernelERKNS_8ScheduleE, 
                       __ZN2gc3est11PCGIterate28findTileERKNSt3__112basic_stringIcNS2_11char_traitsIcEENS2_9allocatorIcEEEE, 
                       __ZN2gc3est11PCGIterate2C1ERKNSt3__112basic_stringIcNS2_11char_traitsIcEENS2_9allocatorIcEEEERKNS0_11VariableMapESD_RKNS2_10shared_ptrINS_6BufferEEE, 
                       __ZN2gc3est11PCGIterate2C2ERKNSt3__112basic_stringIcNS2_11char_traitsIcEENS2_9allocatorIcEEEERKNS0_11VariableMapESD_RKNS2_10shared_ptrINS_6BufferEEE, 
                       __ZN2gc3est11TypedFactorILNS0_11eFactorTypeE1EE13customCompileERKNS_8ScheduleE, 
                       __ZN2gc3est11TypedFactorILNS0_11eFactorTypeE1EE4costEv, __ZN2gc3est11TypedFactorILNS0_11eFactorTypeE1EE6createENSt3__110shared_ptrINS0_12CostFunctionEEENS4_4pairINS5_INS0_8VariableEEENS4_6vectorISA_NS4_9allocatorISA_EEEEEERKNS4_12basic_stringIcNS4_11char_traitsIcEENSC_IcEEEE, 
                       __ZN2gc3est11TypedFactorILNS0_11eFactorTypeE1EE6createENSt3__110shared_ptrINS0_13ModelFunctionEEENS4_4pairINS5_INS0_8VariableEEENS4_6vectorISA_NS4_9allocatorISA_EEEEEERKNS4_12basic_stringIcNS4_11char_traitsIcEENSC_IcEEEE, 
                       __ZN2gc3est11TypedFactorILNS0_11eFactorTypeE1EE6createENSt3__110shared_ptrINS0_13ModelFunctionEEENS5_INS0_24LeastSquaresLossFunctionEEENS4_4pairINS5_INS0_8VariableEEENS4_6vectorISC_NS4_9allocatorISC_EEEEEERKNS4_12basic_stringIcNS4_11char_traitsIcEENSE_IcEEEE, 
                       __ZN2gc3est11TypedFactorILNS0_11eFactorTypeE1EE7epsilonENS_4util10TaggedBoolINS0_12RecomputeTagEEE, 
                       __ZN2gc3est11TypedFactorILNS0_11eFactorTypeE1EE7epsilonEv, 
                       __ZN2gc3est11TypedFactorILNS0_11eFactorTypeE1EE8allocateEv, 
                       __ZN2gc3est11TypedFactorILNS0_11eFactorTypeE1EEC1ENSt3__110shared_ptrINS0_12CostFunctionEEENS4_4pairINS5_INS0_8VariableEEENS4_6vectorISA_NS4_9allocatorISA_EEEEEERKNS4_12basic_stringIcNS4_11char_traitsIcEENSC_IcEEEE, 
                       __ZN2gc3est11TypedFactorILNS0_11eFactorTypeE1EEC2ENSt3__110shared_ptrINS0_12CostFunctionEEENS4_4pairINS5_INS0_8VariableEEENS4_6vectorISA_NS4_9allocatorISA_EEEEEERKNS4_12basic_stringIcNS4_11char_traitsIcEENSC_IcEEEE, 
                       __ZN2gc3est11VariableMap13createBuffersENS0_15eVariableSubsetE17loopkit_rt_type_tRKNS0_11FactorGraphENS_4util10TaggedBoolINS_17AllocateMemoryTagEEE, 
                       __ZN2gc3est11VariableMap7setTypeE17loopkit_rt_type_t, __ZN2gc3est11VariableMap8allocateEv, 
                       __ZN2gc3est11VariableSet13restoreParamsERKNS0_9BufferMapERKNSt3__18functionIFbRKNS0_8VariableEEEE, 
                       __ZN2gc3est11VariableSet6insertENSt3__110shared_ptrINS0_8VariableEEE, 
                       __ZN2gc3est11VariableSetC1ENSt3__16vectorINS2_10shared_ptrINS0_8VariableEEENS2_9allocatorIS6_EEEE, 
                       __ZN2gc3est11VariableSetC2ENSt3__16vectorINS2_10shared_ptrINS0_8VariableEEENS2_9allocatorIS6_EEEE, 
                       __ZN2gc3est11VariableSetixEj, __ZN2gc3est12EvaluateJtJp10createNameERKNSt3__112basic_stringIcNS2_11char_traitsIcEENS2_9allocatorIcEEEE, 
                       __ZN2gc3est12EvaluateJtJp14setTileExtentsEv, __ZN2gc3est12EvaluateJtJp6kernelERKNS_8ScheduleE, 
                       __ZN2gc3est12EvaluateJtJp8findTileERKNSt3__112basic_stringIcNS2_11char_traitsIcEENS2_9allocatorIcEEEEj, 
                       __ZN2gc3est12EvaluateJtJpC1ENSt3__110shared_ptrINS0_11FactorGraphEEERKNS0_17FactorJacobianSetERKNS0_9FactorMapERKNS0_11VariableMapE, 
                       __ZN2gc3est12EvaluateJtJpC2ENSt3__110shared_ptrINS0_11FactorGraphEEERKNS0_17FactorJacobianSetERKNS0_9FactorMapERKNS0_11VariableMapE, 
                       __ZN2gc3est12EvaluateJteM10createNameERKNSt3__112basic_stringIcNS2_11char_traitsIcEENS2_9allocatorIcEEEE, 
                       __ZN2gc3est12EvaluateJteM14setTileExtentsEv, __ZN2gc3est12EvaluateJteM6kernelERKNS_8ScheduleE, 
                       __ZN2gc3est12EvaluateJteM8findTileERKNSt3__112basic_stringIcNS2_11char_traitsIcEENS2_9allocatorIcEEEEj, 
                       __ZN2gc3est12EvaluateJteMC1ENSt3__110shared_ptrINS0_11FactorGraphEEERKNS0_17FactorJacobianSetERKNS0_11VariableMapESB_, 
                       __ZN2gc3est12EvaluateJteMC2ENSt3__110shared_ptrINS0_11FactorGraphEEERKNS0_17FactorJacobianSetERKNS0_11VariableMapESB_, 
                       __ZN2gc3est12InvertBlockM10createNameERKNSt3__112basic_stringIcNS2_11char_traitsIcEENS2_9allocatorIcEEEE, 
                       __ZN2gc3est12InvertBlockM14setTileExtentsEv, __ZN2gc3est12InvertBlockM6kernelERKNS_8ScheduleE, 
                       __ZN2gc3est12InvertBlockM8findTileERKNSt3__112basic_stringIcNS2_11char_traitsIcEENS2_9allocatorIcEEEE, 
                       __ZN2gc3est12InvertBlockMC1ERKNSt3__112basic_stringIcNS2_11char_traitsIcEENS2_9allocatorIcEEEERKNS0_14InformationMapESD_, 
                       __ZN2gc3est12InvertBlockMC2ERKNSt3__112basic_stringIcNS2_11char_traitsIcEENS2_9allocatorIcEEEERKNS0_14InformationMapESD_, 
                       __ZN2gc3est12LinearSolver6createENS0_17eLinearSolverTypeENS0_18eLinearizationTypeERKNS1_7OptionsERKNS0_11FactorGraphE, 
                       __ZN2gc3est12allVariablesEv, __ZN2gc3est12checkVersionERN8nlohmann10basic_jsonINS1_11ordered_mapENSt3__16vectorENS4_12basic_stringIcNS4_11char_traitsIcEENS4_9allocatorIcEEEEbxydS9_NS1_14adl_serializerENS5_IhNS9_IhEEEEEERNS4_13basic_ostreamIcS8_EE, 
                       __ZN2gc3est13BlockOrdering6createERKNS0_6FactorERKNS0_16VariableGroupSetEjjNS_4util10TaggedBoolINS0_14ReducedOnlyTagEEE, 
                       __ZN2gc3est13BlockOrdering7reorderERKNS0_6FactorERKNS0_16VariableGroupSetE, 
                       __ZN2gc3est13FactorBuffers10asVariadicEv, __ZN2gc3est13FactorBuffers7asBasicEv, 
                       __ZN2gc3est13GaussianPrior6createENSt3__110shared_ptrINS0_8VariableEEES5_NS3_INS0_10NoiseModelEEERKNS2_12basic_stringIcNS2_11char_traitsIcEENS2_9allocatorIcEEEE, 
                       __ZN2gc3est13GaussianPrior6createENSt3__110shared_ptrINS0_8VariableEEES5_NS3_INS0_8BoxMinusEEENS3_INS0_10NoiseModelEEERKNS2_12basic_stringIcNS2_11char_traitsIcEENS2_9allocatorIcEEEE, 
                       __ZN2gc3est13GaussianPrior6createENSt3__110shared_ptrINS0_8VariableEEES5_NS3_INS0_8BoxMinusEEERKNS2_12basic_stringIcNS2_11char_traitsIcEENS2_9allocatorIcEEEE, 
                       __ZN2gc3est13GaussianPrior6createENSt3__110shared_ptrINS0_8VariableEEES5_RKNS2_12basic_stringIcNS2_11char_traitsIcEENS2_9allocatorIcEEEE, 
                       __ZN2gc3est13ModelFunction17evaluateDimensionERKNSt3__16vectorINS2_10shared_ptrINS0_8VariableEEENS2_9allocatorIS6_EEEE, 
                       __ZN2gc3est13VariableGroup13customCompileERKNS_8ScheduleE, 
                       __ZN2gc3est13VariableGroup13updateOffsetsEv, __ZN2gc3est13VariableGroup22maybeInitializeOffsetsEv, 
                       __ZN2gc3est13VariableGroup6createERKNSt3__112basic_stringIcNS2_11char_traitsIcEENS2_9allocatorIcEEEERKNS2_6vectorINS2_10shared_ptrINS0_8VariableEEENS6_ISE_EEEENS_4util10TaggedBoolINS0_13IsConstantTagEEE, 
                       __ZN2gc3est13VariableGroup6updateENSt3__110shared_ptrINS_6BufferEEENS_4util10TaggedBoolINS0_11FreeOnlyTagEEE, 
                       __ZN2gc3est13VariableGroup8allocateEv, __ZN2gc3est13VariableGroup8setStateEjNS0_14eVariableStateE, 
                       __ZN2gc3est13VariableGroup9setStatesENS0_14eVariableStateE, 
                       __ZN2gc3est13VariableGroupC1ERKNSt3__112basic_stringIcNS2_11char_traitsIcEENS2_9allocatorIcEEEERKNS2_6vectorINS2_10shared_ptrINS0_8VariableEEENS6_ISE_EEEENS_4util10TaggedBoolINS0_13IsConstantTagEEE, 
                       __ZN2gc3est13VariableGroupC2ERKNSt3__112basic_stringIcNS2_11char_traitsIcEENS2_9allocatorIcEEEERKNS2_6vectorINS2_10shared_ptrINS0_8VariableEEENS6_ISE_EEEENS_4util10TaggedBoolINS0_13IsConstantTagEEE, 
                       __ZN2gc3est14EvaluateBlockM10createNameERKNSt3__112basic_stringIcNS2_11char_traitsIcEENS2_9allocatorIcEEEE, 
                       __ZN2gc3est14EvaluateBlockM14setTileExtentsEv, __ZN2gc3est14EvaluateBlockM6kernelERKNS_8ScheduleE, 
                       __ZN2gc3est14EvaluateBlockM8findTileERKNSt3__112basic_stringIcNS2_11char_traitsIcEENS2_9allocatorIcEEEEj, 
                       __ZN2gc3est14EvaluateBlockMC1ENSt3__110shared_ptrINS0_11FactorGraphEEERKNS0_17FactorJacobianSetERKNS0_11VariableMapERKNS0_14InformationMapE, 
                       __ZN2gc3est14EvaluateBlockMC2ENSt3__110shared_ptrINS0_11FactorGraphEEERKNS0_17FactorJacobianSetERKNS0_11VariableMapERKNS0_14InformationMapE, 
                       __ZN2gc3est14ExtractDiagJtJ10createNameERKNSt3__112basic_stringIcNS2_11char_traitsIcEENS2_9allocatorIcEEEE, 
                       __ZN2gc3est14ExtractDiagJtJ14setTileExtentsEv, __ZN2gc3est14ExtractDiagJtJ6kernelERKNS_8ScheduleE, 
                       __ZN2gc3est14ExtractDiagJtJ8findTileEj, __ZN2gc3est14ExtractDiagJtJC1ERKNSt3__110shared_ptrINS0_11FactorGraphEEERKNS0_16BlockMatrixArrayERNS0_14InformationMapERNS0_11VariableMapE, 
                       __ZN2gc3est14ExtractDiagJtJC2ERKNSt3__110shared_ptrINS0_11FactorGraphEEERKNS0_16BlockMatrixArrayERNS0_14InformationMapERNS0_11VariableMapE, 
                       __ZN2gc3est14FactorJacobian7setTypeENS0_13eJacobianTypeE, 
                       __ZN2gc3est14FactorJacobianC1ENS0_13eJacobianTypeE, __ZN2gc3est14FactorJacobianC1Ev, 
                       __ZN2gc3est14FactorJacobianC2ENS0_13eJacobianTypeE, __ZN2gc3est14FactorJacobianC2Ev, 
                       __ZN2gc3est14FactorOrdering6createERKNS0_6FactorERKNS0_16VariableGroupSetEj, 
                       __ZN2gc3est14InformationMap13createBuffersENS0_15eVariableSubsetE17loopkit_rt_type_tRKNS0_11FactorGraphENS_4util10TaggedBoolINS_17AllocateMemoryTagEEE, 
                       __ZN2gc3est14InformationMap7setTypeE17loopkit_rt_type_t, __ZN2gc3est14InformationMap8allocateEv, 
                       __ZN2gc3est14Preconditioner6createENS0_19ePreconditionerTypeENS0_18eLinearizationTypeERKNS0_11FactorGraphENSt3__110shared_ptrINS_7LibraryEEE, 
                       __ZN2gc3est14SchurLinearize10createNameERKNSt3__112basic_stringIcNS2_11char_traitsIcEENS2_9allocatorIcEEEENS2_8optionalINS0_30eLevenbergMarquardtDampingTypeEEE, 
                       __ZN2gc3est14SchurLinearize10kernelNameERKNSt3__112basic_stringIcNS2_11char_traitsIcEENS2_9allocatorIcEEEE, 
                       __ZN2gc3est14SchurLinearize10kernelNameERKNSt3__112basic_stringIcNS2_11char_traitsIcEENS2_9allocatorIcEEEEj, 
                       __ZN2gc3est14SchurLinearize14setTileExtentsEv, __ZN2gc3est14SchurLinearize6kernelERKNS_8ScheduleE, 
                       __ZN2gc3est14SchurLinearize8findTileERKNSt3__112basic_stringIcNS2_11char_traitsIcEENS2_9allocatorIcEEEE, 
                       __ZN2gc3est14SchurLinearize8findTileERKNSt3__112basic_stringIcNS2_11char_traitsIcEENS2_9allocatorIcEEEEj, 
                       __ZN2gc3est14SchurLinearizeC1ENSt3__18optionalINS0_30eLevenbergMarquardtDampingTypeEEENS2_10shared_ptrINS0_11FactorGraphEEERKNS0_17FactorJacobianSetERKNS6_INS_6BufferEEERKNS0_16BlockMatrixArrayERKNS0_25SchurEliminatedHessianSetERKNS0_11VariableMapESO_NS0_14InformationMapE, 
                       __ZN2gc3est14SchurLinearizeC2ENSt3__18optionalINS0_30eLevenbergMarquardtDampingTypeEEENS2_10shared_ptrINS0_11FactorGraphEEERKNS0_17FactorJacobianSetERKNS6_INS_6BufferEEERKNS0_16BlockMatrixArrayERKNS0_25SchurEliminatedHessianSetERKNS0_11VariableMapESO_NS0_14InformationMapE, 
                       __ZN2gc3est15DenseLDLTSolver13customCompileERKNS_8ScheduleE, 
                       __ZN2gc3est15DenseLDLTSolver5solveERKNS0_12LinearSolver12SolveOptionsEPNS0_18LinearizationPointERNS0_11VariableMapE, 
                       __ZN2gc3est15DenseLDLTSolver6createERKNS0_12LinearSolver7OptionsERKNS0_11FactorGraphE, 
                       __ZN2gc3est15DenseLDLTSolver8allocateEv, __ZN2gc3est15FactorGradients13customCompileERKNS_8ScheduleE, 
                       __ZN2gc3est15FactorGradientsC1EPNS0_6FactorE, __ZN2gc3est15FactorGradientsC2EPNS0_6FactorE, 
                       __ZN2gc3est15FactorJacobians13customCompileERKNS_8ScheduleE, 
                       __ZN2gc3est15FactorJacobians15prepForAllocateERKNS0_16VariableGroupSetE, 
                       __ZN2gc3est15FactorJacobians2atEm, __ZN2gc3est15FactorJacobians3endEv, 
                       __ZN2gc3est15FactorJacobians5beginEv, __ZN2gc3est15FactorJacobians6createENSt3__110shared_ptrINS0_6FactorEEERKNS0_16VariableGroupSetE, 
                       __ZN2gc3est15FactorJacobians8allocateEv, __ZN2gc3est15FactorJacobians9linearizeEv, 
                       __ZN2gc3est15FactorJacobiansC1ERKNSt3__110shared_ptrINS0_6FactorEEE, 
                       __ZN2gc3est15FactorJacobiansC2ERKNSt3__110shared_ptrINS0_6FactorEEE, 
                       __ZN2gc3est15FactorJacobiansixEm, __ZN2gc3est15VariableOffsets5resetEj, 
                       __ZN2gc3est15VariableOffsets5resetEv, __ZN2gc3est15VariableOffsets6bufferEv, 
                       __ZN2gc3est15VariableOffsets6updateERKNS0_13VariableGroupE, 
                       __ZN2gc3est15VariableOffsetsC1ERKNSt3__112basic_stringIcNS2_11char_traitsIcEENS2_9allocatorIcEEEEj, 
                       __ZN2gc3est15VariableOffsetsC1EjPjNS_8DeepCopyE, __ZN2gc3est15VariableOffsetsC2ERKNSt3__112basic_stringIcNS2_11char_traitsIcEENS2_9allocatorIcEEEEj, 
                       __ZN2gc3est15VariableOffsetsC2EjPjNS_8DeepCopyE, __ZN2gc3est15loadFactorGraphERKNSt3__14__fs10filesystem4pathERNS0_11FactorGraphENS_4util10TaggedBoolINS0_15PreserveNameTagEEERNS1_13basic_ostreamIcNS1_11char_traitsIcEEEE, 
                       __ZN2gc3est15saveFactorGraphERKNSt3__14__fs10filesystem4pathERKNS0_11FactorGraphE, 
                       __ZN2gc3est16BlockMatrixArray10symmetrizeEv, __ZN2gc3est16BlockMatrixArray13createBuffersE17loopkit_rt_type_tRKNS0_11FactorGraphERKNS0_16BlockOrderingSetENS_4util10TaggedBoolINS0_14ReducedOnlyTagEEE, 
                       __ZN2gc3est16BlockMatrixArray13createBuffersEjNS_4util10TaggedBoolINS0_18SymmetricMatrixTagEEE, 
                       __ZN2gc3est16BlockMatrixArray6matrixEjj, __ZN2gc3est16BlockMatrixArray7setZeroEv, 
                       __ZN2gc3est16BlockOrderingSet3endEv, __ZN2gc3est16BlockOrderingSet4findERKNSt3__112basic_stringIcNS2_11char_traitsIcEENS2_9allocatorIcEEEE, 
                       __ZN2gc3est16BlockOrderingSet5beginEv, __ZN2gc3est16BlockOrderingSet8allocateERKNS0_6FactorERKNS0_16VariableGroupSetENS_4util10TaggedBoolINS0_14ReducedOnlyTagEEE, 
                       __ZN2gc3est16DenseBlockMatrix12resetBuffersEjjRKNS0_18BlockAdjacencyListE, 
                       __ZN2gc3est16DenseBlockMatrix5resetENSt3__110shared_ptrINS0_11BlockMatrixEEE, 
                       __ZN2gc3est16DenseBlockMatrix6bufferEv, __ZN2gc3est16DenseBlockMatrix6createENS0_15BlockMatrixSizeE17loopkit_rt_type_tjj, 
                       __ZN2gc3est16DenseBlockMatrix7setZeroEv, __ZN2gc3est16DenseBlockMatrixC1ENS0_15BlockMatrixSizeE17loopkit_rt_type_tjj, 
                       __ZN2gc3est16DenseBlockMatrixC2ENS0_15BlockMatrixSizeE17loopkit_rt_type_tjj, 
                       __ZN2gc3est16SparseLDLTSolver13customCompileERKNS_8ScheduleE, 
                       __ZN2gc3est16SparseLDLTSolver5solveERKNS0_12LinearSolver12SolveOptionsEPNS0_18LinearizationPointERNS0_11VariableMapE, 
                       __ZN2gc3est16SparseLDLTSolver6createERKNS0_12LinearSolver7OptionsERKNS0_11FactorGraphE, 
                       __ZN2gc3est16SparseLDLTSolver8allocateEv, __ZN2gc3est16VariableGroupSet14groupVariablesERKNSt3__112basic_stringIcNS2_11char_traitsIcEENS2_9allocatorIcEEEERKNS2_6vectorINS2_10shared_ptrINS0_8VariableEEENS6_ISE_EEEE, 
                       __ZN2gc3est16VariableGroupSet14groupVariablesERKNSt3__112basic_stringIcNS2_11char_traitsIcEENS2_9allocatorIcEEEERKNS2_6vectorIS8_NS6_IS8_EEEE, 
                       __ZN2gc3est16VariableGroupSet4findERKNSt3__112basic_stringIcNS2_11char_traitsIcEENS2_9allocatorIcEEEE, 
                       __ZN2gc3est16VariableGroupSet5clearEv, __ZN2gc3est16VariableGroupSet6insertERKNSt3__110shared_ptrINS0_8VariableEEENS_4util10TaggedBoolINS0_13IsConstantTagEEE, 
                       __ZN2gc3est16VariableGroupSet6updateERKNS0_9BufferMapENS_4util10TaggedBoolINS0_11FreeOnlyTagEEENS6_INS0_10RectifyTagEEE, 
                       __ZN2gc3est16makePriorFactorsEj, __ZN2gc3est16saveSolveSummaryERKNSt3__14__fs10filesystem4pathERKNS0_9Minimizer12SolveSummaryE, 
                       __ZN2gc3est17FactorJacobianSet8allocateERKNS0_11FactorGraphE, 
                       __ZN2gc3est17FactorJacobianSet9linearizeEv, __ZN2gc3est17FactorOrderingSet3endEv, 
                       __ZN2gc3est17FactorOrderingSet4findERKNSt3__112basic_stringIcNS2_11char_traitsIcEENS2_9allocatorIcEEEE, 
                       __ZN2gc3est17FactorOrderingSet5beginEv, __ZN2gc3est17FactorOrderingSet8allocateERKNS0_6FactorERKNS0_16VariableGroupSetE, 
                       __ZN2gc3est17SymmetrizeDiagJtJ10createNameERKNSt3__112basic_stringIcNS2_11char_traitsIcEENS2_9allocatorIcEEEE, 
                       __ZN2gc3est17SymmetrizeDiagJtJ14setTileExtentsEv, __ZN2gc3est17SymmetrizeDiagJtJ6kernelERKNS_8ScheduleE, 
                       __ZN2gc3est17SymmetrizeDiagJtJ8findTileEj, __ZN2gc3est17SymmetrizeDiagJtJC1ERKNSt3__112basic_stringIcNS2_11char_traitsIcEENS2_9allocatorIcEEEERNS0_16BlockMatrixArrayE, 
                       __ZN2gc3est17SymmetrizeDiagJtJC2ERKNSt3__112basic_stringIcNS2_11char_traitsIcEENS2_9allocatorIcEEEERNS0_16BlockMatrixArrayE, 
                       __ZN2gc3est18BasicFactorBuffers5resetEPjjNS_8DeepCopyE, __ZN2gc3est18BasicFactorBuffers6createEj, 
                       __ZN2gc3est18BasicFactorBuffersC1Ej, __ZN2gc3est18BasicFactorBuffersC2Ej, 
                       __ZN2gc3est18BlockAdjacencyList6appendES1_, __ZN2gc3est18FactorBufferEditor3setEjjj, 
                       __ZN2gc3est18FactorBufferEditorC1ERNS0_6FactorE, __ZN2gc3est18FactorBufferEditorC2ERNS0_6FactorE, 
                       __ZN2gc3est18ImplicitSchurJtJp110createNameERKNSt3__112basic_stringIcNS2_11char_traitsIcEENS2_9allocatorIcEEEE, 
                       __ZN2gc3est18ImplicitSchurJtJp110kernelNameERKNSt3__112basic_stringIcNS2_11char_traitsIcEENS2_9allocatorIcEEEEj, 
                       __ZN2gc3est18ImplicitSchurJtJp114setTileExtentsEv, __ZN2gc3est18ImplicitSchurJtJp16kernelERKNS_8ScheduleE, 
                       __ZN2gc3est18ImplicitSchurJtJp18findTileERKNSt3__112basic_stringIcNS2_11char_traitsIcEENS2_9allocatorIcEEEEj, 
                       __ZN2gc3est18ImplicitSchurJtJp1C1ENSt3__110shared_ptrINS0_11FactorGraphEEERKNS0_17FactorJacobianSetERKNS0_9FactorMapERKNS0_11VariableMapE, 
                       __ZN2gc3est18ImplicitSchurJtJp1C2ENSt3__110shared_ptrINS0_11FactorGraphEEERKNS0_17FactorJacobianSetERKNS0_9FactorMapERKNS0_11VariableMapE, 
                       __ZN2gc3est18ImplicitSchurJtJp210createNameERKNSt3__112basic_stringIcNS2_11char_traitsIcEENS2_9allocatorIcEEEE, 
                       __ZN2gc3est18ImplicitSchurJtJp210kernelNameERKNSt3__112basic_stringIcNS2_11char_traitsIcEENS2_9allocatorIcEEEEjb, 
                       __ZN2gc3est18ImplicitSchurJtJp214setTileExtentsEv, __ZN2gc3est18ImplicitSchurJtJp26kernelERKNS_8ScheduleE, 
                       __ZN2gc3est18ImplicitSchurJtJp28findTileERKNSt3__112basic_stringIcNS2_11char_traitsIcEENS2_9allocatorIcEEEEjb, 
                       __ZN2gc3est18ImplicitSchurJtJp2C1ENSt3__110shared_ptrINS0_11FactorGraphEEERKNS0_17FactorJacobianSetERKNS0_11VariableMapERKNS0_14InformationMapERKNS0_9FactorMapE, 
                       __ZN2gc3est18ImplicitSchurJtJp2C2ENSt3__110shared_ptrINS0_11FactorGraphEEERKNS0_17FactorJacobianSetERKNS0_11VariableMapERKNS0_14InformationMapERKNS0_9FactorMapE, 
                       __ZN2gc3est18LinearizationPoint11CachedState8allDirtyEb, __ZN2gc3est18LinearizationPoint13asSecondOrderEv, 
                       __ZN2gc3est18LinearizationPoint15updateVariablesERKNS0_11VariableMapENS_4util10TaggedBoolINS0_11FreeOnlyTagEEENS6_INS0_10RectifyTagEEE, 
                       __ZN2gc3est18LinearizationPoint20factorJacobiansDirtyEb, __ZN2gc3est18LinearizationPoint6createENS0_18eLinearizationTypeERKNS0_25LinearizationPointOptionsERKNSt3__110shared_ptrINS0_11FactorGraphEEE, 
                       __ZN2gc3est18LinearizationPoint9markDirtyEb, __ZN2gc3est18LinearizationPointC2ERKNS0_25LinearizationPointOptionsERKNSt3__110shared_ptrINS0_11FactorGraphEEE, 
                       __ZN2gc3est19BasicFactorOrdering7reorderERKNS0_16VariableGroupSetE, 
                       __ZN2gc3est19BasicFactorOrdering8allocateERKNS0_6FactorERKNS0_16VariableGroupSetE, 
                       __ZN2gc3est19SparseFactorizationIdEC1Ev, __ZN2gc3est19SparseFactorizationIdEC2Ev, 
                       __ZN2gc3est19SparseFactorizationIdED1Ev, __ZN2gc3est19SparseFactorizationIdED2Ev, 
                       __ZN2gc3est19SparseFactorizationIfEC1Ev, __ZN2gc3est19SparseFactorizationIfEC2Ev, 
                       __ZN2gc3est19SparseFactorizationIfED1Ev, __ZN2gc3est19SparseFactorizationIfED2Ev, 
                       __ZN2gc3est19TrustRegionStrategy6createENS0_24eTrustRegionStrategyTypeENS0_18eLinearizationTypeERKNS1_7OptionsE, 
                       __ZN2gc3est20BitmappedBlockMatrix12resetBuffersEjjRKNS0_18BlockAdjacencyListE, 
                       __ZN2gc3est20BitmappedBlockMatrix5resetENSt3__110shared_ptrINS0_11BlockMatrixEEE, 
                       __ZN2gc3est20BitmappedBlockMatrix6bufferEv, __ZN2gc3est20BitmappedBlockMatrix6createENS0_15BlockMatrixSizeE17loopkit_rt_type_tRKNS0_18BlockAdjacencyListEjj, 
                       __ZN2gc3est20BitmappedBlockMatrix7setZeroEv, __ZN2gc3est20BitmappedBlockMatrixC1ENS0_15BlockMatrixSizeE17loopkit_rt_type_tRKNS0_18BlockAdjacencyListEjj, 
                       __ZN2gc3est20BitmappedBlockMatrixC2ENS0_15BlockMatrixSizeE17loopkit_rt_type_tRKNS0_18BlockAdjacencyListEjj, 
                       __ZN2gc3est20FactorInformationMap13createBuffersE17loopkit_rt_type_tRKNS0_11FactorGraphENS_4util10TaggedBoolINS_17AllocateMemoryTagEEE, 
                       __ZN2gc3est20FactorInformationMap7setTypeE17loopkit_rt_type_t, 
                       __ZN2gc3est20FactorInformationMap8allocateEv, __ZN2gc3est20SchurBackSubstitute110createNameERKNSt3__112basic_stringIcNS2_11char_traitsIcEENS2_9allocatorIcEEEE, 
                       __ZN2gc3est20SchurBackSubstitute110kernelNameERKNSt3__112basic_stringIcNS2_11char_traitsIcEENS2_9allocatorIcEEEEj, 
                       __ZN2gc3est20SchurBackSubstitute114setTileExtentsEv, __ZN2gc3est20SchurBackSubstitute16kernelERKNS_8ScheduleE, 
                       __ZN2gc3est20SchurBackSubstitute18findTileERKNSt3__112basic_stringIcNS2_11char_traitsIcEENS2_9allocatorIcEEEEj, 
                       __ZN2gc3est20SchurBackSubstitute1C1ENSt3__110shared_ptrINS0_11FactorGraphEEERKNS0_17FactorJacobianSetERKNS0_25SchurEliminatedHessianSetERKNS0_11VariableMapESE_SE_, 
                       __ZN2gc3est20SchurBackSubstitute1C2ENSt3__110shared_ptrINS0_11FactorGraphEEERKNS0_17FactorJacobianSetERKNS0_25SchurEliminatedHessianSetERKNS0_11VariableMapESE_SE_, 
                       __ZN2gc3est20SchurBackSubstitute210createNameERKNSt3__112basic_stringIcNS2_11char_traitsIcEENS2_9allocatorIcEEEE, 
                       __ZN2gc3est20SchurBackSubstitute210kernelNameERKNSt3__112basic_stringIcNS2_11char_traitsIcEENS2_9allocatorIcEEEE, 
                       __ZN2gc3est20SchurBackSubstitute214setTileExtentsEv, __ZN2gc3est20SchurBackSubstitute26kernelERKNS_8ScheduleE, 
                       __ZN2gc3est20SchurBackSubstitute28findTileERKNSt3__112basic_stringIcNS2_11char_traitsIcEENS2_9allocatorIcEEEE, 
                       __ZN2gc3est20SchurBackSubstitute2C1ENSt3__110shared_ptrINS0_11FactorGraphEEENS0_14InformationMapERKNS0_11VariableMapE, 
                       __ZN2gc3est20SchurBackSubstitute2C2ENSt3__110shared_ptrINS0_11FactorGraphEEENS0_14InformationMapERKNS0_11VariableMapE, 
                       __ZN2gc3est20TrustRegionMinimizer10acceptStepERKNS0_9Minimizer12SolveSummary12IterationLogERKNS0_11VariableMapE, 
                       __ZN2gc3est20TrustRegionMinimizer12setUpOptionsERKNS0_9Minimizer12SolveOptionsE, 
                       __ZN2gc3est20TrustRegionMinimizer6createERKNS0_9Minimizer7OptionsERKNSt3__110shared_ptrINS0_7ProblemEEE, 
                       __ZN2gc3est20TrustRegionMinimizer7prepareERKNS0_9Minimizer12SolveOptionsERNS2_12SolveSummary12IterationLogE, 
                       __ZN2gc3est20TrustRegionMinimizer8allocateEv, __ZN2gc3est20TrustRegionMinimizer9solveStepERNS0_11VariableMapE, 
                       __ZN2gc3est20loadMinimizerOptionsERKNSt3__14__fs10filesystem4pathERNS0_9Minimizer7OptionsERNS7_12SolveOptionsE, 
                       __ZN2gc3est20saveMinimizerOptionsERKNSt3__14__fs10filesystem4pathERKNS0_9Minimizer7OptionsERKNS7_12SolveOptionsE, 
                       __ZN2gc3est21StandardGaussianNoise6createEv, __ZN2gc3est21VariadicFactorBuffers5resetERKNSt3__16vectorINS2_4pairIPjjEENS2_9allocatorIS6_EEEESB_NS_8DeepCopyE, 
                       __ZN2gc3est21VariadicFactorBuffers6createEj, __ZN2gc3est21VariadicFactorBuffersC1Ej, 
                       __ZN2gc3est21VariadicFactorBuffersC2Ej, __ZN2gc3est22EvaluateBatchGradients10createNameERKNSt3__112basic_stringIcNS2_11char_traitsIcEENS2_9allocatorIcEEEE, 
                       __ZN2gc3est22EvaluateBatchGradients14setTileExtentsEv, __ZN2gc3est22EvaluateBatchGradients6kernelERKNS_8ScheduleE, 
                       __ZN2gc3est22EvaluateBatchGradients8findTileERKNSt3__112basic_stringIcNS2_11char_traitsIcEENS2_9allocatorIcEEEEj, 
                       __ZN2gc3est22EvaluateBatchGradientsC1ENSt3__110shared_ptrINS0_11FactorGraphEEERKNS0_17FactorOrderingSetERKNS0_11VariableMapERKNS3_INS_6BufferEEERKNS2_8functionIFNS0_13eJacobianTypeERKNS2_12basic_stringIcNS2_11char_traitsIcEENS2_9allocatorIcEEEESP_EEE, 
