--- !tapi-tbd
tbd-version:     4
targets:         [ x86_64-macos, arm64-macos, arm64e-macos ]
install-name:    '/System/Library/PrivateFrameworks/WebGPU.framework/Versions/A/WebGPU'
current-version: 622.1.22
exports:
  - targets:         [ x86_64-macos, arm64-macos, arm64e-macos ]
    symbols:         [ __Z15wgpuBufferUnmapP14WGPUBufferImpl, __Z15wgpuQueueSubmitP13WGPUQueueImplmPKP21WGPUCommandBufferImpl, 
                       __Z16wgpuQueueIsValidP13WGPUQueueImpl, __Z16wgpuQueueReleaseP13WGPUQueueImpl, 
                       __Z17wgpuBufferDestroyP14WGPUBufferImpl, __Z17wgpuBufferIsValidP14WGPUBufferImpl, 
                       __Z17wgpuBufferReleaseP14WGPUBufferImpl, __Z17wgpuDefaultLimitsv, 
                       __Z17wgpuDeviceDestroyP14WGPUDeviceImpl, __Z17wgpuDeviceIsValidP14WGPUDeviceImpl, 
                       __Z17wgpuDeviceReleaseP14WGPUDeviceImpl, __Z17wgpuQueueSetLabelP13WGPUQueueImplPKc, 
                       __Z17wgpuXRViewIsValidP14WGPUXRViewImpl, __Z17wgpuXRViewReleaseP14WGPUXRViewImpl, 
                       __Z18wgpuAdapterIsValidP15WGPUAdapterImpl, __Z18wgpuAdapterReleaseP15WGPUAdapterImpl, 
                       __Z18wgpuBufferGetUsageP14WGPUBufferImpl, __Z18wgpuBufferMapAsyncP14WGPUBufferImpljmmPFv24WGPUBufferMapAsyncStatusPvES2_, 
                       __Z18wgpuBufferSetLabelP14WGPUBufferImplPKc, __Z18wgpuCreateInstancePK22WGPUInstanceDescriptor, 
                       __Z18wgpuDeviceGetQueueP14WGPUDeviceImpl, __Z18wgpuDeviceSetLabelP14WGPUDeviceImplPKc, 
                       __Z18wgpuGetProcAddressP14WGPUDeviceImplPKc, __Z18wgpuQueueReferenceP13WGPUQueueImpl, 
                       __Z18wgpuSamplerIsValidP15WGPUSamplerImpl, __Z18wgpuSamplerReleaseP15WGPUSamplerImpl, 
                       __Z18wgpuSurfaceReleaseP15WGPUSurfaceImpl, __Z18wgpuTextureDestroyP15WGPUTextureImpl, 
                       __Z18wgpuTextureIsValidP15WGPUTextureImpl, __Z18wgpuTextureReleaseP15WGPUTextureImpl, 
                       __Z19wgpuBufferReferenceP14WGPUBufferImpl, __Z19wgpuDeviceGetLimitsP14WGPUDeviceImplP19WGPUSupportedLimits, 
                       __Z19wgpuDeviceReferenceP14WGPUDeviceImpl, __Z19wgpuInstanceReleaseP16WGPUInstanceImpl, 
                       __Z19wgpuQuerySetDestroyP16WGPUQuerySetImpl, __Z19wgpuQuerySetGetTypeP16WGPUQuerySetImpl, 
                       __Z19wgpuQuerySetIsValidP16WGPUQuerySetImpl, __Z19wgpuQuerySetReleaseP16WGPUQuerySetImpl, 
                       __Z19wgpuSamplerSetLabelP15WGPUSamplerImplPKc, __Z19wgpuTextureGetUsageP15WGPUTextureImpl, 
                       __Z19wgpuTextureGetWidthP15WGPUTextureImpl, __Z19wgpuTextureSetLabelP15WGPUTextureImplPKc, 
                       __Z19wgpuXRViewReferenceP14WGPUXRViewImpl, __Z20wgpuAdapterGetLimitsP15WGPUAdapterImplP19WGPUSupportedLimits, 
                       __Z20wgpuAdapterReferenceP15WGPUAdapterImpl, __Z20wgpuBindGroupIsValidP17WGPUBindGroupImpl, 
                       __Z20wgpuBindGroupReleaseP17WGPUBindGroupImpl, __Z20wgpuDeviceHasFeatureP14WGPUDeviceImpl15WGPUFeatureName, 
                       __Z20wgpuQuerySetGetCountP16WGPUQuerySetImpl, __Z20wgpuQuerySetSetLabelP16WGPUQuerySetImplPKc, 
                       __Z20wgpuQueueWriteBufferP13WGPUQueueImplP14WGPUBufferImplyNSt3__14spanIhLm18446744073709551615EEE, 
                       __Z20wgpuSamplerReferenceP15WGPUSamplerImpl, __Z20wgpuSurfaceReferenceP15WGPUSurfaceImpl, 
                       __Z20wgpuSwapChainPresentP17WGPUSwapChainImplj, __Z20wgpuSwapChainReleaseP17WGPUSwapChainImpl, 
                       __Z20wgpuTextureGetFormatP15WGPUTextureImpl, __Z20wgpuTextureGetHeightP15WGPUTextureImpl, 
                       __Z20wgpuTextureReferenceP15WGPUTextureImpl, __Z20wgpuTextureUndestroyP15WGPUTextureImpl, 
                       __Z20wgpuXRBindingIsValidP17WGPUXRBindingImpl, __Z20wgpuXRBindingReleaseP17WGPUXRBindingImpl, 
                       __Z21wgpuAdapterHasFeatureP15WGPUAdapterImpl15WGPUFeatureName, 
                       __Z21wgpuBindGroupSetLabelP17WGPUBindGroupImplPKc, __Z21wgpuBufferGetMapStateP14WGPUBufferImpl, 
                       __Z21wgpuInstanceReferenceP16WGPUInstanceImpl, __Z21wgpuQuerySetReferenceP16WGPUQuerySetImpl, 
                       __Z21wgpuQueueWriteTextureP13WGPUQueueImplPK20WGPUImageCopyTextureNSt3__14spanIhLm18446744073709551615EEEPK21WGPUTextureDataLayoutPK12WGPUExtent3D, 
                       __Z21wgpuTextureCreateViewP15WGPUTextureImplPK25WGPUTextureViewDescriptor, 
                       __Z21wgpuXRSubImageIsValidP18WGPUXRSubImageImpl, __Z21wgpuXRSubImageReleaseP18WGPUXRSubImageImpl, 
                       __Z22wgpuAdapterFeatureName15WGPUFeatureName, __Z22wgpuBindGroupReferenceP17WGPUBindGroupImpl, 
                       __Z22wgpuDeviceCreateBufferP14WGPUDeviceImplPK20WGPUBufferDescriptor, 
                       __Z22wgpuSwapChainReferenceP17WGPUSwapChainImpl, __Z22wgpuTextureViewIsValidP19WGPUTextureViewImpl, 
                       __Z22wgpuTextureViewReleaseP19WGPUTextureViewImpl, __Z22wgpuXRBindingReferenceP17WGPUXRBindingImpl, 
                       __Z23wgpuAdapterXRCompatibleP15WGPUAdapterImpl, __Z23wgpuDeviceCreateSamplerP14WGPUDeviceImplPK21WGPUSamplerDescriptor, 
                       __Z23wgpuDeviceCreateTextureP14WGPUDeviceImplPK21WGPUTextureDescriptor, 
                       __Z23wgpuDevicePopErrorScopeP14WGPUDeviceImplPFv13WGPUErrorTypePKcPvES4_, 
                       __Z23wgpuRenderBundleIsValidP20WGPURenderBundleImpl, __Z23wgpuRenderBundleReleaseP20WGPURenderBundleImpl, 
                       __Z23wgpuShaderModuleIsValidP20WGPUShaderModuleImpl, __Z23wgpuShaderModuleReleaseP20WGPUShaderModuleImpl, 
                       __Z23wgpuTextureGetDimensionP15WGPUTextureImpl, __Z23wgpuTextureViewSetLabelP19WGPUTextureViewImplPKc, 
                       __Z23wgpuXRSubImageReferenceP18WGPUXRSubImageImpl, __Z24wgpuAdapterGetPropertiesP15WGPUAdapterImplP21WGPUAdapterProperties, 
                       __Z24wgpuAdapterRequestDeviceP15WGPUAdapterImplPK20WGPUDeviceDescriptorPFv23WGPURequestDeviceStatusP14WGPUDeviceImplPKcPvES9_, 
                       __Z24wgpuBufferGetCurrentSizeP14WGPUBufferImpl, __Z24wgpuBufferGetInitialSizeP14WGPUBufferImpl, 
                       __Z24wgpuBufferGetMappedRangeP14WGPUBufferImplmm, __Z24wgpuCommandBufferIsValidP21WGPUCommandBufferImpl, 
                       __Z24wgpuCommandBufferReleaseP21WGPUCommandBufferImpl, __Z24wgpuCommandEncoderFinishP22WGPUCommandEncoderImplPK27WGPUCommandBufferDescriptor, 
                       __Z24wgpuDeviceCreateQuerySetP14WGPUDeviceImplPK22WGPUQuerySetDescriptor, 
                       __Z24wgpuDevicePushErrorScopeP14WGPUDeviceImpl15WGPUErrorFilter, 
                       __Z24wgpuRenderBundleSetLabelP20WGPURenderBundleImplPKc, __Z24wgpuRenderPassEncoderEndP25WGPURenderPassEncoderImpl, 
                       __Z24wgpuShaderModuleSetLabelP20WGPUShaderModuleImplPKc, __Z24wgpuTextureViewReferenceP19WGPUTextureViewImpl, 
                       __Z25wgpuCommandBufferSetLabelP21WGPUCommandBufferImplPKc, 
                       __Z25wgpuCommandEncoderIsValidP22WGPUCommandEncoderImpl, __Z25wgpuCommandEncoderReleaseP22WGPUCommandEncoderImpl, 
                       __Z25wgpuComputePassEncoderEndP26WGPUComputePassEncoderImpl, 
                       __Z25wgpuDeviceCreateBindGroupP14WGPUDeviceImplPK23WGPUBindGroupDescriptor, 
                       __Z25wgpuDeviceCreateSwapChainP14WGPUDeviceImplP15WGPUSurfaceImplPK23WGPUSwapChainDescriptor, 
                       __Z25wgpuDeviceCreateXRBindingP14WGPUDeviceImpl, __Z25wgpuExternalTextureUpdateP23WGPUExternalTextureImplP10__CVBuffer, 
                       __Z25wgpuInstanceCreateSurfaceP16WGPUInstanceImplPK21WGPUSurfaceDescriptor, 
                       __Z25wgpuInstanceProcessEventsP16WGPUInstanceImpl, __Z25wgpuPipelineLayoutIsValidP22WGPUPipelineLayoutImpl, 
                       __Z25wgpuPipelineLayoutReleaseP22WGPUPipelineLayoutImpl, __Z25wgpuRenderBundleReferenceP20WGPURenderBundleImpl, 
                       __Z25wgpuRenderPassEncoderDrawP25WGPURenderPassEncoderImpljjjj, 
                       __Z25wgpuRenderPipelineIsValidP22WGPURenderPipelineImpl, __Z25wgpuRenderPipelineReleaseP22WGPURenderPipelineImpl, 
                       __Z25wgpuShaderModuleReferenceP20WGPUShaderModuleImpl, __Z25wgpuTextureGetSampleCountP15WGPUTextureImpl, 
                       __Z26wgpuBindGroupLayoutIsValidP23WGPUBindGroupLayoutImpl, 
                       __Z26wgpuBindGroupLayoutReleaseP23WGPUBindGroupLayoutImpl, 
                       __Z26wgpuBindingGetViewSubImageP17WGPUXRBindingImplP25WGPUXRProjectionLayerImpl, 
                       __Z26wgpuCommandBufferReferenceP21WGPUCommandBufferImpl, __Z26wgpuCommandEncoderSetLabelP22WGPUCommandEncoderImplPKc, 
                       __Z26wgpuComputePipelineIsValidP23WGPUComputePipelineImpl, 
                       __Z26wgpuComputePipelineReleaseP23WGPUComputePipelineImpl, 
                       __Z26wgpuExternalTextureDestroyP23WGPUExternalTextureImpl, 
                       __Z26wgpuExternalTextureIsValidP23WGPUExternalTextureImpl, 
                       __Z26wgpuExternalTextureReleaseP23WGPUExternalTextureImpl, 
                       __Z26wgpuInstanceRequestAdapterP16WGPUInstanceImplPK25WGPURequestAdapterOptionsPFv24WGPURequestAdapterStatusP15WGPUAdapterImplPKcPvES9_, 
                       __Z26wgpuPipelineLayoutSetLabelP22WGPUPipelineLayoutImplPKc, 
                       __Z26wgpuRenderPipelineSetLabelP22WGPURenderPipelineImplPKc, 
                       __Z27wgpuBindGroupLayoutSetLabelP23WGPUBindGroupLayoutImplPKc, 
                       __Z27wgpuBufferGetBufferContentsP14WGPUBufferImpl, __Z27wgpuCommandEncoderReferenceP22WGPUCommandEncoderImpl, 
                       __Z27wgpuComputePipelineSetLabelP23WGPUComputePipelineImplPKc, 
                       __Z27wgpuDeviceEnumerateFeaturesP14WGPUDeviceImplP15WGPUFeatureName, 
                       __Z27wgpuPipelineLayoutReferenceP22WGPUPipelineLayoutImpl, 
                       __Z27wgpuRenderBundleEncoderDrawP27WGPURenderBundleEncoderImpljjjj, 
                       __Z27wgpuRenderPipelineReferenceP22WGPURenderPipelineImpl, 
                       __Z27wgpuTextureGetMipLevelCountP15WGPUTextureImpl, __Z28wgpuAdapterEnumerateFeaturesP15WGPUAdapterImplP15WGPUFeatureName, 
                       __Z28wgpuBindGroupLayoutReferenceP23WGPUBindGroupLayoutImpl, 
                       __Z28wgpuComputePipelineReferenceP23WGPUComputePipelineImpl, 
                       __Z28wgpuDeviceCreateShaderModuleP14WGPUDeviceImplPK26WGPUShaderModuleDescriptor, 
                       __Z28wgpuExternalTextureReferenceP23WGPUExternalTextureImpl, 
                       __Z28wgpuExternalTextureUndestroyP23WGPUExternalTextureImpl, 
                       __Z28wgpuQueueOnSubmittedWorkDoneP13WGPUQueueImplPFv23WGPUQueueWorkDoneStatusPvES2_, 
                       __Z28wgpuRenderPassEncoderIsValidP25WGPURenderPassEncoderImpl, 
                       __Z28wgpuRenderPassEncoderReleaseP25WGPURenderPassEncoderImpl, 
                       __Z28wgpuXRProjectionLayerIsValidP25WGPUXRProjectionLayerImpl, 
                       __Z28wgpuXRProjectionLayerReleaseP25WGPUXRProjectionLayerImpl, 
                       __Z29wgpuCommandEncoderClearBufferP22WGPUCommandEncoderImplP14WGPUBufferImplyy, 
                       __Z29wgpuComputePassEncoderIsValidP26WGPUComputePassEncoderImpl, 
                       __Z29wgpuComputePassEncoderReleaseP26WGPUComputePassEncoderImpl, 
                       __Z29wgpuDevicePauseErrorReportingP14WGPUDeviceImplj, __Z29wgpuRenderBundleEncoderFinishP27WGPURenderBundleEncoderImplPK26WGPURenderBundleDescriptor, 
                       __Z29wgpuRenderPassEncoderSetLabelP25WGPURenderPassEncoderImplPKc, 
                       __Z29wgpuSurfaceGetPreferredFormatP15WGPUSurfaceImplP15WGPUAdapterImpl, 
                       __Z29wgpuXRSubImageGetColorTextureP18WGPUXRSubImageImpl, __Z30wgpuComputePassEncoderSetLabelP26WGPUComputePassEncoderImplPKc, 
                       __Z30wgpuDeviceCreateCommandEncoderP14WGPUDeviceImplPK28WGPUCommandEncoderDescriptor, 
                       __Z30wgpuDeviceCreatePipelineLayoutP14WGPUDeviceImplPK28WGPUPipelineLayoutDescriptor, 
                       __Z30wgpuDeviceCreateRenderPipelineP14WGPUDeviceImplPK28WGPURenderPipelineDescriptor, 
                       __Z30wgpuPresentationContextIsValidP15WGPUSurfaceImpl, __Z30wgpuRenderBundleEncoderIsValidP27WGPURenderBundleEncoderImpl, 
                       __Z30wgpuRenderBundleEncoderReleaseP27WGPURenderBundleEncoderImpl, 
                       __Z30wgpuRenderPassEncoderReferenceP25WGPURenderPassEncoderImpl, 
                       __Z30wgpuSwapChainGetCurrentTextureP17WGPUSwapChainImplj, 
                       __Z30wgpuXRProjectionLayerReferenceP25WGPUXRProjectionLayerImpl, 
                       __Z31wgpuCommandEncoderPopDebugGroupP22WGPUCommandEncoderImpl, 
                       __Z31wgpuComputePassEncoderReferenceP26WGPUComputePassEncoderImpl, 
                       __Z31wgpuDeviceCreateBindGroupLayoutP14WGPUDeviceImplPK29WGPUBindGroupLayoutDescriptor, 
                       __Z31wgpuDeviceCreateComputePipelineP14WGPUDeviceImplPK29WGPUComputePipelineDescriptor, 
                       __Z31wgpuDeviceImportExternalTextureP14WGPUDeviceImplPK29WGPUExternalTextureDescriptor, 
                       __Z31wgpuDeviceSetDeviceLostCallbackP14WGPUDeviceImplPFv20WGPUDeviceLostReasonPKcPvES4_, 
                       __Z31wgpuRenderBundleEncoderSetLabelP27WGPURenderBundleEncoderImplPKc, 
                       __Z31wgpuXRProjectionLayerStartFrameP25WGPUXRProjectionLayerImplmON3WTF13MachSendRightES3_S3_m, 
                       __Z32wgpuCommandEncoderPushDebugGroupP22WGPUCommandEncoderImplPKc, 
                       __Z32wgpuCommandEncoderWriteTimestampP22WGPUCommandEncoderImplP16WGPUQuerySetImplj, 
                       __Z32wgpuRenderBundleEncoderReferenceP27WGPURenderBundleEncoderImpl, 
                       __Z32wgpuRenderPassEncoderDrawIndexedP25WGPURenderPassEncoderImpljjjij, 
                       __Z32wgpuRenderPassEncoderSetPipelineP25WGPURenderPassEncoderImplP22WGPURenderPipelineImpl, 
                       __Z32wgpuRenderPassEncoderSetViewportP25WGPURenderPassEncoderImplffffff, 
                       __Z32wgpuTextureGetDepthOrArrayLayersP15WGPUTextureImpl, __Z33wgpuCommandEncoderBeginRenderPassP22WGPUCommandEncoderImplPK24WGPURenderPassDescriptor, 
                       __Z33wgpuCommandEncoderResolveQuerySetP22WGPUCommandEncoderImplP16WGPUQuerySetImpljjP14WGPUBufferImply, 
                       __Z33wgpuComputePassEncoderSetPipelineP26WGPUComputePassEncoderImplP23WGPUComputePipelineImpl, 
                       __Z33wgpuDeviceClearDeviceLostCallbackP14WGPUDeviceImpl, __Z33wgpuRenderPassEncoderDrawIndirectP25WGPURenderPassEncoderImplP14WGPUBufferImply, 
                       __Z33wgpuRenderPassEncoderSetBindGroupP25WGPURenderPassEncoderImpljP17WGPUBindGroupImplONSt3__18optionalIN3WTF6VectorIjLm0ENS5_15CrashOnOverflowELm16ENS5_10FastMallocEEEEE, 
                       __Z34wgpuBindingCreateXRProjectionLayerP17WGPUXRBindingImpl17WGPUTextureFormatPS1_jd, 
                       __Z34wgpuCommandEncoderBeginComputePassP22WGPUCommandEncoderImplPK25WGPUComputePassDescriptor, 
                       __Z34wgpuComputePassEncoderSetBindGroupP26WGPUComputePassEncoderImpljP17WGPUBindGroupImplONSt3__18optionalIN3WTF6VectorIjLm0ENS5_15CrashOnOverflowELm16ENS5_10FastMallocEEEEE, 
                       __Z34wgpuRenderBundleEncoderDrawIndexedP27WGPURenderBundleEncoderImpljjjij, 
                       __Z34wgpuRenderBundleEncoderSetPipelineP27WGPURenderBundleEncoderImplP22WGPURenderPipelineImpl, 
                       __Z34wgpuRenderPassEncoderPopDebugGroupP25WGPURenderPassEncoderImpl, 
                       __Z34wgpuShaderModuleGetCompilationInfoP20WGPUShaderModuleImplPFv32WGPUCompilationInfoRequestStatusPK19WGPUCompilationInfoPvES5_, 
                       __Z34wgpuSwapChainGetCurrentTextureViewP17WGPUSwapChainImpl, 
                       __Z35wgpuBindGroupUpdateExternalTexturesP17WGPUBindGroupImplP23WGPUExternalTextureImpl, 
                       __Z35wgpuCommandEncoderInsertDebugMarkerP22WGPUCommandEncoderImplPKc, 
                       __Z35wgpuComputePassEncoderPopDebugGroupP26WGPUComputePassEncoderImpl, 
                       __Z35wgpuDeviceCreateRenderBundleEncoderP14WGPUDeviceImplPK33WGPURenderBundleEncoderDescriptor, 
                       __Z35wgpuDeviceCreateRenderPipelineAsyncP14WGPUDeviceImplPK28WGPURenderPipelineDescriptorPFv29WGPUCreatePipelineAsyncStatusP22WGPURenderPipelineImplON3WTF6StringEPvESA_, 
                       __Z35wgpuRenderBundleEncoderDrawIndirectP27WGPURenderBundleEncoderImplP14WGPUBufferImply, 
                       __Z35wgpuRenderBundleEncoderSetBindGroupP27WGPURenderBundleEncoderImpljP17WGPUBindGroupImplmPKj, 
                       __Z35wgpuRenderPassEncoderExecuteBundlesP25WGPURenderPassEncoderImplmPKP20WGPURenderBundleImpl, 
                       __Z35wgpuRenderPassEncoderPushDebugGroupP25WGPURenderPassEncoderImplPKc, 
                       __Z35wgpuRenderPassEncoderSetIndexBufferP25WGPURenderPassEncoderImplP14WGPUBufferImpl15WGPUIndexFormatyy, 
                       __Z35wgpuRenderPassEncoderSetScissorRectP25WGPURenderPassEncoderImpljjjj, 
                       __Z36wgpuCommandEncoderCopyBufferToBufferP22WGPUCommandEncoderImplP14WGPUBufferImplyS2_yy, 
                       __Z36wgpuComputePassEncoderPushDebugGroupP26WGPUComputePassEncoderImplPKc, 
                       __Z36wgpuDeviceCreateComputePipelineAsyncP14WGPUDeviceImplPK29WGPUComputePipelineDescriptorPFv29WGPUCreatePipelineAsyncStatusP23WGPUComputePipelineImplON3WTF6StringEPvESA_, 
                       __Z36wgpuDeviceSetUncapturedErrorCallbackP14WGPUDeviceImplPFv13WGPUErrorTypePKcPvES4_, 
                       __Z36wgpuRenderBundleEncoderPopDebugGroupP27WGPURenderBundleEncoderImpl, 
                       __Z36wgpuRenderPassEncoderSetVertexBufferP25WGPURenderPassEncoderImpljP14WGPUBufferImplyy, 
                       __Z36wgpuRenderPipelineGetBindGroupLayoutP22WGPURenderPipelineImplj, 
                       __Z36wgpuSwapChainGetTextureAsNativeImageP17WGPUSwapChainImpljRb, 
                       __Z36wgpuXRSubImageGetDepthStencilTextureP18WGPUXRSubImageImpl, 
                       __Z37wgpuCommandEncoderCopyBufferToTextureP22WGPUCommandEncoderImplPK19WGPUImageCopyBufferPK20WGPUImageCopyTexturePK12WGPUExtent3D, 
                       __Z37wgpuCommandEncoderCopyTextureToBufferP22WGPUCommandEncoderImplPK20WGPUImageCopyTexturePK19WGPUImageCopyBufferPK12WGPUExtent3D, 
                       __Z37wgpuComputePipelineGetBindGroupLayoutP23WGPUComputePipelineImplj, 
                       __Z37wgpuRenderBundleEncoderPushDebugGroupP27WGPURenderBundleEncoderImplPKc, 
                       __Z37wgpuRenderBundleEncoderSetIndexBufferP27WGPURenderBundleEncoderImplP14WGPUBufferImpl15WGPUIndexFormatyy, 
                       __Z37wgpuRenderPassEncoderSetBlendConstantP25WGPURenderPassEncoderImplPK9WGPUColor, 
                       __Z38wgpuCommandEncoderCopyTextureToTextureP22WGPUCommandEncoderImplPK20WGPUImageCopyTextureS3_PK12WGPUExtent3D, 
                       __Z38wgpuDeviceClearUncapturedErrorCallbackP14WGPUDeviceImpl, 
                       __Z38wgpuRenderBundleEncoderSetVertexBufferP27WGPURenderBundleEncoderImpljP14WGPUBufferImplyy, 
                       __Z38wgpuRenderPassEncoderEndOcclusionQueryP25WGPURenderPassEncoderImpl, 
                       __Z38wgpuRenderPassEncoderInsertDebugMarkerP25WGPURenderPassEncoderImplPKc, 
                       __Z39wgpuComputePassEncoderInsertDebugMarkerP26WGPUComputePassEncoderImplPKc, 
                       __Z40wgpuComputePassEncoderDispatchWorkgroupsP26WGPUComputePassEncoderImpljjj, 
                       __Z40wgpuDeviceSetDeviceLostCallbackWithBlockP14WGPUDeviceImplU13block_pointerFv20WGPUDeviceLostReasonPKcE, 
                       __Z40wgpuRenderBundleEncoderInsertDebugMarkerP27WGPURenderBundleEncoderImplPKc, 
                       __Z40wgpuRenderPassEncoderBeginOcclusionQueryP25WGPURenderPassEncoderImplj, 
                       __Z40wgpuRenderPassEncoderDrawIndexedIndirectP25WGPURenderPassEncoderImplP14WGPUBufferImply, 
                       __Z40wgpuRenderPassEncoderSetStencilReferenceP25WGPURenderPassEncoderImplj, 
                       __Z42wgpuRenderBundleEncoderDrawIndexedIndirectP27WGPURenderBundleEncoderImplP14WGPUBufferImply, 
                       __Z48wgpuComputePassEncoderDispatchWorkgroupsIndirectP26WGPUComputePassEncoderImplP14WGPUBufferImply, 
                       __Z53wgpuRenderBundleEncoderSetBindGroupWithDynamicOffsetsP27WGPURenderBundleEncoderImpljP17WGPUBindGroupImplONSt3__18optionalIN3WTF6VectorIjLm0ENS5_15CrashOnOverflowELm16ENS5_10FastMallocEEEEE, 
                       __ZN15WebGPU_Internal14LogWebGPUSwiftE ]
...
