--- !tapi-tbd
tbd-version:     4
targets:         [ x86_64-macos, arm64-macos, arm64e-macos ]
uuids:
  - target:          x86_64-macos
    value:           CC70E873-505A-3755-8856-242F39EC11FA
  - target:          arm64-macos
    value:           00000000-0000-0000-0000-000000000000
  - target:          arm64e-macos
    value:           63933BCD-2D86-393D-886E-478AA3032CA5
install-name:    '/usr/lib/usd/libIex.dylib'
current-version: 20.1.3
compatibility-version: 0
exports:
  - targets:         [ x86_64-macos, arm64-macos, arm64e-macos ]
    symbols:         [ __Z13iex_debugTrapv, __ZN7Iex_2_311stackTracerEv, __ZN7Iex_2_313throwErrnoExcERKNSt3__112basic_stringIcNS0_11char_traitsIcEENS0_9allocatorIcEEEE, 
                       __ZN7Iex_2_313throwErrnoExcERKNSt3__112basic_stringIcNS0_11char_traitsIcEENS0_9allocatorIcEEEEi, 
                       __ZN7Iex_2_313throwErrnoExcEv, __ZN7Iex_2_314setStackTracerEPFNSt3__112basic_stringIcNS0_11char_traitsIcEENS0_9allocatorIcEEEEvE, 
                       __ZN7Iex_2_37BaseExc6appendEPKc, __ZN7Iex_2_37BaseExc6appendERNSt3__118basic_stringstreamIcNS1_11char_traitsIcEENS1_9allocatorIcEEEE, 
                       __ZN7Iex_2_37BaseExc6assignEPKc, __ZN7Iex_2_37BaseExc6assignERNSt3__118basic_stringstreamIcNS1_11char_traitsIcEENS1_9allocatorIcEEEE, 
                       __ZN7Iex_2_37BaseExcC1EPKc, __ZN7Iex_2_37BaseExcC1ERKNSt3__112basic_stringIcNS1_11char_traitsIcEENS1_9allocatorIcEEEE, 
                       __ZN7Iex_2_37BaseExcC1ERKS0_, __ZN7Iex_2_37BaseExcC1ERNSt3__118basic_stringstreamIcNS1_11char_traitsIcEENS1_9allocatorIcEEEE, 
                       __ZN7Iex_2_37BaseExcC2EPKc, __ZN7Iex_2_37BaseExcC2ERKNSt3__112basic_stringIcNS1_11char_traitsIcEENS1_9allocatorIcEEEE, 
                       __ZN7Iex_2_37BaseExcC2ERKS0_, __ZN7Iex_2_37BaseExcC2ERNSt3__118basic_stringstreamIcNS1_11char_traitsIcEENS1_9allocatorIcEEEE, 
                       __ZN7Iex_2_37BaseExcD0Ev, __ZN7Iex_2_37BaseExcD1Ev, __ZN7Iex_2_37BaseExcD2Ev, 
                       __ZN7Iex_2_37BaseExcaSEPKc, __ZN7Iex_2_37BaseExcaSERNSt3__118basic_stringstreamIcNS1_11char_traitsIcEENS1_9allocatorIcEEEE, 
                       __ZN7Iex_2_37BaseExcpLEPKc, __ZN7Iex_2_37BaseExcpLERNSt3__118basic_stringstreamIcNS1_11char_traitsIcEENS1_9allocatorIcEEEE, 
                       __ZNK7Iex_2_37BaseExc10stackTraceEv, __ZNK7Iex_2_37BaseExc4whatEv, 
                       __ZNK7Iex_2_37BaseExc7messageEv, __ZTIN7Iex_2_37BaseExcE, 
                       __ZTSN7Iex_2_37BaseExcE, __ZTVN7Iex_2_37BaseExcE ]
...
