--- !tapi-tbd
tbd-version:     4
targets:         [ x86_64-macos, arm64-macos, arm64e-macos ]
uuids:
  - target:          x86_64-macos
    value:           7F74B512-A0F9-3127-B3F8-65BA232899A5
  - target:          arm64-macos
    value:           00000000-0000-0000-0000-000000000000
  - target:          arm64e-macos
    value:           4456612A-9922-3BA7-A85B-4B7ED5C8CBEA
install-name:    '/usr/lib/usd/libMaterialXCore.dylib'
current-version: 0
compatibility-version: 0
exports:
  - targets:         [ x86_64-macos ]
    weak-symbols:    [ __ZTIN9MaterialX10TypedValueINS_6Color3EEE, __ZTIN9MaterialX10TypedValueINS_6Color4EEE, 
                       __ZTIN9MaterialX10TypedValueINS_7Vector2EEE, __ZTIN9MaterialX10TypedValueINS_7Vector3EEE, 
                       __ZTIN9MaterialX10TypedValueINS_7Vector4EEE, __ZTIN9MaterialX10TypedValueINS_8Matrix33EEE, 
                       __ZTIN9MaterialX10TypedValueINS_8Matrix44EEE, __ZTIN9MaterialX10TypedValueINSt3__112basic_stringIcNS1_11char_traitsIcEENS1_9allocatorIcEEEEEE, 
                       __ZTIN9MaterialX10TypedValueINSt3__16vectorINS1_12basic_stringIcNS1_11char_traitsIcEENS1_9allocatorIcEEEENS6_IS8_EEEEEE, 
                       __ZTIN9MaterialX10TypedValueINSt3__16vectorIbNS1_9allocatorIbEEEEEE, 
                       __ZTIN9MaterialX10TypedValueINSt3__16vectorIfNS1_9allocatorIfEEEEEE, 
                       __ZTIN9MaterialX10TypedValueINSt3__16vectorIiNS1_9allocatorIiEEEEEE, 
                       __ZTIN9MaterialX10TypedValueIbEE, __ZTIN9MaterialX10TypedValueIdEE, 
                       __ZTIN9MaterialX10TypedValueIfEE, __ZTIN9MaterialX10TypedValueIiEE, 
                       __ZTIN9MaterialX10TypedValueIlEE, __ZTIN9MaterialX10VariantSetE, 
                       __ZTIN9MaterialX10VisibilityE, __ZTIN9MaterialX11GeomPropDefE, 
                       __ZTIN9MaterialX11PropertySetE, __ZTIN9MaterialX11UnitTypeDefE, 
                       __ZTIN9MaterialX12AttributeDefE, __ZTIN9MaterialX12GraphElementE, 
                       __ZTIN9MaterialX12TypedElementE, __ZTIN9MaterialX13UnitConverterE, 
                       __ZTIN9MaterialX13VariantAssignE, __ZTIN9MaterialX14CommentElementE, 
                       __ZTIN9MaterialX14GenericElementE, __ZTIN9MaterialX14MaterialAssignE, 
                       __ZTIN9MaterialX14PropertyAssignE, __ZTIN9MaterialX17PropertySetAssignE, 
                       __ZTIN9MaterialX18ExceptionTypeErrorE, __ZTIN9MaterialX19ExceptionFoundCycleE, 
                       __ZTIN9MaterialX21UnitConverterRegistryE, __ZTIN9MaterialX24ExceptionOrphanedElementE, 
                       __ZTIN9MaterialX4LookE, __ZTIN9MaterialX4UnitE, __ZTIN9MaterialX5TokenE, 
                       __ZTIN9MaterialX5ValueE, __ZTIN9MaterialX6MemberE, __ZTIN9MaterialX7TypeDefE, 
                       __ZTIN9MaterialX7UnitDefE, __ZTIN9MaterialX7VariantE, __ZTIN9MaterialX8GeomInfoE, 
                       __ZTIN9MaterialX8GeomPropE, __ZTIN9MaterialX8PropertyE, __ZTIN9MaterialX9ExceptionE, 
                       __ZTIN9MaterialX9LookGroupE, __ZTIN9MaterialX9TargetDefE, 
                       __ZTINSt3__117bad_function_callE, __ZTINSt3__120__shared_ptr_emplaceIN9MaterialX10CollectionENS_9allocatorIS2_EEEE, 
                       __ZTINSt3__120__shared_ptr_emplaceIN9MaterialX10TypedValueINS1_6Color3EEENS_9allocatorIS4_EEEE, 
                       __ZTINSt3__120__shared_ptr_emplaceIN9MaterialX10TypedValueINS1_6Color4EEENS_9allocatorIS4_EEEE, 
                       __ZTINSt3__120__shared_ptr_emplaceIN9MaterialX10TypedValueINS1_7Vector2EEENS_9allocatorIS4_EEEE, 
                       __ZTINSt3__120__shared_ptr_emplaceIN9MaterialX10TypedValueINS1_7Vector3EEENS_9allocatorIS4_EEEE, 
                       __ZTINSt3__120__shared_ptr_emplaceIN9MaterialX10TypedValueINS1_7Vector4EEENS_9allocatorIS4_EEEE, 
                       __ZTINSt3__120__shared_ptr_emplaceIN9MaterialX10TypedValueINS1_8Matrix33EEENS_9allocatorIS4_EEEE, 
                       __ZTINSt3__120__shared_ptr_emplaceIN9MaterialX10TypedValueINS1_8Matrix44EEENS_9allocatorIS4_EEEE, 
                       __ZTINSt3__120__shared_ptr_emplaceIN9MaterialX10TypedValueINS_12basic_stringIcNS_11char_traitsIcEENS_9allocatorIcEEEEEENS6_IS9_EEEE, 
                       __ZTINSt3__120__shared_ptr_emplaceIN9MaterialX10TypedValueINS_6vectorINS_12basic_stringIcNS_11char_traitsIcEENS_9allocatorIcEEEENS7_IS9_EEEEEENS7_ISC_EEEE, 
                       __ZTINSt3__120__shared_ptr_emplaceIN9MaterialX10TypedValueINS_6vectorIbNS_9allocatorIbEEEEEENS4_IS7_EEEE, 
                       __ZTINSt3__120__shared_ptr_emplaceIN9MaterialX10TypedValueINS_6vectorIfNS_9allocatorIfEEEEEENS4_IS7_EEEE, 
                       __ZTINSt3__120__shared_ptr_emplaceIN9MaterialX10TypedValueINS_6vectorIiNS_9allocatorIiEEEEEENS4_IS7_EEEE, 
                       __ZTINSt3__120__shared_ptr_emplaceIN9MaterialX10TypedValueIbEENS_9allocatorIS3_EEEE, 
                       __ZTINSt3__120__shared_ptr_emplaceIN9MaterialX10TypedValueIdEENS_9allocatorIS3_EEEE, 
                       __ZTINSt3__120__shared_ptr_emplaceIN9MaterialX10TypedValueIfEENS_9allocatorIS3_EEEE, 
                       __ZTINSt3__120__shared_ptr_emplaceIN9MaterialX10TypedValueIiEENS_9allocatorIS3_EEEE, 
                       __ZTINSt3__120__shared_ptr_emplaceIN9MaterialX10TypedValueIlEENS_9allocatorIS3_EEEE, 
                       __ZTINSt3__120__shared_ptr_emplaceIN9MaterialX10VariantSetENS_9allocatorIS2_EEEE, 
                       __ZTINSt3__120__shared_ptr_emplaceIN9MaterialX10VisibilityENS_9allocatorIS2_EEEE, 
                       __ZTINSt3__120__shared_ptr_emplaceIN9MaterialX11GeomPropDefENS_9allocatorIS2_EEEE, 
                       __ZTINSt3__120__shared_ptr_emplaceIN9MaterialX11PropertySetENS_9allocatorIS2_EEEE, 
                       __ZTINSt3__120__shared_ptr_emplaceIN9MaterialX11UnitTypeDefENS_9allocatorIS2_EEEE, 
                       __ZTINSt3__120__shared_ptr_emplaceIN9MaterialX12AttributeDefENS_9allocatorIS2_EEEE, 
                       __ZTINSt3__120__shared_ptr_emplaceIN9MaterialX13VariantAssignENS_9allocatorIS2_EEEE, 
                       __ZTINSt3__120__shared_ptr_emplaceIN9MaterialX14CommentElementENS_9allocatorIS2_EEEE, 
                       __ZTINSt3__120__shared_ptr_emplaceIN9MaterialX14GenericElementENS_9allocatorIS2_EEEE, 
                       __ZTINSt3__120__shared_ptr_emplaceIN9MaterialX14ImplementationENS_9allocatorIS2_EEEE, 
                       __ZTINSt3__120__shared_ptr_emplaceIN9MaterialX14MaterialAssignENS_9allocatorIS2_EEEE, 
                       __ZTINSt3__120__shared_ptr_emplaceIN9MaterialX14PropertyAssignENS_9allocatorIS2_EEEE, 
                       __ZTINSt3__120__shared_ptr_emplaceIN9MaterialX17PropertySetAssignENS_9allocatorIS2_EEEE, 
                       __ZTINSt3__120__shared_ptr_emplaceIN9MaterialX4LookENS_9allocatorIS2_EEEE, 
                       __ZTINSt3__120__shared_ptr_emplaceIN9MaterialX4NodeENS_9allocatorIS2_EEEE, 
                       __ZTINSt3__120__shared_ptr_emplaceIN9MaterialX4UnitENS_9allocatorIS2_EEEE, 
                       __ZTINSt3__120__shared_ptr_emplaceIN9MaterialX5InputENS_9allocatorIS2_EEEE, 
                       __ZTINSt3__120__shared_ptr_emplaceIN9MaterialX5TokenENS_9allocatorIS2_EEEE, 
                       __ZTINSt3__120__shared_ptr_emplaceIN9MaterialX6MemberENS_9allocatorIS2_EEEE, 
                       __ZTINSt3__120__shared_ptr_emplaceIN9MaterialX6OutputENS_9allocatorIS2_EEEE, 
                       __ZTINSt3__120__shared_ptr_emplaceIN9MaterialX7NodeDefENS_9allocatorIS2_EEEE, 
                       __ZTINSt3__120__shared_ptr_emplaceIN9MaterialX7TypeDefENS_9allocatorIS2_EEEE, 
                       __ZTINSt3__120__shared_ptr_emplaceIN9MaterialX7UnitDefENS_9allocatorIS2_EEEE, 
                       __ZTINSt3__120__shared_ptr_emplaceIN9MaterialX7VariantENS_9allocatorIS2_EEEE, 
                       __ZTINSt3__120__shared_ptr_emplaceIN9MaterialX8BackdropENS_9allocatorIS2_EEEE, 
                       __ZTINSt3__120__shared_ptr_emplaceIN9MaterialX8DocumentENS_9allocatorIS2_EEEE, 
                       __ZTINSt3__120__shared_ptr_emplaceIN9MaterialX8GeomInfoENS_9allocatorIS2_EEEE, 
                       __ZTINSt3__120__shared_ptr_emplaceIN9MaterialX8GeomPropENS_9allocatorIS2_EEEE, 
                       __ZTINSt3__120__shared_ptr_emplaceIN9MaterialX8PropertyENS_9allocatorIS2_EEEE, 
                       __ZTINSt3__120__shared_ptr_emplaceIN9MaterialX9LookGroupENS_9allocatorIS2_EEEE, 
                       __ZTINSt3__120__shared_ptr_emplaceIN9MaterialX9NodeGraphENS_9allocatorIS2_EEEE, 
                       __ZTINSt3__120__shared_ptr_emplaceIN9MaterialX9TargetDefENS_9allocatorIS2_EEEE, 
                       __ZTINSt3__120__shared_ptr_pointerIPN9MaterialX14StringResolverENS_10shared_ptrIS2_E27__shared_ptr_default_deleteIS2_S2_EENS_9allocatorIS2_EEEE, 
                       __ZTINSt3__120__shared_ptr_pointerIPN9MaterialX19LinearUnitConverterENS_10shared_ptrIS2_E27__shared_ptr_default_deleteIS2_S2_EENS_9allocatorIS2_EEEE, 
                       __ZTINSt3__120__shared_ptr_pointerIPN9MaterialX21UnitConverterRegistryENS_10shared_ptrIS2_E27__shared_ptr_default_deleteIS2_S2_EENS_9allocatorIS2_EEEE, 
                       __ZTINSt3__123enable_shared_from_thisIN9MaterialX7ElementEEE, 
                       __ZTSN9MaterialX10TypedValueINS_6Color3EEE, __ZTSN9MaterialX10TypedValueINS_6Color4EEE, 
                       __ZTSN9MaterialX10TypedValueINS_7Vector2EEE, __ZTSN9MaterialX10TypedValueINS_7Vector3EEE, 
                       __ZTSN9MaterialX10TypedValueINS_7Vector4EEE, __ZTSN9MaterialX10TypedValueINS_8Matrix33EEE, 
                       __ZTSN9MaterialX10TypedValueINS_8Matrix44EEE, __ZTSN9MaterialX10TypedValueINSt3__112basic_stringIcNS1_11char_traitsIcEENS1_9allocatorIcEEEEEE, 
                       __ZTSN9MaterialX10TypedValueINSt3__16vectorINS1_12basic_stringIcNS1_11char_traitsIcEENS1_9allocatorIcEEEENS6_IS8_EEEEEE, 
                       __ZTSN9MaterialX10TypedValueINSt3__16vectorIbNS1_9allocatorIbEEEEEE, 
                       __ZTSN9MaterialX10TypedValueINSt3__16vectorIfNS1_9allocatorIfEEEEEE, 
                       __ZTSN9MaterialX10TypedValueINSt3__16vectorIiNS1_9allocatorIiEEEEEE, 
                       __ZTSN9MaterialX10TypedValueIbEE, __ZTSN9MaterialX10TypedValueIdEE, 
                       __ZTSN9MaterialX10TypedValueIfEE, __ZTSN9MaterialX10TypedValueIiEE, 
                       __ZTSN9MaterialX10TypedValueIlEE, __ZTSN9MaterialX10VariantSetE, 
                       __ZTSN9MaterialX10VisibilityE, __ZTSN9MaterialX11GeomPropDefE, 
                       __ZTSN9MaterialX11PropertySetE, __ZTSN9MaterialX11UnitTypeDefE, 
                       __ZTSN9MaterialX12AttributeDefE, __ZTSN9MaterialX12GraphElementE, 
                       __ZTSN9MaterialX12TypedElementE, __ZTSN9MaterialX13UnitConverterE, 
                       __ZTSN9MaterialX13VariantAssignE, __ZTSN9MaterialX14CommentElementE, 
                       __ZTSN9MaterialX14GenericElementE, __ZTSN9MaterialX14MaterialAssignE, 
                       __ZTSN9MaterialX14PropertyAssignE, __ZTSN9MaterialX17PropertySetAssignE, 
                       __ZTSN9MaterialX18ExceptionTypeErrorE, __ZTSN9MaterialX19ExceptionFoundCycleE, 
                       __ZTSN9MaterialX21UnitConverterRegistryE, __ZTSN9MaterialX24ExceptionOrphanedElementE, 
                       __ZTSN9MaterialX4LookE, __ZTSN9MaterialX4UnitE, __ZTSN9MaterialX5TokenE, 
                       __ZTSN9MaterialX5ValueE, __ZTSN9MaterialX6MemberE, __ZTSN9MaterialX7TypeDefE, 
                       __ZTSN9MaterialX7UnitDefE, __ZTSN9MaterialX7VariantE, __ZTSN9MaterialX8GeomInfoE, 
                       __ZTSN9MaterialX8GeomPropE, __ZTSN9MaterialX8PropertyE, __ZTSN9MaterialX9ExceptionE, 
                       __ZTSN9MaterialX9LookGroupE, __ZTSN9MaterialX9TargetDefE, 
                       __ZTSNSt3__110shared_ptrIN9MaterialX14StringResolverEE27__shared_ptr_default_deleteIS2_S2_EE, 
                       __ZTSNSt3__110shared_ptrIN9MaterialX19LinearUnitConverterEE27__shared_ptr_default_deleteIS2_S2_EE, 
                       __ZTSNSt3__110shared_ptrIN9MaterialX21UnitConverterRegistryEE27__shared_ptr_default_deleteIS2_S2_EE, 
                       __ZTSNSt3__117bad_function_callE, __ZTSNSt3__120__shared_ptr_emplaceIN9MaterialX10CollectionENS_9allocatorIS2_EEEE, 
                       __ZTSNSt3__120__shared_ptr_emplaceIN9MaterialX10TypedValueINS1_6Color3EEENS_9allocatorIS4_EEEE, 
                       __ZTSNSt3__120__shared_ptr_emplaceIN9MaterialX10TypedValueINS1_6Color4EEENS_9allocatorIS4_EEEE, 
                       __ZTSNSt3__120__shared_ptr_emplaceIN9MaterialX10TypedValueINS1_7Vector2EEENS_9allocatorIS4_EEEE, 
                       __ZTSNSt3__120__shared_ptr_emplaceIN9MaterialX10TypedValueINS1_7Vector3EEENS_9allocatorIS4_EEEE, 
                       __ZTSNSt3__120__shared_ptr_emplaceIN9MaterialX10TypedValueINS1_7Vector4EEENS_9allocatorIS4_EEEE, 
                       __ZTSNSt3__120__shared_ptr_emplaceIN9MaterialX10TypedValueINS1_8Matrix33EEENS_9allocatorIS4_EEEE, 
                       __ZTSNSt3__120__shared_ptr_emplaceIN9MaterialX10TypedValueINS1_8Matrix44EEENS_9allocatorIS4_EEEE, 
                       __ZTSNSt3__120__shared_ptr_emplaceIN9MaterialX10TypedValueINS_12basic_stringIcNS_11char_traitsIcEENS_9allocatorIcEEEEEENS6_IS9_EEEE, 
                       __ZTSNSt3__120__shared_ptr_emplaceIN9MaterialX10TypedValueINS_6vectorINS_12basic_stringIcNS_11char_traitsIcEENS_9allocatorIcEEEENS7_IS9_EEEEEENS7_ISC_EEEE, 
                       __ZTSNSt3__120__shared_ptr_emplaceIN9MaterialX10TypedValueINS_6vectorIbNS_9allocatorIbEEEEEENS4_IS7_EEEE, 
                       __ZTSNSt3__120__shared_ptr_emplaceIN9MaterialX10TypedValueINS_6vectorIfNS_9allocatorIfEEEEEENS4_IS7_EEEE, 
                       __ZTSNSt3__120__shared_ptr_emplaceIN9MaterialX10TypedValueINS_6vectorIiNS_9allocatorIiEEEEEENS4_IS7_EEEE, 
                       __ZTSNSt3__120__shared_ptr_emplaceIN9MaterialX10TypedValueIbEENS_9allocatorIS3_EEEE, 
                       __ZTSNSt3__120__shared_ptr_emplaceIN9MaterialX10TypedValueIdEENS_9allocatorIS3_EEEE, 
                       __ZTSNSt3__120__shared_ptr_emplaceIN9MaterialX10TypedValueIfEENS_9allocatorIS3_EEEE, 
                       __ZTSNSt3__120__shared_ptr_emplaceIN9MaterialX10TypedValueIiEENS_9allocatorIS3_EEEE, 
                       __ZTSNSt3__120__shared_ptr_emplaceIN9MaterialX10TypedValueIlEENS_9allocatorIS3_EEEE, 
                       __ZTSNSt3__120__shared_ptr_emplaceIN9MaterialX10VariantSetENS_9allocatorIS2_EEEE, 
                       __ZTSNSt3__120__shared_ptr_emplaceIN9MaterialX10VisibilityENS_9allocatorIS2_EEEE, 
                       __ZTSNSt3__120__shared_ptr_emplaceIN9MaterialX11GeomPropDefENS_9allocatorIS2_EEEE, 
                       __ZTSNSt3__120__shared_ptr_emplaceIN9MaterialX11PropertySetENS_9allocatorIS2_EEEE, 
                       __ZTSNSt3__120__shared_ptr_emplaceIN9MaterialX11UnitTypeDefENS_9allocatorIS2_EEEE, 
                       __ZTSNSt3__120__shared_ptr_emplaceIN9MaterialX12AttributeDefENS_9allocatorIS2_EEEE, 
                       __ZTSNSt3__120__shared_ptr_emplaceIN9MaterialX13VariantAssignENS_9allocatorIS2_EEEE, 
                       __ZTSNSt3__120__shared_ptr_emplaceIN9MaterialX14CommentElementENS_9allocatorIS2_EEEE, 
                       __ZTSNSt3__120__shared_ptr_emplaceIN9MaterialX14GenericElementENS_9allocatorIS2_EEEE, 
                       __ZTSNSt3__120__shared_ptr_emplaceIN9MaterialX14ImplementationENS_9allocatorIS2_EEEE, 
                       __ZTSNSt3__120__shared_ptr_emplaceIN9MaterialX14MaterialAssignENS_9allocatorIS2_EEEE, 
                       __ZTSNSt3__120__shared_ptr_emplaceIN9MaterialX14PropertyAssignENS_9allocatorIS2_EEEE, 
                       __ZTSNSt3__120__shared_ptr_emplaceIN9MaterialX17PropertySetAssignENS_9allocatorIS2_EEEE, 
                       __ZTSNSt3__120__shared_ptr_emplaceIN9MaterialX4LookENS_9allocatorIS2_EEEE, 
                       __ZTSNSt3__120__shared_ptr_emplaceIN9MaterialX4NodeENS_9allocatorIS2_EEEE, 
                       __ZTSNSt3__120__shared_ptr_emplaceIN9MaterialX4UnitENS_9allocatorIS2_EEEE, 
                       __ZTSNSt3__120__shared_ptr_emplaceIN9MaterialX5InputENS_9allocatorIS2_EEEE, 
                       __ZTSNSt3__120__shared_ptr_emplaceIN9MaterialX5TokenENS_9allocatorIS2_EEEE, 
                       __ZTSNSt3__120__shared_ptr_emplaceIN9MaterialX6MemberENS_9allocatorIS2_EEEE, 
                       __ZTSNSt3__120__shared_ptr_emplaceIN9MaterialX6OutputENS_9allocatorIS2_EEEE, 
                       __ZTSNSt3__120__shared_ptr_emplaceIN9MaterialX7NodeDefENS_9allocatorIS2_EEEE, 
                       __ZTSNSt3__120__shared_ptr_emplaceIN9MaterialX7TypeDefENS_9allocatorIS2_EEEE, 
                       __ZTSNSt3__120__shared_ptr_emplaceIN9MaterialX7UnitDefENS_9allocatorIS2_EEEE, 
                       __ZTSNSt3__120__shared_ptr_emplaceIN9MaterialX7VariantENS_9allocatorIS2_EEEE, 
                       __ZTSNSt3__120__shared_ptr_emplaceIN9MaterialX8BackdropENS_9allocatorIS2_EEEE, 
                       __ZTSNSt3__120__shared_ptr_emplaceIN9MaterialX8DocumentENS_9allocatorIS2_EEEE, 
                       __ZTSNSt3__120__shared_ptr_emplaceIN9MaterialX8GeomInfoENS_9allocatorIS2_EEEE, 
                       __ZTSNSt3__120__shared_ptr_emplaceIN9MaterialX8GeomPropENS_9allocatorIS2_EEEE, 
                       __ZTSNSt3__120__shared_ptr_emplaceIN9MaterialX8PropertyENS_9allocatorIS2_EEEE, 
                       __ZTSNSt3__120__shared_ptr_emplaceIN9MaterialX9LookGroupENS_9allocatorIS2_EEEE, 
                       __ZTSNSt3__120__shared_ptr_emplaceIN9MaterialX9NodeGraphENS_9allocatorIS2_EEEE, 
                       __ZTSNSt3__120__shared_ptr_emplaceIN9MaterialX9TargetDefENS_9allocatorIS2_EEEE, 
                       __ZTSNSt3__120__shared_ptr_pointerIPN9MaterialX14StringResolverENS_10shared_ptrIS2_E27__shared_ptr_default_deleteIS2_S2_EENS_9allocatorIS2_EEEE, 
                       __ZTSNSt3__120__shared_ptr_pointerIPN9MaterialX19LinearUnitConverterENS_10shared_ptrIS2_E27__shared_ptr_default_deleteIS2_S2_EENS_9allocatorIS2_EEEE, 
                       __ZTSNSt3__120__shared_ptr_pointerIPN9MaterialX21UnitConverterRegistryENS_10shared_ptrIS2_E27__shared_ptr_default_deleteIS2_S2_EENS_9allocatorIS2_EEEE, 
                       __ZTSNSt3__123enable_shared_from_thisIN9MaterialX7ElementEEE ]
  - targets:         [ x86_64-macos, arm64-macos, arm64e-macos ]
    symbols:         [ __ZN9MaterialX10Collection20setIncludeCollectionENSt3__110shared_ptrIKS0_EE, 
                       __ZN9MaterialX10Collection21setIncludeCollectionsERKNSt3__16vectorINS1_10shared_ptrIKS0_EENS1_9allocatorIS5_EEEE, 
                       __ZN9MaterialX10Collection22EXCLUDE_GEOM_ATTRIBUTEE, __ZN9MaterialX10Collection22INCLUDE_GEOM_ATTRIBUTEE, 
                       __ZN9MaterialX10Collection28INCLUDE_COLLECTION_ATTRIBUTEE, 
                       __ZN9MaterialX10Collection8CATEGORYE, __ZN9MaterialX10TypedValueINS_6Color3EE4TYPEE, 
                       __ZN9MaterialX10TypedValueINS_6Color4EE4TYPEE, __ZN9MaterialX10TypedValueINS_7Vector2EE4TYPEE, 
                       __ZN9MaterialX10TypedValueINS_7Vector3EE4TYPEE, __ZN9MaterialX10TypedValueINS_7Vector4EE4TYPEE, 
                       __ZN9MaterialX10TypedValueINS_8Matrix33EE4TYPEE, __ZN9MaterialX10TypedValueINS_8Matrix44EE4TYPEE, 
                       __ZN9MaterialX10TypedValueINSt3__112basic_stringIcNS1_11char_traitsIcEENS1_9allocatorIcEEEEE4TYPEE, 
                       __ZN9MaterialX10TypedValueINSt3__16vectorINS1_12basic_stringIcNS1_11char_traitsIcEENS1_9allocatorIcEEEENS6_IS8_EEEEE4TYPEE, 
                       __ZN9MaterialX10TypedValueINSt3__16vectorIbNS1_9allocatorIbEEEEE4TYPEE, 
                       __ZN9MaterialX10TypedValueINSt3__16vectorIfNS1_9allocatorIfEEEEE4TYPEE, 
                       __ZN9MaterialX10TypedValueINSt3__16vectorIiNS1_9allocatorIiEEEEE4TYPEE, 
                       __ZN9MaterialX10TypedValueIbE4TYPEE, __ZN9MaterialX10TypedValueIdE4TYPEE, 
                       __ZN9MaterialX10TypedValueIfE4TYPEE, __ZN9MaterialX10TypedValueIiE4TYPEE, 
                       __ZN9MaterialX10TypedValueIlE4TYPEE, __ZN9MaterialX10UDIM_TOKENE, 
                       __ZN9MaterialX10VariantSet8CATEGORYE, __ZN9MaterialX10Visibility17VISIBLE_ATTRIBUTEE, 
                       __ZN9MaterialX10Visibility21VIEWER_GEOM_ATTRIBUTEE, __ZN9MaterialX10Visibility25VISIBILITY_TYPE_ATTRIBUTEE, 
                       __ZN9MaterialX10Visibility27VIEWER_COLLECTION_ATTRIBUTEE, 
                       __ZN9MaterialX10Visibility8CATEGORYE, __ZN9MaterialX10trimSpacesERKNSt3__112basic_stringIcNS0_11char_traitsIcEENS0_9allocatorIcEEEE, 
                       __ZN9MaterialX11GeomElement13setCollectionENSt3__110shared_ptrIKNS_10CollectionEEE, 
                       __ZN9MaterialX11GeomElement14GEOM_ATTRIBUTEE, __ZN9MaterialX11GeomElement20COLLECTION_ATTRIBUTEE, 
                       __ZN9MaterialX11GeomPropDef15INDEX_ATTRIBUTEE, __ZN9MaterialX11GeomPropDef15SPACE_ATTRIBUTEE, 
                       __ZN9MaterialX11GeomPropDef19GEOM_PROP_ATTRIBUTEE, __ZN9MaterialX11GeomPropDef8CATEGORYE, 
                       __ZN9MaterialX11PortElement16OUTPUT_ATTRIBUTEE, __ZN9MaterialX11PortElement16setConnectedNodeENSt3__110shared_ptrINS_4NodeEEE, 
                       __ZN9MaterialX11PortElement18CHANNELS_ATTRIBUTEE, __ZN9MaterialX11PortElement19NODE_NAME_ATTRIBUTEE, 
                       __ZN9MaterialX11PortElement19validChannelsStringERKNSt3__112basic_stringIcNS1_11char_traitsIcEENS1_9allocatorIcEEEES9_S9_, 
                       __ZN9MaterialX11PortElement20NODE_GRAPH_ATTRIBUTEE, __ZN9MaterialX11PortElement22CHANNELS_CHARACTER_SETEv, 
                       __ZN9MaterialX11PortElement23CHANNELS_PATTERN_LENGTHEv, __ZN9MaterialX11PortElement23validChannelsCharactersERKNSt3__112basic_stringIcNS1_11char_traitsIcEENS1_9allocatorIcEEEES9_, 
                       __ZN9MaterialX11PropertySet8CATEGORYE, __ZN9MaterialX11UnitTypeDef8CATEGORYE, 
                       __ZN9MaterialX11isValidNameERKNSt3__112basic_stringIcNS0_11char_traitsIcEENS0_9allocatorIcEEEE, 
                       __ZN9MaterialX11prettyPrintENSt3__110shared_ptrIKNS_7ElementEEE, 
                       __ZN9MaterialX11registryintEv, __ZN9MaterialX11splitStringERKNSt3__112basic_stringIcNS0_11char_traitsIcEENS0_9allocatorIcEEEES8_, 
                       __ZN9MaterialX12AttributeDef15VALUE_ATTRIBUTEE, __ZN9MaterialX12AttributeDef18ATTRNAME_ATTRIBUTEE, 
                       __ZN9MaterialX12AttributeDef18ELEMENTS_ATTRIBUTEE, __ZN9MaterialX12AttributeDef20EXPORTABLE_ATTRIBUTEE, 
                       __ZN9MaterialX12AttributeDef8CATEGORYE, __ZN9MaterialX12GraphElement15addMaterialNodeERKNSt3__112basic_stringIcNS1_11char_traitsIcEENS1_9allocatorIcEEEENS1_10shared_ptrIKNS_4NodeEEE, 
                       __ZN9MaterialX12GraphElement16flattenSubgraphsERKNSt3__112basic_stringIcNS1_11char_traitsIcEENS1_9allocatorIcEEEENS1_8functionIFbNS1_10shared_ptrINS_4NodeEEEEEE, 
                       __ZN9MaterialX12TreeIterator3endEv, __ZN9MaterialX12TreeIteratorppEv, 
                       __ZN9MaterialX12TypedElement14TYPE_ATTRIBUTEE, __ZN9MaterialX12ValueElement14ENUM_ATTRIBUTEE, 
                       __ZN9MaterialX12ValueElement14UNIT_ATTRIBUTEE, __ZN9MaterialX12ValueElement15VALUE_ATTRIBUTEE, 
                       __ZN9MaterialX12ValueElement16UI_MAX_ATTRIBUTEE, __ZN9MaterialX12ValueElement16UI_MIN_ATTRIBUTEE, 
                       __ZN9MaterialX12ValueElement17UI_NAME_ATTRIBUTEE, __ZN9MaterialX12ValueElement17UI_STEP_ATTRIBUTEE, 
                       __ZN9MaterialX12ValueElement17UNIFORM_ATTRIBUTEE, __ZN9MaterialX12ValueElement18UNITTYPE_ATTRIBUTEE, 
                       __ZN9MaterialX12ValueElement19UI_FOLDER_ATTRIBUTEE, __ZN9MaterialX12ValueElement21ENUM_VALUES_ATTRIBUTEE, 
                       __ZN9MaterialX12ValueElement21UI_ADVANCED_ATTRIBUTEE, __ZN9MaterialX12ValueElement21UI_SOFT_MAX_ATTRIBUTEE, 
                       __ZN9MaterialX12ValueElement21UI_SOFT_MIN_ATTRIBUTEE, __ZN9MaterialX12ValueElement24INTERFACE_NAME_ATTRIBUTEE, 
                       __ZN9MaterialX12ValueElement29IMPLEMENTATION_NAME_ATTRIBUTEE, 
                       __ZN9MaterialX12ValueElement29IMPLEMENTATION_TYPE_ATTRIBUTEE, 
                       __ZN9MaterialX12registryLookEv, __ZN9MaterialX12registryNodeEv, 
                       __ZN9MaterialX12registryUnitEv, __ZN9MaterialX12registryboolEv, 
                       __ZN9MaterialX12registrylongEv, __ZN9MaterialX13GraphIterator18extendPathUpstreamENSt3__110shared_ptrINS_7ElementEEES4_, 
                       __ZN9MaterialX13GraphIterator20returnPathDownstreamENSt3__110shared_ptrINS_7ElementEEE, 
                       __ZN9MaterialX13GraphIterator3endEv, __ZN9MaterialX13GraphIteratorppEv, 
                       __ZN9MaterialX13UV_TILE_TOKENE, __ZN9MaterialX13VariantAssign17VARIANT_ATTRIBUTEE, 
                       __ZN9MaterialX13VariantAssign21VARIANT_SET_ATTRIBUTEE, __ZN9MaterialX13VariantAssign8CATEGORYE, 
                       __ZN9MaterialX13_EMPTY_STRINGEv, __ZN9MaterialX13incrementNameERKNSt3__112basic_stringIcNS0_11char_traitsIcEENS0_9allocatorIcEEEE, 
                       __ZN9MaterialX13registryInputEv, __ZN9MaterialX13registryTokenEv, 
                       __ZN9MaterialX13registryfloatEv, __ZN9MaterialX13splitNamePathERKNSt3__112basic_stringIcNS0_11char_traitsIcEENS0_9allocatorIcEEEE, 
                       __ZN9MaterialX13stringToLowerENSt3__112basic_stringIcNS0_11char_traitsIcEENS0_9allocatorIcEEEE, 
                       __ZN9MaterialX14COLOR_SEMANTICE, __ZN9MaterialX14CommentElement8CATEGORYE, 
                       __ZN9MaterialX14GenericElement8CATEGORYE, __ZN9MaterialX14Implementation10setNodeDefENSt3__110shared_ptrIKNS_7NodeDefEEE, 
                       __ZN9MaterialX14Implementation14FILE_ATTRIBUTEE, __ZN9MaterialX14Implementation18FUNCTION_ATTRIBUTEE, 
                       __ZN9MaterialX14Implementation8CATEGORYE, __ZN9MaterialX14MaterialAssign18MATERIAL_ATTRIBUTEE, 
                       __ZN9MaterialX14MaterialAssign19EXCLUSIVE_ATTRIBUTEE, __ZN9MaterialX14MaterialAssign8CATEGORYE, 
                       __ZN9MaterialX14PropertyAssign13setCollectionENSt3__110shared_ptrIKNS_10CollectionEEE, 
                       __ZN9MaterialX14PropertyAssign14GEOM_ATTRIBUTEE, __ZN9MaterialX14PropertyAssign18PROPERTY_ATTRIBUTEE, 
                       __ZN9MaterialX14PropertyAssign20COLLECTION_ATTRIBUTEE, __ZN9MaterialX14PropertyAssign8CATEGORYE, 
                       __ZN9MaterialX14StringResolver13setUdimStringERKNSt3__112basic_stringIcNS1_11char_traitsIcEENS1_9allocatorIcEEEE, 
                       __ZN9MaterialX14StringResolver15setUvTileStringERKNSt3__112basic_stringIcNS1_11char_traitsIcEENS1_9allocatorIcEEEE, 
                       __ZN9MaterialX14createDocumentEv, __ZN9MaterialX14createNamePathERKNSt3__16vectorINS0_12basic_stringIcNS0_11char_traitsIcEENS0_9allocatorIcEEEENS5_IS7_EEEE, 
                       __ZN9MaterialX14getShaderNodesENSt3__110shared_ptrINS_4NodeEEERKNS0_12basic_stringIcNS0_11char_traitsIcEENS0_9allocatorIcEEEESB_, 
                       __ZN9MaterialX14parentNamePathERKNSt3__112basic_stringIcNS0_11char_traitsIcEENS0_9allocatorIcEEEE, 
                       __ZN9MaterialX14registryColor3Ev, __ZN9MaterialX14registryColor4Ev, 
                       __ZN9MaterialX14registryIntVecEv, __ZN9MaterialX14registryMemberEv, 
                       __ZN9MaterialX14registryOutputEv, __ZN9MaterialX14registrydoubleEv, 
                       __ZN9MaterialX14registrystringEv, __ZN9MaterialX14stringEndsWithERKNSt3__112basic_stringIcNS0_11char_traitsIcEENS0_9allocatorIcEEEES8_, 
                       __ZN9MaterialX15SHADER_SEMANTICE, __ZN9MaterialX15createValidNameENSt3__112basic_stringIcNS0_11char_traitsIcEENS0_9allocatorIcEEEEc, 
                       __ZN9MaterialX15registryBoolVecEv, __ZN9MaterialX15registryNodeDefEv, 
                       __ZN9MaterialX15registryTypeDefEv, __ZN9MaterialX15registryUnitDefEv, 
                       __ZN9MaterialX15registryVariantEv, __ZN9MaterialX15registryVector2Ev, 
                       __ZN9MaterialX15registryVector3Ev, __ZN9MaterialX15registryVector4Ev, 
                       __ZN9MaterialX16InterfaceElement16TARGET_ATTRIBUTEE, __ZN9MaterialX16InterfaceElement17VERSION_ATTRIBUTEE, 
                       __ZN9MaterialX16InterfaceElement18NODE_DEF_ATTRIBUTEE, __ZN9MaterialX16InterfaceElement18setConnectedOutputERKNSt3__112basic_stringIcNS1_11char_traitsIcEENS1_9allocatorIcEEEENS1_10shared_ptrINS_6OutputEEE, 
                       __ZN9MaterialX16InterfaceElement18setVersionIntegersEii, __ZN9MaterialX16InterfaceElement20registerChildElementENSt3__110shared_ptrINS_7ElementEEE, 
                       __ZN9MaterialX16InterfaceElement22unregisterChildElementENSt3__110shared_ptrINS_7ElementEEE, 
                       __ZN9MaterialX16InterfaceElement25DEFAULT_VERSION_ATTRIBUTEE, 
                       __ZN9MaterialX16geomStringsMatchERKNSt3__112basic_stringIcNS0_11char_traitsIcEENS0_9allocatorIcEEEES8_b, 
                       __ZN9MaterialX16getVersionStringEv, __ZN9MaterialX16registryBackdropEv, 
                       __ZN9MaterialX16registryDocumentEv, __ZN9MaterialX16registryFloatVecEv, 
                       __ZN9MaterialX16registryGeomInfoEv, __ZN9MaterialX16registryGeomPropEv, 
                       __ZN9MaterialX16registryMatrix33Ev, __ZN9MaterialX16registryMatrix44Ev, 
                       __ZN9MaterialX16registryPropertyEv, __ZN9MaterialX17PropertySetAssign14setPropertySetENSt3__110shared_ptrIKNS_11PropertySetEEE, 
                       __ZN9MaterialX17PropertySetAssign22PROPERTY_SET_ATTRIBUTEE, 
                       __ZN9MaterialX17PropertySetAssign8CATEGORYE, __ZN9MaterialX17registryLookGroupEv, 
                       __ZN9MaterialX17registryNodeGraphEv, __ZN9MaterialX17registryStringVecEv, 
                       __ZN9MaterialX17registryTargetDefEv, __ZN9MaterialX17replaceSubstringsENSt3__112basic_stringIcNS0_11char_traitsIcEENS0_9allocatorIcEEEERKNS0_13unordered_mapIS6_S6_NS0_4hashIS6_EENS0_8equal_toIS6_EENS4_INS0_4pairIKS6_S6_EEEEEE, 
                       __ZN9MaterialX18NULL_TREE_ITERATOREv, __ZN9MaterialX18getVersionIntegersEv, 
                       __ZN9MaterialX18registryCollectionEv, __ZN9MaterialX18registryVariantSetEv, 
                       __ZN9MaterialX18registryVisibilityEv, __ZN9MaterialX18targetStringsMatchERKNSt3__112basic_stringIcNS0_11char_traitsIcEENS0_9allocatorIcEEEES8_, 
                       __ZN9MaterialX19DEFAULT_TYPE_STRINGEv, __ZN9MaterialX19GEOM_PATH_SEPARATORE, 
                       __ZN9MaterialX19InheritanceIterator3endEv, __ZN9MaterialX19InheritanceIteratorppEv, 
                       __ZN9MaterialX19LinearUnitConverter6createENSt3__110shared_ptrINS_11UnitTypeDefEEE, 
                       __ZN9MaterialX19LinearUnitConverterC1ENSt3__110shared_ptrINS_11UnitTypeDefEEE, 
                       __ZN9MaterialX19LinearUnitConverterC2ENSt3__110shared_ptrINS_11UnitTypeDefEEE, 
                       __ZN9MaterialX19NULL_GRAPH_ITERATOREv, __ZN9MaterialX19UNIVERSAL_GEOM_NAMEE, 
                       __ZN9MaterialX19getConnectedOutputsERKNSt3__110shared_ptrINS_4NodeEEE, 
                       __ZN9MaterialX19getGeometryBindingsERKNSt3__110shared_ptrINS_4NodeEEERKNS0_12basic_stringIcNS0_11char_traitsIcEENS0_9allocatorIcEEEE, 
                       __ZN9MaterialX19registryGeomPropDefEv, __ZN9MaterialX19registryPropertySetEv, 
                       __ZN9MaterialX19registryUnitTypeDefEv, __ZN9MaterialX20registryAttributeDefEv, 
                       __ZN9MaterialX21ScopedFloatFormattingC1ENS_5Value11FloatFormatEi, 
                       __ZN9MaterialX21ScopedFloatFormattingC2ENS_5Value11FloatFormatEi, 
                       __ZN9MaterialX21ScopedFloatFormattingD1Ev, __ZN9MaterialX21ScopedFloatFormattingD2Ev, 
                       __ZN9MaterialX21UnitConverterRegistry16addUnitConverterENSt3__110shared_ptrINS_11UnitTypeDefEEENS2_INS_13UnitConverterEEE, 
                       __ZN9MaterialX21UnitConverterRegistry16getUnitConverterENSt3__110shared_ptrINS_11UnitTypeDefEEE, 
                       __ZN9MaterialX21UnitConverterRegistry19clearUnitConvertersEv, 
                       __ZN9MaterialX21UnitConverterRegistry19removeUnitConverterENSt3__110shared_ptrINS_11UnitTypeDefEEE, 
                       __ZN9MaterialX21UnitConverterRegistry6createEv, __ZN9MaterialX21registryVariantAssignEv, 
                       __ZN9MaterialX22registryCommentElementEv, __ZN9MaterialX22registryGenericElementEv, 
                       __ZN9MaterialX22registryImplementationEv, __ZN9MaterialX22registryMaterialAssignEv, 
                       __ZN9MaterialX22registryPropertyAssignEv, __ZN9MaterialX24MULTI_OUTPUT_TYPE_STRINGEv, 
                       __ZN9MaterialX25NULL_INHERITANCE_ITERATOREv, __ZN9MaterialX25registryPropertySetAssignEv, 
                       __ZN9MaterialX4Look17addMaterialAssignERKNSt3__112basic_stringIcNS1_11char_traitsIcEENS1_9allocatorIcEEEES9_, 
                       __ZN9MaterialX4Look8CATEGORYE, __ZN9MaterialX4Node16getNodeDefOutputENSt3__110shared_ptrINS_7ElementEEE, 
                       __ZN9MaterialX4Node16setConnectedNodeERKNSt3__112basic_stringIcNS1_11char_traitsIcEENS1_9allocatorIcEEEENS1_10shared_ptrIS0_EE, 
                       __ZN9MaterialX4Node18setConnectedOutputERKNSt3__112basic_stringIcNS1_11char_traitsIcEENS1_9allocatorIcEEEENS1_10shared_ptrINS_6OutputEEE, 
                       __ZN9MaterialX4Node19addInputFromNodeDefERKNSt3__112basic_stringIcNS1_11char_traitsIcEENS1_9allocatorIcEEEE, 
                       __ZN9MaterialX4Node20setConnectedNodeNameERKNSt3__112basic_stringIcNS1_11char_traitsIcEENS1_9allocatorIcEEEES9_, 
                       __ZN9MaterialX4Node8CATEGORYE, __ZN9MaterialX4Unit8CATEGORYE, 
                       __ZN9MaterialX5Input18setConnectedOutputENSt3__110shared_ptrIKNS_6OutputEEE, 
                       __ZN9MaterialX5Input27DEFAULT_GEOM_PROP_ATTRIBUTEE, __ZN9MaterialX5Input8CATEGORYE, 
                       __ZN9MaterialX5Token8CATEGORYE, __ZN9MaterialX5Value11_creatorMapEv, 
                       __ZN9MaterialX5Value12_floatFormatE, __ZN9MaterialX5Value15_floatPrecisionE, 
                       __ZN9MaterialX5Value22createValueFromStringsERKNSt3__112basic_stringIcNS1_11char_traitsIcEENS1_9allocatorIcEEEES9_, 
                       __ZN9MaterialX6Member8CATEGORYE, __ZN9MaterialX6Output23DEFAULT_INPUT_ATTRIBUTEE, 
                       __ZN9MaterialX6Output8CATEGORYE, __ZN9MaterialX7Element11_creatorMapEv, 
                       __ZN9MaterialX7Element11removeChildERKNSt3__112basic_stringIcNS1_11char_traitsIcEENS1_9allocatorIcEEEE, 
                       __ZN9MaterialX7Element12clearContentEv, __ZN9MaterialX7Element12setAttributeERKNSt3__112basic_stringIcNS1_11char_traitsIcEENS1_9allocatorIcEEEES9_, 
                       __ZN9MaterialX7Element13DOC_ATTRIBUTEE, __ZN9MaterialX7Element13setChildIndexERKNSt3__112basic_stringIcNS1_11char_traitsIcEENS1_9allocatorIcEEEEi, 
                       __ZN9MaterialX7Element14NAME_ATTRIBUTEE, __ZN9MaterialX7Element15copyContentFromERKNSt3__110shared_ptrIKS0_EE, 
                       __ZN9MaterialX7Element15removeAttributeERKNSt3__112basic_stringIcNS1_11char_traitsIcEENS1_9allocatorIcEEEE, 
                       __ZN9MaterialX7Element17INHERIT_ATTRIBUTEE, __ZN9MaterialX7Element18addChildOfCategoryERKNSt3__112basic_stringIcNS1_11char_traitsIcEENS1_9allocatorIcEEEES7_, 
                       __ZN9MaterialX7Element19NAMESPACE_ATTRIBUTEE, __ZN9MaterialX7Element19changeChildCategoryENSt3__110shared_ptrIS0_EERKNS1_12basic_stringIcNS1_11char_traitsIcEENS1_9allocatorIcEEEE, 
                       __ZN9MaterialX7Element20registerChildElementENSt3__110shared_ptrIS0_EE, 
                       __ZN9MaterialX7Element21COLOR_SPACE_ATTRIBUTEE, __ZN9MaterialX7Element21FILE_PREFIX_ATTRIBUTEE, 
                       __ZN9MaterialX7Element21GEOM_PREFIX_ATTRIBUTEE, __ZN9MaterialX7Element22unregisterChildElementENSt3__110shared_ptrIS0_EE, 
                       __ZN9MaterialX7Element7getRootEv, __ZN9MaterialX7Element7setNameERKNSt3__112basic_stringIcNS1_11char_traitsIcEENS1_9allocatorIcEEEE, 
                       __ZN9MaterialX7NodeDef14NODE_ATTRIBUTEE, __ZN9MaterialX7NodeDef18TEXTURE_NODE_GROUPE, 
                       __ZN9MaterialX7NodeDef20GEOMETRIC_NODE_GROUPE, __ZN9MaterialX7NodeDef20NODE_GROUP_ATTRIBUTEE, 
                       __ZN9MaterialX7NodeDef21ADJUSTMENT_NODE_GROUPE, __ZN9MaterialX7NodeDef21PROCEDURAL_NODE_GROUPE, 
                       __ZN9MaterialX7NodeDef22CONDITIONAL_NODE_GROUPE, __ZN9MaterialX7NodeDef22TRANSLATION_NODE_GROUPE, 
                       __ZN9MaterialX7NodeDef23ORGANIZATION_NODE_GROUPE, __ZN9MaterialX7NodeDef8CATEGORYE, 
                       __ZN9MaterialX7TypeDef17CONTEXT_ATTRIBUTEE, __ZN9MaterialX7TypeDef18SEMANTIC_ATTRIBUTEE, 
                       __ZN9MaterialX7TypeDef8CATEGORYE, __ZN9MaterialX7UDIMSETE, 
                       __ZN9MaterialX7UnitDef18UNITTYPE_ATTRIBUTEE, __ZN9MaterialX7UnitDef8CATEGORYE, 
                       __ZN9MaterialX7Variant8CATEGORYE, __ZN9MaterialX8Backdrop15WIDTH_ATTRIBUTEE, 
                       __ZN9MaterialX8Backdrop16HEIGHT_ATTRIBUTEE, __ZN9MaterialX8Backdrop18CONTAINS_ATTRIBUTEE, 
                       __ZN9MaterialX8Backdrop19setContainsElementsERKNSt3__16vectorINS1_10shared_ptrIKNS_12TypedElementEEENS1_9allocatorIS6_EEEE, 
                       __ZN9MaterialX8Backdrop8CATEGORYE, __ZN9MaterialX8Document10initializeEv, 
                       __ZN9MaterialX8Document13CMS_ATTRIBUTEE, __ZN9MaterialX8Document13importLibraryERKNSt3__110shared_ptrIKS0_EE, 
                       __ZN9MaterialX8Document14upgradeVersionEv, __ZN9MaterialX8Document15invalidateCacheEv, 
                       __ZN9MaterialX8Document19addNodeDefFromGraphENSt3__110shared_ptrINS_9NodeGraphEEERKNS1_12basic_stringIcNS1_11char_traitsIcEENS1_9allocatorIcEEEESC_SC_bSC_RSA_, 
                       __ZN9MaterialX8Document20CMS_CONFIG_ATTRIBUTEE, __ZN9MaterialX8Document8CATEGORYE, 
                       __ZN9MaterialX8DocumentC1ENSt3__110shared_ptrINS_7ElementEEERKNS1_12basic_stringIcNS1_11char_traitsIcEENS1_9allocatorIcEEEE, 
                       __ZN9MaterialX8DocumentC2ENSt3__110shared_ptrINS_7ElementEEERKNS1_12basic_stringIcNS1_11char_traitsIcEENS1_9allocatorIcEEEE, 
                       __ZN9MaterialX8DocumentD0Ev, __ZN9MaterialX8DocumentD1Ev, 
                       __ZN9MaterialX8DocumentD2Ev, __ZN9MaterialX8GeomInfo8CATEGORYE, 
                       __ZN9MaterialX8GeomProp8CATEGORYE, __ZN9MaterialX8Matrix3311createScaleERKNS_7Vector2E, 
                       __ZN9MaterialX8Matrix3314createRotationEf, __ZN9MaterialX8Matrix3317createTranslationERKNS_7Vector2E, 
                       __ZN9MaterialX8Matrix4411createScaleERKNS_7Vector3E, __ZN9MaterialX8Matrix4414createRotationERKNS_10QuaternionE, 
                       __ZN9MaterialX8Matrix4415createRotationXEf, __ZN9MaterialX8Matrix4415createRotationYEf, 
                       __ZN9MaterialX8Matrix4415createRotationZEf, __ZN9MaterialX8Matrix4417createTranslationERKNS_7Vector3E, 
                       __ZN9MaterialX8Property8CATEGORYE, __ZN9MaterialX9LookGroup15LOOKS_ATTRIBUTEE, 
                       __ZN9MaterialX9LookGroup16ACTIVE_ATTRIBUTEE, __ZN9MaterialX9LookGroup8CATEGORYE, 
                       __ZN9MaterialX9NULL_EDGEEv, __ZN9MaterialX9NodeGraph10setNodeDefENSt3__110shared_ptrIKNS_7NodeDefEEE, 
                       __ZN9MaterialX9NodeGraph16addInterfaceNameERKNSt3__112basic_stringIcNS1_11char_traitsIcEENS1_9allocatorIcEEEES9_, 
                       __ZN9MaterialX9NodeGraph19modifyInterfaceNameERKNSt3__112basic_stringIcNS1_11char_traitsIcEENS1_9allocatorIcEEEES9_, 
                       __ZN9MaterialX9NodeGraph19removeInterfaceNameERKNSt3__112basic_stringIcNS1_11char_traitsIcEENS1_9allocatorIcEEEE, 
                       __ZN9MaterialX9NodeGraph8CATEGORYE, __ZN9MaterialX9TargetDef8CATEGORYE, 
                       __ZNK9MaterialX10Collection15hasIncludeCycleEv, __ZNK9MaterialX10Collection17matchesGeomStringERKNSt3__112basic_stringIcNS1_11char_traitsIcEENS1_9allocatorIcEEEE, 
                       __ZNK9MaterialX10Collection21getIncludeCollectionsEv, __ZNK9MaterialX10Collection8validateEPNSt3__112basic_stringIcNS1_11char_traitsIcEENS1_9allocatorIcEEEE, 
                       __ZNK9MaterialX10TypedValueINS_6Color3EE13getTypeStringEv, 
                       __ZNK9MaterialX10TypedValueINS_6Color3EE14getValueStringEv, 
                       __ZNK9MaterialX10TypedValueINS_6Color4EE13getTypeStringEv, 
                       __ZNK9MaterialX10TypedValueINS_6Color4EE14getValueStringEv, 
                       __ZNK9MaterialX10TypedValueINS_7Vector2EE13getTypeStringEv, 
                       __ZNK9MaterialX10TypedValueINS_7Vector2EE14getValueStringEv, 
                       __ZNK9MaterialX10TypedValueINS_7Vector3EE13getTypeStringEv, 
                       __ZNK9MaterialX10TypedValueINS_7Vector3EE14getValueStringEv, 
                       __ZNK9MaterialX10TypedValueINS_7Vector4EE13getTypeStringEv, 
                       __ZNK9MaterialX10TypedValueINS_7Vector4EE14getValueStringEv, 
                       __ZNK9MaterialX10TypedValueINS_8Matrix33EE13getTypeStringEv, 
                       __ZNK9MaterialX10TypedValueINS_8Matrix33EE14getValueStringEv, 
                       __ZNK9MaterialX10TypedValueINS_8Matrix44EE13getTypeStringEv, 
                       __ZNK9MaterialX10TypedValueINS_8Matrix44EE14getValueStringEv, 
                       __ZNK9MaterialX10TypedValueINSt3__112basic_stringIcNS1_11char_traitsIcEENS1_9allocatorIcEEEEE13getTypeStringEv, 
                       __ZNK9MaterialX10TypedValueINSt3__112basic_stringIcNS1_11char_traitsIcEENS1_9allocatorIcEEEEE14getValueStringEv, 
                       __ZNK9MaterialX10TypedValueINSt3__16vectorINS1_12basic_stringIcNS1_11char_traitsIcEENS1_9allocatorIcEEEENS6_IS8_EEEEE13getTypeStringEv, 
                       __ZNK9MaterialX10TypedValueINSt3__16vectorINS1_12basic_stringIcNS1_11char_traitsIcEENS1_9allocatorIcEEEENS6_IS8_EEEEE14getValueStringEv, 
                       __ZNK9MaterialX10TypedValueINSt3__16vectorIbNS1_9allocatorIbEEEEE13getTypeStringEv, 
                       __ZNK9MaterialX10TypedValueINSt3__16vectorIbNS1_9allocatorIbEEEEE14getValueStringEv, 
                       __ZNK9MaterialX10TypedValueINSt3__16vectorIfNS1_9allocatorIfEEEEE13getTypeStringEv, 
                       __ZNK9MaterialX10TypedValueINSt3__16vectorIfNS1_9allocatorIfEEEEE14getValueStringEv, 
                       __ZNK9MaterialX10TypedValueINSt3__16vectorIiNS1_9allocatorIiEEEEE13getTypeStringEv, 
                       __ZNK9MaterialX10TypedValueINSt3__16vectorIiNS1_9allocatorIiEEEEE14getValueStringEv, 
                       __ZNK9MaterialX10TypedValueIbE13getTypeStringEv, __ZNK9MaterialX10TypedValueIbE14getValueStringEv, 
                       __ZNK9MaterialX10TypedValueIdE13getTypeStringEv, __ZNK9MaterialX10TypedValueIdE14getValueStringEv, 
                       __ZNK9MaterialX10TypedValueIfE13getTypeStringEv, __ZNK9MaterialX10TypedValueIfE14getValueStringEv, 
                       __ZNK9MaterialX10TypedValueIiE13getTypeStringEv, __ZNK9MaterialX10TypedValueIiE14getValueStringEv, 
                       __ZNK9MaterialX10TypedValueIlE13getTypeStringEv, __ZNK9MaterialX10TypedValueIlE14getValueStringEv, 
                       __ZNK9MaterialX11GeomElement13getCollectionEv, __ZNK9MaterialX11GeomElement8validateEPNSt3__112basic_stringIcNS1_11char_traitsIcEENS1_9allocatorIcEEEE, 
                       __ZNK9MaterialX11PortElement16getConnectedNodeEv, __ZNK9MaterialX11PortElement8validateEPNSt3__112basic_stringIcNS1_11char_traitsIcEENS1_9allocatorIcEEEE, 
                       __ZNK9MaterialX11UnitTypeDef11getUnitDefsEv, __ZNK9MaterialX12GraphElement11asStringDotEv, 
                       __ZNK9MaterialX12GraphElement15topologicalSortEv, __ZNK9MaterialX12TypedElement10getTypeDefEv, 
                       __ZNK9MaterialX12ValueElement13getActiveUnitEv, __ZNK9MaterialX12ValueElement15getDefaultValueEv, 
                       __ZNK9MaterialX12ValueElement22getResolvedValueStringENSt3__110shared_ptrINS_14StringResolverEEE, 
                       __ZNK9MaterialX12ValueElement8validateEPNSt3__112basic_stringIcNS1_11char_traitsIcEENS1_9allocatorIcEEEE, 
                       __ZNK9MaterialX13GraphIterator12getNodeDepthEv, __ZNK9MaterialX14Implementation10getNodeDefEv, 
                       __ZNK9MaterialX14Implementation14getDeclarationERKNSt3__112basic_stringIcNS1_11char_traitsIcEENS1_9allocatorIcEEEE, 
                       __ZNK9MaterialX14Implementation8validateEPNSt3__112basic_stringIcNS1_11char_traitsIcEENS1_9allocatorIcEEEE, 
                       __ZNK9MaterialX14MaterialAssign21getReferencedMaterialEv, 
                       __ZNK9MaterialX14MaterialAssign23getActiveVariantAssignsEv, 
                       __ZNK9MaterialX14PropertyAssign13getCollectionEv, __ZNK9MaterialX14StringResolver7resolveERKNSt3__112basic_stringIcNS1_11char_traitsIcEENS1_9allocatorIcEEEES9_, 
                       __ZNK9MaterialX16InterfaceElement13getInputValueERKNSt3__112basic_stringIcNS1_11char_traitsIcEENS1_9allocatorIcEEEES9_, 
                       __ZNK9MaterialX16InterfaceElement14getActiveInputERKNSt3__112basic_stringIcNS1_11char_traitsIcEENS1_9allocatorIcEEEE, 
                       __ZNK9MaterialX16InterfaceElement14getActiveTokenERKNSt3__112basic_stringIcNS1_11char_traitsIcEENS1_9allocatorIcEEEE, 
                       __ZNK9MaterialX16InterfaceElement14getDeclarationERKNSt3__112basic_stringIcNS1_11char_traitsIcEENS1_9allocatorIcEEEE, 
                       __ZNK9MaterialX16InterfaceElement15getActiveInputsEv, __ZNK9MaterialX16InterfaceElement15getActiveOutputERKNSt3__112basic_stringIcNS1_11char_traitsIcEENS1_9allocatorIcEEEE, 
                       __ZNK9MaterialX16InterfaceElement15getActiveTokensEv, __ZNK9MaterialX16InterfaceElement16getActiveOutputsEv, 
                       __ZNK9MaterialX16InterfaceElement16isTypeCompatibleENSt3__110shared_ptrIKS0_EE, 
                       __ZNK9MaterialX16InterfaceElement18getConnectedOutputERKNSt3__112basic_stringIcNS1_11char_traitsIcEENS1_9allocatorIcEEEE, 
                       __ZNK9MaterialX16InterfaceElement18getVersionIntegersEv, __ZNK9MaterialX16InterfaceElement21getActiveValueElementERKNSt3__112basic_stringIcNS1_11char_traitsIcEENS1_9allocatorIcEEEE, 
                       __ZNK9MaterialX16InterfaceElement22getActiveValueElementsEv, 
                       __ZNK9MaterialX17PropertySetAssign14getPropertySetEv, __ZNK9MaterialX19LinearUnitConverter15conversionRatioERKNSt3__112basic_stringIcNS1_11char_traitsIcEENS1_9allocatorIcEEEES9_, 
                       __ZNK9MaterialX19LinearUnitConverter16getUnitAsIntegerERKNSt3__112basic_stringIcNS1_11char_traitsIcEENS1_9allocatorIcEEEE, 
                       __ZNK9MaterialX19LinearUnitConverter18getUnitFromIntegerEi, 
                       __ZNK9MaterialX19LinearUnitConverter5writeENSt3__110shared_ptrINS_8DocumentEEE, 
                       __ZNK9MaterialX19LinearUnitConverter7convertERKNS_7Vector2ERKNSt3__112basic_stringIcNS4_11char_traitsIcEENS4_9allocatorIcEEEESC_, 
                       __ZNK9MaterialX19LinearUnitConverter7convertERKNS_7Vector3ERKNSt3__112basic_stringIcNS4_11char_traitsIcEENS4_9allocatorIcEEEESC_, 
                       __ZNK9MaterialX19LinearUnitConverter7convertERKNS_7Vector4ERKNSt3__112basic_stringIcNS4_11char_traitsIcEENS4_9allocatorIcEEEESC_, 
                       __ZNK9MaterialX19LinearUnitConverter7convertEfRKNSt3__112basic_stringIcNS1_11char_traitsIcEENS1_9allocatorIcEEEES9_, 
                       __ZNK9MaterialX21UnitConverterRegistry16getUnitAsIntegerERKNSt3__112basic_stringIcNS1_11char_traitsIcEENS1_9allocatorIcEEEE, 
                       __ZNK9MaterialX21UnitConverterRegistry5writeENSt3__110shared_ptrINS_8DocumentEEE, 
                       __ZNK9MaterialX4Edge7getNameEv, __ZNK9MaterialX4EdgecvbEv, 
                       __ZNK9MaterialX4Look21getActiveVisibilitiesEv, __ZNK9MaterialX4Look23getActiveVariantAssignsEv, 
                       __ZNK9MaterialX4Look24getActiveMaterialAssignsEv, __ZNK9MaterialX4Look24getActivePropertyAssignsEv, 
                       __ZNK9MaterialX4Look27getActivePropertySetAssignsEv, __ZNK9MaterialX4Node10getNodeDefERKNSt3__112basic_stringIcNS1_11char_traitsIcEENS1_9allocatorIcEEEE, 
                       __ZNK9MaterialX4Node15getUpstreamEdgeEm, __ZNK9MaterialX4Node16getConnectedNodeERKNSt3__112basic_stringIcNS1_11char_traitsIcEENS1_9allocatorIcEEEE, 
                       __ZNK9MaterialX4Node18getConnectedOutputERKNSt3__112basic_stringIcNS1_11char_traitsIcEENS1_9allocatorIcEEEE, 
                       __ZNK9MaterialX4Node18getDownstreamPortsEv, __ZNK9MaterialX4Node20getConnectedNodeNameERKNSt3__112basic_stringIcNS1_11char_traitsIcEENS1_9allocatorIcEEEE, 
                       __ZNK9MaterialX4Node8validateEPNSt3__112basic_stringIcNS1_11char_traitsIcEENS1_9allocatorIcEEEE, 
                       __ZNK9MaterialX5Input16getConnectedNodeEv, __ZNK9MaterialX5Input17getInterfaceInputEv, 
                       __ZNK9MaterialX5Input18getConnectedOutputEv, __ZNK9MaterialX5Input18getDefaultGeomPropEv, 
                       __ZNK9MaterialX5Input8validateEPNSt3__112basic_stringIcNS1_11char_traitsIcEENS1_9allocatorIcEEEE, 
                       __ZNK9MaterialX6Output15getUpstreamEdgeEm, __ZNK9MaterialX6Output16hasUpstreamCycleEv, 
                       __ZNK9MaterialX6Output8validateEPNSt3__112basic_stringIcNS1_11char_traitsIcEENS1_9allocatorIcEEEE, 
                       __ZNK9MaterialX7Element11getNamePathENSt3__110shared_ptrIKS0_EE, 
                       __ZNK9MaterialX7Element12traverseTreeEv, __ZNK9MaterialX7Element13getChildIndexERKNSt3__112basic_stringIcNS1_11char_traitsIcEENS1_9allocatorIcEEEE, 
                       __ZNK9MaterialX7Element13getDescendantERKNSt3__112basic_stringIcNS1_11char_traitsIcEENS1_9allocatorIcEEEE, 
                       __ZNK9MaterialX7Element13traverseGraphEv, __ZNK9MaterialX7Element15getUpstreamEdgeEm, 
                       __ZNK9MaterialX7Element15validateRequireEbRbPNSt3__112basic_stringIcNS2_11char_traitsIcEENS2_9allocatorIcEEEES8_, 
                       __ZNK9MaterialX7Element16hasInheritedBaseENSt3__110shared_ptrIKS0_EE, 
                       __ZNK9MaterialX7Element18getUpstreamElementEm, __ZNK9MaterialX7Element19hasInheritanceCycleEv, 
                       __ZNK9MaterialX7Element19traverseInheritanceEv, __ZNK9MaterialX7Element20createStringResolverERKNSt3__112basic_stringIcNS1_11char_traitsIcEENS1_9allocatorIcEEEE, 
                       __ZNK9MaterialX7Element7getRootEv, __ZNK9MaterialX7Element8asStringEv, 
                       __ZNK9MaterialX7Element8validateEPNSt3__112basic_stringIcNS1_11char_traitsIcEENS1_9allocatorIcEEEE, 
                       __ZNK9MaterialX7ElementeqERKS0_, __ZNK9MaterialX7ElementneERKS0_, 
                       __ZNK9MaterialX7MatrixNINS_8Matrix33EfLm3EE11getAdjugateEv, 
                       __ZNK9MaterialX7MatrixNINS_8Matrix33EfLm3EE12getTransposeEv, 
                       __ZNK9MaterialX7MatrixNINS_8Matrix33EfLm3EE14getDeterminantEv, 
                       __ZNK9MaterialX7MatrixNINS_8Matrix44EfLm4EE11getAdjugateEv, 
                       __ZNK9MaterialX7MatrixNINS_8Matrix44EfLm4EE12getTransposeEv, 
                       __ZNK9MaterialX7MatrixNINS_8Matrix44EfLm4EE14getDeterminantEv, 
                       __ZNK9MaterialX7NodeDef14getDeclarationERKNSt3__112basic_stringIcNS1_11char_traitsIcEENS1_9allocatorIcEEEE, 
                       __ZNK9MaterialX7NodeDef17getImplementationERKNSt3__112basic_stringIcNS1_11char_traitsIcEENS1_9allocatorIcEEEE, 
                       __ZNK9MaterialX7NodeDef19isVersionCompatibleERKNSt3__112basic_stringIcNS1_11char_traitsIcEENS1_9allocatorIcEEEE, 
                       __ZNK9MaterialX7NodeDef7getTypeEv, __ZNK9MaterialX7NodeDef8validateEPNSt3__112basic_stringIcNS1_11char_traitsIcEENS1_9allocatorIcEEEE, 
                       __ZNK9MaterialX8Backdrop19getContainsElementsEv, __ZNK9MaterialX8Backdrop8validateEPNSt3__112basic_stringIcNS1_11char_traitsIcEENS1_9allocatorIcEEEE, 
                       __ZNK9MaterialX8Document16getGeomPropValueERKNSt3__112basic_stringIcNS1_11char_traitsIcEENS1_9allocatorIcEEEES9_, 
                       __ZNK9MaterialX8Document16getMatchingPortsERKNSt3__112basic_stringIcNS1_11char_traitsIcEENS1_9allocatorIcEEEE, 
                       __ZNK9MaterialX8Document18getVersionIntegersEv, __ZNK9MaterialX8Document19getMatchingNodeDefsERKNSt3__112basic_stringIcNS1_11char_traitsIcEENS1_9allocatorIcEEEE, 
                       __ZNK9MaterialX8Document23getReferencedSourceUrisEv, __ZNK9MaterialX8Document26getMatchingImplementationsERKNSt3__112basic_stringIcNS1_11char_traitsIcEENS1_9allocatorIcEEEE, 
                       __ZNK9MaterialX8Document8validateEPNSt3__112basic_stringIcNS1_11char_traitsIcEENS1_9allocatorIcEEEE, 
                       __ZNK9MaterialX8Matrix3314transformPointERKNS_7Vector2E, __ZNK9MaterialX8Matrix3315transformNormalERKNS_7Vector3E, 
                       __ZNK9MaterialX8Matrix3315transformVectorERKNS_7Vector2E, 
                       __ZNK9MaterialX8Matrix338multiplyERKNS_7Vector3E, __ZNK9MaterialX8Matrix4414transformPointERKNS_7Vector3E, 
                       __ZNK9MaterialX8Matrix4415transformNormalERKNS_7Vector3E, 
                       __ZNK9MaterialX8Matrix4415transformVectorERKNS_7Vector3E, 
                       __ZNK9MaterialX8Matrix448multiplyERKNS_7Vector4E, __ZNK9MaterialX9NodeGraph10getNodeDefEv, 
                       __ZNK9MaterialX9NodeGraph14getDeclarationERKNSt3__112basic_stringIcNS1_11char_traitsIcEENS1_9allocatorIcEEEE, 
                       __ZNK9MaterialX9NodeGraph17getImplementationEv, __ZNK9MaterialX9NodeGraph8validateEPNSt3__112basic_stringIcNS1_11char_traitsIcEENS1_9allocatorIcEEEE, 
                       __ZNK9MaterialX9TargetDef18getMatchingTargetsEv, __ZTIN9MaterialX10CollectionE, 
                       __ZTIN9MaterialX11GeomElementE, __ZTIN9MaterialX11PortElementE, 
                       __ZTIN9MaterialX12ValueElementE, __ZTIN9MaterialX14ImplementationE, 
                       __ZTIN9MaterialX14StringResolverE, __ZTIN9MaterialX16InterfaceElementE, 
                       __ZTIN9MaterialX19LinearUnitConverterE, __ZTIN9MaterialX4NodeE, 
                       __ZTIN9MaterialX5InputE, __ZTIN9MaterialX6OutputE, __ZTIN9MaterialX7ElementE, 
                       __ZTIN9MaterialX7NodeDefE, __ZTIN9MaterialX8BackdropE, __ZTIN9MaterialX8DocumentE, 
                       __ZTIN9MaterialX9NodeGraphE, __ZTSN9MaterialX10CollectionE, 
                       __ZTSN9MaterialX11GeomElementE, __ZTSN9MaterialX11PortElementE, 
                       __ZTSN9MaterialX12ValueElementE, __ZTSN9MaterialX14ImplementationE, 
                       __ZTSN9MaterialX14StringResolverE, __ZTSN9MaterialX16InterfaceElementE, 
                       __ZTSN9MaterialX19LinearUnitConverterE, __ZTSN9MaterialX4NodeE, 
                       __ZTSN9MaterialX5InputE, __ZTSN9MaterialX6OutputE, __ZTSN9MaterialX7ElementE, 
                       __ZTSN9MaterialX7NodeDefE, __ZTSN9MaterialX8BackdropE, __ZTSN9MaterialX8DocumentE, 
                       __ZTSN9MaterialX9NodeGraphE, __ZTVN9MaterialX10CollectionE, 
                       __ZTVN9MaterialX11GeomElementE, __ZTVN9MaterialX11PortElementE, 
                       __ZTVN9MaterialX12ValueElementE, __ZTVN9MaterialX14ImplementationE, 
                       __ZTVN9MaterialX14StringResolverE, __ZTVN9MaterialX16InterfaceElementE, 
                       __ZTVN9MaterialX19LinearUnitConverterE, __ZTVN9MaterialX4NodeE, 
                       __ZTVN9MaterialX5InputE, __ZTVN9MaterialX6OutputE, __ZTVN9MaterialX7ElementE, 
                       __ZTVN9MaterialX7NodeDefE, __ZTVN9MaterialX8BackdropE, __ZTVN9MaterialX8DocumentE, 
                       __ZTVN9MaterialX9NodeGraphE ]
    weak-symbols:    [ __ZGVZN9MaterialX13getTypeStringINS_6Color3EEERKNSt3__112basic_stringIcNS2_11char_traitsIcEENS2_9allocatorIcEEEEvE3ret, 
                       __ZGVZN9MaterialX13getTypeStringINS_6Color4EEERKNSt3__112basic_stringIcNS2_11char_traitsIcEENS2_9allocatorIcEEEEvE3ret, 
                       __ZGVZN9MaterialX13getTypeStringINS_7Vector2EEERKNSt3__112basic_stringIcNS2_11char_traitsIcEENS2_9allocatorIcEEEEvE3ret, 
                       __ZGVZN9MaterialX13getTypeStringINS_7Vector3EEERKNSt3__112basic_stringIcNS2_11char_traitsIcEENS2_9allocatorIcEEEEvE3ret, 
                       __ZGVZN9MaterialX13getTypeStringINS_7Vector4EEERKNSt3__112basic_stringIcNS2_11char_traitsIcEENS2_9allocatorIcEEEEvE3ret, 
                       __ZGVZN9MaterialX13getTypeStringINS_8Matrix33EEERKNSt3__112basic_stringIcNS2_11char_traitsIcEENS2_9allocatorIcEEEEvE3ret, 
                       __ZGVZN9MaterialX13getTypeStringINS_8Matrix44EEERKNSt3__112basic_stringIcNS2_11char_traitsIcEENS2_9allocatorIcEEEEvE3ret, 
                       __ZGVZN9MaterialX13getTypeStringINSt3__112basic_stringIcNS1_11char_traitsIcEENS1_9allocatorIcEEEEEERKS7_vE3ret, 
                       __ZGVZN9MaterialX13getTypeStringINSt3__16vectorINS1_12basic_stringIcNS1_11char_traitsIcEENS1_9allocatorIcEEEENS6_IS8_EEEEEERKS8_vE3ret, 
                       __ZGVZN9MaterialX13getTypeStringINSt3__16vectorIbNS1_9allocatorIbEEEEEERKNS1_12basic_stringIcNS1_11char_traitsIcEENS3_IcEEEEvE3ret, 
                       __ZGVZN9MaterialX13getTypeStringINSt3__16vectorIfNS1_9allocatorIfEEEEEERKNS1_12basic_stringIcNS1_11char_traitsIcEENS3_IcEEEEvE3ret, 
                       __ZGVZN9MaterialX13getTypeStringINSt3__16vectorIiNS1_9allocatorIiEEEEEERKNS1_12basic_stringIcNS1_11char_traitsIcEENS3_IcEEEEvE3ret, 
                       __ZGVZN9MaterialX13getTypeStringIbEERKNSt3__112basic_stringIcNS1_11char_traitsIcEENS1_9allocatorIcEEEEvE3ret, 
                       __ZGVZN9MaterialX13getTypeStringIdEERKNSt3__112basic_stringIcNS1_11char_traitsIcEENS1_9allocatorIcEEEEvE3ret, 
                       __ZGVZN9MaterialX13getTypeStringIfEERKNSt3__112basic_stringIcNS1_11char_traitsIcEENS1_9allocatorIcEEEEvE3ret, 
                       __ZGVZN9MaterialX13getTypeStringIiEERKNSt3__112basic_stringIcNS1_11char_traitsIcEENS1_9allocatorIcEEEEvE3ret, 
                       __ZGVZN9MaterialX13getTypeStringIlEERKNSt3__112basic_stringIcNS1_11char_traitsIcEENS1_9allocatorIcEEEEvE3ret, 
                       __ZN9MaterialX10Quaternion8IDENTITYE, __ZN9MaterialX10TypedValueINS_6Color3EE16createFromStringERKNSt3__112basic_stringIcNS3_11char_traitsIcEENS3_9allocatorIcEEEE, 
                       __ZN9MaterialX10TypedValueINS_6Color4EE16createFromStringERKNSt3__112basic_stringIcNS3_11char_traitsIcEENS3_9allocatorIcEEEE, 
                       __ZN9MaterialX10TypedValueINS_7Vector2EE16createFromStringERKNSt3__112basic_stringIcNS3_11char_traitsIcEENS3_9allocatorIcEEEE, 
                       __ZN9MaterialX10TypedValueINS_7Vector3EE16createFromStringERKNSt3__112basic_stringIcNS3_11char_traitsIcEENS3_9allocatorIcEEEE, 
                       __ZN9MaterialX10TypedValueINS_7Vector4EE16createFromStringERKNSt3__112basic_stringIcNS3_11char_traitsIcEENS3_9allocatorIcEEEE, 
                       __ZN9MaterialX10TypedValueINS_8Matrix33EE16createFromStringERKNSt3__112basic_stringIcNS3_11char_traitsIcEENS3_9allocatorIcEEEE, 
                       __ZN9MaterialX10TypedValueINS_8Matrix44EE16createFromStringERKNSt3__112basic_stringIcNS3_11char_traitsIcEENS3_9allocatorIcEEEE, 
                       __ZN9MaterialX10TypedValueINSt3__112basic_stringIcNS1_11char_traitsIcEENS1_9allocatorIcEEEEE16createFromStringERKS7_, 
                       __ZN9MaterialX10TypedValueINSt3__16vectorINS1_12basic_stringIcNS1_11char_traitsIcEENS1_9allocatorIcEEEENS6_IS8_EEEEE16createFromStringERKS8_, 
                       __ZN9MaterialX10TypedValueINSt3__16vectorIbNS1_9allocatorIbEEEEE16createFromStringERKNS1_12basic_stringIcNS1_11char_traitsIcEENS3_IcEEEE, 
                       __ZN9MaterialX10TypedValueINSt3__16vectorIfNS1_9allocatorIfEEEEE16createFromStringERKNS1_12basic_stringIcNS1_11char_traitsIcEENS3_IcEEEE, 
                       __ZN9MaterialX10TypedValueINSt3__16vectorIiNS1_9allocatorIiEEEEE16createFromStringERKNS1_12basic_stringIcNS1_11char_traitsIcEENS3_IcEEEE, 
                       __ZN9MaterialX10TypedValueIbE16createFromStringERKNSt3__112basic_stringIcNS2_11char_traitsIcEENS2_9allocatorIcEEEE, 
                       __ZN9MaterialX10TypedValueIdE16createFromStringERKNSt3__112basic_stringIcNS2_11char_traitsIcEENS2_9allocatorIcEEEE, 
                       __ZN9MaterialX10TypedValueIfE16createFromStringERKNSt3__112basic_stringIcNS2_11char_traitsIcEENS2_9allocatorIcEEEE, 
                       __ZN9MaterialX10TypedValueIiE16createFromStringERKNSt3__112basic_stringIcNS2_11char_traitsIcEENS2_9allocatorIcEEEE, 
                       __ZN9MaterialX10TypedValueIlE16createFromStringERKNSt3__112basic_stringIcNS2_11char_traitsIcEENS2_9allocatorIcEEEE, 
                       __ZN9MaterialX13getTypeStringINS_6Color3EEERKNSt3__112basic_stringIcNS2_11char_traitsIcEENS2_9allocatorIcEEEEv, 
                       __ZN9MaterialX13getTypeStringINS_6Color4EEERKNSt3__112basic_stringIcNS2_11char_traitsIcEENS2_9allocatorIcEEEEv, 
                       __ZN9MaterialX13getTypeStringINS_7Vector2EEERKNSt3__112basic_stringIcNS2_11char_traitsIcEENS2_9allocatorIcEEEEv, 
                       __ZN9MaterialX13getTypeStringINS_7Vector3EEERKNSt3__112basic_stringIcNS2_11char_traitsIcEENS2_9allocatorIcEEEEv, 
                       __ZN9MaterialX13getTypeStringINS_7Vector4EEERKNSt3__112basic_stringIcNS2_11char_traitsIcEENS2_9allocatorIcEEEEv, 
                       __ZN9MaterialX13getTypeStringINS_8Matrix33EEERKNSt3__112basic_stringIcNS2_11char_traitsIcEENS2_9allocatorIcEEEEv, 
                       __ZN9MaterialX13getTypeStringINS_8Matrix44EEERKNSt3__112basic_stringIcNS2_11char_traitsIcEENS2_9allocatorIcEEEEv, 
                       __ZN9MaterialX13getTypeStringINSt3__112basic_stringIcNS1_11char_traitsIcEENS1_9allocatorIcEEEEEERKS7_v, 
                       __ZN9MaterialX13getTypeStringINSt3__16vectorINS1_12basic_stringIcNS1_11char_traitsIcEENS1_9allocatorIcEEEENS6_IS8_EEEEEERKS8_v, 
                       __ZN9MaterialX13getTypeStringINSt3__16vectorIbNS1_9allocatorIbEEEEEERKNS1_12basic_stringIcNS1_11char_traitsIcEENS3_IcEEEEv, 
                       __ZN9MaterialX13getTypeStringINSt3__16vectorIfNS1_9allocatorIfEEEEEERKNS1_12basic_stringIcNS1_11char_traitsIcEENS3_IcEEEEv, 
                       __ZN9MaterialX13getTypeStringINSt3__16vectorIiNS1_9allocatorIiEEEEEERKNS1_12basic_stringIcNS1_11char_traitsIcEENS3_IcEEEEv, 
                       __ZN9MaterialX13getTypeStringIbEERKNSt3__112basic_stringIcNS1_11char_traitsIcEENS1_9allocatorIcEEEEv, 
                       __ZN9MaterialX13getTypeStringIdEERKNSt3__112basic_stringIcNS1_11char_traitsIcEENS1_9allocatorIcEEEEv, 
                       __ZN9MaterialX13getTypeStringIfEERKNSt3__112basic_stringIcNS1_11char_traitsIcEENS1_9allocatorIcEEEEv, 
                       __ZN9MaterialX13getTypeStringIiEERKNSt3__112basic_stringIcNS1_11char_traitsIcEENS1_9allocatorIcEEEEv, 
                       __ZN9MaterialX13getTypeStringIlEERKNSt3__112basic_stringIcNS1_11char_traitsIcEENS1_9allocatorIcEEEEv, 
                       __ZN9MaterialX13toValueStringINS_6Color3EEENSt3__112basic_stringIcNS2_11char_traitsIcEENS2_9allocatorIcEEEERKT_, 
                       __ZN9MaterialX13toValueStringINS_6Color4EEENSt3__112basic_stringIcNS2_11char_traitsIcEENS2_9allocatorIcEEEERKT_, 
                       __ZN9MaterialX13toValueStringINS_7Vector2EEENSt3__112basic_stringIcNS2_11char_traitsIcEENS2_9allocatorIcEEEERKT_, 
                       __ZN9MaterialX13toValueStringINS_7Vector3EEENSt3__112basic_stringIcNS2_11char_traitsIcEENS2_9allocatorIcEEEERKT_, 
                       __ZN9MaterialX13toValueStringINS_7Vector4EEENSt3__112basic_stringIcNS2_11char_traitsIcEENS2_9allocatorIcEEEERKT_, 
                       __ZN9MaterialX13toValueStringINS_8Matrix33EEENSt3__112basic_stringIcNS2_11char_traitsIcEENS2_9allocatorIcEEEERKT_, 
                       __ZN9MaterialX13toValueStringINS_8Matrix44EEENSt3__112basic_stringIcNS2_11char_traitsIcEENS2_9allocatorIcEEEERKT_, 
                       __ZN9MaterialX13toValueStringINSt3__112basic_stringIcNS1_11char_traitsIcEENS1_9allocatorIcEEEEEES7_RKT_, 
                       __ZN9MaterialX13toValueStringINSt3__16vectorINS1_12basic_stringIcNS1_11char_traitsIcEENS1_9allocatorIcEEEENS6_IS8_EEEEEES8_RKT_, 
                       __ZN9MaterialX13toValueStringINSt3__16vectorIbNS1_9allocatorIbEEEEEENS1_12basic_stringIcNS1_11char_traitsIcEENS3_IcEEEERKT_, 
                       __ZN9MaterialX13toValueStringINSt3__16vectorIfNS1_9allocatorIfEEEEEENS1_12basic_stringIcNS1_11char_traitsIcEENS3_IcEEEERKT_, 
                       __ZN9MaterialX13toValueStringINSt3__16vectorIiNS1_9allocatorIiEEEEEENS1_12basic_stringIcNS1_11char_traitsIcEENS3_IcEEEERKT_, 
                       __ZN9MaterialX13toValueStringIbEENSt3__112basic_stringIcNS1_11char_traitsIcEENS1_9allocatorIcEEEERKT_, 
                       __ZN9MaterialX13toValueStringIdEENSt3__112basic_stringIcNS1_11char_traitsIcEENS1_9allocatorIcEEEERKT_, 
                       __ZN9MaterialX13toValueStringIfEENSt3__112basic_stringIcNS1_11char_traitsIcEENS1_9allocatorIcEEEERKT_, 
                       __ZN9MaterialX13toValueStringIiEENSt3__112basic_stringIcNS1_11char_traitsIcEENS1_9allocatorIcEEEERKT_, 
                       __ZN9MaterialX13toValueStringIlEENSt3__112basic_stringIcNS1_11char_traitsIcEENS1_9allocatorIcEEEERKT_, 
                       __ZN9MaterialX15fromValueStringINS_6Color3EEET_RKNSt3__112basic_stringIcNS3_11char_traitsIcEENS3_9allocatorIcEEEE, 
                       __ZN9MaterialX15fromValueStringINS_6Color4EEET_RKNSt3__112basic_stringIcNS3_11char_traitsIcEENS3_9allocatorIcEEEE, 
                       __ZN9MaterialX15fromValueStringINS_7Vector2EEET_RKNSt3__112basic_stringIcNS3_11char_traitsIcEENS3_9allocatorIcEEEE, 
                       __ZN9MaterialX15fromValueStringINS_7Vector3EEET_RKNSt3__112basic_stringIcNS3_11char_traitsIcEENS3_9allocatorIcEEEE, 
                       __ZN9MaterialX15fromValueStringINS_7Vector4EEET_RKNSt3__112basic_stringIcNS3_11char_traitsIcEENS3_9allocatorIcEEEE, 
                       __ZN9MaterialX15fromValueStringINS_8Matrix33EEET_RKNSt3__112basic_stringIcNS3_11char_traitsIcEENS3_9allocatorIcEEEE, 
                       __ZN9MaterialX15fromValueStringINS_8Matrix44EEET_RKNSt3__112basic_stringIcNS3_11char_traitsIcEENS3_9allocatorIcEEEE, 
                       __ZN9MaterialX15fromValueStringINSt3__112basic_stringIcNS1_11char_traitsIcEENS1_9allocatorIcEEEEEET_RKS7_, 
                       __ZN9MaterialX15fromValueStringINSt3__16vectorINS1_12basic_stringIcNS1_11char_traitsIcEENS1_9allocatorIcEEEENS6_IS8_EEEEEET_RKS8_, 
                       __ZN9MaterialX15fromValueStringINSt3__16vectorIbNS1_9allocatorIbEEEEEET_RKNS1_12basic_stringIcNS1_11char_traitsIcEENS3_IcEEEE, 
                       __ZN9MaterialX15fromValueStringINSt3__16vectorIfNS1_9allocatorIfEEEEEET_RKNS1_12basic_stringIcNS1_11char_traitsIcEENS3_IcEEEE, 
                       __ZN9MaterialX15fromValueStringINSt3__16vectorIiNS1_9allocatorIiEEEEEET_RKNS1_12basic_stringIcNS1_11char_traitsIcEENS3_IcEEEE, 
                       __ZN9MaterialX15fromValueStringIbEET_RKNSt3__112basic_stringIcNS2_11char_traitsIcEENS2_9allocatorIcEEEE, 
                       __ZN9MaterialX15fromValueStringIdEET_RKNSt3__112basic_stringIcNS2_11char_traitsIcEENS2_9allocatorIcEEEE, 
                       __ZN9MaterialX15fromValueStringIfEET_RKNSt3__112basic_stringIcNS2_11char_traitsIcEENS2_9allocatorIcEEEE, 
                       __ZN9MaterialX15fromValueStringIiEET_RKNSt3__112basic_stringIcNS2_11char_traitsIcEENS2_9allocatorIcEEEE, 
                       __ZN9MaterialX15fromValueStringIlEET_RKNSt3__112basic_stringIcNS2_11char_traitsIcEENS2_9allocatorIcEEEE, 
                       __ZN9MaterialX7Element13createElementINS_10CollectionEEENSt3__110shared_ptrIS0_EES5_RKNS3_12basic_stringIcNS3_11char_traitsIcEENS3_9allocatorIcEEEE, 
                       __ZN9MaterialX7Element13createElementINS_10VariantSetEEENSt3__110shared_ptrIS0_EES5_RKNS3_12basic_stringIcNS3_11char_traitsIcEENS3_9allocatorIcEEEE, 
                       __ZN9MaterialX7Element13createElementINS_10VisibilityEEENSt3__110shared_ptrIS0_EES5_RKNS3_12basic_stringIcNS3_11char_traitsIcEENS3_9allocatorIcEEEE, 
                       __ZN9MaterialX7Element13createElementINS_11GeomPropDefEEENSt3__110shared_ptrIS0_EES5_RKNS3_12basic_stringIcNS3_11char_traitsIcEENS3_9allocatorIcEEEE, 
                       __ZN9MaterialX7Element13createElementINS_11PropertySetEEENSt3__110shared_ptrIS0_EES5_RKNS3_12basic_stringIcNS3_11char_traitsIcEENS3_9allocatorIcEEEE, 
                       __ZN9MaterialX7Element13createElementINS_11UnitTypeDefEEENSt3__110shared_ptrIS0_EES5_RKNS3_12basic_stringIcNS3_11char_traitsIcEENS3_9allocatorIcEEEE, 
                       __ZN9MaterialX7Element13createElementINS_12AttributeDefEEENSt3__110shared_ptrIS0_EES5_RKNS3_12basic_stringIcNS3_11char_traitsIcEENS3_9allocatorIcEEEE, 
                       __ZN9MaterialX7Element13createElementINS_13VariantAssignEEENSt3__110shared_ptrIS0_EES5_RKNS3_12basic_stringIcNS3_11char_traitsIcEENS3_9allocatorIcEEEE, 
                       __ZN9MaterialX7Element13createElementINS_14CommentElementEEENSt3__110shared_ptrIS0_EES5_RKNS3_12basic_stringIcNS3_11char_traitsIcEENS3_9allocatorIcEEEE, 
                       __ZN9MaterialX7Element13createElementINS_14GenericElementEEENSt3__110shared_ptrIS0_EES5_RKNS3_12basic_stringIcNS3_11char_traitsIcEENS3_9allocatorIcEEEE, 
                       __ZN9MaterialX7Element13createElementINS_14ImplementationEEENSt3__110shared_ptrIS0_EES5_RKNS3_12basic_stringIcNS3_11char_traitsIcEENS3_9allocatorIcEEEE, 
                       __ZN9MaterialX7Element13createElementINS_14MaterialAssignEEENSt3__110shared_ptrIS0_EES5_RKNS3_12basic_stringIcNS3_11char_traitsIcEENS3_9allocatorIcEEEE, 
                       __ZN9MaterialX7Element13createElementINS_14PropertyAssignEEENSt3__110shared_ptrIS0_EES5_RKNS3_12basic_stringIcNS3_11char_traitsIcEENS3_9allocatorIcEEEE, 
                       __ZN9MaterialX7Element13createElementINS_17PropertySetAssignEEENSt3__110shared_ptrIS0_EES5_RKNS3_12basic_stringIcNS3_11char_traitsIcEENS3_9allocatorIcEEEE, 
                       __ZN9MaterialX7Element13createElementINS_4LookEEENSt3__110shared_ptrIS0_EES5_RKNS3_12basic_stringIcNS3_11char_traitsIcEENS3_9allocatorIcEEEE, 
                       __ZN9MaterialX7Element13createElementINS_4NodeEEENSt3__110shared_ptrIS0_EES5_RKNS3_12basic_stringIcNS3_11char_traitsIcEENS3_9allocatorIcEEEE, 
                       __ZN9MaterialX7Element13createElementINS_4UnitEEENSt3__110shared_ptrIS0_EES5_RKNS3_12basic_stringIcNS3_11char_traitsIcEENS3_9allocatorIcEEEE, 
                       __ZN9MaterialX7Element13createElementINS_5InputEEENSt3__110shared_ptrIS0_EES5_RKNS3_12basic_stringIcNS3_11char_traitsIcEENS3_9allocatorIcEEEE, 
                       __ZN9MaterialX7Element13createElementINS_5TokenEEENSt3__110shared_ptrIS0_EES5_RKNS3_12basic_stringIcNS3_11char_traitsIcEENS3_9allocatorIcEEEE, 
                       __ZN9MaterialX7Element13createElementINS_6MemberEEENSt3__110shared_ptrIS0_EES5_RKNS3_12basic_stringIcNS3_11char_traitsIcEENS3_9allocatorIcEEEE, 
                       __ZN9MaterialX7Element13createElementINS_6OutputEEENSt3__110shared_ptrIS0_EES5_RKNS3_12basic_stringIcNS3_11char_traitsIcEENS3_9allocatorIcEEEE, 
                       __ZN9MaterialX7Element13createElementINS_7NodeDefEEENSt3__110shared_ptrIS0_EES5_RKNS3_12basic_stringIcNS3_11char_traitsIcEENS3_9allocatorIcEEEE, 
                       __ZN9MaterialX7Element13createElementINS_7TypeDefEEENSt3__110shared_ptrIS0_EES5_RKNS3_12basic_stringIcNS3_11char_traitsIcEENS3_9allocatorIcEEEE, 
                       __ZN9MaterialX7Element13createElementINS_7UnitDefEEENSt3__110shared_ptrIS0_EES5_RKNS3_12basic_stringIcNS3_11char_traitsIcEENS3_9allocatorIcEEEE, 
                       __ZN9MaterialX7Element13createElementINS_7VariantEEENSt3__110shared_ptrIS0_EES5_RKNS3_12basic_stringIcNS3_11char_traitsIcEENS3_9allocatorIcEEEE, 
                       __ZN9MaterialX7Element13createElementINS_8BackdropEEENSt3__110shared_ptrIS0_EES5_RKNS3_12basic_stringIcNS3_11char_traitsIcEENS3_9allocatorIcEEEE, 
                       __ZN9MaterialX7Element13createElementINS_8DocumentEEENSt3__110shared_ptrIS0_EES5_RKNS3_12basic_stringIcNS3_11char_traitsIcEENS3_9allocatorIcEEEE, 
                       __ZN9MaterialX7Element13createElementINS_8GeomInfoEEENSt3__110shared_ptrIS0_EES5_RKNS3_12basic_stringIcNS3_11char_traitsIcEENS3_9allocatorIcEEEE, 
                       __ZN9MaterialX7Element13createElementINS_8GeomPropEEENSt3__110shared_ptrIS0_EES5_RKNS3_12basic_stringIcNS3_11char_traitsIcEENS3_9allocatorIcEEEE, 
                       __ZN9MaterialX7Element13createElementINS_8PropertyEEENSt3__110shared_ptrIS0_EES5_RKNS3_12basic_stringIcNS3_11char_traitsIcEENS3_9allocatorIcEEEE, 
                       __ZN9MaterialX7Element13createElementINS_9LookGroupEEENSt3__110shared_ptrIS0_EES5_RKNS3_12basic_stringIcNS3_11char_traitsIcEENS3_9allocatorIcEEEE, 
                       __ZN9MaterialX7Element13createElementINS_9NodeGraphEEENSt3__110shared_ptrIS0_EES5_RKNS3_12basic_stringIcNS3_11char_traitsIcEENS3_9allocatorIcEEEE, 
                       __ZN9MaterialX7Element13createElementINS_9TargetDefEEENSt3__110shared_ptrIS0_EES5_RKNS3_12basic_stringIcNS3_11char_traitsIcEENS3_9allocatorIcEEEE, 
                       __ZN9MaterialX7Element3asAINS_10CollectionEEENSt3__110shared_ptrIT_EEv, 
                       __ZN9MaterialX7Element3asAINS_10VariantSetEEENSt3__110shared_ptrIT_EEv, 
                       __ZN9MaterialX7Element3asAINS_10VisibilityEEENSt3__110shared_ptrIT_EEv, 
                       __ZN9MaterialX7Element3asAINS_11GeomElementEEENSt3__110shared_ptrIT_EEv, 
                       __ZN9MaterialX7Element3asAINS_11GeomPropDefEEENSt3__110shared_ptrIT_EEv, 
                       __ZN9MaterialX7Element3asAINS_11PortElementEEENSt3__110shared_ptrIT_EEv, 
                       __ZN9MaterialX7Element3asAINS_11PropertySetEEENSt3__110shared_ptrIT_EEv, 
                       __ZN9MaterialX7Element3asAINS_11UnitTypeDefEEENSt3__110shared_ptrIT_EEv, 
                       __ZN9MaterialX7Element3asAINS_12AttributeDefEEENSt3__110shared_ptrIT_EEv, 
                       __ZN9MaterialX7Element3asAINS_12GraphElementEEENSt3__110shared_ptrIT_EEv, 
                       __ZN9MaterialX7Element3asAINS_12TypedElementEEENSt3__110shared_ptrIT_EEv, 
                       __ZN9MaterialX7Element3asAINS_12ValueElementEEENSt3__110shared_ptrIT_EEv, 
                       __ZN9MaterialX7Element3asAINS_13VariantAssignEEENSt3__110shared_ptrIT_EEv, 
                       __ZN9MaterialX7Element3asAINS_14CommentElementEEENSt3__110shared_ptrIT_EEv, 
                       __ZN9MaterialX7Element3asAINS_14GenericElementEEENSt3__110shared_ptrIT_EEv, 
                       __ZN9MaterialX7Element3asAINS_14ImplementationEEENSt3__110shared_ptrIT_EEv, 
                       __ZN9MaterialX7Element3asAINS_14MaterialAssignEEENSt3__110shared_ptrIT_EEv, 
                       __ZN9MaterialX7Element3asAINS_14PropertyAssignEEENSt3__110shared_ptrIT_EEv, 
                       __ZN9MaterialX7Element3asAINS_16InterfaceElementEEENSt3__110shared_ptrIT_EEv, 
                       __ZN9MaterialX7Element3asAINS_17PropertySetAssignEEENSt3__110shared_ptrIT_EEv, 
                       __ZN9MaterialX7Element3asAINS_4LookEEENSt3__110shared_ptrIT_EEv, 
                       __ZN9MaterialX7Element3asAINS_4NodeEEENSt3__110shared_ptrIT_EEv, 
                       __ZN9MaterialX7Element3asAINS_4UnitEEENSt3__110shared_ptrIT_EEv, 
                       __ZN9MaterialX7Element3asAINS_5InputEEENSt3__110shared_ptrIT_EEv, 
                       __ZN9MaterialX7Element3asAINS_5TokenEEENSt3__110shared_ptrIT_EEv, 
                       __ZN9MaterialX7Element3asAINS_6MemberEEENSt3__110shared_ptrIT_EEv, 
                       __ZN9MaterialX7Element3asAINS_6OutputEEENSt3__110shared_ptrIT_EEv, 
                       __ZN9MaterialX7Element3asAINS_7NodeDefEEENSt3__110shared_ptrIT_EEv, 
                       __ZN9MaterialX7Element3asAINS_7TypeDefEEENSt3__110shared_ptrIT_EEv, 
                       __ZN9MaterialX7Element3asAINS_7UnitDefEEENSt3__110shared_ptrIT_EEv, 
                       __ZN9MaterialX7Element3asAINS_7VariantEEENSt3__110shared_ptrIT_EEv, 
                       __ZN9MaterialX7Element3asAINS_8BackdropEEENSt3__110shared_ptrIT_EEv, 
                       __ZN9MaterialX7Element3asAINS_8DocumentEEENSt3__110shared_ptrIT_EEv, 
                       __ZN9MaterialX7Element3asAINS_8GeomInfoEEENSt3__110shared_ptrIT_EEv, 
                       __ZN9MaterialX7Element3asAINS_8GeomPropEEENSt3__110shared_ptrIT_EEv, 
                       __ZN9MaterialX7Element3asAINS_8PropertyEEENSt3__110shared_ptrIT_EEv, 
                       __ZN9MaterialX7Element3asAINS_9LookGroupEEENSt3__110shared_ptrIT_EEv, 
                       __ZN9MaterialX7Element3asAINS_9NodeGraphEEENSt3__110shared_ptrIT_EEv, 
                       __ZN9MaterialX7Element3asAINS_9TargetDefEEENSt3__110shared_ptrIT_EEv, 
                       __ZN9MaterialX7Element3asAIS0_EENSt3__110shared_ptrIT_EEv, 
                       __ZN9MaterialX8Matrix338IDENTITYE, __ZN9MaterialX8Matrix448IDENTITYE, 
                       __ZNK9MaterialX5Value3asAINS_6Color3EEERKT_v, __ZNK9MaterialX5Value3asAINS_6Color4EEERKT_v, 
                       __ZNK9MaterialX5Value3asAINS_7Vector2EEERKT_v, __ZNK9MaterialX5Value3asAINS_7Vector3EEERKT_v, 
                       __ZNK9MaterialX5Value3asAINS_7Vector4EEERKT_v, __ZNK9MaterialX5Value3asAINS_8Matrix33EEERKT_v, 
                       __ZNK9MaterialX5Value3asAINS_8Matrix44EEERKT_v, __ZNK9MaterialX5Value3asAINSt3__112basic_stringIcNS2_11char_traitsIcEENS2_9allocatorIcEEEEEERKT_v, 
                       __ZNK9MaterialX5Value3asAINSt3__16vectorINS2_12basic_stringIcNS2_11char_traitsIcEENS2_9allocatorIcEEEENS7_IS9_EEEEEERKT_v, 
                       __ZNK9MaterialX5Value3asAINSt3__16vectorIbNS2_9allocatorIbEEEEEERKT_v, 
                       __ZNK9MaterialX5Value3asAINSt3__16vectorIfNS2_9allocatorIfEEEEEERKT_v, 
                       __ZNK9MaterialX5Value3asAINSt3__16vectorIiNS2_9allocatorIiEEEEEERKT_v, 
                       __ZNK9MaterialX5Value3asAIbEERKT_v, __ZNK9MaterialX5Value3asAIdEERKT_v, 
                       __ZNK9MaterialX5Value3asAIfEERKT_v, __ZNK9MaterialX5Value3asAIiEERKT_v, 
                       __ZNK9MaterialX5Value3asAIlEERKT_v, __ZNK9MaterialX5Value3isAINS_6Color3EEEbv, 
                       __ZNK9MaterialX5Value3isAINS_6Color4EEEbv, __ZNK9MaterialX5Value3isAINS_7Vector2EEEbv, 
                       __ZNK9MaterialX5Value3isAINS_7Vector3EEEbv, __ZNK9MaterialX5Value3isAINS_7Vector4EEEbv, 
                       __ZNK9MaterialX5Value3isAINS_8Matrix33EEEbv, __ZNK9MaterialX5Value3isAINS_8Matrix44EEEbv, 
                       __ZNK9MaterialX5Value3isAINSt3__112basic_stringIcNS2_11char_traitsIcEENS2_9allocatorIcEEEEEEbv, 
                       __ZNK9MaterialX5Value3isAINSt3__16vectorINS2_12basic_stringIcNS2_11char_traitsIcEENS2_9allocatorIcEEEENS7_IS9_EEEEEEbv, 
                       __ZNK9MaterialX5Value3isAINSt3__16vectorIbNS2_9allocatorIbEEEEEEbv, 
                       __ZNK9MaterialX5Value3isAINSt3__16vectorIfNS2_9allocatorIfEEEEEEbv, 
                       __ZNK9MaterialX5Value3isAINSt3__16vectorIiNS2_9allocatorIiEEEEEEbv, 
                       __ZNK9MaterialX5Value3isAIbEEbv, __ZNK9MaterialX5Value3isAIdEEbv, 
                       __ZNK9MaterialX5Value3isAIfEEbv, __ZNK9MaterialX5Value3isAIiEEbv, 
                       __ZNK9MaterialX5Value3isAIlEEbv, __ZNK9MaterialX7Element3asAINS_10CollectionEEENSt3__110shared_ptrIKT_EEv, 
                       __ZNK9MaterialX7Element3asAINS_10VariantSetEEENSt3__110shared_ptrIKT_EEv, 
                       __ZNK9MaterialX7Element3asAINS_10VisibilityEEENSt3__110shared_ptrIKT_EEv, 
                       __ZNK9MaterialX7Element3asAINS_11GeomElementEEENSt3__110shared_ptrIKT_EEv, 
                       __ZNK9MaterialX7Element3asAINS_11GeomPropDefEEENSt3__110shared_ptrIKT_EEv, 
                       __ZNK9MaterialX7Element3asAINS_11PortElementEEENSt3__110shared_ptrIKT_EEv, 
                       __ZNK9MaterialX7Element3asAINS_11PropertySetEEENSt3__110shared_ptrIKT_EEv, 
                       __ZNK9MaterialX7Element3asAINS_11UnitTypeDefEEENSt3__110shared_ptrIKT_EEv, 
                       __ZNK9MaterialX7Element3asAINS_12AttributeDefEEENSt3__110shared_ptrIKT_EEv, 
                       __ZNK9MaterialX7Element3asAINS_12GraphElementEEENSt3__110shared_ptrIKT_EEv, 
                       __ZNK9MaterialX7Element3asAINS_12TypedElementEEENSt3__110shared_ptrIKT_EEv, 
                       __ZNK9MaterialX7Element3asAINS_12ValueElementEEENSt3__110shared_ptrIKT_EEv, 
                       __ZNK9MaterialX7Element3asAINS_13VariantAssignEEENSt3__110shared_ptrIKT_EEv, 
                       __ZNK9MaterialX7Element3asAINS_14CommentElementEEENSt3__110shared_ptrIKT_EEv, 
                       __ZNK9MaterialX7Element3asAINS_14GenericElementEEENSt3__110shared_ptrIKT_EEv, 
                       __ZNK9MaterialX7Element3asAINS_14ImplementationEEENSt3__110shared_ptrIKT_EEv, 
                       __ZNK9MaterialX7Element3asAINS_14MaterialAssignEEENSt3__110shared_ptrIKT_EEv, 
                       __ZNK9MaterialX7Element3asAINS_14PropertyAssignEEENSt3__110shared_ptrIKT_EEv, 
                       __ZNK9MaterialX7Element3asAINS_16InterfaceElementEEENSt3__110shared_ptrIKT_EEv, 
                       __ZNK9MaterialX7Element3asAINS_17PropertySetAssignEEENSt3__110shared_ptrIKT_EEv, 
                       __ZNK9MaterialX7Element3asAINS_4LookEEENSt3__110shared_ptrIKT_EEv, 
                       __ZNK9MaterialX7Element3asAINS_4NodeEEENSt3__110shared_ptrIKT_EEv, 
                       __ZNK9MaterialX7Element3asAINS_4UnitEEENSt3__110shared_ptrIKT_EEv, 
                       __ZNK9MaterialX7Element3asAINS_5InputEEENSt3__110shared_ptrIKT_EEv, 
                       __ZNK9MaterialX7Element3asAINS_5TokenEEENSt3__110shared_ptrIKT_EEv, 
                       __ZNK9MaterialX7Element3asAINS_6MemberEEENSt3__110shared_ptrIKT_EEv, 
                       __ZNK9MaterialX7Element3asAINS_6OutputEEENSt3__110shared_ptrIKT_EEv, 
                       __ZNK9MaterialX7Element3asAINS_7NodeDefEEENSt3__110shared_ptrIKT_EEv, 
                       __ZNK9MaterialX7Element3asAINS_7TypeDefEEENSt3__110shared_ptrIKT_EEv, 
                       __ZNK9MaterialX7Element3asAINS_7UnitDefEEENSt3__110shared_ptrIKT_EEv, 
                       __ZNK9MaterialX7Element3asAINS_7VariantEEENSt3__110shared_ptrIKT_EEv, 
                       __ZNK9MaterialX7Element3asAINS_8BackdropEEENSt3__110shared_ptrIKT_EEv, 
                       __ZNK9MaterialX7Element3asAINS_8DocumentEEENSt3__110shared_ptrIKT_EEv, 
                       __ZNK9MaterialX7Element3asAINS_8GeomInfoEEENSt3__110shared_ptrIKT_EEv, 
                       __ZNK9MaterialX7Element3asAINS_8GeomPropEEENSt3__110shared_ptrIKT_EEv, 
                       __ZNK9MaterialX7Element3asAINS_8PropertyEEENSt3__110shared_ptrIKT_EEv, 
                       __ZNK9MaterialX7Element3asAINS_9LookGroupEEENSt3__110shared_ptrIKT_EEv, 
                       __ZNK9MaterialX7Element3asAINS_9NodeGraphEEENSt3__110shared_ptrIKT_EEv, 
                       __ZNK9MaterialX7Element3asAINS_9TargetDefEEENSt3__110shared_ptrIKT_EEv, 
                       __ZNK9MaterialX7Element3asAIS0_EENSt3__110shared_ptrIKT_EEv, 
                       __ZZN9MaterialX13getTypeStringINS_6Color3EEERKNSt3__112basic_stringIcNS2_11char_traitsIcEENS2_9allocatorIcEEEEvE3ret, 
                       __ZZN9MaterialX13getTypeStringINS_6Color4EEERKNSt3__112basic_stringIcNS2_11char_traitsIcEENS2_9allocatorIcEEEEvE3ret, 
                       __ZZN9MaterialX13getTypeStringINS_7Vector2EEERKNSt3__112basic_stringIcNS2_11char_traitsIcEENS2_9allocatorIcEEEEvE3ret, 
                       __ZZN9MaterialX13getTypeStringINS_7Vector3EEERKNSt3__112basic_stringIcNS2_11char_traitsIcEENS2_9allocatorIcEEEEvE3ret, 
                       __ZZN9MaterialX13getTypeStringINS_7Vector4EEERKNSt3__112basic_stringIcNS2_11char_traitsIcEENS2_9allocatorIcEEEEvE3ret, 
                       __ZZN9MaterialX13getTypeStringINS_8Matrix33EEERKNSt3__112basic_stringIcNS2_11char_traitsIcEENS2_9allocatorIcEEEEvE3ret, 
                       __ZZN9MaterialX13getTypeStringINS_8Matrix44EEERKNSt3__112basic_stringIcNS2_11char_traitsIcEENS2_9allocatorIcEEEEvE3ret, 
                       __ZZN9MaterialX13getTypeStringINSt3__112basic_stringIcNS1_11char_traitsIcEENS1_9allocatorIcEEEEEERKS7_vE3ret, 
                       __ZZN9MaterialX13getTypeStringINSt3__16vectorINS1_12basic_stringIcNS1_11char_traitsIcEENS1_9allocatorIcEEEENS6_IS8_EEEEEERKS8_vE3ret, 
                       __ZZN9MaterialX13getTypeStringINSt3__16vectorIbNS1_9allocatorIbEEEEEERKNS1_12basic_stringIcNS1_11char_traitsIcEENS3_IcEEEEvE3ret, 
                       __ZZN9MaterialX13getTypeStringINSt3__16vectorIfNS1_9allocatorIfEEEEEERKNS1_12basic_stringIcNS1_11char_traitsIcEENS3_IcEEEEvE3ret, 
                       __ZZN9MaterialX13getTypeStringINSt3__16vectorIiNS1_9allocatorIiEEEEEERKNS1_12basic_stringIcNS1_11char_traitsIcEENS3_IcEEEEvE3ret, 
                       __ZZN9MaterialX13getTypeStringIbEERKNSt3__112basic_stringIcNS1_11char_traitsIcEENS1_9allocatorIcEEEEvE3ret, 
                       __ZZN9MaterialX13getTypeStringIdEERKNSt3__112basic_stringIcNS1_11char_traitsIcEENS1_9allocatorIcEEEEvE3ret, 
                       __ZZN9MaterialX13getTypeStringIfEERKNSt3__112basic_stringIcNS1_11char_traitsIcEENS1_9allocatorIcEEEEvE3ret, 
                       __ZZN9MaterialX13getTypeStringIiEERKNSt3__112basic_stringIcNS1_11char_traitsIcEENS1_9allocatorIcEEEEvE3ret, 
                       __ZZN9MaterialX13getTypeStringIlEERKNSt3__112basic_stringIcNS1_11char_traitsIcEENS1_9allocatorIcEEEEvE3ret ]
...
