--- !tapi-tbd
tbd-version:     4
targets:         [ x86_64-macos, arm64-macos, arm64e-macos ]
install-name:    '/System/Library/PrivateFrameworks/GraphComputeRT.framework/Versions/A/GraphComputeRT'
current-version: 2.2.4
compatibility-version: 2.2.4
exports:
  - targets:         [ x86_64-macos ]
    symbols:         [ __ZN2gc10FileTarget7logImplENS_6Logger9eSeverityEPKcP13__va_list_tag, 
                       __ZN2gc11OsLogTarget7logImplENS_6Logger9eSeverityEPKcP13__va_list_tag, 
                       __ZN2gc13ConsoleTarget7logImplENS_6Logger9eSeverityEPKcP13__va_list_tag, 
                       __ZN2gc6Logger15logInCategoryVAENS0_9eSeverityEPKcS3_P13__va_list_tag ]
    weak-symbols:    [ __ZTIFN2gc4ExprES0_E, __ZTIFN2gc4ExprES0_S0_E, __ZTIFN2gc4StmtERKNS_6TargetES0_E, 
                       __ZTIFN2gc4lang2ad15BackpropFunctorENS0_6TensorES3_S3_E, __ZTIFdddE, 
                       __ZTIN2gc11TypedIRStmtILNS_9eStmtTypeE0EEE, __ZTIN2gc11TypedKernelINS_4lang4TileEJNS1_3est13BlockOrderingENS1_5ArrayINS3_14FactorOrderingEEERNS3_11JacobianSetERNS3_11BlockMatrixEEEE, 
                       __ZTIN2gc11TypedKernelINS_4lang4TileEJNS1_3est13BlockOrderingENS3_14FactorOrderingERNS3_8JacobianERNS3_11BlockMatrixEEEE, 
                       __ZTIN2gc11TypedKernelINS_4lang4TileEJNS1_3est14FactorOrderingERNS3_8JacobianENS1_6BufferES7_EEE, 
                       __ZTIN2gc11TypedKernelINS_4lang4TileEJNS1_3est6FactorENS1_6BufferES5_S5_NS1_5ArrayINS3_14FactorOrderingEEENS3_11VariableSetENS6_IS5_EESA_NS1_17BindableTypeArrayEEEE, 
                       __ZTIN2gc11TypedKernelINS_4lang4TileEJNS1_3est6FactorENS3_11VariableSetENS1_6BufferES6_NS1_17BindableTypeArrayEEEE, 
                       __ZTIN2gc11TypedKernelINS_4lang4TileEJNS1_3est6FactorENS3_11VariableSetENS1_6BufferES6_S6_NS1_17BindableTypeArrayEEEE, 
                       __ZTIN2gc11TypedKernelINS_4lang4TileEJNS1_3est6FactorERNS3_14FactorOrderingENS1_5ArrayINS1_6BufferEEERNS3_16BlockMatrixArrayENS3_22SchurEliminatedHessianES9_S8_S8_EEE, 
                       __ZTIN2gc11TypedKernelINS_4lang4TileEJNS1_3est8VariableEEEE, 
                       __ZTIN2gc11TypedKernelINS_4lang4TileEJNS1_3est8VariableENS1_6ScalarEEEE, 
                       __ZTIN2gc11TypedKernelINS_4lang4TileEJNS1_5ArrayINS1_3est13BlockOrderingEEENS3_INS4_14FactorOrderingEEERNS4_11JacobianSetERNS4_16BlockMatrixArrayEEEE, 
                       __ZTIN2gc11TypedKernelINS_4lang4TileEJNS1_5ArrayINS1_6BufferEEES5_EEE, 
                       __ZTIN2gc11TypedKernelINS_4lang4TileEJNS1_6BufferEEEE, __ZTIN2gc11TypedKernelINS_4lang4TileEJNS1_6BufferENS1_3est6FactorERNS4_11JacobianSetENS1_5ArrayIS3_EENS8_INS4_14FactorOrderingEEERNS4_16BlockMatrixArrayES9_EEE, 
                       __ZTIN2gc11TypedKernelINS_4lang4TileEJNS1_6BufferENS1_3est8VariableEEEE, 
                       __ZTIN2gc11TypedKernelINS_4lang4TileEJNS1_6BufferENS1_5ArrayINS1_3est8VariableEEEEEE, 
                       __ZTIN2gc11TypedKernelINS_4lang4TileEJNS1_6BufferENS1_5ArrayIS3_EES5_NS1_3est6FactorERNS6_14FactorOrderingENS6_22SchurEliminatedHessianES3_EEE, 
                       __ZTIN2gc11TypedKernelINS_4lang4TileEJNS1_6BufferENS1_6ScalarES3_EEE, 
                       __ZTIN2gc11TypedKernelINS_4lang4TileEJNS1_6BufferENS1_6ScalarES3_S3_EEE, 
                       __ZTIN2gc11TypedKernelINS_4lang4TileEJNS1_6BufferERNS1_3est8JacobianENS4_14FactorOrderingENS1_6ScalarES3_S3_EEE, 
                       __ZTIN2gc11TypedKernelINS_4lang4TileEJNS1_6BufferERNS1_3est8JacobianENS4_14FactorOrderingES3_S3_S3_S3_S3_EEE, 
                       __ZTIN2gc11TypedKernelINS_4lang4TileEJNS1_6BufferERNS1_3est8JacobianENS4_6FactorERNS4_11JacobianSetERNS4_14FactorOrderingENS1_5ArrayIS3_EENSC_ISA_EERNS4_16BlockMatrixArrayENS4_22SchurEliminatedHessianESD_S3_S3_EEE, 
                       __ZTIN2gc11TypedKernelINS_4lang4TileEJNS1_6BufferERNS1_3est8JacobianES3_S3_EEE, 
                       __ZTIN2gc11TypedKernelINS_4lang4TileEJNS1_6BufferES3_EEE, 
                       __ZTIN2gc11TypedKernelINS_4lang4TileEJNS1_6BufferES3_NS1_5ArrayINS1_3est8VariableEEEEEE, 
                       __ZTIN2gc11TypedKernelINS_4lang4TileEJNS1_6BufferES3_NS1_6ScalarES4_S4_S4_S4_S3_S3_EEE, 
                       __ZTIN2gc11TypedKernelINS_4lang4TileEJNS1_6BufferES3_NS1_6VectorES3_EEE, 
                       __ZTIN2gc11TypedKernelINS_4lang4TileEJNS1_6BufferES3_RNS1_3est8JacobianES3_S3_EEE, 
                       __ZTIN2gc11TypedKernelINS_4lang4TileEJNS1_6BufferES3_S3_EEE, 
                       __ZTIN2gc11TypedKernelINS_4lang4TileEJNS1_6BufferES3_S3_NS1_6ScalarEEEE, 
                       __ZTIN2gc11TypedKernelINS_4lang4TileEJNS1_6BufferES3_S3_NS1_6VectorES3_S3_EEE, 
                       __ZTIN2gc11TypedKernelINS_4lang4TileEJNS1_6BufferES3_S3_S3_EEE, 
                       __ZTIN2gc11TypedKernelINS_4lang4TileEJNS1_6BufferES3_S3_S3_S3_NS1_6ScalarEEEE, 
                       __ZTIN2gc11TypedKernelINS_4lang4TileEJNS1_6BufferES3_S3_S3_S3_S3_S3_EEE, 
                       __ZTIN2gc11TypedKernelINS_4lang4TileEJNS1_6ScalarENS1_6BufferES4_EEE, 
                       __ZTIN2gc11TypedKernelINS_4lang4TileEJNS1_6ScalarERNS1_3est11BlockMatrixEEEE, 
                       __ZTIN2gc11TypedKernelINS_4lang4TileEJRNS1_3est11BlockMatrixEEEE, 
                       __ZTIN2gc11TypedKernelINS_4lang4TileEJRNS1_3est11BlockMatrixENS1_6BufferES6_EEE, 
                       __ZTIN2gc11TypedKernelINS_4lang4TileEJRNS1_3est11BlockMatrixENS1_6BufferES6_S6_EEE, 
                       __ZTIN2gc11TypedKernelINS_4lang4TileEJRNS1_3est11BlockMatrixENS1_6BufferES6_S6_RS6_EEE, 
                       __ZTIN2gc11TypedKernelINS_4lang4TileEJRNS1_3est11JacobianSetENS1_5ArrayINS3_14FactorOrderingEEENS6_INS1_6BufferEEESA_S9_EEE, 
                       __ZTIN2gc11TypedKernelINS_4lang4TileEJRNS1_3est14FactorOrderingENS1_6BufferERNS3_8JacobianES6_S6_EEE, 
                       __ZTIN2gc11TypedKernelINS_4lang4TileEJRNS1_3est14FactorOrderingERNS3_8JacobianENS1_6BufferERS8_EEE, 
                       __ZTIN2gc11TypedKernelINS_4lang4TileEJRNS1_3est14FactorOrderingERNS3_8JacobianENS1_6BufferES8_EEE, 
                       __ZTIN2gc11TypedKernelINS_4lang4TileEJRNS1_3est14FactorOrderingERNS3_8JacobianENS1_6BufferES8_S8_EEE, 
                       __ZTIN2gc11TypedKernelINS_4lang4TileEJRNS1_3est14FactorOrderingERNS3_8JacobianENS1_6BufferES8_S8_S8_EEE, 
                       __ZTIN2gc11TypedKernelINS_4lang4TileEJRNS1_3est8JacobianENS1_6BufferES6_S6_RS6_EEE, 
                       __ZTIN2gc11TypedKernelINS_4lang4TileEJRNS1_3est8JacobianENS1_6BufferES6_S6_S6_S6_EEE, 
                       __ZTIN2gc11TypedKernelINS_4lang4TileEJRNS1_3est8JacobianENS3_14FactorOrderingENS1_6BufferES7_EEE, 
                       __ZTIN2gc11TypedKernelINS_4lang4TileEJRNS1_3est8JacobianENS3_14FactorOrderingENS1_6BufferES7_S7_EEE, 
                       __ZTIN2gc11TypedKernelINS_4lang4TileEJRNS1_3est8JacobianENS3_14FactorOrderingENS1_6BufferES7_S7_S7_EEE, 
                       __ZTIN2gc11TypedKernelINS_4lang4TileEJRNS1_3est8JacobianENS3_14FactorOrderingES6_NS1_6BufferES7_S7_S7_S7_S7_EEE, 
                       __ZTIN2gc11TypedKernelINS_4lang4TileEJRNS1_6ScalarENS1_6BufferEEEE, 
                       __ZTIN2gc11smallmatrix15MultiplyVariantE, __ZTIN2gc11smallmatrix16TransposeVariantE, 
                       __ZTIN2gc12BindableTypeE, __ZTIN2gc13AutoSchedulerE, __ZTIN2gc14BufferRegistryE, 
                       __ZTIN2gc16BindableArgumentINS_4lang17BindableTypeArrayEEE, 
                       __ZTIN2gc16BindableArgumentINS_4lang3est11BlockMatrixEEE, 
                       __ZTIN2gc16BindableArgumentINS_4lang3est11JacobianSetEEE, 
                       __ZTIN2gc16BindableArgumentINS_4lang3est11VariableSetEEE, 
                       __ZTIN2gc16BindableArgumentINS_4lang3est12CostFunctionEEE, 
                       __ZTIN2gc16BindableArgumentINS_4lang3est13BlockOrderingEEE, 
                       __ZTIN2gc16BindableArgumentINS_4lang3est14FactorOrderingEEE, 
                       __ZTIN2gc16BindableArgumentINS_4lang3est16BlockMatrixArrayEEE, 
                       __ZTIN2gc16BindableArgumentINS_4lang3est22SchurEliminatedHessianEEE, 
                       __ZTIN2gc16BindableArgumentINS_4lang3est6FactorEEE, __ZTIN2gc16BindableArgumentINS_4lang3est8JacobianEEE, 
                       __ZTIN2gc16BindableArgumentINS_4lang3est8VariableEEE, __ZTIN2gc16BindableArgumentINS_4lang5ArrayINS1_3est13BlockOrderingEEEEE, 
                       __ZTIN2gc16BindableArgumentINS_4lang5ArrayINS1_3est14FactorOrderingEEEEE, 
                       __ZTIN2gc16BindableArgumentINS_4lang5ArrayINS1_3est8VariableEEEEE, 
                       __ZTIN2gc16BindableArgumentINS_4lang5ArrayINS1_6BufferEEEEE, 
                       __ZTIN2gc16BindableArgumentINS_4lang6BufferEEE, __ZTIN2gc16BindableArgumentINS_4lang6ScalarEEE, 
                       __ZTIN2gc16BindableArgumentINS_4lang6VectorEEE, __ZTIN2gc16FunctionArgumentINS_4lang17BindableTypeArrayES2_EE, 
                       __ZTIN2gc16FunctionArgumentINS_4lang3est11VariableSetES3_EE, 
                       __ZTIN2gc16FunctionArgumentINS_4lang3est13BlockOrderingES3_EE, 
                       __ZTIN2gc16FunctionArgumentINS_4lang3est14FactorOrderingES3_EE, 
                       __ZTIN2gc16FunctionArgumentINS_4lang3est22SchurEliminatedHessianES3_EE, 
                       __ZTIN2gc16FunctionArgumentINS_4lang3est6FactorES3_EE, __ZTIN2gc16FunctionArgumentINS_4lang3est8VariableES3_EE, 
                       __ZTIN2gc16FunctionArgumentINS_4lang5ArrayINS1_3est13BlockOrderingEEES5_EE, 
                       __ZTIN2gc16FunctionArgumentINS_4lang5ArrayINS1_3est14FactorOrderingEEES5_EE, 
                       __ZTIN2gc16FunctionArgumentINS_4lang5ArrayINS1_3est8VariableEEES5_EE, 
                       __ZTIN2gc16FunctionArgumentINS_4lang5ArrayINS1_6BufferEEES4_EE, 
                       __ZTIN2gc16FunctionArgumentINS_4lang6BufferES2_EE, __ZTIN2gc16FunctionArgumentINS_4lang6ScalarES2_EE, 
                       __ZTIN2gc16FunctionArgumentINS_4lang6VectorES2_EE, __ZTIN2gc16FunctionArgumentIRNS_4lang3est11BlockMatrixES3_EE, 
                       __ZTIN2gc16FunctionArgumentIRNS_4lang3est11JacobianSetES3_EE, 
                       __ZTIN2gc16FunctionArgumentIRNS_4lang3est14FactorOrderingES3_EE, 
                       __ZTIN2gc16FunctionArgumentIRNS_4lang3est16BlockMatrixArrayES3_EE, 
                       __ZTIN2gc16FunctionArgumentIRNS_4lang3est8JacobianES3_EE, 
                       __ZTIN2gc16FunctionArgumentIRNS_4lang6BufferES2_EE, __ZTIN2gc16FunctionArgumentIRNS_4lang6ScalarES2_EE, 
                       __ZTIN2gc16TemplateFunctionE, __ZTIN2gc17TypedNoTileKernelIJEEE, 
                       __ZTIN2gc17TypedNoTileKernelIJNS_4lang6BufferENS1_6ScalarEEEE, 
                       __ZTIN2gc17TypedNoTileKernelIJNS_4lang6BufferENS1_6VectorEEEE, 
                       __ZTIN2gc17TypedNoTileKernelIJNS_4lang6BufferES2_EEE, __ZTIN2gc17TypedNoTileKernelIJNS_4lang6BufferES2_S2_EEE, 
                       __ZTIN2gc19SchedulingDirectiveE, __ZTIN2gc21BindableArgumentInputE, 
                       __ZTIN2gc22BindableArgumentOutputE, __ZTIN2gc22OpaqueBindableArgumentE, 
                       __ZTIN2gc3est10NoiseModelE, __ZTIN2gc3est10TripletSetE, __ZTIN2gc3est11BlockMatrixE, 
                       __ZTIN2gc3est11VariableMapE, __ZTIN2gc3est11VariableSetE, 
                       __ZTIN2gc3est12CostFunctionE, __ZTIN2gc3est12LossFunctionE, 
                       __ZTIN2gc3est13FactorBuffersE, __ZTIN2gc3est13ModelFunctionE, 
                       __ZTIN2gc3est13TypedBoxMinusINS_4lang6VectorENS2_3SE3EEE, 
                       __ZTIN2gc3est13TypedBoxMinusINS_4lang6VectorENS2_3SO3EEE, 
                       __ZTIN2gc3est14FactorOrderingE, __ZTIN2gc3est14InformationMapE, 
                       __ZTIN2gc3est14PreconditionerE, __ZTIN2gc3est15TypedTripletSetIdEE, 
                       __ZTIN2gc3est15TypedTripletSetIfEE, __ZTIN2gc3est18LevenbergMarquardtINS0_33ExplicitHessianLinearizationPointEEE, 
                       __ZTIN2gc3est18LevenbergMarquardtINS0_33ImplicitHessianLinearizationPointEEE, 
                       __ZTIN2gc3est18TypedModelFunctionINS_4lang3SE3EJRKS3_EEE, 
                       __ZTIN2gc3est18TypedModelFunctionINS_4lang3SO3EJRKS3_EEE, 
                       __ZTIN2gc3est18TypedModelFunctionINS_4lang6ScalarEJRKS3_EEE, 
                       __ZTIN2gc3est18TypedModelFunctionINS_4lang6VectorEJRKS3_EEE, 
                       __ZTIN2gc3est19DenseLDLTSolverDataE, __ZTIN2gc3est19TrustRegionStrategyE, 
                       __ZTIN2gc3est20MaterializeJacobiansE, __ZTIN2gc3est20SparseLDLTSolverDataE, 
                       __ZTIN2gc3est21StandardGaussianNoiseE, __ZTIN2gc3est22SchurEliminatedHessianE, 
                       __ZTIN2gc3est24LeastSquaresLossFunctionE, __ZTIN2gc3est24TypedDenseLDLTSolverDataIdEE, 
                       __ZTIN2gc3est24TypedDenseLDLTSolverDataIfEE, __ZTIN2gc3est24TypedTrustRegionStrategyINS0_33ExplicitHessianLinearizationPointEEE, 
                       __ZTIN2gc3est24TypedTrustRegionStrategyINS0_33ImplicitHessianLinearizationPointEEE, 
                       __ZTIN2gc3est25TypedJacobiPreconditionerINS0_33ExplicitHessianLinearizationPointEEE, 
                       __ZTIN2gc3est25TypedJacobiPreconditionerINS0_33ImplicitHessianLinearizationPointEEE, 
                       __ZTIN2gc3est25TypedSparseLDLTSolverDataIdEE, __ZTIN2gc3est25TypedSparseLDLTSolverDataIfEE, 
                       __ZTIN2gc3est29TypedLeastSquaresLossFunctionIJNS_4lang6ScalarEEEE, 
                       __ZTIN2gc3est2io25BindableArgumentJSONInputE, __ZTIN2gc3est2io26BindableArgumentJSONOutputE, 
                       __ZTIN2gc3est8BoxMinusE, __ZTIN2gc3est9BufferMapE, __ZTIN2gc3est9MinimizerE, 
                       __ZTIN2gc3ops10BinaryOpTTINS0_5MaxTTENS0_10AutoDiffOpEEE, 
                       __ZTIN2gc3ops10BinaryOpTTINS0_5MinTTENS0_10AutoDiffOpEEE, 
                       __ZTIN2gc3ops10BinaryOpTTINS0_8DivideTTENS0_10AutoDiffOpEEE, 
                       __ZTIN2gc3ops10SSIMOpGradE, __ZTIN2gc3ops10ScanOpGradE, __ZTIN2gc3ops11AddAssignTTE, 
                       __ZTIN2gc3ops11RangeStaticE, __ZTIN2gc3ops12CrossEntropyE, 
                       __ZTIN2gc3ops12RangeDynamicE, __ZTIN2gc3ops12ReduceOpGradE, 
                       __ZTIN2gc3ops13NonzeroOpGradE, __ZTIN2gc3ops14AssignmentOpTTINS0_11AddAssignTTEEE, 
                       __ZTIN2gc3ops16AutoDiffBackpropE, __ZTIN2gc3ops20SSIMOpPreprocessGradE, 
                       __ZTIN2gc3ops3AtGE, __ZTIN2gc3ops3GBtE, __ZTIN2gc3ops4CastE, 
                       __ZTIN2gc3ops4CopyE, __ZTIN2gc3ops4HeadE, __ZTIN2gc3ops4L1OpE, 
                       __ZTIN2gc3ops4L2OpE, __ZTIN2gc3ops4TailE, __ZTIN2gc3ops5LayerE, 
                       __ZTIN2gc3ops5MaxTTE, __ZTIN2gc3ops5MinTTE, __ZTIN2gc3ops5ModelE, 
                       __ZTIN2gc3ops6DiffOpE, __ZTIN2gc3ops6ModuleE, __ZTIN2gc3ops6OpBaseE, 
                       __ZTIN2gc3ops6ResizeE, __ZTIN2gc3ops6SSIMOpE, __ZTIN2gc3ops6detail10TensorFillE, 
                       __ZTIN2gc3ops6detail10TensorSizeE, __ZTIN2gc3ops6detail13TensorExtentsE, 
                       __ZTIN2gc3ops6detail22FunctionReturnTypeImplE, __ZTIN2gc3ops6detail27TypedFunctionReturnTypeImplILm1EEE, 
                       __ZTIN2gc3ops8DivideTTE, __ZTIN2gc3ops9OptimizerE, __ZTIN2gc4lang12StringStreamE, 
                       __ZTIN2gc4lang13VariableArrayE, __ZTIN2gc4lang17BindableTypeArrayE, 
                       __ZTIN2gc4lang2ad10RangeSliceE, __ZTIN2gc4lang2ad11TrivialViewE, 
                       __ZTIN2gc4lang2ad15ViewCompositionE, __ZTIN2gc4lang2ad4ViewE, 
                       __ZTIN2gc4lang2ad5SliceE, __ZTIN2gc4lang3SE3E, __ZTIN2gc4lang3SO3E, 
                       __ZTIN2gc4lang3est11BlockMatrixE, __ZTIN2gc4lang3est11JacobianSet16JacobianInstanceE, 
                       __ZTIN2gc4lang3est11JacobianSet28MaterializedJacobianInstanceE, 
                       __ZTIN2gc4lang3est11JacobianSetE, __ZTIN2gc4lang3est11VariableSetE, 
                       __ZTIN2gc4lang3est12CostFunctionE, __ZTIN2gc4lang3est13BlockOrderingE, 
                       __ZTIN2gc4lang3est14FactorOrderingE, __ZTIN2gc4lang3est16BlockMatrixArrayE, 
                       __ZTIN2gc4lang3est18FactorOrderingImplE, __ZTIN2gc4lang3est20MaterializedJacobianE, 
                       __ZTIN2gc4lang3est22SchurEliminatedHessianE, __ZTIN2gc4lang3est6FactorE, 
                       __ZTIN2gc4lang3est8JacobianE, __ZTIN2gc4lang3est8VariableE, 
                       __ZTIN2gc4lang4simd19InnerProductVariantE, __ZTIN2gc4lang4simd29SIMDCachedInnerProductVariantE, 
                       __ZTIN2gc4lang5ArrayINS0_3est13BlockOrderingEEE, __ZTIN2gc4lang5ArrayINS0_3est14FactorOrderingEEE, 
                       __ZTIN2gc4lang5ArrayINS0_3est8VariableEEE, __ZTIN2gc4lang5ArrayINS0_6BufferEEE, 
                       __ZTIN2gc4lang6BufferE, __ZTIN2gc4lang6MatrixE, __ZTIN2gc4lang6ScalarE, 
                       __ZTIN2gc4lang6StringE, __ZTIN2gc4lang6TensorE, __ZTIN2gc4lang6VectorE, 
                       __ZTIN2gc4lang8BlockRefE, __ZTIN2gc4lang8LieGroupE, __ZTIN2gc4lang8VariableE, 
                       __ZTIN2gc6IRStmtE, __ZTIN2gc6KernelE, __ZTIN2gc6ObjectE, __ZTIN2gc6device16GPUOpaqueComputeE, 
                       __ZTIN2gc6device20DeviceComputeEncoderE, __ZTIN2gc6device22FunctionComputeEncoderE, 
                       __ZTIN8nlohmann16json_abi_v3_11_36detail10type_errorE, __ZTIN8nlohmann16json_abi_v3_11_36detail11parse_errorE, 
                       __ZTIN8nlohmann16json_abi_v3_11_36detail12out_of_rangeE, __ZTIN8nlohmann16json_abi_v3_11_36detail16invalid_iteratorE, 
                       __ZTIN8nlohmann16json_abi_v3_11_36detail21output_stream_adapterIcEE, 
                       __ZTIN8nlohmann16json_abi_v3_11_36detail23output_adapter_protocolIcEE, 
                       __ZTIN8nlohmann16json_abi_v3_11_36detail9exceptionE, __ZTINSt3__110__function34__maybe_derive_from_unary_functionIFN2gc4util10TaggedBoolINS2_3est15IsEliminableTagEEERKNS5_8VariableEEEE, 
                       __ZTINSt3__110__function34__maybe_derive_from_unary_functionIFvN2gc4ExprEEEE, 
                       __ZTINSt3__110__function34__maybe_derive_from_unary_functionIFvN2gc4lang4TileENS3_3est13BlockOrderingENS3_5ArrayINS5_14FactorOrderingEEERNS5_11JacobianSetERNS5_11BlockMatrixEEEE, 
                       __ZTINSt3__110__function34__maybe_derive_from_unary_functionIFvN2gc4lang4TileENS3_3est13BlockOrderingENS5_14FactorOrderingERNS5_8JacobianERNS5_11BlockMatrixEEEE, 
                       __ZTINSt3__110__function34__maybe_derive_from_unary_functionIFvN2gc4lang4TileENS3_3est14FactorOrderingERNS5_8JacobianENS3_6BufferES9_EEE, 
                       __ZTINSt3__110__function34__maybe_derive_from_unary_functionIFvN2gc4lang4TileENS3_3est6FactorENS3_6BufferES7_S7_NS3_5ArrayINS5_14FactorOrderingEEENS5_11VariableSetENS8_IS7_EESC_NS3_17BindableTypeArrayEEEE, 
                       __ZTINSt3__110__function34__maybe_derive_from_unary_functionIFvN2gc4lang4TileENS3_3est6FactorENS5_11VariableSetENS3_6BufferES8_NS3_17BindableTypeArrayEEEE, 
                       __ZTINSt3__110__function34__maybe_derive_from_unary_functionIFvN2gc4lang4TileENS3_3est6FactorENS5_11VariableSetENS3_6BufferES8_S8_NS3_17BindableTypeArrayEEEE, 
                       __ZTINSt3__110__function34__maybe_derive_from_unary_functionIFvN2gc4lang4TileENS3_3est6FactorERNS5_14FactorOrderingENS3_5ArrayINS3_6BufferEEERNS5_16BlockMatrixArrayENS5_22SchurEliminatedHessianESB_SA_SA_EEE, 
                       __ZTINSt3__110__function34__maybe_derive_from_unary_functionIFvN2gc4lang4TileENS3_3est8VariableEEEE, 
                       __ZTINSt3__110__function34__maybe_derive_from_unary_functionIFvN2gc4lang4TileENS3_3est8VariableENS3_6ScalarEEEE, 
                       __ZTINSt3__110__function34__maybe_derive_from_unary_functionIFvN2gc4lang4TileENS3_5ArrayINS3_3est13BlockOrderingEEENS5_INS6_14FactorOrderingEEERNS6_11JacobianSetERNS6_16BlockMatrixArrayEEEE, 
                       __ZTINSt3__110__function34__maybe_derive_from_unary_functionIFvN2gc4lang4TileENS3_5ArrayINS3_6BufferEEES7_EEE, 
                       __ZTINSt3__110__function34__maybe_derive_from_unary_functionIFvN2gc4lang4TileENS3_6BufferEEEE, 
                       __ZTINSt3__110__function34__maybe_derive_from_unary_functionIFvN2gc4lang4TileENS3_6BufferENS3_3est6FactorERNS6_11JacobianSetENS3_5ArrayIS5_EENSA_INS6_14FactorOrderingEEERNS6_16BlockMatrixArrayESB_EEE, 
                       __ZTINSt3__110__function34__maybe_derive_from_unary_functionIFvN2gc4lang4TileENS3_6BufferENS3_3est8VariableEEEE, 
                       __ZTINSt3__110__function34__maybe_derive_from_unary_functionIFvN2gc4lang4TileENS3_6BufferENS3_5ArrayINS3_3est8VariableEEEEEE, 
                       __ZTINSt3__110__function34__maybe_derive_from_unary_functionIFvN2gc4lang4TileENS3_6BufferENS3_5ArrayIS5_EES7_NS3_3est6FactorERNS8_14FactorOrderingENS8_22SchurEliminatedHessianES5_EEE, 
                       __ZTINSt3__110__function34__maybe_derive_from_unary_functionIFvN2gc4lang4TileENS3_6BufferENS3_6ScalarES5_EEE, 
                       __ZTINSt3__110__function34__maybe_derive_from_unary_functionIFvN2gc4lang4TileENS3_6BufferENS3_6ScalarES5_S5_EEE, 
                       __ZTINSt3__110__function34__maybe_derive_from_unary_functionIFvN2gc4lang4TileENS3_6BufferERNS3_3est8JacobianENS6_14FactorOrderingENS3_6ScalarES5_S5_EEE, 
                       __ZTINSt3__110__function34__maybe_derive_from_unary_functionIFvN2gc4lang4TileENS3_6BufferERNS3_3est8JacobianENS6_14FactorOrderingES5_S5_S5_S5_S5_EEE, 
                       __ZTINSt3__110__function34__maybe_derive_from_unary_functionIFvN2gc4lang4TileENS3_6BufferERNS3_3est8JacobianENS6_6FactorERNS6_11JacobianSetERNS6_14FactorOrderingENS3_5ArrayIS5_EENSE_ISC_EERNS6_16BlockMatrixArrayENS6_22SchurEliminatedHessianESF_S5_S5_EEE, 
                       __ZTINSt3__110__function34__maybe_derive_from_unary_functionIFvN2gc4lang4TileENS3_6BufferERNS3_3est8JacobianES5_S5_EEE, 
                       __ZTINSt3__110__function34__maybe_derive_from_unary_functionIFvN2gc4lang4TileENS3_6BufferES5_EEE, 
                       __ZTINSt3__110__function34__maybe_derive_from_unary_functionIFvN2gc4lang4TileENS3_6BufferES5_NS3_5ArrayINS3_3est8VariableEEEEEE, 
                       __ZTINSt3__110__function34__maybe_derive_from_unary_functionIFvN2gc4lang4TileENS3_6BufferES5_NS3_6ScalarES6_S6_S6_S6_S5_S5_EEE, 
                       __ZTINSt3__110__function34__maybe_derive_from_unary_functionIFvN2gc4lang4TileENS3_6BufferES5_NS3_6VectorES5_EEE, 
                       __ZTINSt3__110__function34__maybe_derive_from_unary_functionIFvN2gc4lang4TileENS3_6BufferES5_RNS3_3est8JacobianES5_S5_EEE, 
                       __ZTINSt3__110__function34__maybe_derive_from_unary_functionIFvN2gc4lang4TileENS3_6BufferES5_S5_EEE, 
                       __ZTINSt3__110__function34__maybe_derive_from_unary_functionIFvN2gc4lang4TileENS3_6BufferES5_S5_NS3_6ScalarEEEE, 
                       __ZTINSt3__110__function34__maybe_derive_from_unary_functionIFvN2gc4lang4TileENS3_6BufferES5_S5_NS3_6VectorES5_S5_EEE, 
                       __ZTINSt3__110__function34__maybe_derive_from_unary_functionIFvN2gc4lang4TileENS3_6BufferES5_S5_S5_EEE, 
                       __ZTINSt3__110__function34__maybe_derive_from_unary_functionIFvN2gc4lang4TileENS3_6BufferES5_S5_S5_S5_NS3_6ScalarEEEE, 
                       __ZTINSt3__110__function34__maybe_derive_from_unary_functionIFvN2gc4lang4TileENS3_6BufferES5_S5_S5_S5_S5_S5_EEE, 
                       __ZTINSt3__110__function34__maybe_derive_from_unary_functionIFvN2gc4lang4TileENS3_6ScalarENS3_6BufferES6_EEE, 
                       __ZTINSt3__110__function34__maybe_derive_from_unary_functionIFvN2gc4lang4TileENS3_6ScalarERNS3_3est11BlockMatrixEEEE, 
                       __ZTINSt3__110__function34__maybe_derive_from_unary_functionIFvN2gc4lang4TileERNS3_3est11BlockMatrixEEEE, 
                       __ZTINSt3__110__function34__maybe_derive_from_unary_functionIFvN2gc4lang4TileERNS3_3est11BlockMatrixENS3_6BufferES8_EEE, 
                       __ZTINSt3__110__function34__maybe_derive_from_unary_functionIFvN2gc4lang4TileERNS3_3est11BlockMatrixENS3_6BufferES8_S8_EEE, 
                       __ZTINSt3__110__function34__maybe_derive_from_unary_functionIFvN2gc4lang4TileERNS3_3est11BlockMatrixENS3_6BufferES8_S8_RS8_EEE, 
                       __ZTINSt3__110__function34__maybe_derive_from_unary_functionIFvN2gc4lang4TileERNS3_3est11JacobianSetENS3_5ArrayINS5_14FactorOrderingEEENS8_INS3_6BufferEEESC_SB_EEE, 
                       __ZTINSt3__110__function34__maybe_derive_from_unary_functionIFvN2gc4lang4TileERNS3_3est14FactorOrderingENS3_6BufferERNS5_8JacobianES8_S8_EEE, 
                       __ZTINSt3__110__function34__maybe_derive_from_unary_functionIFvN2gc4lang4TileERNS3_3est14FactorOrderingERNS5_8JacobianENS3_6BufferERSA_EEE, 
                       __ZTINSt3__110__function34__maybe_derive_from_unary_functionIFvN2gc4lang4TileERNS3_3est14FactorOrderingERNS5_8JacobianENS3_6BufferESA_EEE, 
                       __ZTINSt3__110__function34__maybe_derive_from_unary_functionIFvN2gc4lang4TileERNS3_3est14FactorOrderingERNS5_8JacobianENS3_6BufferESA_SA_EEE, 
                       __ZTINSt3__110__function34__maybe_derive_from_unary_functionIFvN2gc4lang4TileERNS3_3est14FactorOrderingERNS5_8JacobianENS3_6BufferESA_SA_SA_EEE, 
                       __ZTINSt3__110__function34__maybe_derive_from_unary_functionIFvN2gc4lang4TileERNS3_3est8JacobianENS3_6BufferES8_S8_RS8_EEE, 
                       __ZTINSt3__110__function34__maybe_derive_from_unary_functionIFvN2gc4lang4TileERNS3_3est8JacobianENS3_6BufferES8_S8_S8_S8_EEE, 
                       __ZTINSt3__110__function34__maybe_derive_from_unary_functionIFvN2gc4lang4TileERNS3_3est8JacobianENS5_14FactorOrderingENS3_6BufferES9_EEE, 
                       __ZTINSt3__110__function34__maybe_derive_from_unary_functionIFvN2gc4lang4TileERNS3_3est8JacobianENS5_14FactorOrderingENS3_6BufferES9_S9_EEE, 
                       __ZTINSt3__110__function34__maybe_derive_from_unary_functionIFvN2gc4lang4TileERNS3_3est8JacobianENS5_14FactorOrderingENS3_6BufferES9_S9_S9_EEE, 
                       __ZTINSt3__110__function34__maybe_derive_from_unary_functionIFvN2gc4lang4TileERNS3_3est8JacobianENS5_14FactorOrderingES8_NS3_6BufferES9_S9_S9_S9_S9_EEE, 
                       __ZTINSt3__110__function34__maybe_derive_from_unary_functionIFvN2gc4lang4TileERNS3_6ScalarENS3_6BufferEEEE, 
                       __ZTINSt3__110__function35__maybe_derive_from_binary_functionIFN2gc4util10TaggedBoolINS2_3est15IsEliminableTagEEERKNS5_8VariableEEEE, 
                       __ZTINSt3__110__function35__maybe_derive_from_binary_functionIFvN2gc4ExprEEEE, 
                       __ZTINSt3__110__function35__maybe_derive_from_binary_functionIFvN2gc4lang4TileENS3_3est13BlockOrderingENS3_5ArrayINS5_14FactorOrderingEEERNS5_11JacobianSetERNS5_11BlockMatrixEEEE, 
                       __ZTINSt3__110__function35__maybe_derive_from_binary_functionIFvN2gc4lang4TileENS3_3est13BlockOrderingENS5_14FactorOrderingERNS5_8JacobianERNS5_11BlockMatrixEEEE, 
                       __ZTINSt3__110__function35__maybe_derive_from_binary_functionIFvN2gc4lang4TileENS3_3est14FactorOrderingERNS5_8JacobianENS3_6BufferES9_EEE, 
                       __ZTINSt3__110__function35__maybe_derive_from_binary_functionIFvN2gc4lang4TileENS3_3est6FactorENS3_6BufferES7_S7_NS3_5ArrayINS5_14FactorOrderingEEENS5_11VariableSetENS8_IS7_EESC_NS3_17BindableTypeArrayEEEE, 
                       __ZTINSt3__110__function35__maybe_derive_from_binary_functionIFvN2gc4lang4TileENS3_3est6FactorENS5_11VariableSetENS3_6BufferES8_NS3_17BindableTypeArrayEEEE, 
                       __ZTINSt3__110__function35__maybe_derive_from_binary_functionIFvN2gc4lang4TileENS3_3est6FactorENS5_11VariableSetENS3_6BufferES8_S8_NS3_17BindableTypeArrayEEEE, 
                       __ZTINSt3__110__function35__maybe_derive_from_binary_functionIFvN2gc4lang4TileENS3_3est6FactorERNS5_14FactorOrderingENS3_5ArrayINS3_6BufferEEERNS5_16BlockMatrixArrayENS5_22SchurEliminatedHessianESB_SA_SA_EEE, 
                       __ZTINSt3__110__function35__maybe_derive_from_binary_functionIFvN2gc4lang4TileENS3_3est8VariableEEEE, 
                       __ZTINSt3__110__function35__maybe_derive_from_binary_functionIFvN2gc4lang4TileENS3_3est8VariableENS3_6ScalarEEEE, 
                       __ZTINSt3__110__function35__maybe_derive_from_binary_functionIFvN2gc4lang4TileENS3_5ArrayINS3_3est13BlockOrderingEEENS5_INS6_14FactorOrderingEEERNS6_11JacobianSetERNS6_16BlockMatrixArrayEEEE, 
                       __ZTINSt3__110__function35__maybe_derive_from_binary_functionIFvN2gc4lang4TileENS3_5ArrayINS3_6BufferEEES7_EEE, 
                       __ZTINSt3__110__function35__maybe_derive_from_binary_functionIFvN2gc4lang4TileENS3_6BufferEEEE, 
                       __ZTINSt3__110__function35__maybe_derive_from_binary_functionIFvN2gc4lang4TileENS3_6BufferENS3_3est6FactorERNS6_11JacobianSetENS3_5ArrayIS5_EENSA_INS6_14FactorOrderingEEERNS6_16BlockMatrixArrayESB_EEE, 
                       __ZTINSt3__110__function35__maybe_derive_from_binary_functionIFvN2gc4lang4TileENS3_6BufferENS3_3est8VariableEEEE, 
                       __ZTINSt3__110__function35__maybe_derive_from_binary_functionIFvN2gc4lang4TileENS3_6BufferENS3_5ArrayINS3_3est8VariableEEEEEE, 
                       __ZTINSt3__110__function35__maybe_derive_from_binary_functionIFvN2gc4lang4TileENS3_6BufferENS3_5ArrayIS5_EES7_NS3_3est6FactorERNS8_14FactorOrderingENS8_22SchurEliminatedHessianES5_EEE, 
                       __ZTINSt3__110__function35__maybe_derive_from_binary_functionIFvN2gc4lang4TileENS3_6BufferENS3_6ScalarES5_EEE, 
                       __ZTINSt3__110__function35__maybe_derive_from_binary_functionIFvN2gc4lang4TileENS3_6BufferENS3_6ScalarES5_S5_EEE, 
                       __ZTINSt3__110__function35__maybe_derive_from_binary_functionIFvN2gc4lang4TileENS3_6BufferERNS3_3est8JacobianENS6_14FactorOrderingENS3_6ScalarES5_S5_EEE, 
                       __ZTINSt3__110__function35__maybe_derive_from_binary_functionIFvN2gc4lang4TileENS3_6BufferERNS3_3est8JacobianENS6_14FactorOrderingES5_S5_S5_S5_S5_EEE, 
                       __ZTINSt3__110__function35__maybe_derive_from_binary_functionIFvN2gc4lang4TileENS3_6BufferERNS3_3est8JacobianENS6_6FactorERNS6_11JacobianSetERNS6_14FactorOrderingENS3_5ArrayIS5_EENSE_ISC_EERNS6_16BlockMatrixArrayENS6_22SchurEliminatedHessianESF_S5_S5_EEE, 
                       __ZTINSt3__110__function35__maybe_derive_from_binary_functionIFvN2gc4lang4TileENS3_6BufferERNS3_3est8JacobianES5_S5_EEE, 
                       __ZTINSt3__110__function35__maybe_derive_from_binary_functionIFvN2gc4lang4TileENS3_6BufferES5_EEE, 
                       __ZTINSt3__110__function35__maybe_derive_from_binary_functionIFvN2gc4lang4TileENS3_6BufferES5_NS3_5ArrayINS3_3est8VariableEEEEEE, 
                       __ZTINSt3__110__function35__maybe_derive_from_binary_functionIFvN2gc4lang4TileENS3_6BufferES5_NS3_6ScalarES6_S6_S6_S6_S5_S5_EEE, 
                       __ZTINSt3__110__function35__maybe_derive_from_binary_functionIFvN2gc4lang4TileENS3_6BufferES5_NS3_6VectorES5_EEE, 
                       __ZTINSt3__110__function35__maybe_derive_from_binary_functionIFvN2gc4lang4TileENS3_6BufferES5_RNS3_3est8JacobianES5_S5_EEE, 
                       __ZTINSt3__110__function35__maybe_derive_from_binary_functionIFvN2gc4lang4TileENS3_6BufferES5_S5_EEE, 
                       __ZTINSt3__110__function35__maybe_derive_from_binary_functionIFvN2gc4lang4TileENS3_6BufferES5_S5_NS3_6ScalarEEEE, 
                       __ZTINSt3__110__function35__maybe_derive_from_binary_functionIFvN2gc4lang4TileENS3_6BufferES5_S5_NS3_6VectorES5_S5_EEE, 
                       __ZTINSt3__110__function35__maybe_derive_from_binary_functionIFvN2gc4lang4TileENS3_6BufferES5_S5_S5_EEE, 
                       __ZTINSt3__110__function35__maybe_derive_from_binary_functionIFvN2gc4lang4TileENS3_6BufferES5_S5_S5_S5_NS3_6ScalarEEEE, 
                       __ZTINSt3__110__function35__maybe_derive_from_binary_functionIFvN2gc4lang4TileENS3_6BufferES5_S5_S5_S5_S5_S5_EEE, 
                       __ZTINSt3__110__function35__maybe_derive_from_binary_functionIFvN2gc4lang4TileENS3_6ScalarENS3_6BufferES6_EEE, 
                       __ZTINSt3__110__function35__maybe_derive_from_binary_functionIFvN2gc4lang4TileENS3_6ScalarERNS3_3est11BlockMatrixEEEE, 
                       __ZTINSt3__110__function35__maybe_derive_from_binary_functionIFvN2gc4lang4TileERNS3_3est11BlockMatrixEEEE, 
                       __ZTINSt3__110__function35__maybe_derive_from_binary_functionIFvN2gc4lang4TileERNS3_3est11BlockMatrixENS3_6BufferES8_EEE, 
                       __ZTINSt3__110__function35__maybe_derive_from_binary_functionIFvN2gc4lang4TileERNS3_3est11BlockMatrixENS3_6BufferES8_S8_EEE, 
                       __ZTINSt3__110__function35__maybe_derive_from_binary_functionIFvN2gc4lang4TileERNS3_3est11BlockMatrixENS3_6BufferES8_S8_RS8_EEE, 
                       __ZTINSt3__110__function35__maybe_derive_from_binary_functionIFvN2gc4lang4TileERNS3_3est11JacobianSetENS3_5ArrayINS5_14FactorOrderingEEENS8_INS3_6BufferEEESC_SB_EEE, 
                       __ZTINSt3__110__function35__maybe_derive_from_binary_functionIFvN2gc4lang4TileERNS3_3est14FactorOrderingENS3_6BufferERNS5_8JacobianES8_S8_EEE, 
                       __ZTINSt3__110__function35__maybe_derive_from_binary_functionIFvN2gc4lang4TileERNS3_3est14FactorOrderingERNS5_8JacobianENS3_6BufferERSA_EEE, 
                       __ZTINSt3__110__function35__maybe_derive_from_binary_functionIFvN2gc4lang4TileERNS3_3est14FactorOrderingERNS5_8JacobianENS3_6BufferESA_EEE, 
                       __ZTINSt3__110__function35__maybe_derive_from_binary_functionIFvN2gc4lang4TileERNS3_3est14FactorOrderingERNS5_8JacobianENS3_6BufferESA_SA_EEE, 
                       __ZTINSt3__110__function35__maybe_derive_from_binary_functionIFvN2gc4lang4TileERNS3_3est14FactorOrderingERNS5_8JacobianENS3_6BufferESA_SA_SA_EEE, 
                       __ZTINSt3__110__function35__maybe_derive_from_binary_functionIFvN2gc4lang4TileERNS3_3est8JacobianENS3_6BufferES8_S8_RS8_EEE, 
                       __ZTINSt3__110__function35__maybe_derive_from_binary_functionIFvN2gc4lang4TileERNS3_3est8JacobianENS3_6BufferES8_S8_S8_S8_EEE, 
                       __ZTINSt3__110__function35__maybe_derive_from_binary_functionIFvN2gc4lang4TileERNS3_3est8JacobianENS5_14FactorOrderingENS3_6BufferES9_EEE, 
                       __ZTINSt3__110__function35__maybe_derive_from_binary_functionIFvN2gc4lang4TileERNS3_3est8JacobianENS5_14FactorOrderingENS3_6BufferES9_S9_EEE, 
                       __ZTINSt3__110__function35__maybe_derive_from_binary_functionIFvN2gc4lang4TileERNS3_3est8JacobianENS5_14FactorOrderingENS3_6BufferES9_S9_S9_EEE, 
                       __ZTINSt3__110__function35__maybe_derive_from_binary_functionIFvN2gc4lang4TileERNS3_3est8JacobianENS5_14FactorOrderingES8_NS3_6BufferES9_S9_S9_S9_S9_EEE, 
                       __ZTINSt3__110__function35__maybe_derive_from_binary_functionIFvN2gc4lang4TileERNS3_6ScalarENS3_6BufferEEEE, 
                       __ZTINSt3__110__function6__baseIFN2gc3ops6TensorES4_S4_EEE, 
                       __ZTINSt3__110__function6__baseIFN2gc3ops6detail18FunctionReturnTypeERKNS_6vectorINS3_6TensorENS_9allocatorIS7_EEEEEEE, 
                       __ZTINSt3__110__function6__baseIFN2gc4ExprENS2_4lang6TensorEEEE, 
                       __ZTINSt3__110__function6__baseIFN2gc4ExprENS2_4lang6TensorES5_EEE, 
                       __ZTINSt3__110__function6__baseIFN2gc4ExprENS2_4lang6TensorES5_S5_EEE, 
                       __ZTINSt3__110__function6__baseIFN2gc4ExprERK17loopkit_rt_type_tEEE, 
                       __ZTINSt3__110__function6__baseIFN2gc4ExprES3_EEE, __ZTINSt3__110__function6__baseIFN2gc4ExprES3_S3_EEE, 
                       __ZTINSt3__110__function6__baseIFN2gc4StmtERKNS2_6TargetES3_EEE, 
                       __ZTINSt3__110__function6__baseIFN2gc4lang2ad15BackpropFunctorENS3_6TensorES6_EEE, 
                       __ZTINSt3__110__function6__baseIFN2gc4lang2ad15BackpropFunctorENS3_6TensorES6_S6_EEE, 
                       __ZTINSt3__110__function6__baseIFN2gc4lang3SE3ERKS4_EEE, __ZTINSt3__110__function6__baseIFN2gc4lang3SO3ERKS4_EEE, 
                       __ZTINSt3__110__function6__baseIFN2gc4lang6ScalarERKS4_EEE, 
                       __ZTINSt3__110__function6__baseIFN2gc4lang6TensorENS3_6ScalarES5_EEE, 
                       __ZTINSt3__110__function6__baseIFN2gc4lang6TensorENS_6vectorINS2_4ExprENS_9allocatorIS6_EEEEEEE, 
                       __ZTINSt3__110__function6__baseIFN2gc4lang6TensorES4_EEE, 
                       __ZTINSt3__110__function6__baseIFN2gc4lang6VectorENS3_3SE3ES5_EEE, 
                       __ZTINSt3__110__function6__baseIFN2gc4lang6VectorENS3_3SO3ES5_EEE, 
                       __ZTINSt3__110__function6__baseIFN2gc4lang6VectorERKS4_EEE, 
                       __ZTINSt3__110__function6__baseIFN2gc4lang8VariableERKNS_6vectorIS4_NS_9allocatorIS4_EEEERKNS3_17BindableTypeArrayEEEE, 
                       __ZTINSt3__110__function6__baseIFN2gc4lang8VariableERKS4_RKNS_6vectorIS4_NS_9allocatorIS4_EEEEEEE, 
                       __ZTINSt3__110__function6__baseIFN2gc4lang8VariableERKS4_S6_EEE, 
                       __ZTINSt3__110__function6__baseIFN2gc4util10TaggedBoolINS2_3est15IsEliminableTagEEERKNS5_8VariableEEEE, 
                       __ZTINSt3__110__function6__baseIFN2gc9float16_tEvEEE, __ZTINSt3__110__function6__baseIFNS_4__fs10filesystem4pathERKNS_12basic_stringIcNS_11char_traitsIcEENS_9allocatorIcEEEEEEE, 
                       __ZTINSt3__110__function6__baseIFNS_6vectorIN2gc4lang8VariableENS_9allocatorIS5_EEEERKS8_EEE, 
                       __ZTINSt3__110__function6__baseIFNS_6vectorINS_10shared_ptrIN2gc6BufferEEENS_9allocatorIS6_EEEERKS9_EEE, 
                       __ZTINSt3__110__function6__baseIFNS_8optionalI17loopkit_rt_type_tEERKNS_6vectorIS3_NS_9allocatorIS3_EEEEEEE, 
                       __ZTINSt3__110__function6__baseIFNS_8optionalI17loopkit_rt_type_tEERKS3_EEE, 
                       __ZTINSt3__110__function6__baseIFNS_8optionalIN2gc11ExtentExprsEEERKNS_6vectorIS4_NS_9allocatorIS4_EEEEEEE, 
                       __ZTINSt3__110__function6__baseIFNS_8optionalIN2gc11ExtentExprsEEERKS4_EEE, 
                       __ZTINSt3__110__function6__baseIFNS_8optionalINS_4pairIN2gc11ExtentExprsENS4_4ExprEEEEERKNS_6vectorIS5_NS_9allocatorIS5_EEEEEEE, 
                       __ZTINSt3__110__function6__baseIFNS_8optionalINS_4pairIN2gc11ExtentExprsENS4_4ExprEEEEERKS5_EEE, 
                       __ZTINSt3__110__function6__baseIFavEEE, __ZTINSt3__110__function6__baseIFbNS_10shared_ptrIN2gc16BufferParametersEEEEEE, 
                       __ZTINSt3__110__function6__baseIFbNS_10shared_ptrIN2gc3ops6OpBaseEEEEEE, 
                       __ZTINSt3__110__function6__baseIFbNS_12basic_stringIcNS_11char_traitsIcEENS_9allocatorIcEEEEEEE, 
                       __ZTINSt3__110__function6__baseIFbPN2gc12ComputeGraph4NodeEEEE, 
                       __ZTINSt3__110__function6__baseIFbRKN2gc3est8VariableEEEE, 
                       __ZTINSt3__110__function6__baseIFbjjEEE, __ZTINSt3__110__function6__baseIFbvEEE, 
                       __ZTINSt3__110__function6__baseIFdddEEE, __ZTINSt3__110__function6__baseIFdvEEE, 
                       __ZTINSt3__110__function6__baseIFfvEEE, __ZTINSt3__110__function6__baseIFhvEEE, 
                       __ZTINSt3__110__function6__baseIFivEEE, __ZTINSt3__110__function6__baseIFjvEEE, 
                       __ZTINSt3__110__function6__baseIFsvEEE, __ZTINSt3__110__function6__baseIFtvEEE, 
                       __ZTINSt3__110__function6__baseIFvN2gc3ops6TensorES4_S4_S4_S4_S4_S4_S4_S4_EEE, 
                       __ZTINSt3__110__function6__baseIFvN2gc4ExprEEEE, __ZTINSt3__110__function6__baseIFvN2gc4ExprES3_EEE, 
                       __ZTINSt3__110__function6__baseIFvN2gc4lang4TileENS3_3est13BlockOrderingENS3_5ArrayINS5_14FactorOrderingEEERNS5_11JacobianSetERNS5_11BlockMatrixEEEE, 
                       __ZTINSt3__110__function6__baseIFvN2gc4lang4TileENS3_3est13BlockOrderingENS5_14FactorOrderingERNS5_8JacobianERNS5_11BlockMatrixEEEE, 
                       __ZTINSt3__110__function6__baseIFvN2gc4lang4TileENS3_3est14FactorOrderingERNS5_8JacobianENS3_6BufferES9_EEE, 
                       __ZTINSt3__110__function6__baseIFvN2gc4lang4TileENS3_3est6FactorENS3_6BufferES7_S7_NS3_5ArrayINS5_14FactorOrderingEEENS5_11VariableSetENS8_IS7_EESC_NS3_17BindableTypeArrayEEEE, 
                       __ZTINSt3__110__function6__baseIFvN2gc4lang4TileENS3_3est6FactorENS5_11VariableSetENS3_6BufferES8_NS3_17BindableTypeArrayEEEE, 
                       __ZTINSt3__110__function6__baseIFvN2gc4lang4TileENS3_3est6FactorENS5_11VariableSetENS3_6BufferES8_S8_NS3_17BindableTypeArrayEEEE, 
                       __ZTINSt3__110__function6__baseIFvN2gc4lang4TileENS3_3est6FactorERNS5_14FactorOrderingENS3_5ArrayINS3_6BufferEEERNS5_16BlockMatrixArrayENS5_22SchurEliminatedHessianESB_SA_SA_EEE, 
                       __ZTINSt3__110__function6__baseIFvN2gc4lang4TileENS3_3est8VariableEEEE, 
                       __ZTINSt3__110__function6__baseIFvN2gc4lang4TileENS3_3est8VariableENS3_6ScalarEEEE, 
                       __ZTINSt3__110__function6__baseIFvN2gc4lang4TileENS3_5ArrayINS3_3est13BlockOrderingEEENS5_INS6_14FactorOrderingEEERNS6_11JacobianSetERNS6_16BlockMatrixArrayEEEE, 
                       __ZTINSt3__110__function6__baseIFvN2gc4lang4TileENS3_5ArrayINS3_6BufferEEES7_EEE, 
                       __ZTINSt3__110__function6__baseIFvN2gc4lang4TileENS3_6BufferEEEE, 
                       __ZTINSt3__110__function6__baseIFvN2gc4lang4TileENS3_6BufferENS3_3est6FactorERNS6_11JacobianSetENS3_5ArrayIS5_EENSA_INS6_14FactorOrderingEEERNS6_16BlockMatrixArrayESB_EEE, 
                       __ZTINSt3__110__function6__baseIFvN2gc4lang4TileENS3_6BufferENS3_3est8VariableEEEE, 
                       __ZTINSt3__110__function6__baseIFvN2gc4lang4TileENS3_6BufferENS3_5ArrayINS3_3est8VariableEEEEEE, 
                       __ZTINSt3__110__function6__baseIFvN2gc4lang4TileENS3_6BufferENS3_5ArrayIS5_EES7_NS3_3est6FactorERNS8_14FactorOrderingENS8_22SchurEliminatedHessianES5_EEE, 
                       __ZTINSt3__110__function6__baseIFvN2gc4lang4TileENS3_6BufferENS3_6ScalarES5_EEE, 
                       __ZTINSt3__110__function6__baseIFvN2gc4lang4TileENS3_6BufferENS3_6ScalarES5_S5_EEE, 
                       __ZTINSt3__110__function6__baseIFvN2gc4lang4TileENS3_6BufferERNS3_3est8JacobianENS6_14FactorOrderingENS3_6ScalarES5_S5_EEE, 
                       __ZTINSt3__110__function6__baseIFvN2gc4lang4TileENS3_6BufferERNS3_3est8JacobianENS6_14FactorOrderingES5_S5_S5_S5_S5_EEE, 
                       __ZTINSt3__110__function6__baseIFvN2gc4lang4TileENS3_6BufferERNS3_3est8JacobianENS6_6FactorERNS6_11JacobianSetERNS6_14FactorOrderingENS3_5ArrayIS5_EENSE_ISC_EERNS6_16BlockMatrixArrayENS6_22SchurEliminatedHessianESF_S5_S5_EEE, 
                       __ZTINSt3__110__function6__baseIFvN2gc4lang4TileENS3_6BufferERNS3_3est8JacobianES5_S5_EEE, 
                       __ZTINSt3__110__function6__baseIFvN2gc4lang4TileENS3_6BufferES5_EEE, 
                       __ZTINSt3__110__function6__baseIFvN2gc4lang4TileENS3_6BufferES5_NS3_5ArrayINS3_3est8VariableEEEEEE, 
                       __ZTINSt3__110__function6__baseIFvN2gc4lang4TileENS3_6BufferES5_NS3_6ScalarES6_S6_S6_S6_S5_S5_EEE, 
                       __ZTINSt3__110__function6__baseIFvN2gc4lang4TileENS3_6BufferES5_NS3_6VectorES5_EEE, 
                       __ZTINSt3__110__function6__baseIFvN2gc4lang4TileENS3_6BufferES5_RNS3_3est8JacobianES5_S5_EEE, 
                       __ZTINSt3__110__function6__baseIFvN2gc4lang4TileENS3_6BufferES5_S5_EEE, 
                       __ZTINSt3__110__function6__baseIFvN2gc4lang4TileENS3_6BufferES5_S5_NS3_6ScalarEEEE, 
                       __ZTINSt3__110__function6__baseIFvN2gc4lang4TileENS3_6BufferES5_S5_NS3_6VectorES5_S5_EEE, 
                       __ZTINSt3__110__function6__baseIFvN2gc4lang4TileENS3_6BufferES5_S5_S5_EEE, 
                       __ZTINSt3__110__function6__baseIFvN2gc4lang4TileENS3_6BufferES5_S5_S5_S5_NS3_6ScalarEEEE, 
                       __ZTINSt3__110__function6__baseIFvN2gc4lang4TileENS3_6BufferES5_S5_S5_S5_S5_S5_EEE, 
                       __ZTINSt3__110__function6__baseIFvN2gc4lang4TileENS3_6ScalarENS3_6BufferES6_EEE, 
                       __ZTINSt3__110__function6__baseIFvN2gc4lang4TileENS3_6ScalarERNS3_3est11BlockMatrixEEEE, 
                       __ZTINSt3__110__function6__baseIFvN2gc4lang4TileERNS3_3est11BlockMatrixEEEE, 
                       __ZTINSt3__110__function6__baseIFvN2gc4lang4TileERNS3_3est11BlockMatrixENS3_6BufferES8_EEE, 
                       __ZTINSt3__110__function6__baseIFvN2gc4lang4TileERNS3_3est11BlockMatrixENS3_6BufferES8_S8_EEE, 
                       __ZTINSt3__110__function6__baseIFvN2gc4lang4TileERNS3_3est11BlockMatrixENS3_6BufferES8_S8_RS8_EEE, 
                       __ZTINSt3__110__function6__baseIFvN2gc4lang4TileERNS3_3est11JacobianSetENS3_5ArrayINS5_14FactorOrderingEEENS8_INS3_6BufferEEESC_SB_EEE, 
                       __ZTINSt3__110__function6__baseIFvN2gc4lang4TileERNS3_3est14FactorOrderingENS3_6BufferERNS5_8JacobianES8_S8_EEE, 
                       __ZTINSt3__110__function6__baseIFvN2gc4lang4TileERNS3_3est14FactorOrderingERNS5_8JacobianENS3_6BufferERSA_EEE, 
                       __ZTINSt3__110__function6__baseIFvN2gc4lang4TileERNS3_3est14FactorOrderingERNS5_8JacobianENS3_6BufferESA_EEE, 
                       __ZTINSt3__110__function6__baseIFvN2gc4lang4TileERNS3_3est14FactorOrderingERNS5_8JacobianENS3_6BufferESA_SA_EEE, 
                       __ZTINSt3__110__function6__baseIFvN2gc4lang4TileERNS3_3est14FactorOrderingERNS5_8JacobianENS3_6BufferESA_SA_SA_EEE, 
                       __ZTINSt3__110__function6__baseIFvN2gc4lang4TileERNS3_3est8JacobianENS3_6BufferES8_S8_RS8_EEE, 
                       __ZTINSt3__110__function6__baseIFvN2gc4lang4TileERNS3_3est8JacobianENS3_6BufferES8_S8_S8_S8_EEE, 
                       __ZTINSt3__110__function6__baseIFvN2gc4lang4TileERNS3_3est8JacobianENS5_14FactorOrderingENS3_6BufferES9_EEE, 
                       __ZTINSt3__110__function6__baseIFvN2gc4lang4TileERNS3_3est8JacobianENS5_14FactorOrderingENS3_6BufferES9_S9_EEE, 
                       __ZTINSt3__110__function6__baseIFvN2gc4lang4TileERNS3_3est8JacobianENS5_14FactorOrderingENS3_6BufferES9_S9_S9_EEE, 
                       __ZTINSt3__110__function6__baseIFvN2gc4lang4TileERNS3_3est8JacobianENS5_14FactorOrderingES8_NS3_6BufferES9_S9_S9_S9_S9_EEE, 
                       __ZTINSt3__110__function6__baseIFvN2gc4lang4TileERNS3_6ScalarENS3_6BufferEEEE, 
                       __ZTINSt3__110__function6__baseIFvN2gc4lang6BufferENS3_6ScalarEEEE, 
                       __ZTINSt3__110__function6__baseIFvN2gc4lang6BufferENS3_6VectorEEEE, 
                       __ZTINSt3__110__function6__baseIFvN2gc4lang6BufferES4_EEE, 
                       __ZTINSt3__110__function6__baseIFvN2gc4lang6BufferES4_S4_EEE, 
                       __ZTINSt3__110__function6__baseIFvNS_10shared_ptrIN2gc16BufferParametersEEEEEE, 
                       __ZTINSt3__110__function6__baseIFvNS_6vectorIN2gc4ExprENS_9allocatorIS4_EEEEEEE, 
                       __ZTINSt3__110__function6__baseIFvPN2gc12ComputeGraph4NodeEEEE, 
                       __ZTINSt3__110__function6__baseIFvRKN2gc4ExprEEEE, __ZTINSt3__110__function6__baseIFvRKN2gc4lang4TileENS3_3est13BlockOrderingENS3_5ArrayINS7_14FactorOrderingEEERNS7_11JacobianSetERNS7_11BlockMatrixEEEE, 
                       __ZTINSt3__110__function6__baseIFvRKN2gc4lang4TileENS3_3est13BlockOrderingENS7_14FactorOrderingERNS7_8JacobianERNS7_11BlockMatrixEEEE, 
                       __ZTINSt3__110__function6__baseIFvRKN2gc4lang4TileENS3_3est14FactorOrderingERNS7_8JacobianENS3_6BufferESB_EEE, 
                       __ZTINSt3__110__function6__baseIFvRKN2gc4lang4TileENS3_3est6FactorENS3_6BufferES9_S9_NS3_5ArrayINS7_14FactorOrderingEEENS7_11VariableSetENSA_IS9_EESE_NS3_17BindableTypeArrayEEEE, 
                       __ZTINSt3__110__function6__baseIFvRKN2gc4lang4TileENS3_3est6FactorENS7_11VariableSetENS3_6BufferESA_NS3_17BindableTypeArrayEEEE, 
                       __ZTINSt3__110__function6__baseIFvRKN2gc4lang4TileENS3_3est6FactorENS7_11VariableSetENS3_6BufferESA_SA_NS3_17BindableTypeArrayEEEE, 
                       __ZTINSt3__110__function6__baseIFvRKN2gc4lang4TileENS3_3est6FactorERNS7_14FactorOrderingENS3_5ArrayINS3_6BufferEEERNS7_16BlockMatrixArrayENS7_22SchurEliminatedHessianESD_SC_SC_EEE, 
                       __ZTINSt3__110__function6__baseIFvRKN2gc4lang4TileENS3_3est8VariableEEEE, 
                       __ZTINSt3__110__function6__baseIFvRKN2gc4lang4TileENS3_3est8VariableENS3_6ScalarEEEE, 
                       __ZTINSt3__110__function6__baseIFvRKN2gc4lang4TileENS3_5ArrayINS3_3est13BlockOrderingEEENS7_INS8_14FactorOrderingEEERNS8_11JacobianSetERNS8_16BlockMatrixArrayEEEE, 
                       __ZTINSt3__110__function6__baseIFvRKN2gc4lang4TileENS3_5ArrayINS3_6BufferEEES9_EEE, 
                       __ZTINSt3__110__function6__baseIFvRKN2gc4lang4TileENS3_6BufferEEEE, 
                       __ZTINSt3__110__function6__baseIFvRKN2gc4lang4TileENS3_6BufferENS3_3est6FactorERNS8_11JacobianSetENS3_5ArrayIS7_EENSC_INS8_14FactorOrderingEEERNS8_16BlockMatrixArrayESD_EEE, 
                       __ZTINSt3__110__function6__baseIFvRKN2gc4lang4TileENS3_6BufferENS3_3est8VariableEEEE, 
                       __ZTINSt3__110__function6__baseIFvRKN2gc4lang4TileENS3_6BufferENS3_5ArrayINS3_3est8VariableEEEEEE, 
                       __ZTINSt3__110__function6__baseIFvRKN2gc4lang4TileENS3_6BufferENS3_5ArrayIS7_EES9_NS3_3est6FactorERNSA_14FactorOrderingENSA_22SchurEliminatedHessianES7_EEE, 
                       __ZTINSt3__110__function6__baseIFvRKN2gc4lang4TileENS3_6BufferENS3_6ScalarES7_EEE, 
                       __ZTINSt3__110__function6__baseIFvRKN2gc4lang4TileENS3_6BufferENS3_6ScalarES7_S7_EEE, 
                       __ZTINSt3__110__function6__baseIFvRKN2gc4lang4TileENS3_6BufferERNS3_3est8JacobianENS8_14FactorOrderingENS3_6ScalarES7_S7_EEE, 
                       __ZTINSt3__110__function6__baseIFvRKN2gc4lang4TileENS3_6BufferERNS3_3est8JacobianENS8_14FactorOrderingES7_S7_S7_S7_S7_EEE, 
                       __ZTINSt3__110__function6__baseIFvRKN2gc4lang4TileENS3_6BufferERNS3_3est8JacobianENS8_6FactorERNS8_11JacobianSetERNS8_14FactorOrderingENS3_5ArrayIS7_EENSG_ISE_EERNS8_16BlockMatrixArrayENS8_22SchurEliminatedHessianESH_S7_S7_EEE, 
                       __ZTINSt3__110__function6__baseIFvRKN2gc4lang4TileENS3_6BufferERNS3_3est8JacobianES7_S7_EEE, 
                       __ZTINSt3__110__function6__baseIFvRKN2gc4lang4TileENS3_6BufferES7_EEE, 
                       __ZTINSt3__110__function6__baseIFvRKN2gc4lang4TileENS3_6BufferES7_NS3_5ArrayINS3_3est8VariableEEEEEE, 
                       __ZTINSt3__110__function6__baseIFvRKN2gc4lang4TileENS3_6BufferES7_NS3_6ScalarES8_S8_S8_S8_S7_S7_EEE, 
                       __ZTINSt3__110__function6__baseIFvRKN2gc4lang4TileENS3_6BufferES7_NS3_6VectorES7_EEE, 
                       __ZTINSt3__110__function6__baseIFvRKN2gc4lang4TileENS3_6BufferES7_RNS3_3est8JacobianES7_S7_EEE, 
                       __ZTINSt3__110__function6__baseIFvRKN2gc4lang4TileENS3_6BufferES7_S7_EEE, 
                       __ZTINSt3__110__function6__baseIFvRKN2gc4lang4TileENS3_6BufferES7_S7_NS3_6ScalarEEEE, 
                       __ZTINSt3__110__function6__baseIFvRKN2gc4lang4TileENS3_6BufferES7_S7_NS3_6VectorES7_S7_EEE, 
                       __ZTINSt3__110__function6__baseIFvRKN2gc4lang4TileENS3_6BufferES7_S7_S7_EEE, 
                       __ZTINSt3__110__function6__baseIFvRKN2gc4lang4TileENS3_6BufferES7_S7_S7_S7_NS3_6ScalarEEEE, 
                       __ZTINSt3__110__function6__baseIFvRKN2gc4lang4TileENS3_6BufferES7_S7_S7_S7_S7_S7_EEE, 
                       __ZTINSt3__110__function6__baseIFvRKN2gc4lang4TileENS3_6ScalarENS3_6BufferES8_EEE, 
                       __ZTINSt3__110__function6__baseIFvRKN2gc4lang4TileENS3_6ScalarERNS3_3est11BlockMatrixEEEE, 
                       __ZTINSt3__110__function6__baseIFvRKN2gc4lang4TileERNS3_3est11BlockMatrixEEEE, 
                       __ZTINSt3__110__function6__baseIFvRKN2gc4lang4TileERNS3_3est11BlockMatrixENS3_6BufferESA_EEE, 
                       __ZTINSt3__110__function6__baseIFvRKN2gc4lang4TileERNS3_3est11BlockMatrixENS3_6BufferESA_SA_EEE, 
                       __ZTINSt3__110__function6__baseIFvRKN2gc4lang4TileERNS3_3est11BlockMatrixENS3_6BufferESA_SA_RSA_EEE, 
                       __ZTINSt3__110__function6__baseIFvRKN2gc4lang4TileERNS3_3est11JacobianSetENS3_5ArrayINS7_14FactorOrderingEEENSA_INS3_6BufferEEESE_SD_EEE, 
                       __ZTINSt3__110__function6__baseIFvRKN2gc4lang4TileERNS3_3est14FactorOrderingENS3_6BufferERNS7_8JacobianESA_SA_EEE, 
                       __ZTINSt3__110__function6__baseIFvRKN2gc4lang4TileERNS3_3est14FactorOrderingERNS7_8JacobianENS3_6BufferERSC_EEE, 
                       __ZTINSt3__110__function6__baseIFvRKN2gc4lang4TileERNS3_3est14FactorOrderingERNS7_8JacobianENS3_6BufferESC_EEE, 
                       __ZTINSt3__110__function6__baseIFvRKN2gc4lang4TileERNS3_3est14FactorOrderingERNS7_8JacobianENS3_6BufferESC_SC_EEE, 
                       __ZTINSt3__110__function6__baseIFvRKN2gc4lang4TileERNS3_3est14FactorOrderingERNS7_8JacobianENS3_6BufferESC_SC_SC_EEE, 
                       __ZTINSt3__110__function6__baseIFvRKN2gc4lang4TileERNS3_3est8JacobianENS3_6BufferESA_SA_RSA_EEE, 
                       __ZTINSt3__110__function6__baseIFvRKN2gc4lang4TileERNS3_3est8JacobianENS3_6BufferESA_SA_SA_SA_EEE, 
                       __ZTINSt3__110__function6__baseIFvRKN2gc4lang4TileERNS3_3est8JacobianENS7_14FactorOrderingENS3_6BufferESB_EEE, 
                       __ZTINSt3__110__function6__baseIFvRKN2gc4lang4TileERNS3_3est8JacobianENS7_14FactorOrderingENS3_6BufferESB_SB_EEE, 
                       __ZTINSt3__110__function6__baseIFvRKN2gc4lang4TileERNS3_3est8JacobianENS7_14FactorOrderingENS3_6BufferESB_SB_SB_EEE, 
                       __ZTINSt3__110__function6__baseIFvRKN2gc4lang4TileERNS3_3est8JacobianENS7_14FactorOrderingESA_NS3_6BufferESB_SB_SB_SB_SB_EEE, 
                       __ZTINSt3__110__function6__baseIFvRKN2gc4lang4TileERNS3_6ScalarENS3_6BufferEEEE, 
                       __ZTINSt3__110__function6__baseIFvRKNS_6vectorIN2gc4ExprENS_9allocatorIS4_EEEENS3_4lang6TensorEEEE, 
                       __ZTINSt3__110__function6__baseIFvvEEE, __ZTINSt3__110__function6__baseIFxvEEE, 
                       __ZTINSt3__110__function6__baseIFyvEEE, __ZTINSt3__110__function6__funcINS_8functionIFN2gc4util10TaggedBoolINS3_3est15IsEliminableTagEEERKNS6_8VariableEEEENS_9allocatorISD_EEFbSB_EEE, 
                       __ZTINSt3__110__function6__funcINS_8functionIFvN2gc4ExprEEEENS_9allocatorIS6_EEFvRKS4_EEE, 
                       __ZTINSt3__110__function6__funcINS_8functionIFvN2gc4lang4TileENS4_3est13BlockOrderingENS4_5ArrayINS6_14FactorOrderingEEERNS6_11JacobianSetERNS6_11BlockMatrixEEEENS_9allocatorISG_EEFvRKS5_S7_SA_SC_SE_EEE, 
                       __ZTINSt3__110__function6__funcINS_8functionIFvN2gc4lang4TileENS4_3est13BlockOrderingENS6_14FactorOrderingERNS6_8JacobianERNS6_11BlockMatrixEEEENS_9allocatorISE_EEFvRKS5_S7_S8_SA_SC_EEE, 
                       __ZTINSt3__110__function6__funcINS_8functionIFvN2gc4lang4TileENS4_3est14FactorOrderingERNS6_8JacobianENS4_6BufferESA_EEENS_9allocatorISC_EEFvRKS5_S7_S9_SA_SA_EEE, 
                       __ZTINSt3__110__function6__funcINS_8functionIFvN2gc4lang4TileENS4_3est6FactorENS4_6BufferES8_S8_NS4_5ArrayINS6_14FactorOrderingEEENS6_11VariableSetENS9_IS8_EESD_NS4_17BindableTypeArrayEEEENS_9allocatorISG_EEFvRKS5_S7_S8_S8_S8_SB_SC_SD_SD_SE_EEE, 
                       __ZTINSt3__110__function6__funcINS_8functionIFvN2gc4lang4TileENS4_3est6FactorENS6_11VariableSetENS4_6BufferES9_NS4_17BindableTypeArrayEEEENS_9allocatorISC_EEFvRKS5_S7_S8_S9_S9_SA_EEE, 
                       __ZTINSt3__110__function6__funcINS_8functionIFvN2gc4lang4TileENS4_3est6FactorENS6_11VariableSetENS4_6BufferES9_S9_NS4_17BindableTypeArrayEEEENS_9allocatorISC_EEFvRKS5_S7_S8_S9_S9_S9_SA_EEE, 
                       __ZTINSt3__110__function6__funcINS_8functionIFvN2gc4lang4TileENS4_3est6FactorERNS6_14FactorOrderingENS4_5ArrayINS4_6BufferEEERNS6_16BlockMatrixArrayENS6_22SchurEliminatedHessianESC_SB_SB_EEENS_9allocatorISH_EEFvRKS5_S7_S9_SC_SE_SF_SC_SB_SB_EEE, 
                       __ZTINSt3__110__function6__funcINS_8functionIFvN2gc4lang4TileENS4_3est8VariableEEEENS_9allocatorIS9_EEFvRKS5_S7_EEE, 
                       __ZTINSt3__110__function6__funcINS_8functionIFvN2gc4lang4TileENS4_3est8VariableENS4_6ScalarEEEENS_9allocatorISA_EEFvRKS5_S7_S8_EEE, 
                       __ZTINSt3__110__function6__funcINS_8functionIFvN2gc4lang4TileENS4_5ArrayINS4_3est13BlockOrderingEEENS6_INS7_14FactorOrderingEEERNS7_11JacobianSetERNS7_16BlockMatrixArrayEEEENS_9allocatorISH_EEFvRKS5_S9_SB_SD_SF_EEE, 
                       __ZTINSt3__110__function6__funcINS_8functionIFvN2gc4lang4TileENS4_5ArrayINS4_6BufferEEES8_EEENS_9allocatorISA_EEFvRKS5_S8_S8_EEE, 
                       __ZTINSt3__110__function6__funcINS_8functionIFvN2gc4lang4TileENS4_6BufferEEEENS_9allocatorIS8_EEFvRKS5_S6_EEE, 
                       __ZTINSt3__110__function6__funcINS_8functionIFvN2gc4lang4TileENS4_6BufferENS4_3est6FactorERNS7_11JacobianSetENS4_5ArrayIS6_EENSB_INS7_14FactorOrderingEEERNS7_16BlockMatrixArrayESC_EEENS_9allocatorISI_EEFvRKS5_S6_S8_SA_SC_SE_SG_SC_EEE, 
                       __ZTINSt3__110__function6__funcINS_8functionIFvN2gc4lang4TileENS4_6BufferENS4_3est8VariableEEEENS_9allocatorISA_EEFvRKS5_S6_S8_EEE, 
                       __ZTINSt3__110__function6__funcINS_8functionIFvN2gc4lang4TileENS4_6BufferENS4_5ArrayINS4_3est8VariableEEEEEENS_9allocatorISC_EEFvRKS5_S6_SA_EEE, 
                       __ZTINSt3__110__function6__funcINS_8functionIFvN2gc4lang4TileENS4_6BufferENS4_5ArrayIS6_EES8_NS4_3est6FactorERNS9_14FactorOrderingENS9_22SchurEliminatedHessianES6_EEENS_9allocatorISF_EEFvRKS5_S6_S8_S8_SA_SC_SD_S6_EEE, 
                       __ZTINSt3__110__function6__funcINS_8functionIFvN2gc4lang4TileENS4_6BufferENS4_6ScalarES6_EEENS_9allocatorIS9_EEFvRKS5_S6_S7_S6_EEE, 
                       __ZTINSt3__110__function6__funcINS_8functionIFvN2gc4lang4TileENS4_6BufferENS4_6ScalarES6_S6_EEENS_9allocatorIS9_EEFvRKS5_S6_S7_S6_S6_EEE, 
                       __ZTINSt3__110__function6__funcINS_8functionIFvN2gc4lang4TileENS4_6BufferERNS4_3est8JacobianENS7_14FactorOrderingENS4_6ScalarES6_S6_EEENS_9allocatorISD_EEFvRKS5_S6_S9_SA_SB_S6_S6_EEE, 
                       __ZTINSt3__110__function6__funcINS_8functionIFvN2gc4lang4TileENS4_6BufferERNS4_3est8JacobianENS7_14FactorOrderingES6_S6_S6_S6_S6_EEENS_9allocatorISC_EEFvRKS5_S6_S9_SA_S6_S6_S6_S6_S6_EEE, 
                       __ZTINSt3__110__function6__funcINS_8functionIFvN2gc4lang4TileENS4_6BufferERNS4_3est8JacobianENS7_6FactorERNS7_11JacobianSetERNS7_14FactorOrderingENS4_5ArrayIS6_EENSF_ISD_EERNS7_16BlockMatrixArrayENS7_22SchurEliminatedHessianESG_S6_S6_EEENS_9allocatorISM_EEFvRKS5_S6_S9_SA_SC_SE_SG_SH_SJ_SK_SG_S6_S6_EEE, 
                       __ZTINSt3__110__function6__funcINS_8functionIFvN2gc4lang4TileENS4_6BufferERNS4_3est8JacobianES6_S6_EEENS_9allocatorISB_EEFvRKS5_S6_S9_S6_S6_EEE, 
                       __ZTINSt3__110__function6__funcINS_8functionIFvN2gc4lang4TileENS4_6BufferES6_EEENS_9allocatorIS8_EEFvRKS5_S6_S6_EEE, 
                       __ZTINSt3__110__function6__funcINS_8functionIFvN2gc4lang4TileENS4_6BufferES6_NS4_5ArrayINS4_3est8VariableEEEEEENS_9allocatorISC_EEFvRKS5_S6_S6_SA_EEE, 
                       __ZTINSt3__110__function6__funcINS_8functionIFvN2gc4lang4TileENS4_6BufferES6_NS4_6ScalarES7_S7_S7_S7_S6_S6_EEENS_9allocatorIS9_EEFvRKS5_S6_S6_S7_S7_S7_S7_S7_S6_S6_EEE, 
                       __ZTINSt3__110__function6__funcINS_8functionIFvN2gc4lang4TileENS4_6BufferES6_NS4_6VectorES6_EEENS_9allocatorIS9_EEFvRKS5_S6_S6_S7_S6_EEE, 
                       __ZTINSt3__110__function6__funcINS_8functionIFvN2gc4lang4TileENS4_6BufferES6_RNS4_3est8JacobianES6_S6_EEENS_9allocatorISB_EEFvRKS5_S6_S6_S9_S6_S6_EEE, 
                       __ZTINSt3__110__function6__funcINS_8functionIFvN2gc4lang4TileENS4_6BufferES6_S6_EEENS_9allocatorIS8_EEFvRKS5_S6_S6_S6_EEE, 
                       __ZTINSt3__110__function6__funcINS_8functionIFvN2gc4lang4TileENS4_6BufferES6_S6_NS4_6ScalarEEEENS_9allocatorIS9_EEFvRKS5_S6_S6_S6_S7_EEE, 
                       __ZTINSt3__110__function6__funcINS_8functionIFvN2gc4lang4TileENS4_6BufferES6_S6_NS4_6VectorES6_S6_EEENS_9allocatorIS9_EEFvRKS5_S6_S6_S6_S7_S6_S6_EEE, 
                       __ZTINSt3__110__function6__funcINS_8functionIFvN2gc4lang4TileENS4_6BufferES6_S6_S6_EEENS_9allocatorIS8_EEFvRKS5_S6_S6_S6_S6_EEE, 
                       __ZTINSt3__110__function6__funcINS_8functionIFvN2gc4lang4TileENS4_6BufferES6_S6_S6_S6_NS4_6ScalarEEEENS_9allocatorIS9_EEFvRKS5_S6_S6_S6_S6_S6_S7_EEE, 
                       __ZTINSt3__110__function6__funcINS_8functionIFvN2gc4lang4TileENS4_6BufferES6_S6_S6_S6_S6_S6_EEENS_9allocatorIS8_EEFvRKS5_S6_S6_S6_S6_S6_S6_S6_EEE, 
                       __ZTINSt3__110__function6__funcINS_8functionIFvN2gc4lang4TileENS4_6ScalarENS4_6BufferES7_EEENS_9allocatorIS9_EEFvRKS5_S6_S7_S7_EEE, 
                       __ZTINSt3__110__function6__funcINS_8functionIFvN2gc4lang4TileENS4_6ScalarERNS4_3est11BlockMatrixEEEENS_9allocatorISB_EEFvRKS5_S6_S9_EEE, 
                       __ZTINSt3__110__function6__funcINS_8functionIFvN2gc4lang4TileERNS4_3est11BlockMatrixEEEENS_9allocatorISA_EEFvRKS5_S8_EEE, 
                       __ZTINSt3__110__function6__funcINS_8functionIFvN2gc4lang4TileERNS4_3est11BlockMatrixENS4_6BufferES9_EEENS_9allocatorISB_EEFvRKS5_S8_S9_S9_EEE, 
                       __ZTINSt3__110__function6__funcINS_8functionIFvN2gc4lang4TileERNS4_3est11BlockMatrixENS4_6BufferES9_S9_EEENS_9allocatorISB_EEFvRKS5_S8_S9_S9_S9_EEE, 
                       __ZTINSt3__110__function6__funcINS_8functionIFvN2gc4lang4TileERNS4_3est11BlockMatrixENS4_6BufferES9_S9_RS9_EEENS_9allocatorISC_EEFvRKS5_S8_S9_S9_S9_SA_EEE, 
                       __ZTINSt3__110__function6__funcINS_8functionIFvN2gc4lang4TileERNS4_3est11JacobianSetENS4_5ArrayINS6_14FactorOrderingEEENS9_INS4_6BufferEEESD_SC_EEENS_9allocatorISF_EEFvRKS5_S8_SB_SD_SD_SC_EEE, 
                       __ZTINSt3__110__function6__funcINS_8functionIFvN2gc4lang4TileERNS4_3est14FactorOrderingENS4_6BufferERNS6_8JacobianES9_S9_EEENS_9allocatorISD_EEFvRKS5_S8_S9_SB_S9_S9_EEE, 
                       __ZTINSt3__110__function6__funcINS_8functionIFvN2gc4lang4TileERNS4_3est14FactorOrderingERNS6_8JacobianENS4_6BufferERSB_EEENS_9allocatorISE_EEFvRKS5_S8_SA_SB_SC_EEE, 
                       __ZTINSt3__110__function6__funcINS_8functionIFvN2gc4lang4TileERNS4_3est14FactorOrderingERNS6_8JacobianENS4_6BufferESB_EEENS_9allocatorISD_EEFvRKS5_S8_SA_SB_SB_EEE, 
                       __ZTINSt3__110__function6__funcINS_8functionIFvN2gc4lang4TileERNS4_3est14FactorOrderingERNS6_8JacobianENS4_6BufferESB_SB_EEENS_9allocatorISD_EEFvRKS5_S8_SA_SB_SB_SB_EEE, 
                       __ZTINSt3__110__function6__funcINS_8functionIFvN2gc4lang4TileERNS4_3est14FactorOrderingERNS6_8JacobianENS4_6BufferESB_SB_SB_EEENS_9allocatorISD_EEFvRKS5_S8_SA_SB_SB_SB_SB_EEE, 
                       __ZTINSt3__110__function6__funcINS_8functionIFvN2gc4lang4TileERNS4_3est8JacobianENS4_6BufferES9_S9_RS9_EEENS_9allocatorISC_EEFvRKS5_S8_S9_S9_S9_SA_EEE, 
                       __ZTINSt3__110__function6__funcINS_8functionIFvN2gc4lang4TileERNS4_3est8JacobianENS4_6BufferES9_S9_S9_S9_EEENS_9allocatorISB_EEFvRKS5_S8_S9_S9_S9_S9_S9_EEE, 
                       __ZTINSt3__110__function6__funcINS_8functionIFvN2gc4lang4TileERNS4_3est8JacobianENS6_14FactorOrderingENS4_6BufferESA_EEENS_9allocatorISC_EEFvRKS5_S8_S9_SA_SA_EEE, 
                       __ZTINSt3__110__function6__funcINS_8functionIFvN2gc4lang4TileERNS4_3est8JacobianENS6_14FactorOrderingENS4_6BufferESA_SA_EEENS_9allocatorISC_EEFvRKS5_S8_S9_SA_SA_SA_EEE, 
                       __ZTINSt3__110__function6__funcINS_8functionIFvN2gc4lang4TileERNS4_3est8JacobianENS6_14FactorOrderingENS4_6BufferESA_SA_SA_EEENS_9allocatorISC_EEFvRKS5_S8_S9_SA_SA_SA_SA_EEE, 
                       __ZTINSt3__110__function6__funcINS_8functionIFvN2gc4lang4TileERNS4_3est8JacobianENS6_14FactorOrderingES9_NS4_6BufferESA_SA_SA_SA_SA_EEENS_9allocatorISC_EEFvRKS5_S8_S9_S9_SA_SA_SA_SA_SA_SA_EEE, 
                       __ZTINSt3__110__function6__funcINS_8functionIFvN2gc4lang4TileERNS4_6ScalarENS4_6BufferEEEENS_9allocatorISA_EEFvRKS5_S7_S8_EEE, 
                       __ZTINSt3__110__function6__funcIPFN2gc4ExprES3_ENS_9allocatorIS5_EES4_EE, 
                       __ZTINSt3__110__function6__funcIPFN2gc4ExprES3_S3_ENS_9allocatorIS5_EES4_EE, 
                       __ZTINSt3__110__function6__funcIPFN2gc4StmtERKNS2_6TargetES3_ENS_9allocatorIS8_EES7_EE, 
                       __ZTINSt3__110__function6__funcIPFN2gc4lang2ad15BackpropFunctorENS3_6TensorES6_S6_ENS_9allocatorIS8_EES7_EE, 
                       __ZTINSt3__110__function6__funcIPFdddENS_9allocatorIS3_EES2_EE, 
                       __ZTINSt3__110__function6__funcIZN2gc3est10EvaluateHp10kernelFuncEvEUlNS2_4lang4TileERNS5_3est11BlockMatrixENS5_6BufferESA_SA_RSA_E_NS_9allocatorISC_EEFvS6_S9_SA_SA_SA_SB_EEE, 
                       __ZTINSt3__110__function6__funcIZN2gc3est10EvaluateHp19kernelFuncNoOffsetsEvEUlNS2_4lang4TileERNS5_3est11BlockMatrixENS5_6BufferESA_E_NS_9allocatorISB_EEFvS6_S9_SA_SA_EEE, 
                       __ZTINSt3__110__function6__funcIZN2gc3est10EvaluateJp10kernelFuncEjEUlNS2_4lang4TileENS5_6BufferES7_RNS5_3est8JacobianES7_S7_E_NS_9allocatorISB_EEFvS6_S7_S7_SA_S7_S7_EEE, 
                       __ZTINSt3__110__function6__funcIZN2gc3est10EvaluateJp18kernelFuncUnsortedEjEUlNS2_4lang4TileERNS5_3est14FactorOrderingENS5_6BufferERNS7_8JacobianESA_SA_E_NS_9allocatorISD_EEFvS6_S9_SA_SC_SA_SA_EEE, 
                       __ZTINSt3__110__function6__funcIZN2gc3est10EvaluateJp18kernelFuncVariadicEjEUlNS2_4lang4TileERNS5_3est14FactorOrderingENS5_6BufferERNS7_8JacobianESA_SA_E_NS_9allocatorISD_EEFvS6_S9_SA_SC_SA_SA_EEE, 
                       __ZTINSt3__110__function6__funcIZN2gc3est10EvaluateJp19kernelFuncNoOffsetsEjEUlNS2_4lang4TileENS5_6BufferERNS5_3est8JacobianES7_S7_E_NS_9allocatorISB_EEFvS6_S7_SA_S7_S7_EEE, 
                       __ZTINSt3__110__function6__funcIZN2gc3est10EvaluateJp27kernelFuncUnsortedNoOffsetsEjEUlNS2_4lang4TileERNS5_3est14FactorOrderingERNS7_8JacobianENS5_6BufferESC_E_NS_9allocatorISD_EEFvS6_S9_SB_SC_SC_EEE, 
                       __ZTINSt3__110__function6__funcIZN2gc3est10EvaluateJp27kernelFuncVariadicNoOffsetsEjEUlNS2_4lang4TileERNS5_3est14FactorOrderingERNS7_8JacobianENS5_6BufferESC_E_NS_9allocatorISD_EEFvS6_S9_SB_SC_SC_EEE, 
                       __ZTINSt3__110__function6__funcIZN2gc3est11EvaluateJtJ18kernelFuncDiagonalEvEUlNS2_4lang4TileENS5_3est13BlockOrderingENS7_14FactorOrderingERNS7_8JacobianERNS7_11BlockMatrixEE_NS_9allocatorISE_EEFvS6_S8_S9_SB_SD_EEE, 
                       __ZTINSt3__110__function6__funcIZN2gc3est11EvaluateJtJ21kernelFuncOffDiagonalEvEUlNS2_4lang4TileENS5_3est13BlockOrderingENS5_5ArrayINS7_14FactorOrderingEEERNS7_11JacobianSetERNS7_11BlockMatrixEE_NS_9allocatorISG_EEFvS6_S8_SB_SD_SF_EEE, 
                       __ZTINSt3__110__function6__funcIZN2gc3est11EvaluateJte10kernelFuncEvEUlNS2_4lang4TileENS5_3est14FactorOrderingERNS7_8JacobianENS5_6BufferESB_E_NS_9allocatorISC_EEFvS6_S8_SA_SB_SB_EEE, 
                       __ZTINSt3__110__function6__funcIZN2gc3est11PCGIterate110kernelFuncEvEUlNS2_4lang4TileENS5_6BufferES7_S7_S7_S7_S7_S7_E_NS_9allocatorIS8_EEFvS6_S7_S7_S7_S7_S7_S7_S7_EEE, 
                       __ZTINSt3__110__function6__funcIZN2gc3est11PCGIterate210kernelFuncEvEUlNS2_4lang4TileENS5_6BufferES7_S7_E_NS_9allocatorIS8_EEFvS6_S7_S7_S7_EEE, 
                       __ZTINSt3__110__function6__funcIZN2gc3est12EvaluateJtJp10kernelFuncEjEUlNS2_4lang4TileERNS5_3est14FactorOrderingERNS7_8JacobianENS5_6BufferERSC_E_NS_9allocatorISE_EEFvS6_S9_SB_SC_SD_EEE, 
                       __ZTINSt3__110__function6__funcIZN2gc3est12InvertBlockM10kernelFuncEvEUlNS2_4lang4TileENS5_6BufferES7_E_NS_9allocatorIS8_EEFvS6_S7_S7_EEE, 
                       __ZTINSt3__110__function6__funcIZN2gc3est14EvaluateBlockM10kernelFuncEvEUlNS2_4lang4TileERNS5_3est14FactorOrderingERNS7_8JacobianENS5_6BufferESC_E_NS_9allocatorISD_EEFvS6_S9_SB_SC_SC_EEE, 
                       __ZTINSt3__110__function6__funcIZN2gc3est14ExtractDiagJtJ10kernelFuncEvEUlNS2_4lang4TileERNS5_3est11BlockMatrixENS5_6BufferESA_SA_E_NS_9allocatorISB_EEFvS6_S9_SA_SA_SA_EEE, 
                       __ZTINSt3__110__function6__funcIZN2gc3est14ExtractDiagJtJ19kernelFuncNoOffsetsEvEUlNS2_4lang4TileERNS5_3est11BlockMatrixENS5_6BufferESA_E_NS_9allocatorISB_EEFvS6_S9_SA_SA_EEE, 
                       __ZTINSt3__110__function6__funcIZN2gc3est14SchurLinearize16factorKernelFuncERKNS_6vectorINS3_13ArgumentGroupENS_9allocatorIS6_EEEERKNS_3mapINS_12basic_stringIcNS_11char_traitsIcEENS7_IcEEEEjNS_4lessISH_EENS7_INS_4pairIKSH_jEEEEEEbEUlNS2_4lang4TileENSR_6BufferENSR_3est6FactorERNSU_11JacobianSetENSR_5ArrayIST_EENSY_INSU_14FactorOrderingEEERNSU_16BlockMatrixArrayESZ_E_NS7_IS14_EEFvSS_ST_SV_SX_SZ_S11_S13_SZ_EEE, 
                       __ZTINSt3__110__function6__funcIZN2gc3est14SchurLinearize28eliminatedVariableKernelFuncERKNS_6vectorINS3_13ArgumentGroupENS_9allocatorIS6_EEEERKNS_3mapINS_12basic_stringIcNS_11char_traitsIcEENS7_IcEEEEjNS_4lessISH_EENS7_INS_4pairIKSH_jEEEEEEbEUlNS2_4lang4TileENSR_6BufferERNSR_3est8JacobianENSU_6FactorERNSU_11JacobianSetERNSU_14FactorOrderingENSR_5ArrayIST_EENS12_IS10_EERNSU_16BlockMatrixArrayENSU_22SchurEliminatedHessianES13_ST_ST_E_NS7_IS18_EEFvSS_ST_SW_SX_SZ_S11_S13_S14_S16_S17_S13_ST_ST_EEE, 
                       __ZTINSt3__110__function6__funcIZN2gc3est17SchurOuterProduct27schurOuterProductKernelFuncERKNS_6vectorINS3_13ArgumentGroupENS_9allocatorIS6_EEEERKNS_3mapINS_12basic_stringIcNS_11char_traitsIcEENS7_IcEEEEjNS_4lessISH_EENS7_INS_4pairIKSH_jEEEEEEbEUlNS2_4lang4TileENSR_3est6FactorERNST_14FactorOrderingENSR_5ArrayINSR_6BufferEEERNST_16BlockMatrixArrayENST_22SchurEliminatedHessianESZ_SY_SY_E_NS7_IS13_EEFvSS_SU_SW_SZ_S11_S12_SZ_SY_SY_EEE, 
                       __ZTINSt3__110__function6__funcIZN2gc3est17SymmetrizeDiagJtJ10kernelFuncEvEUlNS2_4lang4TileERNS5_3est11BlockMatrixEE_NS_9allocatorISA_EEFvS6_S9_EEE, 
                       __ZTINSt3__110__function6__funcIZN2gc3est18ImplicitSchurJtJp110kernelFuncEvEUlNS2_4lang4TileERNS5_3est8JacobianENS7_14FactorOrderingENS5_6BufferESB_E_NS_9allocatorISC_EEFvS6_S9_SA_SB_SB_EEE, 
                       __ZTINSt3__110__function6__funcIZN2gc3est18ImplicitSchurJtJp210kernelFuncEjEUlNS2_4lang4TileERNS5_3est8JacobianENS5_6BufferESA_SA_SA_SA_E_NS_9allocatorISB_EEFvS6_S9_SA_SA_SA_SA_SA_EEE, 
                       __ZTINSt3__110__function6__funcIZN2gc3est18ImplicitSchurJtJp218kernelFuncUnsortedEjEUlNS2_4lang4TileERNS5_3est14FactorOrderingERNS7_8JacobianENS5_6BufferESC_SC_SC_E_NS_9allocatorISD_EEFvS6_S9_SB_SC_SC_SC_SC_EEE, 
                       __ZTINSt3__110__function6__funcIZN2gc3est18ImplicitSchurJtJp218kernelFuncVariadicEjEUlNS2_4lang4TileERNS5_3est8JacobianENS7_14FactorOrderingENS5_6BufferESB_SB_SB_E_NS_9allocatorISC_EEFvS6_S9_SA_SB_SB_SB_SB_EEE, 
                       __ZTINSt3__110__function6__funcIZN2gc3est18ImplicitSchurJtJp219kernelFuncNoOffsetsEjEUlNS2_4lang4TileERNS5_3est8JacobianENS5_6BufferESA_SA_RSA_E_NS_9allocatorISC_EEFvS6_S9_SA_SA_SA_SB_EEE, 
                       __ZTINSt3__110__function6__funcIZN2gc3est18ImplicitSchurJtJp227kernelFuncUnsortedNoOffsetsEjEUlNS2_4lang4TileERNS5_3est14FactorOrderingERNS7_8JacobianENS5_6BufferESC_SC_E_NS_9allocatorISD_EEFvS6_S9_SB_SC_SC_SC_EEE, 
                       __ZTINSt3__110__function6__funcIZN2gc3est18ImplicitSchurJtJp227kernelFuncVariadicNoOffsetsEjEUlNS2_4lang4TileERNS5_3est8JacobianENS7_14FactorOrderingENS5_6BufferESB_SB_E_NS_9allocatorISC_EEFvS6_S9_SA_SB_SB_SB_EEE, 
                       __ZTINSt3__110__function6__funcIZN2gc3est20MaterializeJacobians10kernelFuncERKNS3_16ArgumentGroupingERKNS_6vectorINS3_13eJacobianTypeENS_9allocatorIS9_EEEEEUlNS2_4lang4TileENSF_3est6FactorENSF_6BufferESJ_SJ_NSF_5ArrayINSH_14FactorOrderingEEENSH_11VariableSetENSK_ISJ_EESO_NSF_17BindableTypeArrayEE_NSA_ISQ_EEFvSG_SI_SJ_SJ_SJ_SM_SN_SO_SO_SP_EEE, 
                       __ZTINSt3__110__function6__funcIZN2gc3est20SchurBackSubstitute110kernelFuncERKNS_6vectorINS3_13ArgumentGroupENS_9allocatorIS6_EEEERKNS_3mapINS_12basic_stringIcNS_11char_traitsIcEENS7_IcEEEEjNS_4lessISH_EENS7_INS_4pairIKSH_jEEEEEEbEUlNS2_4lang4TileENSR_6BufferENSR_5ArrayIST_EESV_NSR_3est6FactorERNSW_14FactorOrderingENSW_22SchurEliminatedHessianEST_E_NS7_IS11_EEFvSS_ST_SV_SV_SX_SZ_S10_ST_EEE, 
                       __ZTINSt3__110__function6__funcIZN2gc3est20SchurBackSubstitute210kernelFuncEvEUlNS2_4lang4TileENS5_6BufferES7_E_NS_9allocatorIS8_EEFvS6_S7_S7_EEE, 
                       __ZTINSt3__110__function6__funcIZN2gc3est22EvaluateJtJFactorLevel10kernelFuncERKNS_6vectorIjNS_9allocatorIjEEEEEUlNS2_4lang4TileENSB_5ArrayINSB_3est13BlockOrderingEEENSD_INSE_14FactorOrderingEEERNSE_11JacobianSetERNSE_16BlockMatrixArrayEE_NS6_ISN_EEFvSC_SG_SI_SK_SM_EEE, 
                       __ZTINSt3__110__function6__funcIZN2gc3est24ImplicitSchurInitialize110kernelFuncEvEUlNS2_4lang4TileENS5_6BufferERNS5_3est8JacobianENS8_14FactorOrderingENS5_6ScalarES7_S7_E_NS_9allocatorISD_EEFvS6_S7_SA_SB_SC_S7_S7_EEE, 
                       __ZTINSt3__110__function6__funcIZN2gc3est24ImplicitSchurInitialize210kernelFuncEjEUlNS2_4lang4TileENS5_6BufferERNS5_3est8JacobianENS8_14FactorOrderingES7_S7_S7_S7_S7_E_NS_9allocatorISC_EEFvS6_S7_SA_SB_S7_S7_S7_S7_S7_EEE, 
                       __ZTINSt3__110__function6__funcIZN2gc3est24ImplicitSchurInitialize310kernelFuncEvEUlNS2_4lang4TileERNS5_3est8JacobianENS7_14FactorOrderingESA_NS5_6BufferESB_SB_SB_SB_SB_E_NS_9allocatorISC_EEFvS6_S9_SA_SA_SB_SB_SB_SB_SB_SB_EEE, 
                       __ZTINSt3__110__function6__funcIZN2gc3est25ApplyJacobiPreconditioner10kernelFuncEvEUlNS2_4lang4TileENS5_6BufferES7_S7_E_NS_9allocatorIS8_EEFvS6_S7_S7_S7_EEE, 
                       __ZTINSt3__110__function6__funcIZN2gc3est28ImplicitSchurBackSubstitute110kernelFuncERKNS_6vectorINS3_13ArgumentGroupENS_9allocatorIS6_EEEERKNS_3mapINS_12basic_stringIcNS_11char_traitsIcEENS7_IcEEEEjNS_4lessISH_EENS7_INS_4pairIKSH_jEEEEEEEUlNS2_4lang4TileERNSR_3est11JacobianSetENSR_5ArrayINST_14FactorOrderingEEENSW_INSR_6BufferEEES10_SZ_E_NS7_IS11_EEFvSS_SV_SY_S10_S10_SZ_EEE, 
                       __ZTINSt3__110__function6__funcIZN2gc3est28ImplicitSchurBackSubstitute210kernelFuncEvEUlNS2_4lang4TileENS5_6BufferES7_S7_S7_E_NS_9allocatorIS8_EEFvS6_S7_S7_S7_S7_EEE, 
                       __ZTINSt3__110__function6__funcIZN2gc3est28SchurDampAndInvertEliminated10kernelFuncEvEUlNS2_4lang4TileERNS5_6ScalarENS5_6BufferEE_NS_9allocatorISA_EEFvS6_S8_S9_EEE, 
                       __ZTINSt3__110__function6__funcIZN2gc3est30ApplyAdditiveLMDampingExplicit10kernelFuncEvEUlNS2_4lang4TileENS5_6ScalarERNS5_3est11BlockMatrixEE_NS_9allocatorISB_EEFvS6_S7_SA_EEE, 
                       __ZTINSt3__110__function6__funcIZN2gc3est30ApplyAdditiveLMDampingImplicit10kernelFuncEvEUlNS2_4lang4TileENS5_6BufferENS5_6ScalarES7_E_NS_9allocatorIS9_EEFvS6_S7_S8_S7_EEE, 
                       __ZTINSt3__110__function6__funcIZN2gc3est30ApplyBlockJacobiPreconditioner10kernelFuncEvEUlNS2_4lang4TileENS5_6BufferES7_S7_E_NS_9allocatorIS8_EEFvS6_S7_S7_S7_EEE, 
                       __ZTINSt3__110__function6__funcIZN2gc3est33ApplyAdditiveLMDampingToDiagonals10kernelFuncEvEUlNS2_4lang4TileENS5_6ScalarENS5_6BufferES8_E_NS_9allocatorIS9_EEFvS6_S7_S8_S8_EEE, 
                       __ZTINSt3__110__function6__funcIZN2gc3est36ApplyMultiplicativeLMDampingExplicit10kernelFuncEvEUlNS2_4lang4TileENS5_6ScalarERNS5_3est11BlockMatrixEE_NS_9allocatorISB_EEFvS6_S7_SA_EEE, 
                       __ZTINSt3__110__function6__funcIZN2gc3est36ApplyMultiplicativeLMDampingImplicit10kernelFuncEvEUlNS2_4lang4TileENS5_6BufferENS5_6ScalarES7_S7_E_NS_9allocatorIS9_EEFvS6_S7_S8_S7_S7_EEE, 
                       __ZTINSt3__110__function6__funcIZN2gc3est39ApplyMultiplicativeLMDampingToDiagonals10kernelFuncEvEUlNS2_4lang4TileENS5_6ScalarENS5_6BufferES8_E_NS_9allocatorIS9_EEFvS6_S7_S8_S8_EEE, 
                       __ZTINSt3__110__function6__funcIZN2gc3est7InvertM10kernelFuncEvEUlNS2_4lang4TileENS5_6BufferES7_E_NS_9allocatorIS8_EEFvS6_S7_S7_EEE, 
                       __ZTINSt3__110__function6__funcIZN2gc3ops10BinaryOpTTINS3_5MaxTTENS3_10AutoDiffOpEE6kernelEvEUlRKNS_6vectorI17loopkit_rt_type_tNS_9allocatorIS9_EEEEE_NSA_ISF_EEFNS_8optionalIS9_EESE_EEE, 
                       __ZTINSt3__110__function6__funcIZN2gc3ops10BinaryOpTTINS3_5MaxTTENS3_10AutoDiffOpEE6kernelEvEUlRKNS_6vectorINS2_11ExtentExprsENS_9allocatorIS9_EEEEE_NSA_ISF_EEFNS_8optionalINS_4pairIS9_NS2_4ExprEEEEESE_EEE, 
                       __ZTINSt3__110__function6__funcIZN2gc3ops10BinaryOpTTINS3_5MinTTENS3_10AutoDiffOpEE6kernelEvEUlRKNS_6vectorI17loopkit_rt_type_tNS_9allocatorIS9_EEEEE_NSA_ISF_EEFNS_8optionalIS9_EESE_EEE, 
                       __ZTINSt3__110__function6__funcIZN2gc3ops10BinaryOpTTINS3_5MinTTENS3_10AutoDiffOpEE6kernelEvEUlRKNS_6vectorINS2_11ExtentExprsENS_9allocatorIS9_EEEEE_NSA_ISF_EEFNS_8optionalINS_4pairIS9_NS2_4ExprEEEEESE_EEE, 
                       __ZTINSt3__110__function6__funcIZN2gc3ops10BinaryOpTTINS3_8DivideTTENS3_10AutoDiffOpEE6kernelEvEUlRKNS_6vectorI17loopkit_rt_type_tNS_9allocatorIS9_EEEEE_NSA_ISF_EEFNS_8optionalIS9_EESE_EEE, 
                       __ZTINSt3__110__function6__funcIZN2gc3ops10BinaryOpTTINS3_8DivideTTENS3_10AutoDiffOpEE6kernelEvEUlRKNS_6vectorINS2_11ExtentExprsENS_9allocatorIS9_EEEEE_NSA_ISF_EEFNS_8optionalINS_4pairIS9_NS2_4ExprEEEEESE_EEE, 
                       __ZTINSt3__110__function6__funcIZN2gc3ops10SSIMOpGrad6kernelEvEUlNS2_4lang4TileENS5_6BufferES7_S7_NS5_6VectorES7_S7_E_NS_9allocatorIS9_EEFvS6_S7_S7_S7_S8_S7_S7_EEE, 
                       __ZTINSt3__110__function6__funcIZN2gc3ops10ScanOpGrad6kernelEvEUlNS2_4lang4TileENS5_6BufferES7_E_NS_9allocatorIS8_EEFvS6_S7_S7_EEE, 
                       __ZTINSt3__110__function6__funcIZN2gc3ops10ScanOpGrad6kernelEvEUlRKNS2_11ExtentExprsEE_NS_9allocatorIS8_EEFNS_8optionalIS5_EES7_EEE, 
                       __ZTINSt3__110__function6__funcIZN2gc3ops11AddAssignTTC1EvEUlNS2_4lang4TileENS5_6BufferES7_E_NS_9allocatorIS8_EEFvS6_S7_S7_EEE, 
                       __ZTINSt3__110__function6__funcIZN2gc3ops11RangeStatic6kernelEvEUlNS2_4lang4TileENS5_6BufferEE_NS_9allocatorIS8_EEFvS6_S7_EEE, 
                       __ZTINSt3__110__function6__funcIZN2gc3ops12CrossEntropy6kernelEvEUlNS2_4lang4TileENS5_6BufferES7_S7_E_NS_9allocatorIS8_EEFvS6_S7_S7_S7_EEE, 
                       __ZTINSt3__110__function6__funcIZN2gc3ops12RangeDynamic6kernelEvEUlNS2_4lang4TileENS5_6BufferES7_E_NS_9allocatorIS8_EEFvS6_S7_S7_EEE, 
                       __ZTINSt3__110__function6__funcIZN2gc3ops12ReduceOpGrad6kernelEvEUlNS2_4lang4TileENS5_6BufferES7_E_NS_9allocatorIS8_EEFvS6_S7_S7_EEE, 
                       __ZTINSt3__110__function6__funcIZN2gc3ops13NonzeroOpGrad6kernelEvEUlNS2_4lang4TileENS5_6BufferES7_E_NS_9allocatorIS8_EEFvS6_S7_S7_EEE, 
                       __ZTINSt3__110__function6__funcIZN2gc3ops13NonzeroOpGrad6kernelEvEUlRKNS2_11ExtentExprsEE_NS_9allocatorIS8_EEFNS_8optionalIS5_EES7_EEE, 
                       __ZTINSt3__110__function6__funcIZN2gc3ops16AutoDiffBackprop6kernelEvEUlRKNS2_6TargetENS2_4StmtEE_NS_9allocatorIS9_EEFS8_S7_S8_EEE, 
                       __ZTINSt3__110__function6__funcIZN2gc3ops20SSIMOpPreprocessGrad6kernelEvEUlNS2_4lang4TileENS5_6BufferES7_NS5_6VectorES7_E_NS_9allocatorIS9_EEFvS6_S7_S7_S8_S7_EEE, 
                       __ZTINSt3__110__function6__funcIZN2gc3ops20SSIMOpPreprocessGrad6kernelEvEUlRKNS2_11ExtentExprsEE_NS_9allocatorIS8_EEFNS_8optionalIS5_EES7_EEE, 
                       __ZTINSt3__110__function6__funcIZN2gc3ops4Cast6kernelEvEUlNS2_4lang4TileENS5_6BufferES7_E_NS_9allocatorIS8_EEFvS6_S7_S7_EEE, 
                       __ZTINSt3__110__function6__funcIZN2gc3ops4Copy6kernelEvEUlNS2_4lang4TileENS5_6BufferES7_E_NS_9allocatorIS8_EEFvS6_S7_S7_EEE, 
                       __ZTINSt3__110__function6__funcIZN2gc3ops4Head6kernelEvEUlNS2_4lang4TileENS5_6BufferES7_E_NS_9allocatorIS8_EEFvS6_S7_S7_EEE, 
                       __ZTINSt3__110__function6__funcIZN2gc3ops4Head6kernelEvEUlRKNS2_11ExtentExprsEE_NS_9allocatorIS8_EEFNS_8optionalIS5_EES7_EEE, 
                       __ZTINSt3__110__function6__funcIZN2gc3ops4L1Op6kernelEvEUlNS2_4lang4TileENS5_6BufferES7_S7_E_NS_9allocatorIS8_EEFvS6_S7_S7_S7_EEE, 
                       __ZTINSt3__110__function6__funcIZN2gc3ops4L2Op6kernelEvEUlNS2_4lang4TileENS5_6BufferES7_S7_E_NS_9allocatorIS8_EEFvS6_S7_S7_S7_EEE, 
                       __ZTINSt3__110__function6__funcIZN2gc3ops4Tail6kernelEvEUlNS2_4lang4TileENS5_6BufferES7_E_NS_9allocatorIS8_EEFvS6_S7_S7_EEE, 
                       __ZTINSt3__110__function6__funcIZN2gc3ops4Tail6kernelEvEUlRKNS2_11ExtentExprsEE_NS_9allocatorIS8_EEFNS_8optionalIS5_EES7_EEE, 
                       __ZTINSt3__110__function6__funcIZN2gc3ops5MaxTTC1EvEUlNS2_4lang4TileENS5_6BufferES7_S7_E_NS_9allocatorIS8_EEFvS6_S7_S7_S7_EEE, 
                       __ZTINSt3__110__function6__funcIZN2gc3ops5MinTTC1EvEUlNS2_4lang4TileENS5_6BufferES7_S7_E_NS_9allocatorIS8_EEFvS6_S7_S7_S7_EEE, 
                       __ZTINSt3__110__function6__funcIZN2gc3ops6Resize6kernelEvEUlNS2_4lang6BufferES6_E_NS_9allocatorIS7_EEFvS6_S6_EEE, 
                       __ZTINSt3__110__function6__funcIZN2gc3ops6SSIMOp6kernelEvEUlNS2_4lang4TileENS5_6BufferES7_NS5_6VectorES7_E_NS_9allocatorIS9_EEFvS6_S7_S7_S8_S7_EEE, 
                       __ZTINSt3__110__function6__funcIZN2gc3ops6detail10TensorFill6kernelEvEUlNS2_4lang4TileENS6_6BufferEE_NS_9allocatorIS9_EEFvS7_S8_EEE, 
                       __ZTINSt3__110__function6__funcIZN2gc3ops6detail10TensorSize6kernelEvEUlNS2_4lang6BufferENS6_6ScalarEE_NS_9allocatorIS9_EEFvS7_S8_EEE, 
                       __ZTINSt3__110__function6__funcIZN2gc3ops6detail13TensorExtents6kernelEvEUlNS2_4lang6BufferENS6_6VectorEE_NS_9allocatorIS9_EEFvS7_S8_EEE, 
                       __ZTINSt3__110__function6__funcIZN2gc3ops6detail13TensorExtents6kernelEvEUlRKNS2_11ExtentExprsEE_NS_9allocatorIS9_EEFNS_8optionalIS6_EES8_EEE, 
                       __ZTINSt3__110__function6__funcIZN2gc3ops6detail19convertFunctionBodyINS3_6TensorEJS6_S6_EEENS_8functionIFNS4_18FunctionReturnTypeERKNS_6vectorIS6_NS_9allocatorIS6_EEEEEEENS7_IFT_DpT0_EEEEUlSE_E_NSA_ISM_EESF_EE, 
                       __ZTINSt3__110__function6__funcIZN2gc3ops6detail19convertFunctionBodyIvJNS3_6TensorES6_S6_S6_S6_S6_S6_S6_S6_EEENS_8functionIFNS4_18FunctionReturnTypeERKNS_6vectorIS6_NS_9allocatorIS6_EEEEEEENS7_IFT_DpT0_EEEEUlSE_E_NSA_ISM_EESF_EE, 
                       __ZTINSt3__110__function6__funcIZN2gc3ops8DivideTTC1EvEUlNS2_4lang4TileENS5_6BufferES7_S7_E_NS_9allocatorIS8_EEFvS6_S7_S7_S7_EEE, 
                       __ZTINSt3__110__function6__funcIZN2gc4lang3est11BlockMatrix13forEachColumnIZZNS2_3est10EvaluateHp19kernelFuncNoOffsetsEvENKUlNS3_4TileERS5_NS3_6BufferESB_E_clES9_SA_SB_SB_EUlNS2_4ExprENS3_6MatrixEE_EEvRKSD_OT_EUlSI_E_NS_9allocatorISK_EEFvSD_EEE, 
                       __ZTINSt3__110__function6__funcIZN2gc4lang3est11BlockMatrix13forEachColumnIZZNS2_3est14ExtractDiagJtJ10kernelFuncEvENKUlNS3_4TileERS5_NS3_6BufferESB_SB_E_clES9_SA_SB_SB_SB_EUlNS2_4ExprENS3_6MatrixEE_EEvRKSD_OT_EUlSI_E_NS_9allocatorISK_EEFvSD_EEE, 
                       __ZTINSt3__110__function6__funcIZN2gc4lang3est11BlockMatrix13forEachColumnIZZNS2_3est14ExtractDiagJtJ19kernelFuncNoOffsetsEvENKUlNS3_4TileERS5_NS3_6BufferESB_E_clES9_SA_SB_SB_EUlNS2_4ExprENS3_6MatrixEE_EEvRKSD_OT_EUlSI_E_NS_9allocatorISK_EEFvSD_EEE, 
                       __ZTINSt3__110__function6__funcIZN2gc4lang3est11BlockMatrix13forEachColumnIZZNS2_3est17SymmetrizeDiagJtJ10kernelFuncEvENKUlNS3_4TileERS5_E_clES9_SA_EUlNS2_4ExprENS3_6MatrixEE_EEvRKSC_OT_EUlSH_E_NS_9allocatorISJ_EEFvSC_EEE, 
                       __ZTINSt3__110__function6__funcIZN2gc4lang3est11BlockMatrix13forEachColumnIZZNS2_3est30ApplyAdditiveLMDampingExplicit10kernelFuncEvENKUlNS3_4TileENS3_6ScalarERS5_E_clES9_SA_SB_EUlNS2_4ExprENS3_6MatrixEE_EEvRKSD_OT_EUlSI_E_NS_9allocatorISK_EEFvSD_EEE, 
                       __ZTINSt3__110__function6__funcIZN2gc4lang3est11BlockMatrix13forEachColumnIZZNS2_3est36ApplyMultiplicativeLMDampingExplicit10kernelFuncEvENKUlNS3_4TileENS3_6ScalarERS5_E_clES9_SA_SB_EUlNS2_4ExprENS3_6MatrixEE_EEvRKSD_OT_EUlSI_E_NS_9allocatorISK_EEFvSD_EEE, 
                       __ZTINSt3__110__function6__funcIZN2gc4lang3est11BlockMatrix13forEachColumnIZZZNS2_3est10EvaluateHp10kernelFuncEvENKUlNS3_4TileERS5_NS3_6BufferESB_SB_RSB_E_clES9_SA_SB_SB_SB_SC_ENKUlvE_clEvEUlNS2_4ExprENS3_6MatrixEE_EEvRKSF_OT_EUlSK_E_NS_9allocatorISM_EEFvSF_EEE, 
                       __ZTINSt3__110__function6__funcIZN2gc4lang4sort22scatterHistogramHelluyILb0EEEvNS4_13ScatterInputsIXT_EEENS4_14ScatterOutputsIXT_EEENS3_6BufferENS2_4ExprESB_SB_SB_SB_jEUlT_E0_NS_9allocatorISD_EEFvSB_EEE, 
                       __ZTINSt3__110__function6__funcIZN2gc4lang4sort22scatterHistogramHelluyILb0EEEvNS4_13ScatterInputsIXT_EEENS4_14ScatterOutputsIXT_EEENS3_6BufferENS2_4ExprESB_SB_SB_SB_jEUlT_E_NS_9allocatorISD_EEFvSB_EEE, 
                       __ZTINSt3__110__function6__funcIZN2gc4lang4sort22scatterHistogramHelluyILb1EEEvNS4_13ScatterInputsIXT_EEENS4_14ScatterOutputsIXT_EEENS3_6BufferENS2_4ExprESB_SB_SB_SB_jEUlT_E0_NS_9allocatorISD_EEFvSB_EEE, 
                       __ZTINSt3__110__function6__funcIZN2gc4lang4sort22scatterHistogramHelluyILb1EEEvNS4_13ScatterInputsIXT_EEENS4_14ScatterOutputsIXT_EEENS3_6BufferENS2_4ExprESB_SB_SB_SB_jEUlT_E_NS_9allocatorISD_EEFvSB_EEE, 
                       __ZTINSt3__110__function6__funcIZN2gc4lang4sort28scatterHistogramKieberEmmonsILb0EEEvNS4_13ScatterInputsIXT_EEENS4_14ScatterOutputsIXT_EEENS3_6BufferENS2_4ExprESB_SB_SB_SB_jEUlvE0_NS_9allocatorISC_EEFvvEEE, 
                       __ZTINSt3__110__function6__funcIZN2gc4lang4sort28scatterHistogramKieberEmmonsILb0EEEvNS4_13ScatterInputsIXT_EEENS4_14ScatterOutputsIXT_EEENS3_6BufferENS2_4ExprESB_SB_SB_SB_jEUlvE_NS_9allocatorISC_EEFvvEEE, 
                       __ZTINSt3__110__function6__funcIZN2gc4lang4sort28scatterHistogramKieberEmmonsILb1EEEvNS4_13ScatterInputsIXT_EEENS4_14ScatterOutputsIXT_EEENS3_6BufferENS2_4ExprESB_SB_SB_SB_jEUlvE0_NS_9allocatorISC_EEFvvEEE, 
                       __ZTINSt3__110__function6__funcIZN2gc4lang4sort28scatterHistogramKieberEmmonsILb1EEEvNS4_13ScatterInputsIXT_EEENS4_14ScatterOutputsIXT_EEENS3_6BufferENS2_4ExprESB_SB_SB_SB_jEUlvE_NS_9allocatorISC_EEFvvEEE, 
                       __ZTINSt3__110__function6__funcIZN2gc4lang9tensorops11UnaryOpImpl11alwaysValidEvEUlNS3_6TensorEE_NS_9allocatorIS7_EEFNS2_4ExprES6_EEE, 
                       __ZTINSt3__110__function6__funcIZN2gc4lang9tensorops11UnaryOpImpl14adjAlwaysValidEvEUlNS3_6TensorES6_E_NS_9allocatorIS7_EEFNS2_4ExprES6_S6_EEE, 
                       __ZTINSt3__110__function6__funcIZN2gc4lang9tensorops12BinaryOpImpl11alwaysValidEvEUlNS3_6TensorES6_E_NS_9allocatorIS7_EEFNS2_4ExprES6_S6_EEE, 
                       __ZTINSt3__110__function6__funcIZN2gc4lang9tensorops12BinaryOpImpl14adjAlwaysValidEvEUlNS3_6TensorES6_S6_E_NS_9allocatorIS7_EEFNS2_4ExprES6_S6_S6_EEE, 
                       __ZTINSt3__110__function6__funcIZNK2gc4lang3est13BlockOrdering11forOrderingIZZZNS2_3est22EvaluateJtJFactorLevel10kernelFuncERKNS_6vectorIjNS_9allocatorIjEEEEENKUlNS3_4TileENS3_5ArrayIS5_EENSG_INS4_14FactorOrderingEEERNS4_11JacobianSetERNS4_16BlockMatrixArrayEE_clESF_SH_SJ_SL_SN_ENKUlvE_clEvEUlNS2_5TupleENS2_4ExprEE_EEvOT_EUlST_E_NSA_ISV_EEFvSR_EEE, 
                       __ZTINSt3__110__function6__funcIZNK2gc4lang3est13BlockOrdering13forEachFactorIZZNS2_3est11EvaluateJtJ18kernelFuncDiagonalEvENKUlNS3_4TileES5_NS4_14FactorOrderingERNS4_8JacobianERNS4_11BlockMatrixEE_clES9_S5_SA_SC_SE_EUlNS2_4ExprEE_EEvRKSG_OT_EUlSK_E_NS_9allocatorISM_EEFvSG_EEE, 
                       __ZTINSt3__110__function6__funcIZNK2gc4lang3est13BlockOrdering13forEachFactorIZZNS2_3est11EvaluateJtJ21kernelFuncOffDiagonalEvENKUlNS3_4TileES5_NS3_5ArrayINS4_14FactorOrderingEEERNS4_11JacobianSetERNS4_11BlockMatrixEE_clES9_S5_SC_SE_SG_EUlNS2_4ExprEE_EEvRKSI_OT_EUlSM_E_NS_9allocatorISO_EEFvSI_EEE, 
                       __ZTINSt3__110__function6__funcIZNK2gc4lang3est13BlockOrdering13forEachFactorIZZZZNS2_3est22EvaluateJtJFactorLevel10kernelFuncERKNS_6vectorIjNS_9allocatorIjEEEEENKUlNS3_4TileENS3_5ArrayIS5_EENSG_INS4_14FactorOrderingEEERNS4_11JacobianSetERNS4_16BlockMatrixArrayEE_clESF_SH_SJ_SL_SN_ENKUlvE_clEvENKUlNS2_5TupleENS2_4ExprEE_clESQ_SR_EUlSR_E_EEvRKSR_OT_EUlSW_E_NSA_ISY_EEFvSR_EEE, 
                       __ZTINSt3__110__function6__funcIZZN2gc3est10EvaluateHp10kernelFuncEvENKUlNS2_4lang4TileERNS5_3est11BlockMatrixENS5_6BufferESA_SA_RSA_E_clES6_S9_SA_SA_SA_SB_EUlvE_NS_9allocatorISD_EEFvvEEE, 
                       __ZTINSt3__110__function6__funcIZZN2gc3est10EvaluateJp18kernelFuncUnsortedEjENKUlNS2_4lang4TileERNS5_3est14FactorOrderingENS5_6BufferERNS7_8JacobianESA_SA_E_clES6_S9_SA_SC_SA_SA_EUlvE_NS_9allocatorISE_EEFvvEEE, 
                       __ZTINSt3__110__function6__funcIZZN2gc3est10EvaluateJp18kernelFuncVariadicEjENKUlNS2_4lang4TileERNS5_3est14FactorOrderingENS5_6BufferERNS7_8JacobianESA_SA_E_clES6_S9_SA_SC_SA_SA_EUlNS2_4ExprEE_NS_9allocatorISF_EEFvSE_EEE, 
                       __ZTINSt3__110__function6__funcIZZN2gc3est10EvaluateJp27kernelFuncVariadicNoOffsetsEjENKUlNS2_4lang4TileERNS5_3est14FactorOrderingERNS7_8JacobianENS5_6BufferESC_E_clES6_S9_SB_SC_SC_EUlNS2_4ExprEE_NS_9allocatorISF_EEFvSE_EEE, 
                       __ZTINSt3__110__function6__funcIZZN2gc3est11EvaluateJte10kernelFuncEvENKUlNS2_4lang4TileENS5_3est14FactorOrderingERNS7_8JacobianENS5_6BufferESB_E_clES6_S8_SA_SB_SB_EUlNS2_4ExprESD_E_NS_9allocatorISE_EEFvSD_SD_EEE, 
                       __ZTINSt3__110__function6__funcIZZN2gc3est12EvaluateJtJp10kernelFuncEjENKUlNS2_4lang4TileERNS5_3est14FactorOrderingERNS7_8JacobianENS5_6BufferERSC_E_clES6_S9_SB_SC_SD_EUlNS2_4ExprESF_E_NS_9allocatorISG_EEFvSF_SF_EEE, 
                       __ZTINSt3__110__function6__funcIZZN2gc3est12InvertBlockM10kernelFuncEvENKUlNS2_4lang4TileENS5_6BufferES7_E_clES6_S7_S7_EUlT_E_NS_9allocatorISA_EEFvNS2_4ExprEEEE, 
                       __ZTINSt3__110__function6__funcIZZN2gc3est12InvertBlockM10kernelFuncEvENKUlNS2_4lang4TileENS5_6BufferES7_E_clES6_S7_S7_EUlvE0_NS_9allocatorIS9_EEFvvEEE, 
                       __ZTINSt3__110__function6__funcIZZN2gc3est12InvertBlockM10kernelFuncEvENKUlNS2_4lang4TileENS5_6BufferES7_E_clES6_S7_S7_EUlvE_NS_9allocatorIS9_EEFvvEEE, 
                       __ZTINSt3__110__function6__funcIZZN2gc3est14EvaluateBlockM10kernelFuncEvENKUlNS2_4lang4TileERNS5_3est14FactorOrderingERNS7_8JacobianENS5_6BufferESC_E_clES6_S9_SB_SC_SC_EUlNS2_4ExprESE_E_NS_9allocatorISF_EEFvSE_SE_EEE, 
                       __ZTINSt3__110__function6__funcIZZN2gc3est14SchurLinearize16factorKernelFuncERKNS_6vectorINS3_13ArgumentGroupENS_9allocatorIS6_EEEERKNS_3mapINS_12basic_stringIcNS_11char_traitsIcEENS7_IcEEEEjNS_4lessISH_EENS7_INS_4pairIKSH_jEEEEEEbENKUlNS2_4lang4TileENSR_6BufferENSR_3est6FactorERNSU_11JacobianSetENSR_5ArrayIST_EENSY_INSU_14FactorOrderingEEERNSU_16BlockMatrixArrayESZ_E_clESS_ST_SV_SX_SZ_S11_S13_SZ_EUlvE_NS7_IS15_EEFvvEEE, 
                       __ZTINSt3__110__function6__funcIZZN2gc3est14SchurLinearize28eliminatedVariableKernelFuncERKNS_6vectorINS3_13ArgumentGroupENS_9allocatorIS6_EEEERKNS_3mapINS_12basic_stringIcNS_11char_traitsIcEENS7_IcEEEEjNS_4lessISH_EENS7_INS_4pairIKSH_jEEEEEEbENKUlNS2_4lang4TileENSR_6BufferERNSR_3est8JacobianENSU_6FactorERNSU_11JacobianSetERNSU_14FactorOrderingENSR_5ArrayIST_EENS12_IS10_EERNSU_16BlockMatrixArrayENSU_22SchurEliminatedHessianES13_ST_ST_E_clESS_ST_SW_SX_SZ_S11_S13_S14_S16_S17_S13_ST_ST_EUlNS2_4ExprEE_NS7_IS1A_EEFvS19_EEE, 
                       __ZTINSt3__110__function6__funcIZZN2gc3est17SchurOuterProduct27schurOuterProductKernelFuncERKNS_6vectorINS3_13ArgumentGroupENS_9allocatorIS6_EEEERKNS_3mapINS_12basic_stringIcNS_11char_traitsIcEENS7_IcEEEEjNS_4lessISH_EENS7_INS_4pairIKSH_jEEEEEEbENKUlNS2_4lang4TileENSR_3est6FactorERNST_14FactorOrderingENSR_5ArrayINSR_6BufferEEERNST_16BlockMatrixArrayENST_22SchurEliminatedHessianESZ_SY_SY_E_clESS_SU_SW_SZ_S11_S12_SZ_SY_SY_EUlNS2_4ExprEE_NS7_IS15_EEFvS14_EEE, 
                       __ZTINSt3__110__function6__funcIZZN2gc3est18ImplicitSchurJtJp110kernelFuncEvENKUlNS2_4lang4TileERNS5_3est8JacobianENS7_14FactorOrderingENS5_6BufferESB_E_clES6_S9_SA_SB_SB_EUlNS2_4ExprESD_E_NS_9allocatorISE_EEFvSD_SD_EEE, 
                       __ZTINSt3__110__function6__funcIZZN2gc3est18ImplicitSchurJtJp218kernelFuncUnsortedEjENKUlNS2_4lang4TileERNS5_3est14FactorOrderingERNS7_8JacobianENS5_6BufferESC_SC_SC_E_clES6_S9_SB_SC_SC_SC_SC_EUlvE_NS_9allocatorISE_EEFvvEEE, 
                       __ZTINSt3__110__function6__funcIZZN2gc3est18ImplicitSchurJtJp218kernelFuncVariadicEjENKUlNS2_4lang4TileERNS5_3est8JacobianENS7_14FactorOrderingENS5_6BufferESB_SB_SB_E_clES6_S9_SA_SB_SB_SB_SB_EUlNS2_4ExprEE_NS_9allocatorISE_EEFvSD_EEE, 
                       __ZTINSt3__110__function6__funcIZZN2gc3est18ImplicitSchurJtJp227kernelFuncVariadicNoOffsetsEjENKUlNS2_4lang4TileERNS5_3est8JacobianENS7_14FactorOrderingENS5_6BufferESB_SB_E_clES6_S9_SA_SB_SB_SB_EUlNS2_4ExprEE_NS_9allocatorISE_EEFvSD_EEE, 
                       __ZTINSt3__110__function6__funcIZZN2gc3est20MaterializeJacobians10kernelFuncERKNS3_16ArgumentGroupingERKNS_6vectorINS3_13eJacobianTypeENS_9allocatorIS9_EEEEENKUlNS2_4lang4TileENSF_3est6FactorENSF_6BufferESJ_SJ_NSF_5ArrayINSH_14FactorOrderingEEENSH_11VariableSetENSK_ISJ_EESO_NSF_17BindableTypeArrayEE_clESG_SI_SJ_SJ_SJ_SM_SN_SO_SO_SP_EUlvE0_NSA_ISR_EEFvvEEE, 
                       __ZTINSt3__110__function6__funcIZZN2gc3est20MaterializeJacobians10kernelFuncERKNS3_16ArgumentGroupingERKNS_6vectorINS3_13eJacobianTypeENS_9allocatorIS9_EEEEENKUlNS2_4lang4TileENSF_3est6FactorENSF_6BufferESJ_SJ_NSF_5ArrayINSH_14FactorOrderingEEENSH_11VariableSetENSK_ISJ_EESO_NSF_17BindableTypeArrayEE_clESG_SI_SJ_SJ_SJ_SM_SN_SO_SO_SP_EUlvE1_NSA_ISR_EEFvvEEE, 
                       __ZTINSt3__110__function6__funcIZZN2gc3est20MaterializeJacobians10kernelFuncERKNS3_16ArgumentGroupingERKNS_6vectorINS3_13eJacobianTypeENS_9allocatorIS9_EEEEENKUlNS2_4lang4TileENSF_3est6FactorENSF_6BufferESJ_SJ_NSF_5ArrayINSH_14FactorOrderingEEENSH_11VariableSetENSK_ISJ_EESO_NSF_17BindableTypeArrayEE_clESG_SI_SJ_SJ_SJ_SM_SN_SO_SO_SP_EUlvE_NSA_ISR_EEFvvEEE, 
                       __ZTINSt3__110__function6__funcIZZN2gc3est20SchurBackSubstitute110kernelFuncERKNS_6vectorINS3_13ArgumentGroupENS_9allocatorIS6_EEEERKNS_3mapINS_12basic_stringIcNS_11char_traitsIcEENS7_IcEEEEjNS_4lessISH_EENS7_INS_4pairIKSH_jEEEEEEbENKUlNS2_4lang4TileENSR_6BufferENSR_5ArrayIST_EESV_NSR_3est6FactorERNSW_14FactorOrderingENSW_22SchurEliminatedHessianEST_E_clESS_ST_SV_SV_SX_SZ_S10_ST_EUlNS2_4ExprEE_NS7_IS13_EEFvS12_EEE, 
                       __ZTINSt3__110__function6__funcIZZN2gc3est22EvaluateJtJFactorLevel10kernelFuncERKNS_6vectorIjNS_9allocatorIjEEEEENKUlNS2_4lang4TileENSB_5ArrayINSB_3est13BlockOrderingEEENSD_INSE_14FactorOrderingEEERNSE_11JacobianSetERNSE_16BlockMatrixArrayEE_clESC_SG_SI_SK_SM_EUlvE_NS6_ISO_EEFvvEEE, 
                       __ZTINSt3__110__function6__funcIZZN2gc3est24ImplicitSchurInitialize110kernelFuncEvENKUlNS2_4lang4TileENS5_6BufferERNS5_3est8JacobianENS8_14FactorOrderingENS5_6ScalarES7_S7_E_clES6_S7_SA_SB_SC_S7_S7_EUlNS2_4ExprESE_E_NS_9allocatorISF_EEFvSE_SE_EEE, 
                       __ZTINSt3__110__function6__funcIZZN2gc3est24ImplicitSchurInitialize110kernelFuncEvENKUlNS2_4lang4TileENS5_6BufferERNS5_3est8JacobianENS8_14FactorOrderingENS5_6ScalarES7_S7_E_clES6_S7_SA_SB_SC_S7_S7_EUlT_E0_NS_9allocatorISF_EEFvNS2_4ExprEEEE, 
                       __ZTINSt3__110__function6__funcIZZN2gc3est24ImplicitSchurInitialize110kernelFuncEvENKUlNS2_4lang4TileENS5_6BufferERNS5_3est8JacobianENS8_14FactorOrderingENS5_6ScalarES7_S7_E_clES6_S7_SA_SB_SC_S7_S7_EUlT_E_NS_9allocatorISF_EEFvNS2_4ExprEEEE, 
                       __ZTINSt3__110__function6__funcIZZN2gc3est24ImplicitSchurInitialize110kernelFuncEvENKUlNS2_4lang4TileENS5_6BufferERNS5_3est8JacobianENS8_14FactorOrderingENS5_6ScalarES7_S7_E_clES6_S7_SA_SB_SC_S7_S7_EUlvE_NS_9allocatorISE_EEFvvEEE, 
                       __ZTINSt3__110__function6__funcIZZN2gc3est24ImplicitSchurInitialize310kernelFuncEvENKUlNS2_4lang4TileERNS5_3est8JacobianENS7_14FactorOrderingESA_NS5_6BufferESB_SB_SB_SB_SB_E_clES6_S9_SA_SA_SB_SB_SB_SB_SB_SB_EUlNS2_4ExprESD_E_NS_9allocatorISE_EEFvSD_SD_EEE, 
                       __ZTINSt3__110__function6__funcIZZN2gc3est28ImplicitSchurBackSubstitute110kernelFuncERKNS_6vectorINS3_13ArgumentGroupENS_9allocatorIS6_EEEERKNS_3mapINS_12basic_stringIcNS_11char_traitsIcEENS7_IcEEEEjNS_4lessISH_EENS7_INS_4pairIKSH_jEEEEEEENKUlNS2_4lang4TileERNSR_3est11JacobianSetENSR_5ArrayINST_14FactorOrderingEEENSW_INSR_6BufferEEES10_SZ_E_clESS_SV_SY_S10_S10_SZ_EUlvE_NS7_IS12_EEFvvEEE, 
                       __ZTINSt3__110__function6__funcIZZN2gc3est28SchurDampAndInvertEliminated10kernelFuncEvENKUlNS2_4lang4TileERNS5_6ScalarENS5_6BufferEE_clES6_S8_S9_EUlT_E0_NS_9allocatorISC_EEFvNS2_4ExprEEEE, 
                       __ZTINSt3__110__function6__funcIZZN2gc3est28SchurDampAndInvertEliminated10kernelFuncEvENKUlNS2_4lang4TileERNS5_6ScalarENS5_6BufferEE_clES6_S8_S9_EUlT_E_NS_9allocatorISC_EEFvNS2_4ExprEEEE, 
                       __ZTINSt3__110__function6__funcIZZN2gc3est28SchurDampAndInvertEliminated10kernelFuncEvENKUlNS2_4lang4TileERNS5_6ScalarENS5_6BufferEE_clES6_S8_S9_EUlvE_NS_9allocatorISB_EEFvvEEE, 
                       __ZTINSt3__110__function6__funcIZZN2gc3est33ApplyAdditiveLMDampingToDiagonals10kernelFuncEvENKUlNS2_4lang4TileENS5_6ScalarENS5_6BufferES8_E_clES6_S7_S8_S8_EUlT_E_NS_9allocatorISB_EEFvNS2_4ExprEEEE, 
                       __ZTINSt3__110__function6__funcIZZN2gc3est39ApplyMultiplicativeLMDampingToDiagonals10kernelFuncEvENKUlNS2_4lang4TileENS5_6ScalarENS5_6BufferES8_E_clES6_S7_S8_S8_EUlT_E_NS_9allocatorISB_EEFvNS2_4ExprEEEE, 
                       __ZTINSt3__110__function6__funcIZZN2gc3ops10SSIMOpGrad6kernelEvENKUlNS2_4lang4TileENS5_6BufferES7_S7_NS5_6VectorES7_S7_E_clES6_S7_S7_S7_S8_S7_S7_EUlT_E0_NS_9allocatorISB_EEFvNS2_4ExprEEEE, 
                       __ZTINSt3__110__function6__funcIZZN2gc3ops10SSIMOpGrad6kernelEvENKUlNS2_4lang4TileENS5_6BufferES7_S7_NS5_6VectorES7_S7_E_clES6_S7_S7_S7_S8_S7_S7_EUlT_E_NS_9allocatorISB_EEFvNS2_4ExprEEEE, 
                       __ZTINSt3__110__function6__funcIZZN2gc3ops20SSIMOpPreprocessGrad6kernelEvENKUlNS2_4lang4TileENS5_6BufferES7_NS5_6VectorES7_E_clES6_S7_S7_S8_S7_EUlT_E0_NS_9allocatorISB_EEFvNS2_4ExprEEEE, 
                       __ZTINSt3__110__function6__funcIZZN2gc3ops20SSIMOpPreprocessGrad6kernelEvENKUlNS2_4lang4TileENS5_6BufferES7_NS5_6VectorES7_E_clES6_S7_S7_S8_S7_EUlT_E1_NS_9allocatorISB_EEFvNS2_4ExprEEEE, 
                       __ZTINSt3__110__function6__funcIZZN2gc3ops20SSIMOpPreprocessGrad6kernelEvENKUlNS2_4lang4TileENS5_6BufferES7_NS5_6VectorES7_E_clES6_S7_S7_S8_S7_EUlT_E_NS_9allocatorISB_EEFvNS2_4ExprEEEE, 
                       __ZTINSt3__110__function6__funcIZZN2gc3ops6SSIMOp6kernelEvENKUlNS2_4lang4TileENS5_6BufferES7_NS5_6VectorES7_E_clES6_S7_S7_S8_S7_EUlT_E0_NS_9allocatorISB_EEFvNS2_4ExprEEEE, 
                       __ZTINSt3__110__function6__funcIZZN2gc3ops6SSIMOp6kernelEvENKUlNS2_4lang4TileENS5_6BufferES7_NS5_6VectorES7_E_clES6_S7_S7_S8_S7_EUlT_E1_NS_9allocatorISB_EEFvNS2_4ExprEEEE, 
                       __ZTINSt3__110__function6__funcIZZN2gc3ops6SSIMOp6kernelEvENKUlNS2_4lang4TileENS5_6BufferES7_NS5_6VectorES7_E_clES6_S7_S7_S8_S7_EUlT_E_NS_9allocatorISB_EEFvNS2_4ExprEEEE, 
                       __ZTINSt3__110__function6__funcIZZN2gc4lang3est11BlockMatrix13forEachColumnIZZNS2_3est10EvaluateHp19kernelFuncNoOffsetsEvENKUlNS3_4TileERS5_NS3_6BufferESB_E_clES9_SA_SB_SB_EUlNS2_4ExprENS3_6MatrixEE_EEvRKSD_OT_ENKUlSI_E_clISD_EEDaSI_EUlvE_NS_9allocatorISN_EEFvvEEE, 
                       __ZTINSt3__110__function6__funcIZZN2gc4lang3est11BlockMatrix13forEachColumnIZZNS2_3est14ExtractDiagJtJ10kernelFuncEvENKUlNS3_4TileERS5_NS3_6BufferESB_SB_E_clES9_SA_SB_SB_SB_EUlNS2_4ExprENS3_6MatrixEE_EEvRKSD_OT_ENKUlSI_E_clISD_EEDaSI_EUlvE_NS_9allocatorISN_EEFvvEEE, 
                       __ZTINSt3__110__function6__funcIZZN2gc4lang3est11BlockMatrix13forEachColumnIZZNS2_3est14ExtractDiagJtJ19kernelFuncNoOffsetsEvENKUlNS3_4TileERS5_NS3_6BufferESB_E_clES9_SA_SB_SB_EUlNS2_4ExprENS3_6MatrixEE_EEvRKSD_OT_ENKUlSI_E_clISD_EEDaSI_EUlvE_NS_9allocatorISN_EEFvvEEE, 
                       __ZTINSt3__110__function6__funcIZZN2gc4lang3est11BlockMatrix13forEachColumnIZZNS2_3est17SymmetrizeDiagJtJ10kernelFuncEvENKUlNS3_4TileERS5_E_clES9_SA_EUlNS2_4ExprENS3_6MatrixEE_EEvRKSC_OT_ENKUlSH_E_clISC_EEDaSH_EUlvE_NS_9allocatorISM_EEFvvEEE, 
                       __ZTINSt3__110__function6__funcIZZN2gc4lang3est11BlockMatrix13forEachColumnIZZNS2_3est30ApplyAdditiveLMDampingExplicit10kernelFuncEvENKUlNS3_4TileENS3_6ScalarERS5_E_clES9_SA_SB_EUlNS2_4ExprENS3_6MatrixEE_EEvRKSD_OT_ENKUlSI_E_clISD_EEDaSI_EUlvE_NS_9allocatorISN_EEFvvEEE, 
                       __ZTINSt3__110__function6__funcIZZN2gc4lang3est11BlockMatrix13forEachColumnIZZNS2_3est36ApplyMultiplicativeLMDampingExplicit10kernelFuncEvENKUlNS3_4TileENS3_6ScalarERS5_E_clES9_SA_SB_EUlNS2_4ExprENS3_6MatrixEE_EEvRKSD_OT_ENKUlSI_E_clISD_EEDaSI_EUlvE_NS_9allocatorISN_EEFvvEEE, 
                       __ZTINSt3__110__function6__funcIZZN2gc4lang3est11BlockMatrix13forEachColumnIZZZNS2_3est10EvaluateHp10kernelFuncEvENKUlNS3_4TileERS5_NS3_6BufferESB_SB_RSB_E_clES9_SA_SB_SB_SB_SC_ENKUlvE_clEvEUlNS2_4ExprENS3_6MatrixEE_EEvRKSF_OT_ENKUlSK_E_clISF_EEDaSK_EUlvE_NS_9allocatorISP_EEFvvEEE, 
                       __ZTINSt3__110__function6__funcIZZNK2gc4lang9tensorops11UnaryOpImplclENS3_6TensorEENKUlvE0_clEvEUlT_E_NS_9allocatorIS9_EEFvNS2_4ExprEEEE, 
                       __ZTINSt3__110__function6__funcIZZNK2gc4lang9tensorops12BinaryOpImplclENS3_6TensorES6_ENKUlvE0_clEvEUlT_E_NS_9allocatorIS9_EEFvNS2_4ExprEEEE, 
                       __ZTINSt3__110__function6__funcIZZNK2gc4lang9tensorops12BinaryOpImplclENS3_6TensorES6_ENKUlvE1_clEvEUlS6_E0_NS_9allocatorIS8_EEFS6_S6_EEE, 
                       __ZTINSt3__110__function6__funcIZZNK2gc4lang9tensorops12BinaryOpImplclENS3_6TensorES6_ENKUlvE1_clEvEUlS6_E_NS_9allocatorIS8_EEFS6_S6_EEE, 
                       __ZTINSt3__110__function6__funcIZZZN2gc3est10EvaluateJp18kernelFuncVariadicEjENKUlNS2_4lang4TileERNS5_3est14FactorOrderingENS5_6BufferERNS7_8JacobianESA_SA_E_clES6_S9_SA_SC_SA_SA_ENKUlNS2_4ExprEE_clESE_EUlvE_NS_9allocatorISG_EEFvvEEE, 
                       __ZTINSt3__110__function6__funcIZZZN2gc3est11EvaluateJtJ18kernelFuncDiagonalEvENKUlNS2_4lang4TileENS5_3est13BlockOrderingENS7_14FactorOrderingERNS7_8JacobianERNS7_11BlockMatrixEE_clES6_S8_S9_SB_SD_ENKUlNS2_4ExprEE_clESF_EUlSF_E_NS_9allocatorISH_EEFvSF_EEE, 
                       __ZTINSt3__110__function6__funcIZZZN2gc3est11EvaluateJtJ21kernelFuncOffDiagonalEvENKUlNS2_4lang4TileENS5_3est13BlockOrderingENS5_5ArrayINS7_14FactorOrderingEEERNS7_11JacobianSetERNS7_11BlockMatrixEE_clES6_S8_SB_SD_SF_ENKUlNS2_4ExprEE_clESH_EUlSH_E_NS_9allocatorISJ_EEFvSH_EEE, 
                       __ZTINSt3__110__function6__funcIZZZN2gc3est12InvertBlockM10kernelFuncEvENKUlNS2_4lang4TileENS5_6BufferES7_E_clES6_S7_S7_ENKUlvE0_clEvEUlT_E_NS_9allocatorISB_EEFvNS2_4ExprEEEE, 
                       __ZTINSt3__110__function6__funcIZZZN2gc3est14ExtractDiagJtJ10kernelFuncEvENKUlNS2_4lang4TileERNS5_3est11BlockMatrixENS5_6BufferESA_SA_E_clES6_S9_SA_SA_SA_ENKUlNS2_4ExprENS5_6MatrixEE_clESC_SD_EUlvE_NS_9allocatorISF_EEFvvEEE, 
                       __ZTINSt3__110__function6__funcIZZZN2gc3est14ExtractDiagJtJ19kernelFuncNoOffsetsEvENKUlNS2_4lang4TileERNS5_3est11BlockMatrixENS5_6BufferESA_E_clES6_S9_SA_SA_ENKUlNS2_4ExprENS5_6MatrixEE_clESC_SD_EUlvE_NS_9allocatorISF_EEFvvEEE, 
                       __ZTINSt3__110__function6__funcIZZZN2gc3est14SchurLinearize16factorKernelFuncERKNS_6vectorINS3_13ArgumentGroupENS_9allocatorIS6_EEEERKNS_3mapINS_12basic_stringIcNS_11char_traitsIcEENS7_IcEEEEjNS_4lessISH_EENS7_INS_4pairIKSH_jEEEEEEbENKUlNS2_4lang4TileENSR_6BufferENSR_3est6FactorERNSU_11JacobianSetENSR_5ArrayIST_EENSY_INSU_14FactorOrderingEEERNSU_16BlockMatrixArrayESZ_E_clESS_ST_SV_SX_SZ_S11_S13_SZ_ENKUlvE_clEvEUlNS2_4ExprEE_NS7_IS17_EEFvS16_EEE, 
                       __ZTINSt3__110__function6__funcIZZZN2gc3est14SchurLinearize28eliminatedVariableKernelFuncERKNS_6vectorINS3_13ArgumentGroupENS_9allocatorIS6_EEEERKNS_3mapINS_12basic_stringIcNS_11char_traitsIcEENS7_IcEEEEjNS_4lessISH_EENS7_INS_4pairIKSH_jEEEEEEbENKUlNS2_4lang4TileENSR_6BufferERNSR_3est8JacobianENSU_6FactorERNSU_11JacobianSetERNSU_14FactorOrderingENSR_5ArrayIST_EENS12_IS10_EERNSU_16BlockMatrixArrayENSU_22SchurEliminatedHessianES13_ST_ST_E_clESS_ST_SW_SX_SZ_S11_S13_S14_S16_S17_S13_ST_ST_ENKUlNS2_4ExprEE_clES19_EUlS19_E_NS7_IS1B_EEFvS19_EEE, 
                       __ZTINSt3__110__function6__funcIZZZN2gc3est17SchurOuterProduct27schurOuterProductKernelFuncERKNS_6vectorINS3_13ArgumentGroupENS_9allocatorIS6_EEEERKNS_3mapINS_12basic_stringIcNS_11char_traitsIcEENS7_IcEEEEjNS_4lessISH_EENS7_INS_4pairIKSH_jEEEEEEbENKUlNS2_4lang4TileENSR_3est6FactorERNST_14FactorOrderingENSR_5ArrayINSR_6BufferEEERNST_16BlockMatrixArrayENST_22SchurEliminatedHessianESZ_SY_SY_E_clESS_SU_SW_SZ_S11_S12_SZ_SY_SY_ENKUlNS2_4ExprEE_clES14_EUlvE_NS7_IS16_EEFvvEEE, 
                       __ZTINSt3__110__function6__funcIZZZN2gc3est17SymmetrizeDiagJtJ10kernelFuncEvENKUlNS2_4lang4TileERNS5_3est11BlockMatrixEE_clES6_S9_ENKUlNS2_4ExprENS5_6MatrixEE_clESB_SC_EUlvE_NS_9allocatorISE_EEFvvEEE, 
                       __ZTINSt3__110__function6__funcIZZZN2gc3est18ImplicitSchurJtJp218kernelFuncVariadicEjENKUlNS2_4lang4TileERNS5_3est8JacobianENS7_14FactorOrderingENS5_6BufferESB_SB_SB_E_clES6_S9_SA_SB_SB_SB_SB_ENKUlNS2_4ExprEE_clESD_EUlvE_NS_9allocatorISF_EEFvvEEE, 
                       __ZTINSt3__110__function6__funcIZZZN2gc3est20MaterializeJacobians10kernelFuncERKNS3_16ArgumentGroupingERKNS_6vectorINS3_13eJacobianTypeENS_9allocatorIS9_EEEEENKUlNS2_4lang4TileENSF_3est6FactorENSF_6BufferESJ_SJ_NSF_5ArrayINSH_14FactorOrderingEEENSH_11VariableSetENSK_ISJ_EESO_NSF_17BindableTypeArrayEE_clESG_SI_SJ_SJ_SJ_SM_SN_SO_SO_SP_ENKUlvE0_clEvEUlNS2_4ExprEE_NSA_IST_EEFvSS_EEE, 
                       __ZTINSt3__110__function6__funcIZZZN2gc3est20MaterializeJacobians10kernelFuncERKNS3_16ArgumentGroupingERKNS_6vectorINS3_13eJacobianTypeENS_9allocatorIS9_EEEEENKUlNS2_4lang4TileENSF_3est6FactorENSF_6BufferESJ_SJ_NSF_5ArrayINSH_14FactorOrderingEEENSH_11VariableSetENSK_ISJ_EESO_NSF_17BindableTypeArrayEE_clESG_SI_SJ_SJ_SJ_SM_SN_SO_SO_SP_ENKUlvE1_clEvEUlvE_NSA_ISS_EEFvvEEE, 
                       __ZTINSt3__110__function6__funcIZZZN2gc3est20MaterializeJacobians10kernelFuncERKNS3_16ArgumentGroupingERKNS_6vectorINS3_13eJacobianTypeENS_9allocatorIS9_EEEEENKUlNS2_4lang4TileENSF_3est6FactorENSF_6BufferESJ_SJ_NSF_5ArrayINSH_14FactorOrderingEEENSH_11VariableSetENSK_ISJ_EESO_NSF_17BindableTypeArrayEE_clESG_SI_SJ_SJ_SJ_SM_SN_SO_SO_SP_ENKUlvE_clEvEUlNS2_4ExprEE_NSA_IST_EEFvSS_EEE, 
                       __ZTINSt3__110__function6__funcIZZZN2gc3est20SchurBackSubstitute110kernelFuncERKNS_6vectorINS3_13ArgumentGroupENS_9allocatorIS6_EEEERKNS_3mapINS_12basic_stringIcNS_11char_traitsIcEENS7_IcEEEEjNS_4lessISH_EENS7_INS_4pairIKSH_jEEEEEEbENKUlNS2_4lang4TileENSR_6BufferENSR_5ArrayIST_EESV_NSR_3est6FactorERNSW_14FactorOrderingENSW_22SchurEliminatedHessianEST_E_clESS_ST_SV_SV_SX_SZ_S10_ST_ENKUlNS2_4ExprEE_clES12_EUlvE_NS7_IS14_EEFvvEEE, 
                       __ZTINSt3__110__function6__funcIZZZN2gc3est24ImplicitSchurInitialize310kernelFuncEvENKUlNS2_4lang4TileERNS5_3est8JacobianENS7_14FactorOrderingESA_NS5_6BufferESB_SB_SB_SB_SB_E_clES6_S9_SA_SA_SB_SB_SB_SB_SB_SB_ENKUlNS2_4ExprESD_E_clESD_SD_EUlSD_E_NS_9allocatorISF_EEFvSD_EEE, 
                       __ZTINSt3__110__function6__funcIZZZN2gc3est28ImplicitSchurBackSubstitute110kernelFuncERKNS_6vectorINS3_13ArgumentGroupENS_9allocatorIS6_EEEERKNS_3mapINS_12basic_stringIcNS_11char_traitsIcEENS7_IcEEEEjNS_4lessISH_EENS7_INS_4pairIKSH_jEEEEEEENKUlNS2_4lang4TileERNSR_3est11JacobianSetENSR_5ArrayINST_14FactorOrderingEEENSW_INSR_6BufferEEES10_SZ_E_clESS_SV_SY_S10_S10_SZ_ENKUlvE_clEvEUlNS2_4ExprEE_NS7_IS14_EEFvS13_EEE, 
                       __ZTINSt3__110__function6__funcIZZZN2gc3est30ApplyAdditiveLMDampingExplicit10kernelFuncEvENKUlNS2_4lang4TileENS5_6ScalarERNS5_3est11BlockMatrixEE_clES6_S7_SA_ENKUlNS2_4ExprENS5_6MatrixEE_clESC_SD_EUlvE_NS_9allocatorISF_EEFvvEEE, 
                       __ZTINSt3__110__function6__funcIZZZN2gc3est36ApplyMultiplicativeLMDampingExplicit10kernelFuncEvENKUlNS2_4lang4TileENS5_6ScalarERNS5_3est11BlockMatrixEE_clES6_S7_SA_ENKUlNS2_4ExprENS5_6MatrixEE_clESC_SD_EUlvE_NS_9allocatorISF_EEFvvEEE, 
                       __ZTINSt3__110__function6__funcIZZZN2gc3ops10SSIMOpGrad6kernelEvENKUlNS2_4lang4TileENS5_6BufferES7_S7_NS5_6VectorES7_S7_E_clES6_S7_S7_S7_S8_S7_S7_ENKUlT_E0_clINS2_4ExprEEEDaSA_EUlSA_E_NS_9allocatorISF_EEFvSD_EEE, 
                       __ZTINSt3__110__function6__funcIZZZN2gc3ops10SSIMOpGrad6kernelEvENKUlNS2_4lang4TileENS5_6BufferES7_S7_NS5_6VectorES7_S7_E_clES6_S7_S7_S7_S8_S7_S7_ENKUlT_E_clINS2_4ExprEEEDaSA_EUlSA_E_NS_9allocatorISF_EEFvSD_EEE, 
                       __ZTINSt3__110__function6__funcIZZZN2gc3ops20SSIMOpPreprocessGrad6kernelEvENKUlNS2_4lang4TileENS5_6BufferES7_NS5_6VectorES7_E_clES6_S7_S7_S8_S7_ENKUlT_E0_clINS2_4ExprEEEDaSA_EUlSA_E_NS_9allocatorISF_EEFvSD_EEE, 
                       __ZTINSt3__110__function6__funcIZZZN2gc3ops20SSIMOpPreprocessGrad6kernelEvENKUlNS2_4lang4TileENS5_6BufferES7_NS5_6VectorES7_E_clES6_S7_S7_S8_S7_ENKUlT_E1_clINS2_4ExprEEEDaSA_EUlSA_E_NS_9allocatorISF_EEFvSD_EEE, 
                       __ZTINSt3__110__function6__funcIZZZN2gc3ops20SSIMOpPreprocessGrad6kernelEvENKUlNS2_4lang4TileENS5_6BufferES7_NS5_6VectorES7_E_clES6_S7_S7_S8_S7_ENKUlT_E_clINS2_4ExprEEEDaSA_EUlSA_E_NS_9allocatorISF_EEFvSD_EEE, 
                       __ZTINSt3__110__function6__funcIZZZN2gc3ops6SSIMOp6kernelEvENKUlNS2_4lang4TileENS5_6BufferES7_NS5_6VectorES7_E_clES6_S7_S7_S8_S7_ENKUlT_E0_clINS2_4ExprEEEDaSA_EUlSA_E_NS_9allocatorISF_EEFvSD_EEE, 
                       __ZTINSt3__110__function6__funcIZZZN2gc3ops6SSIMOp6kernelEvENKUlNS2_4lang4TileENS5_6BufferES7_NS5_6VectorES7_E_clES6_S7_S7_S8_S7_ENKUlT_E1_clINS2_4ExprEEEDaSA_EUlSA_E_NS_9allocatorISF_EEFvSD_EEE, 
                       __ZTINSt3__110__function6__funcIZZZN2gc3ops6SSIMOp6kernelEvENKUlNS2_4lang4TileENS5_6BufferES7_NS5_6VectorES7_E_clES6_S7_S7_S8_S7_ENKUlT_E_clINS2_4ExprEEEDaSA_EUlSA_E_NS_9allocatorISF_EEFvSD_EEE, 
                       __ZTINSt3__110__function6__funcIZZZZN2gc3est10EvaluateHp10kernelFuncEvENKUlNS2_4lang4TileERNS5_3est11BlockMatrixENS5_6BufferESA_SA_RSA_E_clES6_S9_SA_SA_SA_SB_ENKUlvE_clEvENKUlNS2_4ExprENS5_6MatrixEE_clESE_SF_EUlvE_NS_9allocatorISH_EEFvvEEE, 
                       __ZTINSt3__110__function6__funcIZZZZN2gc3est11EvaluateJtJ21kernelFuncOffDiagonalEvENKUlNS2_4lang4TileENS5_3est13BlockOrderingENS5_5ArrayINS7_14FactorOrderingEEERNS7_11JacobianSetERNS7_11BlockMatrixEE_clES6_S8_SB_SD_SF_ENKUlNS2_4ExprEE_clESH_ENKUlSH_E_clESH_EUlvE_NS_9allocatorISK_EEFvvEEE, 
                       __ZTINSt3__110__function6__funcIZZZZN2gc3est14ExtractDiagJtJ10kernelFuncEvENKUlNS2_4lang4TileERNS5_3est11BlockMatrixENS5_6BufferESA_SA_E_clES6_S9_SA_SA_SA_ENKUlNS2_4ExprENS5_6MatrixEE_clESC_SD_ENKUlvE_clEvEUlvE_NS_9allocatorISG_EEFvvEEE, 
                       __ZTINSt3__110__function6__funcIZZZZN2gc3est14SchurLinearize16factorKernelFuncERKNS_6vectorINS3_13ArgumentGroupENS_9allocatorIS6_EEEERKNS_3mapINS_12basic_stringIcNS_11char_traitsIcEENS7_IcEEEEjNS_4lessISH_EENS7_INS_4pairIKSH_jEEEEEEbENKUlNS2_4lang4TileENSR_6BufferENSR_3est6FactorERNSU_11JacobianSetENSR_5ArrayIST_EENSY_INSU_14FactorOrderingEEERNSU_16BlockMatrixArrayESZ_E_clESS_ST_SV_SX_SZ_S11_S13_SZ_ENKUlvE_clEvENKUlNS2_4ExprEE_clES16_EUlvE_NS7_IS18_EEFvvEEE, 
                       __ZTINSt3__110__function6__funcIZZZZN2gc3est14SchurLinearize28eliminatedVariableKernelFuncERKNS_6vectorINS3_13ArgumentGroupENS_9allocatorIS6_EEEERKNS_3mapINS_12basic_stringIcNS_11char_traitsIcEENS7_IcEEEEjNS_4lessISH_EENS7_INS_4pairIKSH_jEEEEEEbENKUlNS2_4lang4TileENSR_6BufferERNSR_3est8JacobianENSU_6FactorERNSU_11JacobianSetERNSU_14FactorOrderingENSR_5ArrayIST_EENS12_IS10_EERNSU_16BlockMatrixArrayENSU_22SchurEliminatedHessianES13_ST_ST_E_clESS_ST_SW_SX_SZ_S11_S13_S14_S16_S17_S13_ST_ST_ENKUlNS2_4ExprEE_clES19_ENKUlS19_E_clES19_EUlvE_NS7_IS1C_EEFvvEEE, 
                       __ZTINSt3__110__function6__funcIZZZZN2gc3est17SchurOuterProduct27schurOuterProductKernelFuncERKNS_6vectorINS3_13ArgumentGroupENS_9allocatorIS6_EEEERKNS_3mapINS_12basic_stringIcNS_11char_traitsIcEENS7_IcEEEEjNS_4lessISH_EENS7_INS_4pairIKSH_jEEEEEEbENKUlNS2_4lang4TileENSR_3est6FactorERNST_14FactorOrderingENSR_5ArrayINSR_6BufferEEERNST_16BlockMatrixArrayENST_22SchurEliminatedHessianESZ_SY_SY_E_clESS_SU_SW_SZ_S11_S12_SZ_SY_SY_ENKUlNS2_4ExprEE_clES14_ENKUlvE_clEvEUlS14_E_NS7_IS17_EEFvS14_EEE, 
                       __ZTINSt3__110__function6__funcIZZZZN2gc3est18ImplicitSchurJtJp218kernelFuncVariadicEjENKUlNS2_4lang4TileERNS5_3est8JacobianENS7_14FactorOrderingENS5_6BufferESB_SB_SB_E_clES6_S9_SA_SB_SB_SB_SB_ENKUlNS2_4ExprEE_clESD_ENKUlvE_clEvEUlvE_NS_9allocatorISG_EEFvvEEE, 
                       __ZTINSt3__110__function6__funcIZZZZN2gc3est20MaterializeJacobians10kernelFuncERKNS3_16ArgumentGroupingERKNS_6vectorINS3_13eJacobianTypeENS_9allocatorIS9_EEEEENKUlNS2_4lang4TileENSF_3est6FactorENSF_6BufferESJ_SJ_NSF_5ArrayINSH_14FactorOrderingEEENSH_11VariableSetENSK_ISJ_EESO_NSF_17BindableTypeArrayEE_clESG_SI_SJ_SJ_SJ_SM_SN_SO_SO_SP_ENKUlvE0_clEvENKUlNS2_4ExprEE_clESS_EUlvE_NSA_ISU_EEFvvEEE, 
                       __ZTINSt3__110__function6__funcIZZZZN2gc3est20MaterializeJacobians10kernelFuncERKNS3_16ArgumentGroupingERKNS_6vectorINS3_13eJacobianTypeENS_9allocatorIS9_EEEEENKUlNS2_4lang4TileENSF_3est6FactorENSF_6BufferESJ_SJ_NSF_5ArrayINSH_14FactorOrderingEEENSH_11VariableSetENSK_ISJ_EESO_NSF_17BindableTypeArrayEE_clESG_SI_SJ_SJ_SJ_SM_SN_SO_SO_SP_ENKUlvE_clEvENKUlNS2_4ExprEE_clESS_EUlvE_NSA_ISU_EEFvvEEE, 
                       __ZTINSt3__110__function6__funcIZZZZN2gc3est24ImplicitSchurInitialize310kernelFuncEvENKUlNS2_4lang4TileERNS5_3est8JacobianENS7_14FactorOrderingESA_NS5_6BufferESB_SB_SB_SB_SB_E_clES6_S9_SA_SA_SB_SB_SB_SB_SB_SB_ENKUlNS2_4ExprESD_E_clESD_SD_ENKUlSD_E_clESD_EUlvE0_NS_9allocatorISG_EEFvvEEE, 
                       __ZTINSt3__110__function6__funcIZZZZN2gc3est24ImplicitSchurInitialize310kernelFuncEvENKUlNS2_4lang4TileERNS5_3est8JacobianENS7_14FactorOrderingESA_NS5_6BufferESB_SB_SB_SB_SB_E_clES6_S9_SA_SA_SB_SB_SB_SB_SB_SB_ENKUlNS2_4ExprESD_E_clESD_SD_ENKUlSD_E_clESD_EUlvE_NS_9allocatorISG_EEFvvEEE, 
                       __ZTINSt3__110__function6__funcIZZZZN2gc3est30ApplyAdditiveLMDampingExplicit10kernelFuncEvENKUlNS2_4lang4TileENS5_6ScalarERNS5_3est11BlockMatrixEE_clES6_S7_SA_ENKUlNS2_4ExprENS5_6MatrixEE_clESC_SD_ENKUlvE_clEvEUlT_E_NS_9allocatorISH_EEFvSC_EEE, 
                       __ZTINSt3__110__function6__funcIZZZZN2gc3est36ApplyMultiplicativeLMDampingExplicit10kernelFuncEvENKUlNS2_4lang4TileENS5_6ScalarERNS5_3est11BlockMatrixEE_clES6_S7_SA_ENKUlNS2_4ExprENS5_6MatrixEE_clESC_SD_ENKUlvE_clEvEUlT_E_NS_9allocatorISH_EEFvSC_EEE, 
                       __ZTINSt3__110__function6__funcIZZZZN2gc3ops10SSIMOpGrad6kernelEvENKUlNS2_4lang4TileENS5_6BufferES7_S7_NS5_6VectorES7_S7_E_clES6_S7_S7_S7_S8_S7_S7_ENKUlT_E_clINS2_4ExprEEEDaSA_ENKUlSA_E_clISD_EESE_SA_EUlvE_NS_9allocatorISH_EEFvvEEE, 
                       __ZTINSt3__110__function6__funcIZZZZN2gc3ops20SSIMOpPreprocessGrad6kernelEvENKUlNS2_4lang4TileENS5_6BufferES7_NS5_6VectorES7_E_clES6_S7_S7_S8_S7_ENKUlT_E_clINS2_4ExprEEEDaSA_ENKUlSA_E_clISD_EESE_SA_EUlvE_NS_9allocatorISH_EEFvvEEE, 
                       __ZTINSt3__110__function6__funcIZZZZN2gc3ops6SSIMOp6kernelEvENKUlNS2_4lang4TileENS5_6BufferES7_NS5_6VectorES7_E_clES6_S7_S7_S8_S7_ENKUlT_E_clINS2_4ExprEEEDaSA_ENKUlSA_E_clISD_EESE_SA_EUlvE_NS_9allocatorISH_EEFvvEEE, 
                       __ZTINSt3__110__function6__funcIZZZZZN2gc3est11EvaluateJtJ21kernelFuncOffDiagonalEvENKUlNS2_4lang4TileENS5_3est13BlockOrderingENS5_5ArrayINS7_14FactorOrderingEEERNS7_11JacobianSetERNS7_11BlockMatrixEE_clES6_S8_SB_SD_SF_ENKUlNS2_4ExprEE_clESH_ENKUlSH_E_clESH_ENKUlvE_clEvEUlSH_E_NS_9allocatorISL_EEFvSH_EEE, 
                       __ZTINSt3__110__function6__funcIZZZZZN2gc3est14SchurLinearize16factorKernelFuncERKNS_6vectorINS3_13ArgumentGroupENS_9allocatorIS6_EEEERKNS_3mapINS_12basic_stringIcNS_11char_traitsIcEENS7_IcEEEEjNS_4lessISH_EENS7_INS_4pairIKSH_jEEEEEEbENKUlNS2_4lang4TileENSR_6BufferENSR_3est6FactorERNSU_11JacobianSetENSR_5ArrayIST_EENSY_INSU_14FactorOrderingEEERNSU_16BlockMatrixArrayESZ_E_clESS_ST_SV_SX_SZ_S11_S13_SZ_ENKUlvE_clEvENKUlNS2_4ExprEE_clES16_ENKUlvE_clEvEUlS16_E_NS7_IS19_EEFvS16_EEE, 
                       __ZTINSt3__110__function6__funcIZZZZZN2gc3est14SchurLinearize28eliminatedVariableKernelFuncERKNS_6vectorINS3_13ArgumentGroupENS_9allocatorIS6_EEEERKNS_3mapINS_12basic_stringIcNS_11char_traitsIcEENS7_IcEEEEjNS_4lessISH_EENS7_INS_4pairIKSH_jEEEEEEbENKUlNS2_4lang4TileENSR_6BufferERNSR_3est8JacobianENSU_6FactorERNSU_11JacobianSetERNSU_14FactorOrderingENSR_5ArrayIST_EENS12_IS10_EERNSU_16BlockMatrixArrayENSU_22SchurEliminatedHessianES13_ST_ST_E_clESS_ST_SW_SX_SZ_S11_S13_S14_S16_S17_S13_ST_ST_ENKUlNS2_4ExprEE_clES19_ENKUlS19_E_clES19_ENKUlvE_clEvEUlvE_NS7_IS1D_EEFvvEEE, 
                       __ZTINSt3__110__function6__funcIZZZZZN2gc3est17SchurOuterProduct27schurOuterProductKernelFuncERKNS_6vectorINS3_13ArgumentGroupENS_9allocatorIS6_EEEERKNS_3mapINS_12basic_stringIcNS_11char_traitsIcEENS7_IcEEEEjNS_4lessISH_EENS7_INS_4pairIKSH_jEEEEEEbENKUlNS2_4lang4TileENSR_3est6FactorERNST_14FactorOrderingENSR_5ArrayINSR_6BufferEEERNST_16BlockMatrixArrayENST_22SchurEliminatedHessianESZ_SY_SY_E_clESS_SU_SW_SZ_S11_S12_SZ_SY_SY_ENKUlNS2_4ExprEE_clES14_ENKUlvE_clEvENKUlS14_E_clES14_EUlvE_NS7_IS18_EEFvvEEE, 
                       __ZTINSt3__110__function6__funcIZZZZZN2gc3est22EvaluateJtJFactorLevel10kernelFuncERKNS_6vectorIjNS_9allocatorIjEEEEENKUlNS2_4lang4TileENSB_5ArrayINSB_3est13BlockOrderingEEENSD_INSE_14FactorOrderingEEERNSE_11JacobianSetERNSE_16BlockMatrixArrayEE_clESC_SG_SI_SK_SM_ENKUlvE_clEvENKUlNS2_5TupleENS2_4ExprEE_clESP_SQ_ENKUlSQ_E_clESQ_EUlSQ_E_NS6_IST_EEFvSQ_EEE, 
                       __ZTINSt3__110__function6__funcIZZZZZZN2gc3est11EvaluateJtJ21kernelFuncOffDiagonalEvENKUlNS2_4lang4TileENS5_3est13BlockOrderingENS5_5ArrayINS7_14FactorOrderingEEERNS7_11JacobianSetERNS7_11BlockMatrixEE_clES6_S8_SB_SD_SF_ENKUlNS2_4ExprEE_clESH_ENKUlSH_E_clESH_ENKUlvE_clEvENKUlSH_E_clESH_EUlvE_NS_9allocatorISM_EEFvvEEE, 
                       __ZTINSt3__110__function6__funcIZZZZZZN2gc3est14SchurLinearize16factorKernelFuncERKNS_6vectorINS3_13ArgumentGroupENS_9allocatorIS6_EEEERKNS_3mapINS_12basic_stringIcNS_11char_traitsIcEENS7_IcEEEEjNS_4lessISH_EENS7_INS_4pairIKSH_jEEEEEEbENKUlNS2_4lang4TileENSR_6BufferENSR_3est6FactorERNSU_11JacobianSetENSR_5ArrayIST_EENSY_INSU_14FactorOrderingEEERNSU_16BlockMatrixArrayESZ_E_clESS_ST_SV_SX_SZ_S11_S13_SZ_ENKUlvE_clEvENKUlNS2_4ExprEE_clES16_ENKUlvE_clEvENKUlS16_E_clES16_EUlvE_NS7_IS1A_EEFvvEEE, 
                       __ZTINSt3__110__function6__funcIZZZZZZN2gc3est14SchurLinearize28eliminatedVariableKernelFuncERKNS_6vectorINS3_13ArgumentGroupENS_9allocatorIS6_EEEERKNS_3mapINS_12basic_stringIcNS_11char_traitsIcEENS7_IcEEEEjNS_4lessISH_EENS7_INS_4pairIKSH_jEEEEEEbENKUlNS2_4lang4TileENSR_6BufferERNSR_3est8JacobianENSU_6FactorERNSU_11JacobianSetERNSU_14FactorOrderingENSR_5ArrayIST_EENS12_IS10_EERNSU_16BlockMatrixArrayENSU_22SchurEliminatedHessianES13_ST_ST_E_clESS_ST_SW_SX_SZ_S11_S13_S14_S16_S17_S13_ST_ST_ENKUlNS2_4ExprEE_clES19_ENKUlS19_E_clES19_ENKUlvE_clEvENKUlvE_clEvEUlvE_NS7_IS1E_EEFvvEEE, 
                       __ZTINSt3__110__function6__funcIZZZZZZN2gc3est17SchurOuterProduct27schurOuterProductKernelFuncERKNS_6vectorINS3_13ArgumentGroupENS_9allocatorIS6_EEEERKNS_3mapINS_12basic_stringIcNS_11char_traitsIcEENS7_IcEEEEjNS_4lessISH_EENS7_INS_4pairIKSH_jEEEEEEbENKUlNS2_4lang4TileENSR_3est6FactorERNST_14FactorOrderingENSR_5ArrayINSR_6BufferEEERNST_16BlockMatrixArrayENST_22SchurEliminatedHessianESZ_SY_SY_E_clESS_SU_SW_SZ_S11_S12_SZ_SY_SY_ENKUlNS2_4ExprEE_clES14_ENKUlvE_clEvENKUlS14_E_clES14_ENKUlvE_clEvEUlvE_NS7_IS19_EEFvvEEE, 
                       __ZTINSt3__110__function6__funcIZZZZZZN2gc3est22EvaluateJtJFactorLevel10kernelFuncERKNS_6vectorIjNS_9allocatorIjEEEEENKUlNS2_4lang4TileENSB_5ArrayINSB_3est13BlockOrderingEEENSD_INSE_14FactorOrderingEEERNSE_11JacobianSetERNSE_16BlockMatrixArrayEE_clESC_SG_SI_SK_SM_ENKUlvE_clEvENKUlNS2_5TupleENS2_4ExprEE_clESP_SQ_ENKUlSQ_E_clESQ_ENKUlSQ_E_clESQ_EUlSQ_E_NS6_ISU_EEFvSQ_EEE, 
                       __ZTINSt3__110__function6__funcIZZZZZZZN2gc3est14SchurLinearize28eliminatedVariableKernelFuncERKNS_6vectorINS3_13ArgumentGroupENS_9allocatorIS6_EEEERKNS_3mapINS_12basic_stringIcNS_11char_traitsIcEENS7_IcEEEEjNS_4lessISH_EENS7_INS_4pairIKSH_jEEEEEEbENKUlNS2_4lang4TileENSR_6BufferERNSR_3est8JacobianENSU_6FactorERNSU_11JacobianSetERNSU_14FactorOrderingENSR_5ArrayIST_EENS12_IS10_EERNSU_16BlockMatrixArrayENSU_22SchurEliminatedHessianES13_ST_ST_E_clESS_ST_SW_SX_SZ_S11_S13_S14_S16_S17_S13_ST_ST_ENKUlNS2_4ExprEE_clES19_ENKUlS19_E_clES19_ENKUlvE_clEvENKUlvE_clEvENKUlvE_clEvEUlS19_E_NS7_IS1F_EEFvS19_EEE, 
                       __ZTINSt3__113basic_filebufIcNS_11char_traitsIcEEEE, __ZTINSt3__113basic_fstreamIcNS_11char_traitsIcEEEE, 
                       __ZTINSt3__114basic_ifstreamIcNS_11char_traitsIcEEEE, __ZTINSt3__114basic_ofstreamIcNS_11char_traitsIcEEEE, 
                       __ZTINSt3__115basic_stringbufIcNS_11char_traitsIcEENS_9allocatorIcEEEE, 
                       __ZTINSt3__117bad_function_callE, __ZTINSt3__118basic_stringstreamIcNS_11char_traitsIcEENS_9allocatorIcEEEE, 
                       __ZTINSt3__119basic_istringstreamIcNS_11char_traitsIcEENS_9allocatorIcEEEE, 
                       __ZTINSt3__120__packaged_task_baseIFvvEEE, __ZTINSt3__120__shared_ptr_emplaceIN2gc10FileTargetENS_9allocatorIS2_EEEE, 
                       __ZTINSt3__120__shared_ptr_emplaceIN2gc11OsLogTargetENS_9allocatorIS2_EEEE, 
                       __ZTINSt3__120__shared_ptr_emplaceIN2gc13ConsoleTargetENS_9allocatorIS2_EEEE, 
                       __ZTINSt3__120__shared_ptr_emplaceIN2gc3ops10FilledLikeENS_9allocatorIS3_EEEE, 
                       __ZTINSt3__120__shared_ptr_emplaceIN2gc3ops10SSIMOpGradENS_9allocatorIS3_EEEE, 
                       __ZTINSt3__120__shared_ptr_emplaceIN2gc3ops10ScanOpGradENS_9allocatorIS3_EEEE, 
                       __ZTINSt3__120__shared_ptr_emplaceIN2gc3ops11AddAssignTTENS_9allocatorIS3_EEEE, 
                       __ZTINSt3__120__shared_ptr_emplaceIN2gc3ops11ConcatShapeENS_9allocatorIS3_EEEE, 
                       __ZTINSt3__120__shared_ptr_emplaceIN2gc3ops11RangeStaticENS_9allocatorIS3_EEEE, 
                       __ZTINSt3__120__shared_ptr_emplaceIN2gc3ops12CrossEntropyENS_9allocatorIS3_EEEE, 
                       __ZTINSt3__120__shared_ptr_emplaceIN2gc3ops12RangeDynamicENS_9allocatorIS3_EEEE, 
                       __ZTINSt3__120__shared_ptr_emplaceIN2gc3ops12ReduceOpGradENS_9allocatorIS3_EEEE, 
                       __ZTINSt3__120__shared_ptr_emplaceIN2gc3ops13NonzeroOpGradENS_9allocatorIS3_EEEE, 
                       __ZTINSt3__120__shared_ptr_emplaceIN2gc3ops13ScanPassOneOpENS_9allocatorIS3_EEEE, 
                       __ZTINSt3__120__shared_ptr_emplaceIN2gc3ops13ScanPassTwoOpENS_9allocatorIS3_EEEE, 
                       __ZTINSt3__120__shared_ptr_emplaceIN2gc3ops13SortPassOneOpENS_9allocatorIS3_EEEE, 
                       __ZTINSt3__120__shared_ptr_emplaceIN2gc3ops13SortPassTwoOpENS_9allocatorIS3_EEEE, 
                       __ZTINSt3__120__shared_ptr_emplaceIN2gc3ops15ScanPassThreeOpENS_9allocatorIS3_EEEE, 
                       __ZTINSt3__120__shared_ptr_emplaceIN2gc3ops16AutoDiffBackpropENS_9allocatorIS3_EEEE, 
                       __ZTINSt3__120__shared_ptr_emplaceIN2gc3ops16NonzeroPassOneOpENS_9allocatorIS3_EEEE, 
                       __ZTINSt3__120__shared_ptr_emplaceIN2gc3ops16NonzeroPassTwoOpENS_9allocatorIS3_EEEE, 
                       __ZTINSt3__120__shared_ptr_emplaceIN2gc3ops17SortPassArgsTwoOpENS_9allocatorIS3_EEEE, 
                       __ZTINSt3__120__shared_ptr_emplaceIN2gc3ops18NonzeroPassThreeOpENS_9allocatorIS3_EEEE, 
                       __ZTINSt3__120__shared_ptr_emplaceIN2gc3ops20SSIMOpPreprocessGradENS_9allocatorIS3_EEEE, 
                       __ZTINSt3__120__shared_ptr_emplaceIN2gc3ops3AtGENS_9allocatorIS3_EEEE, 
                       __ZTINSt3__120__shared_ptr_emplaceIN2gc3ops3GBtENS_9allocatorIS3_EEEE, 
                       __ZTINSt3__120__shared_ptr_emplaceIN2gc3ops4CastENS_9allocatorIS3_EEEE, 
                       __ZTINSt3__120__shared_ptr_emplaceIN2gc3ops4CopyENS_9allocatorIS3_EEEE, 
                       __ZTINSt3__120__shared_ptr_emplaceIN2gc3ops4HeadENS_9allocatorIS3_EEEE, 
                       __ZTINSt3__120__shared_ptr_emplaceIN2gc3ops4L1OpENS_9allocatorIS3_EEEE, 
                       __ZTINSt3__120__shared_ptr_emplaceIN2gc3ops4L2OpENS_9allocatorIS3_EEEE, 
                       __ZTINSt3__120__shared_ptr_emplaceIN2gc3ops4TailENS_9allocatorIS3_EEEE, 
                       __ZTINSt3__120__shared_ptr_emplaceIN2gc3ops5MaxTTENS_9allocatorIS3_EEEE, 
                       __ZTINSt3__120__shared_ptr_emplaceIN2gc3ops5MinTTENS_9allocatorIS3_EEEE, 
                       __ZTINSt3__120__shared_ptr_emplaceIN2gc3ops5PrintENS_9allocatorIS3_EEEE, 
                       __ZTINSt3__120__shared_ptr_emplaceIN2gc3ops5Split4GradENS_9allocatorIS4_EEEE, 
                       __ZTINSt3__120__shared_ptr_emplaceIN2gc3ops5SplitENS_9allocatorIS3_EEEE, 
                       __ZTINSt3__120__shared_ptr_emplaceIN2gc3ops6ConcatENS_9allocatorIS3_EEEE, 
                       __ZTINSt3__120__shared_ptr_emplaceIN2gc3ops6GatherENS_9allocatorIS3_EEEE, 
                       __ZTINSt3__120__shared_ptr_emplaceIN2gc3ops6MatMulENS_9allocatorIS3_EEEE, 
                       __ZTINSt3__120__shared_ptr_emplaceIN2gc3ops6ResizeENS_9allocatorIS3_EEEE, 
                       __ZTINSt3__120__shared_ptr_emplaceIN2gc3ops6SSIMOpENS_9allocatorIS3_EEEE, 
                       __ZTINSt3__120__shared_ptr_emplaceIN2gc3ops6detail10TensorFillENS_9allocatorIS4_EEEE, 
                       __ZTINSt3__120__shared_ptr_emplaceIN2gc3ops6detail10TensorSizeENS_9allocatorIS4_EEEE, 
                       __ZTINSt3__120__shared_ptr_emplaceIN2gc3ops6detail13TensorExtentsENS_9allocatorIS4_EEEE, 
                       __ZTINSt3__120__shared_ptr_emplaceIN2gc3ops7ScatterENS_9allocatorIS3_EEEE, 
                       __ZTINSt3__120__shared_ptr_emplaceIN2gc3ops8DivideTTENS_9allocatorIS3_EEEE, 
                       __ZTINSt3__120__shared_ptr_emplaceIN2gc3ops8ReduceOpENS_9allocatorIS3_EEEE, 
                       __ZTINSt3__120__shared_ptr_emplaceIN2gc3ops9BroadcastENS_9allocatorIS3_EEEE, 
                       __ZTINSt3__120__shared_ptr_emplaceIN2gc3ops9TransposeENS_9allocatorIS3_EEEE, 
                       __ZTINSt3__120__shared_ptr_emplaceIN8nlohmann16json_abi_v3_11_36detail21output_stream_adapterIcEENS_9allocatorIS5_EEEE, 
                       __ZTINSt3__120__shared_ptr_emplaceINS_6vectorINS_10unique_ptrIN2gc12BindableTypeENS_14default_deleteIS4_EEEENS_9allocatorIS7_EEEENS8_ISA_EEEE, 
                       __ZTINSt3__120__shared_ptr_pointerIPN2gc11TypedKernelINS1_4lang4TileEJNS3_3est13BlockOrderingENS3_5ArrayINS5_14FactorOrderingEEERNS5_11JacobianSetERNS5_11BlockMatrixEEEENS_10shared_ptrINS1_6KernelEE27__shared_ptr_default_deleteISH_SE_EENS_9allocatorISE_EEEE, 
                       __ZTINSt3__120__shared_ptr_pointerIPN2gc11TypedKernelINS1_4lang4TileEJNS3_3est13BlockOrderingENS5_14FactorOrderingERNS5_8JacobianERNS5_11BlockMatrixEEEENS_10shared_ptrINS1_6KernelEE27__shared_ptr_default_deleteISF_SC_EENS_9allocatorISC_EEEE, 
                       __ZTINSt3__120__shared_ptr_pointerIPN2gc11TypedKernelINS1_4lang4TileEJNS3_3est14FactorOrderingERNS5_8JacobianENS3_6BufferES9_EEENS_10shared_ptrINS1_6KernelEE27__shared_ptr_default_deleteISD_SA_EENS_9allocatorISA_EEEE, 
                       __ZTINSt3__120__shared_ptr_pointerIPN2gc11TypedKernelINS1_4lang4TileEJNS3_3est6FactorENS3_6BufferES7_S7_NS3_5ArrayINS5_14FactorOrderingEEENS5_11VariableSetENS8_IS7_EESC_NS3_17BindableTypeArrayEEEENS_10shared_ptrINS1_6KernelEE27__shared_ptr_default_deleteISH_SE_EENS_9allocatorISE_EEEE, 
                       __ZTINSt3__120__shared_ptr_pointerIPN2gc11TypedKernelINS1_4lang4TileEJNS3_3est6FactorENS5_11VariableSetENS3_6BufferES8_NS3_17BindableTypeArrayEEEENS_10shared_ptrINS1_6KernelEE27__shared_ptr_default_deleteISD_SA_EENS_9allocatorISA_EEEE, 
                       __ZTINSt3__120__shared_ptr_pointerIPN2gc11TypedKernelINS1_4lang4TileEJNS3_3est6FactorENS5_11VariableSetENS3_6BufferES8_S8_NS3_17BindableTypeArrayEEEENS_10shared_ptrINS1_6KernelEE27__shared_ptr_default_deleteISD_SA_EENS_9allocatorISA_EEEE, 
                       __ZTINSt3__120__shared_ptr_pointerIPN2gc11TypedKernelINS1_4lang4TileEJNS3_3est6FactorERNS5_14FactorOrderingENS3_5ArrayINS3_6BufferEEERNS5_16BlockMatrixArrayENS5_22SchurEliminatedHessianESB_SA_SA_EEENS_10shared_ptrINS1_6KernelEE27__shared_ptr_default_deleteISI_SF_EENS_9allocatorISF_EEEE, 
                       __ZTINSt3__120__shared_ptr_pointerIPN2gc11TypedKernelINS1_4lang4TileEJNS3_3est8VariableEEEENS_10shared_ptrINS1_6KernelEE27__shared_ptr_default_deleteISA_S7_EENS_9allocatorIS7_EEEE, 
                       __ZTINSt3__120__shared_ptr_pointerIPN2gc11TypedKernelINS1_4lang4TileEJNS3_3est8VariableENS3_6ScalarEEEENS_10shared_ptrINS1_6KernelEE27__shared_ptr_default_deleteISB_S8_EENS_9allocatorIS8_EEEE, 
                       __ZTINSt3__120__shared_ptr_pointerIPN2gc11TypedKernelINS1_4lang4TileEJNS3_5ArrayINS3_3est13BlockOrderingEEENS5_INS6_14FactorOrderingEEERNS6_11JacobianSetERNS6_16BlockMatrixArrayEEEENS_10shared_ptrINS1_6KernelEE27__shared_ptr_default_deleteISI_SF_EENS_9allocatorISF_EEEE, 
                       __ZTINSt3__120__shared_ptr_pointerIPN2gc11TypedKernelINS1_4lang4TileEJNS3_5ArrayINS3_6BufferEEES7_EEENS_10shared_ptrINS1_6KernelEE27__shared_ptr_default_deleteISB_S8_EENS_9allocatorIS8_EEEE, 
                       __ZTINSt3__120__shared_ptr_pointerIPN2gc11TypedKernelINS1_4lang4TileEJNS3_6BufferEEEENS_10shared_ptrINS1_6KernelEE27__shared_ptr_default_deleteIS9_S6_EENS_9allocatorIS6_EEEE, 
                       __ZTINSt3__120__shared_ptr_pointerIPN2gc11TypedKernelINS1_4lang4TileEJNS3_6BufferENS3_3est6FactorERNS6_11JacobianSetENS3_5ArrayIS5_EENSA_INS6_14FactorOrderingEEERNS6_16BlockMatrixArrayESB_EEENS_10shared_ptrINS1_6KernelEE27__shared_ptr_default_deleteISJ_SG_EENS_9allocatorISG_EEEE, 
                       __ZTINSt3__120__shared_ptr_pointerIPN2gc11TypedKernelINS1_4lang4TileEJNS3_6BufferENS3_3est8VariableEEEENS_10shared_ptrINS1_6KernelEE27__shared_ptr_default_deleteISB_S8_EENS_9allocatorIS8_EEEE, 
                       __ZTINSt3__120__shared_ptr_pointerIPN2gc11TypedKernelINS1_4lang4TileEJNS3_6BufferENS3_5ArrayINS3_3est8VariableEEEEEENS_10shared_ptrINS1_6KernelEE27__shared_ptr_default_deleteISD_SA_EENS_9allocatorISA_EEEE, 
                       __ZTINSt3__120__shared_ptr_pointerIPN2gc11TypedKernelINS1_4lang4TileEJNS3_6BufferENS3_5ArrayIS5_EES7_NS3_3est6FactorERNS8_14FactorOrderingENS8_22SchurEliminatedHessianES5_EEENS_10shared_ptrINS1_6KernelEE27__shared_ptr_default_deleteISG_SD_EENS_9allocatorISD_EEEE, 
                       __ZTINSt3__120__shared_ptr_pointerIPN2gc11TypedKernelINS1_4lang4TileEJNS3_6BufferENS3_6ScalarES5_EEENS_10shared_ptrINS1_6KernelEE27__shared_ptr_default_deleteISA_S7_EENS_9allocatorIS7_EEEE, 
                       __ZTINSt3__120__shared_ptr_pointerIPN2gc11TypedKernelINS1_4lang4TileEJNS3_6BufferENS3_6ScalarES5_S5_EEENS_10shared_ptrINS1_6KernelEE27__shared_ptr_default_deleteISA_S7_EENS_9allocatorIS7_EEEE, 
                       __ZTINSt3__120__shared_ptr_pointerIPN2gc11TypedKernelINS1_4lang4TileEJNS3_6BufferERNS3_3est8JacobianENS6_14FactorOrderingENS3_6ScalarES5_S5_EEENS_10shared_ptrINS1_6KernelEE27__shared_ptr_default_deleteISE_SB_EENS_9allocatorISB_EEEE, 
                       __ZTINSt3__120__shared_ptr_pointerIPN2gc11TypedKernelINS1_4lang4TileEJNS3_6BufferERNS3_3est8JacobianENS6_14FactorOrderingES5_S5_S5_S5_S5_EEENS_10shared_ptrINS1_6KernelEE27__shared_ptr_default_deleteISD_SA_EENS_9allocatorISA_EEEE, 
                       __ZTINSt3__120__shared_ptr_pointerIPN2gc11TypedKernelINS1_4lang4TileEJNS3_6BufferERNS3_3est8JacobianENS6_6FactorERNS6_11JacobianSetERNS6_14FactorOrderingENS3_5ArrayIS5_EENSE_ISC_EERNS6_16BlockMatrixArrayENS6_22SchurEliminatedHessianESF_S5_S5_EEENS_10shared_ptrINS1_6KernelEE27__shared_ptr_default_deleteISN_SK_EENS_9allocatorISK_EEEE, 
                       __ZTINSt3__120__shared_ptr_pointerIPN2gc11TypedKernelINS1_4lang4TileEJNS3_6BufferERNS3_3est8JacobianES5_S5_EEENS_10shared_ptrINS1_6KernelEE27__shared_ptr_default_deleteISC_S9_EENS_9allocatorIS9_EEEE, 
                       __ZTINSt3__120__shared_ptr_pointerIPN2gc11TypedKernelINS1_4lang4TileEJNS3_6BufferES5_EEENS_10shared_ptrINS1_6KernelEE27__shared_ptr_default_deleteIS9_S6_EENS_9allocatorIS6_EEEE, 
                       __ZTINSt3__120__shared_ptr_pointerIPN2gc11TypedKernelINS1_4lang4TileEJNS3_6BufferES5_NS3_5ArrayINS3_3est8VariableEEEEEENS_10shared_ptrINS1_6KernelEE27__shared_ptr_default_deleteISD_SA_EENS_9allocatorISA_EEEE, 
                       __ZTINSt3__120__shared_ptr_pointerIPN2gc11TypedKernelINS1_4lang4TileEJNS3_6BufferES5_NS3_6ScalarES6_S6_S6_S6_S5_S5_EEENS_10shared_ptrINS1_6KernelEE27__shared_ptr_default_deleteISA_S7_EENS_9allocatorIS7_EEEE, 
                       __ZTINSt3__120__shared_ptr_pointerIPN2gc11TypedKernelINS1_4lang4TileEJNS3_6BufferES5_NS3_6VectorES5_EEENS_10shared_ptrINS1_6KernelEE27__shared_ptr_default_deleteISA_S7_EENS_9allocatorIS7_EEEE, 
                       __ZTINSt3__120__shared_ptr_pointerIPN2gc11TypedKernelINS1_4lang4TileEJNS3_6BufferES5_RNS3_3est8JacobianES5_S5_EEENS_10shared_ptrINS1_6KernelEE27__shared_ptr_default_deleteISC_S9_EENS_9allocatorIS9_EEEE, 
                       __ZTINSt3__120__shared_ptr_pointerIPN2gc11TypedKernelINS1_4lang4TileEJNS3_6BufferES5_S5_EEENS_10shared_ptrINS1_6KernelEE27__shared_ptr_default_deleteIS9_S6_EENS_9allocatorIS6_EEEE, 
                       __ZTINSt3__120__shared_ptr_pointerIPN2gc11TypedKernelINS1_4lang4TileEJNS3_6BufferES5_S5_NS3_6ScalarEEEENS_10shared_ptrINS1_6KernelEE27__shared_ptr_default_deleteISA_S7_EENS_9allocatorIS7_EEEE, 
                       __ZTINSt3__120__shared_ptr_pointerIPN2gc11TypedKernelINS1_4lang4TileEJNS3_6BufferES5_S5_NS3_6VectorES5_S5_EEENS_10shared_ptrINS1_6KernelEE27__shared_ptr_default_deleteISA_S7_EENS_9allocatorIS7_EEEE, 
                       __ZTINSt3__120__shared_ptr_pointerIPN2gc11TypedKernelINS1_4lang4TileEJNS3_6BufferES5_S5_S5_EEENS_10shared_ptrINS1_6KernelEE27__shared_ptr_default_deleteIS9_S6_EENS_9allocatorIS6_EEEE, 
                       __ZTINSt3__120__shared_ptr_pointerIPN2gc11TypedKernelINS1_4lang4TileEJNS3_6BufferES5_S5_S5_S5_NS3_6ScalarEEEENS_10shared_ptrINS1_6KernelEE27__shared_ptr_default_deleteISA_S7_EENS_9allocatorIS7_EEEE, 
                       __ZTINSt3__120__shared_ptr_pointerIPN2gc11TypedKernelINS1_4lang4TileEJNS3_6BufferES5_S5_S5_S5_S5_S5_EEENS_10shared_ptrINS1_6KernelEE27__shared_ptr_default_deleteIS9_S6_EENS_9allocatorIS6_EEEE, 
                       __ZTINSt3__120__shared_ptr_pointerIPN2gc11TypedKernelINS1_4lang4TileEJNS3_6ScalarENS3_6BufferES6_EEENS_10shared_ptrINS1_6KernelEE27__shared_ptr_default_deleteISA_S7_EENS_9allocatorIS7_EEEE, 
                       __ZTINSt3__120__shared_ptr_pointerIPN2gc11TypedKernelINS1_4lang4TileEJNS3_6ScalarERNS3_3est11BlockMatrixEEEENS_10shared_ptrINS1_6KernelEE27__shared_ptr_default_deleteISC_S9_EENS_9allocatorIS9_EEEE, 
                       __ZTINSt3__120__shared_ptr_pointerIPN2gc11TypedKernelINS1_4lang4TileEJRNS3_3est11BlockMatrixEEEENS_10shared_ptrINS1_6KernelEE27__shared_ptr_default_deleteISB_S8_EENS_9allocatorIS8_EEEE, 
                       __ZTINSt3__120__shared_ptr_pointerIPN2gc11TypedKernelINS1_4lang4TileEJRNS3_3est11BlockMatrixENS3_6BufferES8_EEENS_10shared_ptrINS1_6KernelEE27__shared_ptr_default_deleteISC_S9_EENS_9allocatorIS9_EEEE, 
                       __ZTINSt3__120__shared_ptr_pointerIPN2gc11TypedKernelINS1_4lang4TileEJRNS3_3est11BlockMatrixENS3_6BufferES8_S8_EEENS_10shared_ptrINS1_6KernelEE27__shared_ptr_default_deleteISC_S9_EENS_9allocatorIS9_EEEE, 
                       __ZTINSt3__120__shared_ptr_pointerIPN2gc11TypedKernelINS1_4lang4TileEJRNS3_3est11BlockMatrixENS3_6BufferES8_S8_RS8_EEENS_10shared_ptrINS1_6KernelEE27__shared_ptr_default_deleteISD_SA_EENS_9allocatorISA_EEEE, 
                       __ZTINSt3__120__shared_ptr_pointerIPN2gc11TypedKernelINS1_4lang4TileEJRNS3_3est11JacobianSetENS3_5ArrayINS5_14FactorOrderingEEENS8_INS3_6BufferEEESC_SB_EEENS_10shared_ptrINS1_6KernelEE27__shared_ptr_default_deleteISG_SD_EENS_9allocatorISD_EEEE, 
                       __ZTINSt3__120__shared_ptr_pointerIPN2gc11TypedKernelINS1_4lang4TileEJRNS3_3est14FactorOrderingENS3_6BufferERNS5_8JacobianES8_S8_EEENS_10shared_ptrINS1_6KernelEE27__shared_ptr_default_deleteISE_SB_EENS_9allocatorISB_EEEE, 
                       __ZTINSt3__120__shared_ptr_pointerIPN2gc11TypedKernelINS1_4lang4TileEJRNS3_3est14FactorOrderingERNS5_8JacobianENS3_6BufferERSA_EEENS_10shared_ptrINS1_6KernelEE27__shared_ptr_default_deleteISF_SC_EENS_9allocatorISC_EEEE, 
                       __ZTINSt3__120__shared_ptr_pointerIPN2gc11TypedKernelINS1_4lang4TileEJRNS3_3est14FactorOrderingERNS5_8JacobianENS3_6BufferESA_EEENS_10shared_ptrINS1_6KernelEE27__shared_ptr_default_deleteISE_SB_EENS_9allocatorISB_EEEE, 
                       __ZTINSt3__120__shared_ptr_pointerIPN2gc11TypedKernelINS1_4lang4TileEJRNS3_3est14FactorOrderingERNS5_8JacobianENS3_6BufferESA_SA_EEENS_10shared_ptrINS1_6KernelEE27__shared_ptr_default_deleteISE_SB_EENS_9allocatorISB_EEEE, 
                       __ZTINSt3__120__shared_ptr_pointerIPN2gc11TypedKernelINS1_4lang4TileEJRNS3_3est14FactorOrderingERNS5_8JacobianENS3_6BufferESA_SA_SA_EEENS_10shared_ptrINS1_6KernelEE27__shared_ptr_default_deleteISE_SB_EENS_9allocatorISB_EEEE, 
                       __ZTINSt3__120__shared_ptr_pointerIPN2gc11TypedKernelINS1_4lang4TileEJRNS3_3est8JacobianENS3_6BufferES8_S8_RS8_EEENS_10shared_ptrINS1_6KernelEE27__shared_ptr_default_deleteISD_SA_EENS_9allocatorISA_EEEE, 
                       __ZTINSt3__120__shared_ptr_pointerIPN2gc11TypedKernelINS1_4lang4TileEJRNS3_3est8JacobianENS3_6BufferES8_S8_S8_S8_EEENS_10shared_ptrINS1_6KernelEE27__shared_ptr_default_deleteISC_S9_EENS_9allocatorIS9_EEEE, 
                       __ZTINSt3__120__shared_ptr_pointerIPN2gc11TypedKernelINS1_4lang4TileEJRNS3_3est8JacobianENS5_14FactorOrderingENS3_6BufferES9_EEENS_10shared_ptrINS1_6KernelEE27__shared_ptr_default_deleteISD_SA_EENS_9allocatorISA_EEEE, 
                       __ZTINSt3__120__shared_ptr_pointerIPN2gc11TypedKernelINS1_4lang4TileEJRNS3_3est8JacobianENS5_14FactorOrderingENS3_6BufferES9_S9_EEENS_10shared_ptrINS1_6KernelEE27__shared_ptr_default_deleteISD_SA_EENS_9allocatorISA_EEEE, 
                       __ZTINSt3__120__shared_ptr_pointerIPN2gc11TypedKernelINS1_4lang4TileEJRNS3_3est8JacobianENS5_14FactorOrderingENS3_6BufferES9_S9_S9_EEENS_10shared_ptrINS1_6KernelEE27__shared_ptr_default_deleteISD_SA_EENS_9allocatorISA_EEEE, 
                       __ZTINSt3__120__shared_ptr_pointerIPN2gc11TypedKernelINS1_4lang4TileEJRNS3_3est8JacobianENS5_14FactorOrderingES8_NS3_6BufferES9_S9_S9_S9_S9_EEENS_10shared_ptrINS1_6KernelEE27__shared_ptr_default_deleteISD_SA_EENS_9allocatorISA_EEEE, 
                       __ZTINSt3__120__shared_ptr_pointerIPN2gc11TypedKernelINS1_4lang4TileEJRNS3_6ScalarENS3_6BufferEEEENS_10shared_ptrINS1_6KernelEE27__shared_ptr_default_deleteISB_S8_EENS_9allocatorIS8_EEEE, 
                       __ZTINSt3__120__shared_ptr_pointerIPN2gc11TypedObjectILNS1_11eObjectTypeE1EEENS_10shared_ptrINS1_6ObjectEE27__shared_ptr_default_deleteIS7_S4_EENS_9allocatorIS4_EEEE, 
                       __ZTINSt3__120__shared_ptr_pointerIPN2gc11smallmatrix13NaiveMultiplyENS_10shared_ptrINS1_15TemplateVariantEE27__shared_ptr_default_deleteIS6_S3_EENS_9allocatorIS3_EEEE, 
                       __ZTINSt3__120__shared_ptr_pointerIPN2gc11smallmatrix14NaiveTransposeENS_10shared_ptrINS1_15TemplateVariantEE27__shared_ptr_default_deleteIS6_S3_EENS_9allocatorIS3_EEEE, 
                       __ZTINSt3__120__shared_ptr_pointerIPN2gc11smallmatrix16MultiplyTemplateENS_10shared_ptrINS1_16TemplateFunctionEE27__shared_ptr_default_deleteIS6_S3_EENS_9allocatorIS3_EEEE, 
                       __ZTINSt3__120__shared_ptr_pointerIPN2gc11smallmatrix17TransposeTemplateENS_10shared_ptrINS1_16TemplateFunctionEE27__shared_ptr_default_deleteIS6_S3_EENS_9allocatorIS3_EEEE, 
                       __ZTINSt3__120__shared_ptr_pointerIPN2gc11smallmatrix21LLVMIntrinsicMultiplyENS_10shared_ptrINS1_15TemplateVariantEE27__shared_ptr_default_deleteIS6_S3_EENS_9allocatorIS3_EEEE, 
                       __ZTINSt3__120__shared_ptr_pointerIPN2gc11smallmatrix22LLVMIntrinsicTransposeENS_10shared_ptrINS1_15TemplateVariantEE27__shared_ptr_default_deleteIS6_S3_EENS_9allocatorIS3_EEEE, 
                       __ZTINSt3__120__shared_ptr_pointerIPN2gc12ComputeGraphENS_10shared_ptrIS2_E27__shared_ptr_default_deleteIS2_S2_EENS_9allocatorIS2_EEEE, 
                       __ZTINSt3__120__shared_ptr_pointerIPN2gc13ExtentsBufferENS_10shared_ptrIS2_E27__shared_ptr_default_deleteIS2_S2_EENS_9allocatorIS2_EEEE, 
                       __ZTINSt3__120__shared_ptr_pointerIPN2gc16BindableArgumentINS1_4lang17BindableTypeArrayEEENS_10shared_ptrINS1_22OpaqueBindableArgumentEE27__shared_ptr_default_deleteIS8_S5_EENS_9allocatorIS5_EEEE, 
                       __ZTINSt3__120__shared_ptr_pointerIPN2gc16BindableArgumentINS1_4lang3est11BlockMatrixEEENS_10shared_ptrINS1_22OpaqueBindableArgumentEE27__shared_ptr_default_deleteIS9_S6_EENS_9allocatorIS6_EEEE, 
                       __ZTINSt3__120__shared_ptr_pointerIPN2gc16BindableArgumentINS1_4lang3est11VariableSetEEENS_10shared_ptrINS1_22OpaqueBindableArgumentEE27__shared_ptr_default_deleteIS9_S6_EENS_9allocatorIS6_EEEE, 
                       __ZTINSt3__120__shared_ptr_pointerIPN2gc16BindableArgumentINS1_4lang3est12CostFunctionEEENS_10shared_ptrINS1_22OpaqueBindableArgumentEE27__shared_ptr_default_deleteIS9_S6_EENS_9allocatorIS6_EEEE, 
                       __ZTINSt3__120__shared_ptr_pointerIPN2gc16BindableArgumentINS1_4lang3est13BlockOrderingEEENS_10shared_ptrINS1_22OpaqueBindableArgumentEE27__shared_ptr_default_deleteIS9_S6_EENS_9allocatorIS6_EEEE, 
                       __ZTINSt3__120__shared_ptr_pointerIPN2gc16BindableArgumentINS1_4lang3est14FactorOrderingEEENS_10shared_ptrINS1_22OpaqueBindableArgumentEE27__shared_ptr_default_deleteIS9_S6_EENS_9allocatorIS6_EEEE, 
                       __ZTINSt3__120__shared_ptr_pointerIPN2gc16BindableArgumentINS1_4lang3est6FactorEEENS_10shared_ptrINS1_22OpaqueBindableArgumentEE27__shared_ptr_default_deleteIS9_S6_EENS_9allocatorIS6_EEEE, 
                       __ZTINSt3__120__shared_ptr_pointerIPN2gc16BindableArgumentINS1_4lang3est8VariableEEENS_10shared_ptrINS1_22OpaqueBindableArgumentEE27__shared_ptr_default_deleteIS9_S6_EENS_9allocatorIS6_EEEE, 
                       __ZTINSt3__120__shared_ptr_pointerIPN2gc16BindableArgumentINS1_4lang5ArrayINS3_6BufferEEEEENS_10shared_ptrINS1_22OpaqueBindableArgumentEE27__shared_ptr_default_deleteISA_S7_EENS_9allocatorIS7_EEEE, 
                       __ZTINSt3__120__shared_ptr_pointerIPN2gc16BindableArgumentINS1_4lang6BufferEEENS_10shared_ptrINS1_22OpaqueBindableArgumentEE27__shared_ptr_default_deleteIS8_S5_EENS_9allocatorIS5_EEEE, 
                       __ZTINSt3__120__shared_ptr_pointerIPN2gc16BufferParametersENS_10shared_ptrIS2_E27__shared_ptr_default_deleteIS2_S2_EENS_9allocatorIS2_EEEE, 
                       __ZTINSt3__120__shared_ptr_pointerIPN2gc16DefaultGeneratorENS_10shared_ptrINS1_9GeneratorEE27__shared_ptr_default_deleteIS5_S2_EENS_9allocatorIS2_EEEE, 
                       __ZTINSt3__120__shared_ptr_pointerIPN2gc16FunctionArgumentINS1_4lang17BindableTypeArrayES4_EENS_10shared_ptrIS5_E27__shared_ptr_default_deleteIS5_S5_EENS_9allocatorIS5_EEEE, 
                       __ZTINSt3__120__shared_ptr_pointerIPN2gc16FunctionArgumentINS1_4lang3est11VariableSetES5_EENS_10shared_ptrIS6_E27__shared_ptr_default_deleteIS6_S6_EENS_9allocatorIS6_EEEE, 
                       __ZTINSt3__120__shared_ptr_pointerIPN2gc16FunctionArgumentINS1_4lang3est13BlockOrderingES5_EENS_10shared_ptrIS6_E27__shared_ptr_default_deleteIS6_S6_EENS_9allocatorIS6_EEEE, 
                       __ZTINSt3__120__shared_ptr_pointerIPN2gc16FunctionArgumentINS1_4lang3est14FactorOrderingES5_EENS_10shared_ptrIS6_E27__shared_ptr_default_deleteIS6_S6_EENS_9allocatorIS6_EEEE, 
                       __ZTINSt3__120__shared_ptr_pointerIPN2gc16FunctionArgumentINS1_4lang3est22SchurEliminatedHessianES5_EENS_10shared_ptrIS6_E27__shared_ptr_default_deleteIS6_S6_EENS_9allocatorIS6_EEEE, 
                       __ZTINSt3__120__shared_ptr_pointerIPN2gc16FunctionArgumentINS1_4lang3est6FactorES5_EENS_10shared_ptrIS6_E27__shared_ptr_default_deleteIS6_S6_EENS_9allocatorIS6_EEEE, 
                       __ZTINSt3__120__shared_ptr_pointerIPN2gc16FunctionArgumentINS1_4lang3est8VariableES5_EENS_10shared_ptrIS6_E27__shared_ptr_default_deleteIS6_S6_EENS_9allocatorIS6_EEEE, 
                       __ZTINSt3__120__shared_ptr_pointerIPN2gc16FunctionArgumentINS1_4lang5ArrayINS3_3est13BlockOrderingEEES7_EENS_10shared_ptrIS8_E27__shared_ptr_default_deleteIS8_S8_EENS_9allocatorIS8_EEEE, 
                       __ZTINSt3__120__shared_ptr_pointerIPN2gc16FunctionArgumentINS1_4lang5ArrayINS3_3est14FactorOrderingEEES7_EENS_10shared_ptrIS8_E27__shared_ptr_default_deleteIS8_S8_EENS_9allocatorIS8_EEEE, 
                       __ZTINSt3__120__shared_ptr_pointerIPN2gc16FunctionArgumentINS1_4lang5ArrayINS3_3est8VariableEEES7_EENS_10shared_ptrIS8_E27__shared_ptr_default_deleteIS8_S8_EENS_9allocatorIS8_EEEE, 
                       __ZTINSt3__120__shared_ptr_pointerIPN2gc16FunctionArgumentINS1_4lang5ArrayINS3_6BufferEEES6_EENS_10shared_ptrIS7_E27__shared_ptr_default_deleteIS7_S7_EENS_9allocatorIS7_EEEE, 
                       __ZTINSt3__120__shared_ptr_pointerIPN2gc16FunctionArgumentINS1_4lang6BufferES4_EENS_10shared_ptrIS5_E27__shared_ptr_default_deleteIS5_S5_EENS_9allocatorIS5_EEEE, 
                       __ZTINSt3__120__shared_ptr_pointerIPN2gc16FunctionArgumentINS1_4lang6ScalarES4_EENS_10shared_ptrIS5_E27__shared_ptr_default_deleteIS5_S5_EENS_9allocatorIS5_EEEE, 
                       __ZTINSt3__120__shared_ptr_pointerIPN2gc16FunctionArgumentINS1_4lang6VectorES4_EENS_10shared_ptrIS5_E27__shared_ptr_default_deleteIS5_S5_EENS_9allocatorIS5_EEEE, 
                       __ZTINSt3__120__shared_ptr_pointerIPN2gc16FunctionArgumentIRNS1_4lang3est11BlockMatrixES5_EENS_10shared_ptrIS7_E27__shared_ptr_default_deleteIS7_S7_EENS_9allocatorIS7_EEEE, 
                       __ZTINSt3__120__shared_ptr_pointerIPN2gc16FunctionArgumentIRNS1_4lang3est11JacobianSetES5_EENS_10shared_ptrIS7_E27__shared_ptr_default_deleteIS7_S7_EENS_9allocatorIS7_EEEE, 
                       __ZTINSt3__120__shared_ptr_pointerIPN2gc16FunctionArgumentIRNS1_4lang3est14FactorOrderingES5_EENS_10shared_ptrIS7_E27__shared_ptr_default_deleteIS7_S7_EENS_9allocatorIS7_EEEE, 
                       __ZTINSt3__120__shared_ptr_pointerIPN2gc16FunctionArgumentIRNS1_4lang3est16BlockMatrixArrayES5_EENS_10shared_ptrIS7_E27__shared_ptr_default_deleteIS7_S7_EENS_9allocatorIS7_EEEE, 
                       __ZTINSt3__120__shared_ptr_pointerIPN2gc16FunctionArgumentIRNS1_4lang3est8JacobianES5_EENS_10shared_ptrIS7_E27__shared_ptr_default_deleteIS7_S7_EENS_9allocatorIS7_EEEE, 
                       __ZTINSt3__120__shared_ptr_pointerIPN2gc16FunctionArgumentIRNS1_4lang6BufferES4_EENS_10shared_ptrIS6_E27__shared_ptr_default_deleteIS6_S6_EENS_9allocatorIS6_EEEE, 
                       __ZTINSt3__120__shared_ptr_pointerIPN2gc16FunctionArgumentIRNS1_4lang6ScalarES4_EENS_10shared_ptrIS6_E27__shared_ptr_default_deleteIS6_S6_EENS_9allocatorIS6_EEEE, 
                       __ZTINSt3__120__shared_ptr_pointerIPN2gc17IntrinsicFunctionENS_10shared_ptrIS2_E27__shared_ptr_default_deleteIS2_S2_EENS_9allocatorIS2_EEEE, 
                       __ZTINSt3__120__shared_ptr_pointerIPN2gc17TypedNoTileKernelIJEEENS_10shared_ptrINS1_6KernelEE27__shared_ptr_default_deleteIS6_S3_EENS_9allocatorIS3_EEEE, 
                       __ZTINSt3__120__shared_ptr_pointerIPN2gc17TypedNoTileKernelIJNS1_4lang6BufferENS3_6ScalarEEEENS_10shared_ptrINS1_6KernelEE27__shared_ptr_default_deleteIS9_S6_EENS_9allocatorIS6_EEEE, 
                       __ZTINSt3__120__shared_ptr_pointerIPN2gc17TypedNoTileKernelIJNS1_4lang6BufferENS3_6VectorEEEENS_10shared_ptrINS1_6KernelEE27__shared_ptr_default_deleteIS9_S6_EENS_9allocatorIS6_EEEE, 
                       __ZTINSt3__120__shared_ptr_pointerIPN2gc17TypedNoTileKernelIJNS1_4lang6BufferES4_EEENS_10shared_ptrINS1_6KernelEE27__shared_ptr_default_deleteIS8_S5_EENS_9allocatorIS5_EEEE, 
                       __ZTINSt3__120__shared_ptr_pointerIPN2gc17TypedNoTileKernelIJNS1_4lang6BufferES4_S4_EEENS_10shared_ptrINS1_6KernelEE27__shared_ptr_default_deleteIS8_S5_EENS_9allocatorIS5_EEEE, 
                       __ZTINSt3__120__shared_ptr_pointerIPN2gc18EqualSizeInvariantENS_10shared_ptrINS1_9InvariantEE27__shared_ptr_default_deleteIS5_S2_EENS_9allocatorIS2_EEEE, 
                       __ZTINSt3__120__shared_ptr_pointerIPN2gc18EqualTypeInvariantENS_10shared_ptrINS1_9InvariantEE27__shared_ptr_default_deleteIS5_S2_EENS_9allocatorIS2_EEEE, 
                       __ZTINSt3__120__shared_ptr_pointerIPN2gc18ExactTypeInvariantENS_10shared_ptrINS1_9InvariantEE27__shared_ptr_default_deleteIS5_S2_EENS_9allocatorIS2_EEEE, 
                       __ZTINSt3__120__shared_ptr_pointerIPN2gc19EqualShapeInvariantENS_10shared_ptrINS1_9InvariantEE27__shared_ptr_default_deleteIS5_S2_EENS_9allocatorIS2_EEEE, 
                       __ZTINSt3__120__shared_ptr_pointerIPN2gc19ExactShapeInvariantENS_10shared_ptrINS1_9InvariantEE27__shared_ptr_default_deleteIS5_S2_EENS_9allocatorIS2_EEEE, 
                       __ZTINSt3__120__shared_ptr_pointerIPN2gc19TypedExternalSourceILNS1_13eTargetDeviceE1EEENS_10shared_ptrINS1_14ExternalSourceEE27__shared_ptr_default_deleteIS7_S4_EENS_9allocatorIS4_EEEE, 
                       __ZTINSt3__120__shared_ptr_pointerIPN2gc21TypedExternalFunctionILNS1_13eTargetDeviceE0EEENS_10shared_ptrINS1_16ExternalFunctionEE27__shared_ptr_default_deleteIS7_S4_EENS_9allocatorIS4_EEEE, 
                       __ZTINSt3__120__shared_ptr_pointerIPN2gc21TypedExternalFunctionILNS1_13eTargetDeviceE1EEENS_10shared_ptrINS1_16ExternalFunctionEE27__shared_ptr_default_deleteIS7_S4_EENS_9allocatorIS4_EEEE, 
                       __ZTINSt3__120__shared_ptr_pointerIPN2gc24FunctionOfShapeInvariantENS_10shared_ptrINS1_9InvariantEE27__shared_ptr_default_deleteIS5_S2_EENS_9allocatorIS2_EEEE, 
                       __ZTINSt3__120__shared_ptr_pointerIPN2gc24FunctionOfTypesInvariantENS_10shared_ptrINS1_9InvariantEE27__shared_ptr_default_deleteIS5_S2_EENS_9allocatorIS2_EEEE, 
                       __ZTINSt3__120__shared_ptr_pointerIPN2gc24TypedSchedulingDirectiveILNS1_24eSchedulingDirectiveTypeE0EEENS_10shared_ptrIS4_E27__shared_ptr_default_deleteIS4_S4_EENS_9allocatorIS4_EEEE, 
                       __ZTINSt3__120__shared_ptr_pointerIPN2gc24TypedSchedulingDirectiveILNS1_24eSchedulingDirectiveTypeE1EEENS_10shared_ptrIS4_E27__shared_ptr_default_deleteIS4_S4_EENS_9allocatorIS4_EEEE, 
                       __ZTINSt3__120__shared_ptr_pointerIPN2gc24TypedSchedulingDirectiveILNS1_24eSchedulingDirectiveTypeE2EEENS_10shared_ptrIS4_E27__shared_ptr_default_deleteIS4_S4_EENS_9allocatorIS4_EEEE, 
                       __ZTINSt3__120__shared_ptr_pointerIPN2gc24TypedSchedulingDirectiveILNS1_24eSchedulingDirectiveTypeE3EEENS_10shared_ptrIS4_E27__shared_ptr_default_deleteIS4_S4_EENS_9allocatorIS4_EEEE, 
                       __ZTINSt3__120__shared_ptr_pointerIPN2gc24TypedSchedulingDirectiveILNS1_24eSchedulingDirectiveTypeE4EEENS_10shared_ptrIS4_E27__shared_ptr_default_deleteIS4_S4_EENS_9allocatorIS4_EEEE, 
                       __ZTINSt3__120__shared_ptr_pointerIPN2gc24TypedSchedulingDirectiveILNS1_24eSchedulingDirectiveTypeE5EEENS_10shared_ptrIS4_E27__shared_ptr_default_deleteIS4_S4_EENS_9allocatorIS4_EEEE, 
                       __ZTINSt3__120__shared_ptr_pointerIPN2gc24TypedSchedulingDirectiveILNS1_24eSchedulingDirectiveTypeE6EEENS_10shared_ptrIS4_E27__shared_ptr_default_deleteIS4_S4_EENS_9allocatorIS4_EEEE, 
                       __ZTINSt3__120__shared_ptr_pointerIPN2gc27MatrixProductShapeInvariantENS_10shared_ptrINS1_9InvariantEE27__shared_ptr_default_deleteIS5_S2_EENS_9allocatorIS2_EEEE, 
                       __ZTINSt3__120__shared_ptr_pointerIPN2gc3est10EvaluateHpENS_10shared_ptrINS1_9GeneratorEE27__shared_ptr_default_deleteIS6_S3_EENS_9allocatorIS3_EEEE, 
                       __ZTINSt3__120__shared_ptr_pointerIPN2gc3est10EvaluateJpENS_10shared_ptrINS1_9GeneratorEE27__shared_ptr_default_deleteIS6_S3_EENS_9allocatorIS3_EEEE, 
                       __ZTINSt3__120__shared_ptr_pointerIPN2gc3est11EvaluateJtJENS_10shared_ptrINS1_9GeneratorEE27__shared_ptr_default_deleteIS6_S3_EENS_9allocatorIS3_EEEE, 
                       __ZTINSt3__120__shared_ptr_pointerIPN2gc3est11EvaluateJteENS_10shared_ptrINS1_9GeneratorEE27__shared_ptr_default_deleteIS6_S3_EENS_9allocatorIS3_EEEE, 
                       __ZTINSt3__120__shared_ptr_pointerIPN2gc3est11FactorGraphENS_10shared_ptrIS3_E27__shared_ptr_default_deleteIS3_S3_EENS_9allocatorIS3_EEEE, 
                       __ZTINSt3__120__shared_ptr_pointerIPN2gc3est11PCGIterate1ENS_10shared_ptrINS1_9GeneratorEE27__shared_ptr_default_deleteIS6_S3_EENS_9allocatorIS3_EEEE, 
                       __ZTINSt3__120__shared_ptr_pointerIPN2gc3est11PCGIterate2ENS_10shared_ptrINS1_9GeneratorEE27__shared_ptr_default_deleteIS6_S3_EENS_9allocatorIS3_EEEE, 
                       __ZTINSt3__120__shared_ptr_pointerIPN2gc3est11TypedFactorILNS2_11eFactorTypeE1EEENS_10shared_ptrIS5_E27__shared_ptr_default_deleteIS5_S5_EENS_9allocatorIS5_EEEE, 
                       __ZTINSt3__120__shared_ptr_pointerIPN2gc3est12EvaluateJtJpENS_10shared_ptrINS1_9GeneratorEE27__shared_ptr_default_deleteIS6_S3_EENS_9allocatorIS3_EEEE, 
                       __ZTINSt3__120__shared_ptr_pointerIPN2gc3est12InvertBlockMENS_10shared_ptrINS1_9GeneratorEE27__shared_ptr_default_deleteIS6_S3_EENS_9allocatorIS3_EEEE, 
                       __ZTINSt3__120__shared_ptr_pointerIPN2gc3est13BlockOrderingENS_10shared_ptrIS3_E27__shared_ptr_default_deleteIS3_S3_EENS_9allocatorIS3_EEEE, 
                       __ZTINSt3__120__shared_ptr_pointerIPN2gc3est13TypedBoxMinusINS1_4lang6VectorENS4_3SE3EEENS_10shared_ptrIS7_E27__shared_ptr_default_deleteIS7_S7_EENS_9allocatorIS7_EEEE, 
                       __ZTINSt3__120__shared_ptr_pointerIPN2gc3est13TypedBoxMinusINS1_4lang6VectorENS4_3SO3EEENS_10shared_ptrIS7_E27__shared_ptr_default_deleteIS7_S7_EENS_9allocatorIS7_EEEE, 
                       __ZTINSt3__120__shared_ptr_pointerIPN2gc3est13VariableGroupENS_10shared_ptrIS3_E27__shared_ptr_default_deleteIS3_S3_EENS_9allocatorIS3_EEEE, 
                       __ZTINSt3__120__shared_ptr_pointerIPN2gc3est14EvaluateBlockMENS_10shared_ptrINS1_9GeneratorEE27__shared_ptr_default_deleteIS6_S3_EENS_9allocatorIS3_EEEE, 
                       __ZTINSt3__120__shared_ptr_pointerIPN2gc3est14ExtractDiagJtJENS_10shared_ptrINS1_9GeneratorEE27__shared_ptr_default_deleteIS6_S3_EENS_9allocatorIS3_EEEE, 
                       __ZTINSt3__120__shared_ptr_pointerIPN2gc3est14SchurLinearizeENS_10shared_ptrINS1_9GeneratorEE27__shared_ptr_default_deleteIS6_S3_EENS_9allocatorIS3_EEEE, 
                       __ZTINSt3__120__shared_ptr_pointerIPN2gc3est14TypedPCGSolverINS2_33ExplicitHessianLinearizationPointEEENS_10shared_ptrINS2_12LinearSolverEE27__shared_ptr_default_deleteIS8_S5_EENS_9allocatorIS5_EEEE, 
                       __ZTINSt3__120__shared_ptr_pointerIPN2gc3est14TypedPCGSolverINS2_33ImplicitHessianLinearizationPointEEENS_10shared_ptrINS2_12LinearSolverEE27__shared_ptr_default_deleteIS8_S5_EENS_9allocatorIS5_EEEE, 
                       __ZTINSt3__120__shared_ptr_pointerIPN2gc3est15DenseLDLTSolverENS_10shared_ptrINS2_12LinearSolverEE27__shared_ptr_default_deleteIS6_S3_EENS_9allocatorIS3_EEEE, 
                       __ZTINSt3__120__shared_ptr_pointerIPN2gc3est15FactorJacobiansENS_10shared_ptrIS3_E27__shared_ptr_default_deleteIS3_S3_EENS_9allocatorIS3_EEEE, 
                       __ZTINSt3__120__shared_ptr_pointerIPN2gc3est16DenseBlockMatrixENS_10shared_ptrINS2_11BlockMatrixEE27__shared_ptr_default_deleteIS6_S3_EENS_9allocatorIS3_EEEE, 
                       __ZTINSt3__120__shared_ptr_pointerIPN2gc3est16SparseLDLTSolverENS_10shared_ptrINS2_12LinearSolverEE27__shared_ptr_default_deleteIS6_S3_EENS_9allocatorIS3_EEEE, 
                       __ZTINSt3__120__shared_ptr_pointerIPN2gc3est17SchurOuterProductENS_10shared_ptrINS1_9GeneratorEE27__shared_ptr_default_deleteIS6_S3_EENS_9allocatorIS3_EEEE, 
                       __ZTINSt3__120__shared_ptr_pointerIPN2gc3est17SymmetrizeDiagJtJENS_10shared_ptrINS1_9GeneratorEE27__shared_ptr_default_deleteIS6_S3_EENS_9allocatorIS3_EEEE, 
                       __ZTINSt3__120__shared_ptr_pointerIPN2gc3est18BasicFactorBuffersENS_10shared_ptrINS2_13FactorBuffersEE27__shared_ptr_default_deleteIS6_S3_EENS_9allocatorIS3_EEEE, 
                       __ZTINSt3__120__shared_ptr_pointerIPN2gc3est18ImplicitSchurJtJp1ENS_10shared_ptrINS1_9GeneratorEE27__shared_ptr_default_deleteIS6_S3_EENS_9allocatorIS3_EEEE, 
                       __ZTINSt3__120__shared_ptr_pointerIPN2gc3est18ImplicitSchurJtJp2ENS_10shared_ptrINS1_9GeneratorEE27__shared_ptr_default_deleteIS6_S3_EENS_9allocatorIS3_EEEE, 
                       __ZTINSt3__120__shared_ptr_pointerIPN2gc3est18TypedModelFunctionINS1_4lang3SE3EJRKS5_EEENS_10shared_ptrIS8_E27__shared_ptr_default_deleteIS8_S8_EENS_9allocatorIS8_EEEE, 
                       __ZTINSt3__120__shared_ptr_pointerIPN2gc3est18TypedModelFunctionINS1_4lang3SO3EJRKS5_EEENS_10shared_ptrIS8_E27__shared_ptr_default_deleteIS8_S8_EENS_9allocatorIS8_EEEE, 
                       __ZTINSt3__120__shared_ptr_pointerIPN2gc3est18TypedModelFunctionINS1_4lang6ScalarEJRKS5_EEENS_10shared_ptrIS8_E27__shared_ptr_default_deleteIS8_S8_EENS_9allocatorIS8_EEEE, 
                       __ZTINSt3__120__shared_ptr_pointerIPN2gc3est18TypedModelFunctionINS1_4lang6VectorEJRKS5_EEENS_10shared_ptrIS8_E27__shared_ptr_default_deleteIS8_S8_EENS_9allocatorIS8_EEEE, 
                       __ZTINSt3__120__shared_ptr_pointerIPN2gc3est19BasicFactorOrderingENS_10shared_ptrINS2_14FactorOrderingEE27__shared_ptr_default_deleteIS6_S3_EENS_9allocatorIS3_EEEE, 
                       __ZTINSt3__120__shared_ptr_pointerIPN2gc3est20BitmappedBlockMatrixENS_10shared_ptrINS2_11BlockMatrixEE27__shared_ptr_default_deleteIS6_S3_EENS_9allocatorIS3_EEEE, 
                       __ZTINSt3__120__shared_ptr_pointerIPN2gc3est20MaterializeJacobiansENS_10shared_ptrINS1_9GeneratorEE27__shared_ptr_default_deleteIS6_S3_EENS_9allocatorIS3_EEEE, 
                       __ZTINSt3__120__shared_ptr_pointerIPN2gc3est20SchurBackSubstitute1ENS_10shared_ptrINS1_9GeneratorEE27__shared_ptr_default_deleteIS6_S3_EENS_9allocatorIS3_EEEE, 
                       __ZTINSt3__120__shared_ptr_pointerIPN2gc3est20SchurBackSubstitute2ENS_10shared_ptrINS1_9GeneratorEE27__shared_ptr_default_deleteIS6_S3_EENS_9allocatorIS3_EEEE, 
                       __ZTINSt3__120__shared_ptr_pointerIPN2gc3est20TrustRegionMinimizerENS_10shared_ptrIS3_E27__shared_ptr_default_deleteIS3_S3_EENS_9allocatorIS3_EEEE, 
                       __ZTINSt3__120__shared_ptr_pointerIPN2gc3est21StandardGaussianNoiseENS_10shared_ptrINS2_10NoiseModelEE27__shared_ptr_default_deleteIS6_S3_EENS_9allocatorIS3_EEEE, 
                       __ZTINSt3__120__shared_ptr_pointerIPN2gc3est21VariadicFactorBuffersENS_10shared_ptrINS2_13FactorBuffersEE27__shared_ptr_default_deleteIS6_S3_EENS_9allocatorIS3_EEEE, 
                       __ZTINSt3__120__shared_ptr_pointerIPN2gc3est22IsotropicGaussianNoiseENS_10shared_ptrINS2_10NoiseModelEE27__shared_ptr_default_deleteIS6_S3_EENS_9allocatorIS3_EEEE, 
                       __ZTINSt3__120__shared_ptr_pointerIPN2gc3est22ModelErrorCostFunctionENS_10shared_ptrIS3_E27__shared_ptr_default_deleteIS3_S3_EENS_9allocatorIS3_EEEE, 
                       __ZTINSt3__120__shared_ptr_pointerIPN2gc3est22VariadicFactorOrderingENS_10shared_ptrINS2_14FactorOrderingEE27__shared_ptr_default_deleteIS6_S3_EENS_9allocatorIS3_EEEE, 
                       __ZTINSt3__120__shared_ptr_pointerIPN2gc3est23EvaluateJtJVariableTypeENS_10shared_ptrINS1_9GeneratorEE27__shared_ptr_default_deleteIS6_S3_EENS_9allocatorIS3_EEEE, 
                       __ZTINSt3__120__shared_ptr_pointerIPN2gc3est24AnisotropicGaussianNoiseENS_10shared_ptrINS2_10NoiseModelEE27__shared_ptr_default_deleteIS6_S3_EENS_9allocatorIS3_EEEE, 
                       __ZTINSt3__120__shared_ptr_pointerIPN2gc3est24BlockAndFactorReorderingENS_10shared_ptrINS1_9GeneratorEE27__shared_ptr_default_deleteIS6_S3_EENS_9allocatorIS3_EEEE, 
                       __ZTINSt3__120__shared_ptr_pointerIPN2gc3est24CompressedRowBlockMatrixENS_10shared_ptrINS2_11BlockMatrixEE27__shared_ptr_default_deleteIS6_S3_EENS_9allocatorIS3_EEEE, 
                       __ZTINSt3__120__shared_ptr_pointerIPN2gc3est24ImplicitSchurInitialize1ENS_10shared_ptrINS1_9GeneratorEE27__shared_ptr_default_deleteIS6_S3_EENS_9allocatorIS3_EEEE, 
                       __ZTINSt3__120__shared_ptr_pointerIPN2gc3est24ImplicitSchurInitialize2ENS_10shared_ptrINS1_9GeneratorEE27__shared_ptr_default_deleteIS6_S3_EENS_9allocatorIS3_EEEE, 
                       __ZTINSt3__120__shared_ptr_pointerIPN2gc3est24ImplicitSchurInitialize3ENS_10shared_ptrINS1_9GeneratorEE27__shared_ptr_default_deleteIS6_S3_EENS_9allocatorIS3_EEEE, 
                       __ZTINSt3__120__shared_ptr_pointerIPN2gc3est24LeastSquaresCostFunctionENS_10shared_ptrIS3_E27__shared_ptr_default_deleteIS3_S3_EENS_9allocatorIS3_EEEE, 
                       __ZTINSt3__120__shared_ptr_pointerIPN2gc3est25ApplyJacobiPreconditionerENS_10shared_ptrINS1_9GeneratorEE27__shared_ptr_default_deleteIS6_S3_EENS_9allocatorIS3_EEEE, 
                       __ZTINSt3__120__shared_ptr_pointerIPN2gc3est26L2LeastSquaresLossFunctionENS_10shared_ptrIS3_E27__shared_ptr_default_deleteIS3_S3_EENS_9allocatorIS3_EEEE, 
                       __ZTINSt3__120__shared_ptr_pointerIPN2gc3est28ImplicitSchurBackSubstitute1ENS_10shared_ptrINS1_9GeneratorEE27__shared_ptr_default_deleteIS6_S3_EENS_9allocatorIS3_EEEE, 
                       __ZTINSt3__120__shared_ptr_pointerIPN2gc3est28ImplicitSchurBackSubstitute2ENS_10shared_ptrINS1_9GeneratorEE27__shared_ptr_default_deleteIS6_S3_EENS_9allocatorIS3_EEEE, 
                       __ZTINSt3__120__shared_ptr_pointerIPN2gc3est28SchurDampAndInvertEliminatedENS_10shared_ptrINS1_9GeneratorEE27__shared_ptr_default_deleteIS6_S3_EENS_9allocatorIS3_EEEE, 
                       __ZTINSt3__120__shared_ptr_pointerIPN2gc3est29TypedLeastSquaresLossFunctionIJNS1_4lang6ScalarEEEENS_10shared_ptrIS6_E27__shared_ptr_default_deleteIS6_S6_EENS_9allocatorIS6_EEEE, 
                       __ZTINSt3__120__shared_ptr_pointerIPN2gc3est30ApplyAdditiveLMDampingExplicitENS_10shared_ptrINS1_9GeneratorEE27__shared_ptr_default_deleteIS6_S3_EENS_9allocatorIS3_EEEE, 
                       __ZTINSt3__120__shared_ptr_pointerIPN2gc3est30ApplyAdditiveLMDampingImplicitENS_10shared_ptrINS1_9GeneratorEE27__shared_ptr_default_deleteIS6_S3_EENS_9allocatorIS3_EEEE, 
                       __ZTINSt3__120__shared_ptr_pointerIPN2gc3est30ApplyBlockJacobiPreconditionerENS_10shared_ptrINS1_9GeneratorEE27__shared_ptr_default_deleteIS6_S3_EENS_9allocatorIS3_EEEE, 
                       __ZTINSt3__120__shared_ptr_pointerIPN2gc3est33ApplyAdditiveLMDampingToDiagonalsENS_10shared_ptrINS1_9GeneratorEE27__shared_ptr_default_deleteIS6_S3_EENS_9allocatorIS3_EEEE, 
                       __ZTINSt3__120__shared_ptr_pointerIPN2gc3est33ExplicitHessianLinearizationPointENS_10shared_ptrIS3_E27__shared_ptr_default_deleteIS3_S3_EENS_9allocatorIS3_EEEE, 
                       __ZTINSt3__120__shared_ptr_pointerIPN2gc3est33ImplicitHessianLinearizationPointENS_10shared_ptrIS3_E27__shared_ptr_default_deleteIS3_S3_EENS_9allocatorIS3_EEEE, 
                       __ZTINSt3__120__shared_ptr_pointerIPN2gc3est36ApplyMultiplicativeLMDampingExplicitENS_10shared_ptrINS1_9GeneratorEE27__shared_ptr_default_deleteIS6_S3_EENS_9allocatorIS3_EEEE, 
                       __ZTINSt3__120__shared_ptr_pointerIPN2gc3est36ApplyMultiplicativeLMDampingImplicitENS_10shared_ptrINS1_9GeneratorEE27__shared_ptr_default_deleteIS6_S3_EENS_9allocatorIS3_EEEE, 
                       __ZTINSt3__120__shared_ptr_pointerIPN2gc3est39ApplyMultiplicativeLMDampingToDiagonalsENS_10shared_ptrINS1_9GeneratorEE27__shared_ptr_default_deleteIS6_S3_EENS_9allocatorIS3_EEEE, 
                       __ZTINSt3__120__shared_ptr_pointerIPN2gc3est3SE3ENS_10shared_ptrINS2_8VariableEE27__shared_ptr_default_deleteIS6_S3_EENS_9allocatorIS3_EEEE, 
                       __ZTINSt3__120__shared_ptr_pointerIPN2gc3est3SO3ENS_10shared_ptrINS2_8VariableEE27__shared_ptr_default_deleteIS6_S3_EENS_9allocatorIS3_EEEE, 
                       __ZTINSt3__120__shared_ptr_pointerIPN2gc3est51ExplicitHessianLinearizationPointLevenbergMarquardtENS_10shared_ptrINS2_19TrustRegionStrategyEE27__shared_ptr_default_deleteIS6_S3_EENS_9allocatorIS3_EEEE, 
                       __ZTINSt3__120__shared_ptr_pointerIPN2gc3est51ImplicitHessianLinearizationPointLevenbergMarquardtENS_10shared_ptrINS2_19TrustRegionStrategyEE27__shared_ptr_default_deleteIS6_S3_EENS_9allocatorIS3_EEEE, 
                       __ZTINSt3__120__shared_ptr_pointerIPN2gc3est53ExplicitHessianLinearizationPointJacobiPreconditionerENS_10shared_ptrINS2_14PreconditionerEE27__shared_ptr_default_deleteIS6_S3_EENS_9allocatorIS3_EEEE, 
                       __ZTINSt3__120__shared_ptr_pointerIPN2gc3est53ImplicitHessianLinearizationPointJacobiPreconditionerENS_10shared_ptrINS2_14PreconditionerEE27__shared_ptr_default_deleteIS6_S3_EENS_9allocatorIS3_EEEE, 
                       __ZTINSt3__120__shared_ptr_pointerIPN2gc3est58ExplicitHessianLinearizationPointBlockJacobiPreconditionerENS_10shared_ptrINS2_14PreconditionerEE27__shared_ptr_default_deleteIS6_S3_EENS_9allocatorIS3_EEEE, 
                       __ZTINSt3__120__shared_ptr_pointerIPN2gc3est58ImplicitHessianLinearizationPointBlockJacobiPreconditionerENS_10shared_ptrINS2_14PreconditionerEE27__shared_ptr_default_deleteIS6_S3_EENS_9allocatorIS3_EEEE, 
                       __ZTINSt3__120__shared_ptr_pointerIPN2gc3est6FactorENS_10shared_ptrIS3_E27__shared_ptr_default_deleteIS3_S3_EENS_9allocatorIS3_EEEE, 
                       __ZTINSt3__120__shared_ptr_pointerIPN2gc3est6MatrixENS_10shared_ptrINS2_8VariableEE27__shared_ptr_default_deleteIS6_S3_EENS_9allocatorIS3_EEEE, 
                       __ZTINSt3__120__shared_ptr_pointerIPN2gc3est6ScalarENS_10shared_ptrINS2_8VariableEE27__shared_ptr_default_deleteIS6_S3_EENS_9allocatorIS3_EEEE, 
                       __ZTINSt3__120__shared_ptr_pointerIPN2gc3est6VectorENS_10shared_ptrINS2_8VariableEE27__shared_ptr_default_deleteIS6_S3_EENS_9allocatorIS3_EEEE, 
                       __ZTINSt3__120__shared_ptr_pointerIPN2gc3est7InvertMENS_10shared_ptrINS1_9GeneratorEE27__shared_ptr_default_deleteIS6_S3_EENS_9allocatorIS3_EEEE, 
                       __ZTINSt3__120__shared_ptr_pointerIPN2gc3est7ProblemENS_10shared_ptrIS3_E27__shared_ptr_default_deleteIS3_S3_EENS_9allocatorIS3_EEEE, 
                       __ZTINSt3__120__shared_ptr_pointerIPN2gc3est8BoxMinusENS_10shared_ptrIS3_E27__shared_ptr_default_deleteIS3_S3_EENS_9allocatorIS3_EEEE, 
                       __ZTINSt3__120__shared_ptr_pointerIPN2gc3ops13AdamOptimizerENS_10shared_ptrINS2_9OptimizerEE27__shared_ptr_default_deleteIS6_S3_EENS_9allocatorIS3_EEEE, 
                       __ZTINSt3__120__shared_ptr_pointerIPN2gc3ops15SequentialModelENS_10shared_ptrINS2_5ModelEE27__shared_ptr_default_deleteIS6_S3_EENS_9allocatorIS3_EEEE, 
                       __ZTINSt3__120__shared_ptr_pointerIPN2gc3ops4ReLUENS_10shared_ptrINS2_5LayerEE27__shared_ptr_default_deleteIS6_S3_EENS_9allocatorIS3_EEEE, 
                       __ZTINSt3__120__shared_ptr_pointerIPN2gc3ops6LinearENS_10shared_ptrINS2_5LayerEE27__shared_ptr_default_deleteIS6_S3_EENS_9allocatorIS3_EEEE, 
                       __ZTINSt3__120__shared_ptr_pointerIPN2gc3ops6detail27TypedFunctionReturnTypeImplILm1EEENS_10shared_ptrINS3_22FunctionReturnTypeImplEE27__shared_ptr_default_deleteIS8_S5_EENS_9allocatorIS5_EEEE, 
                       __ZTINSt3__120__shared_ptr_pointerIPN2gc3ops7SoftMaxENS_10shared_ptrINS2_5LayerEE27__shared_ptr_default_deleteIS6_S3_EENS_9allocatorIS3_EEEE, 
                       __ZTINSt3__120__shared_ptr_pointerIPN2gc4TileENS_10shared_ptrIS2_E27__shared_ptr_default_deleteIS2_S2_EENS_9allocatorIS2_EEEE, 
                       __ZTINSt3__120__shared_ptr_pointerIPN2gc4lang2ad10RangeSliceENS_10shared_ptrINS3_4ViewEE27__shared_ptr_default_deleteIS7_S4_EENS_9allocatorIS4_EEEE, 
                       __ZTINSt3__120__shared_ptr_pointerIPN2gc4lang2ad11TrivialViewENS_10shared_ptrINS3_4ViewEE27__shared_ptr_default_deleteIS7_S4_EENS_9allocatorIS4_EEEE, 
                       __ZTINSt3__120__shared_ptr_pointerIPN2gc4lang2ad15ViewCompositionENS_10shared_ptrINS3_4ViewEE27__shared_ptr_default_deleteIS7_S4_EENS_9allocatorIS4_EEEE, 
                       __ZTINSt3__120__shared_ptr_pointerIPN2gc4lang2ad5SliceENS_10shared_ptrINS3_4ViewEE27__shared_ptr_default_deleteIS7_S4_EENS_9allocatorIS4_EEEE, 
                       __ZTINSt3__120__shared_ptr_pointerIPN2gc4lang3est19BasicFactorOrderingENS_10shared_ptrINS3_18FactorOrderingImplEE27__shared_ptr_default_deleteIS7_S4_EENS_9allocatorIS4_EEEE, 
                       __ZTINSt3__120__shared_ptr_pointerIPN2gc4lang3est22VariadicFactorOrderingENS_10shared_ptrINS3_18FactorOrderingImplEE27__shared_ptr_default_deleteIS7_S4_EENS_9allocatorIS4_EEEE, 
                       __ZTINSt3__120__shared_ptr_pointerIPN2gc4lang4simd20InnerProductTemplateENS_10shared_ptrINS1_16TemplateFunctionEE27__shared_ptr_default_deleteIS7_S4_EENS_9allocatorIS4_EEEE, 
                       __ZTINSt3__120__shared_ptr_pointerIPN2gc4lang4simd23SIMDInnerProductVariantENS_10shared_ptrINS1_15TemplateVariantEE27__shared_ptr_default_deleteIS7_S4_EENS_9allocatorIS4_EEEE, 
                       __ZTINSt3__120__shared_ptr_pointerIPN2gc4lang4simd26GeneralInnerProductVariantENS_10shared_ptrINS1_15TemplateVariantEE27__shared_ptr_default_deleteIS7_S4_EENS_9allocatorIS4_EEEE, 
                       __ZTINSt3__120__shared_ptr_pointerIPN2gc4lang4simd29SIMDLargeKInnerProductVariantENS_10shared_ptrINS1_15TemplateVariantEE27__shared_ptr_default_deleteIS7_S4_EENS_9allocatorIS4_EEEE, 
                       __ZTINSt3__120__shared_ptr_pointerIPN2gc4lang4simd29SIMDSmallKInnerProductVariantENS_10shared_ptrINS1_15TemplateVariantEE27__shared_ptr_default_deleteIS7_S4_EENS_9allocatorIS4_EEEE, 
                       __ZTINSt3__120__shared_ptr_pointerIPN2gc6BufferENS_10shared_ptrIS2_E27__shared_ptr_default_deleteIS2_S2_EENS_9allocatorIS2_EEEE, 
                       __ZTINSt3__120__shared_ptr_pointerIPN2gc6ScalarENS_10shared_ptrIS2_E27__shared_ptr_default_deleteIS2_S2_EENS_9allocatorIS2_EEEE, 
                       __ZTINSt3__120__shared_ptr_pointerIPN2gc6VectorENS_10shared_ptrIS2_E27__shared_ptr_default_deleteIS2_S2_EENS_9allocatorIS2_EEEE, 
                       __ZTINSt3__120__shared_ptr_pointerIPN2gc6device10GPULibraryENS_10shared_ptrIS3_E27__shared_ptr_default_deleteIS3_S3_EENS_9allocatorIS3_EEEE, 
                       __ZTINSt3__120__shared_ptr_pointerIPN2gc6device11GPUFunctionENS_10shared_ptrIS3_E27__shared_ptr_default_deleteIS3_S3_EENS_9allocatorIS3_EEEE, 
                       __ZTINSt3__120__shared_ptr_pointerIPN2gc6device9GPUDeviceENS_10shared_ptrIS3_E27__shared_ptr_default_deleteIS3_S3_EENS_9allocatorIS3_EEEE, 
                       __ZTINSt3__120__shared_ptr_pointerIPN2gc7LibraryENS_10shared_ptrIS2_E27__shared_ptr_default_deleteIS2_S2_EENS_9allocatorIS2_EEEE, 
                       __ZTINSt3__120__shared_ptr_pointerIPN2gc7ProgramENS_10shared_ptrIS2_E27__shared_ptr_default_deleteIS2_S2_EENS_9allocatorIS2_EEEE, 
                       __ZTINSt3__120__shared_ptr_pointerIPN2gc8PipelineENS_10shared_ptrIS2_E27__shared_ptr_default_deleteIS2_S2_EENS_9allocatorIS2_EEEE, 
                       __ZTINSt3__120__shared_ptr_pointerIPN2gc9LoopFuserENS_10shared_ptrINS1_13AutoSchedulerEE27__shared_ptr_default_deleteIS5_S2_EENS_9allocatorIS2_EEEE, 
                       __ZTINSt3__120__shared_ptr_pointerIPN2gc9float16_tENS1_13BufferDeleterENS_9allocatorIS2_EEEE, 
                       __ZTINSt3__120__shared_ptr_pointerIPN2gc9float16_tENS_10shared_ptrIS2_E27__shared_ptr_default_deleteIS2_S2_EENS_9allocatorIS2_EEEE, 
                       __ZTINSt3__120__shared_ptr_pointerIPaN2gc13BufferDeleterENS_9allocatorIaEEEE, 
                       __ZTINSt3__120__shared_ptr_pointerIPaNS_10shared_ptrIaE27__shared_ptr_default_deleteIaaEENS_9allocatorIaEEEE, 
                       __ZTINSt3__120__shared_ptr_pointerIPcNS_14default_deleteIA_cEENS_9allocatorIS3_EEEE, 
                       __ZTINSt3__120__shared_ptr_pointerIPdN2gc13BufferDeleterENS_9allocatorIdEEEE, 
                       __ZTINSt3__120__shared_ptr_pointerIPdNS_10shared_ptrIdE27__shared_ptr_default_deleteIddEENS_9allocatorIdEEEE, 
                       __ZTINSt3__120__shared_ptr_pointerIPdNS_10shared_ptrIvE27__shared_ptr_default_deleteIvdEENS_9allocatorIdEEEE, 
                       __ZTINSt3__120__shared_ptr_pointerIPfN2gc13BufferDeleterENS_9allocatorIfEEEE, 
                       __ZTINSt3__120__shared_ptr_pointerIPfNS_10shared_ptrIfE27__shared_ptr_default_deleteIffEENS_9allocatorIfEEEE, 
                       __ZTINSt3__120__shared_ptr_pointerIPfNS_10shared_ptrIvE27__shared_ptr_default_deleteIvfEENS_9allocatorIfEEEE, 
                       __ZTINSt3__120__shared_ptr_pointerIPhN2gc13BufferDeleterENS_9allocatorIhEEEE, 
                       __ZTINSt3__120__shared_ptr_pointerIPhNS_10shared_ptrIhE27__shared_ptr_default_deleteIhhEENS_9allocatorIhEEEE, 
                       __ZTINSt3__120__shared_ptr_pointerIPiN2gc13BufferDeleterENS_9allocatorIiEEEE, 
                       __ZTINSt3__120__shared_ptr_pointerIPiNS_10shared_ptrIiE27__shared_ptr_default_deleteIiiEENS_9allocatorIiEEEE, 
                       __ZTINSt3__120__shared_ptr_pointerIPjN2gc13BufferDeleterENS_9allocatorIjEEEE, 
                       __ZTINSt3__120__shared_ptr_pointerIPjNS_10shared_ptrIjE27__shared_ptr_default_deleteIjjEENS_9allocatorIjEEEE, 
                       __ZTINSt3__120__shared_ptr_pointerIPsN2gc13BufferDeleterENS_9allocatorIsEEEE, 
                       __ZTINSt3__120__shared_ptr_pointerIPsNS_10shared_ptrIsE27__shared_ptr_default_deleteIssEENS_9allocatorIsEEEE, 
                       __ZTINSt3__120__shared_ptr_pointerIPtN2gc13BufferDeleterENS_9allocatorItEEEE, 
                       __ZTINSt3__120__shared_ptr_pointerIPtNS_10shared_ptrItE27__shared_ptr_default_deleteIttEENS_9allocatorItEEEE, 
                       __ZTINSt3__120__shared_ptr_pointerIPxN2gc13BufferDeleterENS_9allocatorIxEEEE, 
                       __ZTINSt3__120__shared_ptr_pointerIPxNS_10shared_ptrIxE27__shared_ptr_default_deleteIxxEENS_9allocatorIxEEEE, 
                       __ZTINSt3__120__shared_ptr_pointerIPyN2gc13BufferDeleterENS_9allocatorIyEEEE, 
                       __ZTINSt3__120__shared_ptr_pointerIPyNS_10shared_ptrIyE27__shared_ptr_default_deleteIyyEENS_9allocatorIyEEEE, 
                       __ZTINSt3__123enable_shared_from_thisIN2gc16GeneratorFactoryEEE, 
                       __ZTINSt3__123enable_shared_from_thisIN2gc22OpaqueBindableArgumentEEE, 
                       __ZTINSt3__123enable_shared_from_thisIN2gc3est12LossFunctionEEE, 
                       __ZTINSt3__123enable_shared_from_thisIN2gc3ops6OpBaseEEE, 
                       __ZTINSt3__133__unary_function_keep_layout_baseIN2gc4ExprEvEE, 
                       __ZTINSt3__133__unary_function_keep_layout_baseIRKN2gc3est8VariableENS1_4util10TaggedBoolINS2_15IsEliminableTagEEEEE, 
                       __ZTINSt3__134__binary_function_keep_layout_baseIN2gc4lang4TileENS2_3est8VariableEvEE, 
                       __ZTINSt3__134__binary_function_keep_layout_baseIN2gc4lang4TileENS2_6BufferEvEE, 
                       __ZTINSt3__134__binary_function_keep_layout_baseIN2gc4lang4TileERNS2_3est11BlockMatrixEvEE, 
                       __ZTINSt3__18functionIFN2gc4util10TaggedBoolINS1_3est15IsEliminableTagEEERKNS4_8VariableEEEE, 
                       __ZTINSt3__18functionIFvN2gc4ExprEEEE, __ZTINSt3__18functionIFvN2gc4lang4TileENS2_3est13BlockOrderingENS2_5ArrayINS4_14FactorOrderingEEERNS4_11JacobianSetERNS4_11BlockMatrixEEEE, 
                       __ZTINSt3__18functionIFvN2gc4lang4TileENS2_3est13BlockOrderingENS4_14FactorOrderingERNS4_8JacobianERNS4_11BlockMatrixEEEE, 
                       __ZTINSt3__18functionIFvN2gc4lang4TileENS2_3est14FactorOrderingERNS4_8JacobianENS2_6BufferES8_EEE, 
                       __ZTINSt3__18functionIFvN2gc4lang4TileENS2_3est6FactorENS2_6BufferES6_S6_NS2_5ArrayINS4_14FactorOrderingEEENS4_11VariableSetENS7_IS6_EESB_NS2_17BindableTypeArrayEEEE, 
                       __ZTINSt3__18functionIFvN2gc4lang4TileENS2_3est6FactorENS4_11VariableSetENS2_6BufferES7_NS2_17BindableTypeArrayEEEE, 
                       __ZTINSt3__18functionIFvN2gc4lang4TileENS2_3est6FactorENS4_11VariableSetENS2_6BufferES7_S7_NS2_17BindableTypeArrayEEEE, 
                       __ZTINSt3__18functionIFvN2gc4lang4TileENS2_3est6FactorERNS4_14FactorOrderingENS2_5ArrayINS2_6BufferEEERNS4_16BlockMatrixArrayENS4_22SchurEliminatedHessianESA_S9_S9_EEE, 
                       __ZTINSt3__18functionIFvN2gc4lang4TileENS2_3est8VariableEEEE, 
                       __ZTINSt3__18functionIFvN2gc4lang4TileENS2_3est8VariableENS2_6ScalarEEEE, 
                       __ZTINSt3__18functionIFvN2gc4lang4TileENS2_5ArrayINS2_3est13BlockOrderingEEENS4_INS5_14FactorOrderingEEERNS5_11JacobianSetERNS5_16BlockMatrixArrayEEEE, 
                       __ZTINSt3__18functionIFvN2gc4lang4TileENS2_5ArrayINS2_6BufferEEES6_EEE, 
                       __ZTINSt3__18functionIFvN2gc4lang4TileENS2_6BufferEEEE, __ZTINSt3__18functionIFvN2gc4lang4TileENS2_6BufferENS2_3est6FactorERNS5_11JacobianSetENS2_5ArrayIS4_EENS9_INS5_14FactorOrderingEEERNS5_16BlockMatrixArrayESA_EEE, 
                       __ZTINSt3__18functionIFvN2gc4lang4TileENS2_6BufferENS2_3est8VariableEEEE, 
                       __ZTINSt3__18functionIFvN2gc4lang4TileENS2_6BufferENS2_5ArrayINS2_3est8VariableEEEEEE, 
                       __ZTINSt3__18functionIFvN2gc4lang4TileENS2_6BufferENS2_5ArrayIS4_EES6_NS2_3est6FactorERNS7_14FactorOrderingENS7_22SchurEliminatedHessianES4_EEE, 
                       __ZTINSt3__18functionIFvN2gc4lang4TileENS2_6BufferENS2_6ScalarES4_EEE, 
                       __ZTINSt3__18functionIFvN2gc4lang4TileENS2_6BufferENS2_6ScalarES4_S4_EEE, 
                       __ZTINSt3__18functionIFvN2gc4lang4TileENS2_6BufferERNS2_3est8JacobianENS5_14FactorOrderingENS2_6ScalarES4_S4_EEE, 
                       __ZTINSt3__18functionIFvN2gc4lang4TileENS2_6BufferERNS2_3est8JacobianENS5_14FactorOrderingES4_S4_S4_S4_S4_EEE, 
                       __ZTINSt3__18functionIFvN2gc4lang4TileENS2_6BufferERNS2_3est8JacobianENS5_6FactorERNS5_11JacobianSetERNS5_14FactorOrderingENS2_5ArrayIS4_EENSD_ISB_EERNS5_16BlockMatrixArrayENS5_22SchurEliminatedHessianESE_S4_S4_EEE, 
                       __ZTINSt3__18functionIFvN2gc4lang4TileENS2_6BufferERNS2_3est8JacobianES4_S4_EEE, 
                       __ZTINSt3__18functionIFvN2gc4lang4TileENS2_6BufferES4_EEE, 
                       __ZTINSt3__18functionIFvN2gc4lang4TileENS2_6BufferES4_NS2_5ArrayINS2_3est8VariableEEEEEE, 
                       __ZTINSt3__18functionIFvN2gc4lang4TileENS2_6BufferES4_NS2_6ScalarES5_S5_S5_S5_S4_S4_EEE, 
                       __ZTINSt3__18functionIFvN2gc4lang4TileENS2_6BufferES4_NS2_6VectorES4_EEE, 
                       __ZTINSt3__18functionIFvN2gc4lang4TileENS2_6BufferES4_RNS2_3est8JacobianES4_S4_EEE, 
                       __ZTINSt3__18functionIFvN2gc4lang4TileENS2_6BufferES4_S4_EEE, 
                       __ZTINSt3__18functionIFvN2gc4lang4TileENS2_6BufferES4_S4_NS2_6ScalarEEEE, 
                       __ZTINSt3__18functionIFvN2gc4lang4TileENS2_6BufferES4_S4_NS2_6VectorES4_S4_EEE, 
                       __ZTINSt3__18functionIFvN2gc4lang4TileENS2_6BufferES4_S4_S4_EEE, 
                       __ZTINSt3__18functionIFvN2gc4lang4TileENS2_6BufferES4_S4_S4_S4_NS2_6ScalarEEEE, 
                       __ZTINSt3__18functionIFvN2gc4lang4TileENS2_6BufferES4_S4_S4_S4_S4_S4_EEE, 
                       __ZTINSt3__18functionIFvN2gc4lang4TileENS2_6ScalarENS2_6BufferES5_EEE, 
                       __ZTINSt3__18functionIFvN2gc4lang4TileENS2_6ScalarERNS2_3est11BlockMatrixEEEE, 
                       __ZTINSt3__18functionIFvN2gc4lang4TileERNS2_3est11BlockMatrixEEEE, 
                       __ZTINSt3__18functionIFvN2gc4lang4TileERNS2_3est11BlockMatrixENS2_6BufferES7_EEE, 
                       __ZTINSt3__18functionIFvN2gc4lang4TileERNS2_3est11BlockMatrixENS2_6BufferES7_S7_EEE, 
                       __ZTINSt3__18functionIFvN2gc4lang4TileERNS2_3est11BlockMatrixENS2_6BufferES7_S7_RS7_EEE, 
                       __ZTINSt3__18functionIFvN2gc4lang4TileERNS2_3est11JacobianSetENS2_5ArrayINS4_14FactorOrderingEEENS7_INS2_6BufferEEESB_SA_EEE, 
                       __ZTINSt3__18functionIFvN2gc4lang4TileERNS2_3est14FactorOrderingENS2_6BufferERNS4_8JacobianES7_S7_EEE, 
                       __ZTINSt3__18functionIFvN2gc4lang4TileERNS2_3est14FactorOrderingERNS4_8JacobianENS2_6BufferERS9_EEE, 
                       __ZTINSt3__18functionIFvN2gc4lang4TileERNS2_3est14FactorOrderingERNS4_8JacobianENS2_6BufferES9_EEE, 
                       __ZTINSt3__18functionIFvN2gc4lang4TileERNS2_3est14FactorOrderingERNS4_8JacobianENS2_6BufferES9_S9_EEE, 
                       __ZTINSt3__18functionIFvN2gc4lang4TileERNS2_3est14FactorOrderingERNS4_8JacobianENS2_6BufferES9_S9_S9_EEE, 
                       __ZTINSt3__18functionIFvN2gc4lang4TileERNS2_3est8JacobianENS2_6BufferES7_S7_RS7_EEE, 
                       __ZTINSt3__18functionIFvN2gc4lang4TileERNS2_3est8JacobianENS2_6BufferES7_S7_S7_S7_EEE, 
                       __ZTINSt3__18functionIFvN2gc4lang4TileERNS2_3est8JacobianENS4_14FactorOrderingENS2_6BufferES8_EEE, 
                       __ZTINSt3__18functionIFvN2gc4lang4TileERNS2_3est8JacobianENS4_14FactorOrderingENS2_6BufferES8_S8_EEE, 
                       __ZTINSt3__18functionIFvN2gc4lang4TileERNS2_3est8JacobianENS4_14FactorOrderingENS2_6BufferES8_S8_S8_EEE, 
                       __ZTINSt3__18functionIFvN2gc4lang4TileERNS2_3est8JacobianENS4_14FactorOrderingES7_NS2_6BufferES8_S8_S8_S8_S8_EEE, 
                       __ZTINSt3__18functionIFvN2gc4lang4TileERNS2_6ScalarENS2_6BufferEEEE, 
                       __ZTIPFN2gc4ExprES0_E, __ZTIPFN2gc4ExprES0_S0_E, __ZTIPFN2gc4StmtERKNS_6TargetES0_E, 
                       __ZTIPFN2gc4lang2ad15BackpropFunctorENS0_6TensorES3_S3_E, 
                       __ZTIPFdddE, __ZTIZN2gc3est10EvaluateHp10kernelFuncEvEUlNS_4lang4TileERNS2_3est11BlockMatrixENS2_6BufferES7_S7_RS7_E_, 
                       __ZTIZN2gc3est10EvaluateHp19kernelFuncNoOffsetsEvEUlNS_4lang4TileERNS2_3est11BlockMatrixENS2_6BufferES7_E_, 
                       __ZTIZN2gc3est10EvaluateJp10kernelFuncEjEUlNS_4lang4TileENS2_6BufferES4_RNS2_3est8JacobianES4_S4_E_, 
                       __ZTIZN2gc3est10EvaluateJp18kernelFuncUnsortedEjEUlNS_4lang4TileERNS2_3est14FactorOrderingENS2_6BufferERNS4_8JacobianES7_S7_E_, 
                       __ZTIZN2gc3est10EvaluateJp18kernelFuncVariadicEjEUlNS_4lang4TileERNS2_3est14FactorOrderingENS2_6BufferERNS4_8JacobianES7_S7_E_, 
                       __ZTIZN2gc3est10EvaluateJp19kernelFuncNoOffsetsEjEUlNS_4lang4TileENS2_6BufferERNS2_3est8JacobianES4_S4_E_, 
                       __ZTIZN2gc3est10EvaluateJp27kernelFuncUnsortedNoOffsetsEjEUlNS_4lang4TileERNS2_3est14FactorOrderingERNS4_8JacobianENS2_6BufferES9_E_, 
                       __ZTIZN2gc3est10EvaluateJp27kernelFuncVariadicNoOffsetsEjEUlNS_4lang4TileERNS2_3est14FactorOrderingERNS4_8JacobianENS2_6BufferES9_E_, 
                       __ZTIZN2gc3est11EvaluateJtJ18kernelFuncDiagonalEvEUlNS_4lang4TileENS2_3est13BlockOrderingENS4_14FactorOrderingERNS4_8JacobianERNS4_11BlockMatrixEE_, 
                       __ZTIZN2gc3est11EvaluateJtJ21kernelFuncOffDiagonalEvEUlNS_4lang4TileENS2_3est13BlockOrderingENS2_5ArrayINS4_14FactorOrderingEEERNS4_11JacobianSetERNS4_11BlockMatrixEE_, 
                       __ZTIZN2gc3est11EvaluateJte10kernelFuncEvEUlNS_4lang4TileENS2_3est14FactorOrderingERNS4_8JacobianENS2_6BufferES8_E_, 
                       __ZTIZN2gc3est11PCGIterate110kernelFuncEvEUlNS_4lang4TileENS2_6BufferES4_S4_S4_S4_S4_S4_E_, 
                       __ZTIZN2gc3est11PCGIterate210kernelFuncEvEUlNS_4lang4TileENS2_6BufferES4_S4_E_, 
                       __ZTIZN2gc3est12EvaluateJtJp10kernelFuncEjEUlNS_4lang4TileERNS2_3est14FactorOrderingERNS4_8JacobianENS2_6BufferERS9_E_, 
                       __ZTIZN2gc3est12InvertBlockM10kernelFuncEvEUlNS_4lang4TileENS2_6BufferES4_E_, 
                       __ZTIZN2gc3est14EvaluateBlockM10kernelFuncEvEUlNS_4lang4TileERNS2_3est14FactorOrderingERNS4_8JacobianENS2_6BufferES9_E_, 
                       __ZTIZN2gc3est14ExtractDiagJtJ10kernelFuncEvEUlNS_4lang4TileERNS2_3est11BlockMatrixENS2_6BufferES7_S7_E_, 
                       __ZTIZN2gc3est14ExtractDiagJtJ19kernelFuncNoOffsetsEvEUlNS_4lang4TileERNS2_3est11BlockMatrixENS2_6BufferES7_E_, 
                       __ZTIZN2gc3est14SchurLinearize16factorKernelFuncERKNSt3__16vectorINS0_13ArgumentGroupENS2_9allocatorIS4_EEEERKNS2_3mapINS2_12basic_stringIcNS2_11char_traitsIcEENS5_IcEEEEjNS2_4lessISF_EENS5_INS2_4pairIKSF_jEEEEEEbEUlNS_4lang4TileENSP_6BufferENSP_3est6FactorERNSS_11JacobianSetENSP_5ArrayISR_EENSW_INSS_14FactorOrderingEEERNSS_16BlockMatrixArrayESX_E_, 
                       __ZTIZN2gc3est14SchurLinearize28eliminatedVariableKernelFuncERKNSt3__16vectorINS0_13ArgumentGroupENS2_9allocatorIS4_EEEERKNS2_3mapINS2_12basic_stringIcNS2_11char_traitsIcEENS5_IcEEEEjNS2_4lessISF_EENS5_INS2_4pairIKSF_jEEEEEEbEUlNS_4lang4TileENSP_6BufferERNSP_3est8JacobianENSS_6FactorERNSS_11JacobianSetERNSS_14FactorOrderingENSP_5ArrayISR_EENS10_ISY_EERNSS_16BlockMatrixArrayENSS_22SchurEliminatedHessianES11_SR_SR_E_, 
                       __ZTIZN2gc3est17SchurOuterProduct27schurOuterProductKernelFuncERKNSt3__16vectorINS0_13ArgumentGroupENS2_9allocatorIS4_EEEERKNS2_3mapINS2_12basic_stringIcNS2_11char_traitsIcEENS5_IcEEEEjNS2_4lessISF_EENS5_INS2_4pairIKSF_jEEEEEEbEUlNS_4lang4TileENSP_3est6FactorERNSR_14FactorOrderingENSP_5ArrayINSP_6BufferEEERNSR_16BlockMatrixArrayENSR_22SchurEliminatedHessianESX_SW_SW_E_, 
                       __ZTIZN2gc3est17SymmetrizeDiagJtJ10kernelFuncEvEUlNS_4lang4TileERNS2_3est11BlockMatrixEE_, 
                       __ZTIZN2gc3est18ImplicitSchurJtJp110kernelFuncEvEUlNS_4lang4TileERNS2_3est8JacobianENS4_14FactorOrderingENS2_6BufferES8_E_, 
                       __ZTIZN2gc3est18ImplicitSchurJtJp210kernelFuncEjEUlNS_4lang4TileERNS2_3est8JacobianENS2_6BufferES7_S7_S7_S7_E_, 
                       __ZTIZN2gc3est18ImplicitSchurJtJp218kernelFuncUnsortedEjEUlNS_4lang4TileERNS2_3est14FactorOrderingERNS4_8JacobianENS2_6BufferES9_S9_S9_E_, 
                       __ZTIZN2gc3est18ImplicitSchurJtJp218kernelFuncVariadicEjEUlNS_4lang4TileERNS2_3est8JacobianENS4_14FactorOrderingENS2_6BufferES8_S8_S8_E_, 
                       __ZTIZN2gc3est18ImplicitSchurJtJp219kernelFuncNoOffsetsEjEUlNS_4lang4TileERNS2_3est8JacobianENS2_6BufferES7_S7_RS7_E_, 
                       __ZTIZN2gc3est18ImplicitSchurJtJp227kernelFuncUnsortedNoOffsetsEjEUlNS_4lang4TileERNS2_3est14FactorOrderingERNS4_8JacobianENS2_6BufferES9_S9_E_, 
                       __ZTIZN2gc3est18ImplicitSchurJtJp227kernelFuncVariadicNoOffsetsEjEUlNS_4lang4TileERNS2_3est8JacobianENS4_14FactorOrderingENS2_6BufferES8_S8_E_, 
                       __ZTIZN2gc3est20MaterializeJacobians10kernelFuncERKNS0_16ArgumentGroupingERKNSt3__16vectorINS0_13eJacobianTypeENS5_9allocatorIS7_EEEEEUlNS_4lang4TileENSD_3est6FactorENSD_6BufferESH_SH_NSD_5ArrayINSF_14FactorOrderingEEENSF_11VariableSetENSI_ISH_EESM_NSD_17BindableTypeArrayEE_, 
                       __ZTIZN2gc3est20SchurBackSubstitute110kernelFuncERKNSt3__16vectorINS0_13ArgumentGroupENS2_9allocatorIS4_EEEERKNS2_3mapINS2_12basic_stringIcNS2_11char_traitsIcEENS5_IcEEEEjNS2_4lessISF_EENS5_INS2_4pairIKSF_jEEEEEEbEUlNS_4lang4TileENSP_6BufferENSP_5ArrayISR_EEST_NSP_3est6FactorERNSU_14FactorOrderingENSU_22SchurEliminatedHessianESR_E_, 
                       __ZTIZN2gc3est20SchurBackSubstitute210kernelFuncEvEUlNS_4lang4TileENS2_6BufferES4_E_, 
                       __ZTIZN2gc3est22EvaluateJtJFactorLevel10kernelFuncERKNSt3__16vectorIjNS2_9allocatorIjEEEEEUlNS_4lang4TileENS9_5ArrayINS9_3est13BlockOrderingEEENSB_INSC_14FactorOrderingEEERNSC_11JacobianSetERNSC_16BlockMatrixArrayEE_, 
                       __ZTIZN2gc3est24ImplicitSchurInitialize110kernelFuncEvEUlNS_4lang4TileENS2_6BufferERNS2_3est8JacobianENS5_14FactorOrderingENS2_6ScalarES4_S4_E_, 
                       __ZTIZN2gc3est24ImplicitSchurInitialize210kernelFuncEjEUlNS_4lang4TileENS2_6BufferERNS2_3est8JacobianENS5_14FactorOrderingES4_S4_S4_S4_S4_E_, 
                       __ZTIZN2gc3est24ImplicitSchurInitialize310kernelFuncEvEUlNS_4lang4TileERNS2_3est8JacobianENS4_14FactorOrderingES7_NS2_6BufferES8_S8_S8_S8_S8_E_, 
                       __ZTIZN2gc3est25ApplyJacobiPreconditioner10kernelFuncEvEUlNS_4lang4TileENS2_6BufferES4_S4_E_, 
                       __ZTIZN2gc3est28ImplicitSchurBackSubstitute110kernelFuncERKNSt3__16vectorINS0_13ArgumentGroupENS2_9allocatorIS4_EEEERKNS2_3mapINS2_12basic_stringIcNS2_11char_traitsIcEENS5_IcEEEEjNS2_4lessISF_EENS5_INS2_4pairIKSF_jEEEEEEEUlNS_4lang4TileERNSP_3est11JacobianSetENSP_5ArrayINSR_14FactorOrderingEEENSU_INSP_6BufferEEESY_SX_E_, 
                       __ZTIZN2gc3est28ImplicitSchurBackSubstitute210kernelFuncEvEUlNS_4lang4TileENS2_6BufferES4_S4_S4_E_, 
                       __ZTIZN2gc3est28SchurDampAndInvertEliminated10kernelFuncEvEUlNS_4lang4TileERNS2_6ScalarENS2_6BufferEE_, 
                       __ZTIZN2gc3est30ApplyAdditiveLMDampingExplicit10kernelFuncEvEUlNS_4lang4TileENS2_6ScalarERNS2_3est11BlockMatrixEE_, 
                       __ZTIZN2gc3est30ApplyAdditiveLMDampingImplicit10kernelFuncEvEUlNS_4lang4TileENS2_6BufferENS2_6ScalarES4_E_, 
                       __ZTIZN2gc3est30ApplyBlockJacobiPreconditioner10kernelFuncEvEUlNS_4lang4TileENS2_6BufferES4_S4_E_, 
                       __ZTIZN2gc3est33ApplyAdditiveLMDampingToDiagonals10kernelFuncEvEUlNS_4lang4TileENS2_6ScalarENS2_6BufferES5_E_, 
                       __ZTIZN2gc3est36ApplyMultiplicativeLMDampingExplicit10kernelFuncEvEUlNS_4lang4TileENS2_6ScalarERNS2_3est11BlockMatrixEE_, 
                       __ZTIZN2gc3est36ApplyMultiplicativeLMDampingImplicit10kernelFuncEvEUlNS_4lang4TileENS2_6BufferENS2_6ScalarES4_S4_E_, 
                       __ZTIZN2gc3est39ApplyMultiplicativeLMDampingToDiagonals10kernelFuncEvEUlNS_4lang4TileENS2_6ScalarENS2_6BufferES5_E_, 
                       __ZTIZN2gc3est7InvertM10kernelFuncEvEUlNS_4lang4TileENS2_6BufferES4_E_, 
                       __ZTIZN2gc3ops10BinaryOpTTINS0_5MaxTTENS0_10AutoDiffOpEE6kernelEvEUlRKNSt3__16vectorI17loopkit_rt_type_tNS5_9allocatorIS7_EEEEE_, 
                       __ZTIZN2gc3ops10BinaryOpTTINS0_5MaxTTENS0_10AutoDiffOpEE6kernelEvEUlRKNSt3__16vectorINS_11ExtentExprsENS5_9allocatorIS7_EEEEE_, 
                       __ZTIZN2gc3ops10BinaryOpTTINS0_5MinTTENS0_10AutoDiffOpEE6kernelEvEUlRKNSt3__16vectorI17loopkit_rt_type_tNS5_9allocatorIS7_EEEEE_, 
                       __ZTIZN2gc3ops10BinaryOpTTINS0_5MinTTENS0_10AutoDiffOpEE6kernelEvEUlRKNSt3__16vectorINS_11ExtentExprsENS5_9allocatorIS7_EEEEE_, 
                       __ZTIZN2gc3ops10BinaryOpTTINS0_8DivideTTENS0_10AutoDiffOpEE6kernelEvEUlRKNSt3__16vectorI17loopkit_rt_type_tNS5_9allocatorIS7_EEEEE_, 
                       __ZTIZN2gc3ops10BinaryOpTTINS0_8DivideTTENS0_10AutoDiffOpEE6kernelEvEUlRKNSt3__16vectorINS_11ExtentExprsENS5_9allocatorIS7_EEEEE_, 
                       __ZTIZN2gc3ops10SSIMOpGrad6kernelEvEUlNS_4lang4TileENS2_6BufferES4_S4_NS2_6VectorES4_S4_E_, 
                       __ZTIZN2gc3ops10ScanOpGrad6kernelEvEUlNS_4lang4TileENS2_6BufferES4_E_, 
                       __ZTIZN2gc3ops10ScanOpGrad6kernelEvEUlRKNS_11ExtentExprsEE_, 
                       __ZTIZN2gc3ops11AddAssignTTC1EvEUlNS_4lang4TileENS2_6BufferES4_E_, 
                       __ZTIZN2gc3ops11RangeStatic6kernelEvEUlNS_4lang4TileENS2_6BufferEE_, 
                       __ZTIZN2gc3ops12CrossEntropy6kernelEvEUlNS_4lang4TileENS2_6BufferES4_S4_E_, 
                       __ZTIZN2gc3ops12RangeDynamic6kernelEvEUlNS_4lang4TileENS2_6BufferES4_E_, 
                       __ZTIZN2gc3ops12ReduceOpGrad6kernelEvEUlNS_4lang4TileENS2_6BufferES4_E_, 
                       __ZTIZN2gc3ops13NonzeroOpGrad6kernelEvEUlNS_4lang4TileENS2_6BufferES4_E_, 
                       __ZTIZN2gc3ops13NonzeroOpGrad6kernelEvEUlRKNS_11ExtentExprsEE_, 
                       __ZTIZN2gc3ops16AutoDiffBackprop6kernelEvEUlRKNS_6TargetENS_4StmtEE_, 
                       __ZTIZN2gc3ops20SSIMOpPreprocessGrad6kernelEvEUlNS_4lang4TileENS2_6BufferES4_NS2_6VectorES4_E_, 
                       __ZTIZN2gc3ops20SSIMOpPreprocessGrad6kernelEvEUlRKNS_11ExtentExprsEE_, 
                       __ZTIZN2gc3ops4Cast6kernelEvEUlNS_4lang4TileENS2_6BufferES4_E_, 
                       __ZTIZN2gc3ops4Copy6kernelEvEUlNS_4lang4TileENS2_6BufferES4_E_, 
                       __ZTIZN2gc3ops4Head6kernelEvEUlNS_4lang4TileENS2_6BufferES4_E_, 
                       __ZTIZN2gc3ops4Head6kernelEvEUlRKNS_11ExtentExprsEE_, __ZTIZN2gc3ops4L1Op6kernelEvEUlNS_4lang4TileENS2_6BufferES4_S4_E_, 
                       __ZTIZN2gc3ops4L2Op6kernelEvEUlNS_4lang4TileENS2_6BufferES4_S4_E_, 
                       __ZTIZN2gc3ops4Tail6kernelEvEUlNS_4lang4TileENS2_6BufferES4_E_, 
                       __ZTIZN2gc3ops4Tail6kernelEvEUlRKNS_11ExtentExprsEE_, __ZTIZN2gc3ops5MaxTTC1EvEUlNS_4lang4TileENS2_6BufferES4_S4_E_, 
                       __ZTIZN2gc3ops5MinTTC1EvEUlNS_4lang4TileENS2_6BufferES4_S4_E_, 
                       __ZTIZN2gc3ops6Resize6kernelEvEUlNS_4lang6BufferES3_E_, __ZTIZN2gc3ops6SSIMOp6kernelEvEUlNS_4lang4TileENS2_6BufferES4_NS2_6VectorES4_E_, 
                       __ZTIZN2gc3ops6detail10TensorFill6kernelEvEUlNS_4lang4TileENS3_6BufferEE_, 
                       __ZTIZN2gc3ops6detail10TensorSize6kernelEvEUlNS_4lang6BufferENS3_6ScalarEE_, 
                       __ZTIZN2gc3ops6detail13TensorExtents6kernelEvEUlNS_4lang6BufferENS3_6VectorEE_, 
                       __ZTIZN2gc3ops6detail13TensorExtents6kernelEvEUlRKNS_11ExtentExprsEE_, 
                       __ZTIZN2gc3ops6detail19convertFunctionBodyINS0_6TensorEJS3_S3_EEENSt3__18functionIFNS1_18FunctionReturnTypeERKNS4_6vectorIS3_NS4_9allocatorIS3_EEEEEEENS5_IFT_DpT0_EEEEUlSC_E_, 
                       __ZTIZN2gc3ops6detail19convertFunctionBodyIvJNS0_6TensorES3_S3_S3_S3_S3_S3_S3_S3_EEENSt3__18functionIFNS1_18FunctionReturnTypeERKNS4_6vectorIS3_NS4_9allocatorIS3_EEEEEEENS5_IFT_DpT0_EEEEUlSC_E_, 
                       __ZTIZN2gc3ops8DivideTTC1EvEUlNS_4lang4TileENS2_6BufferES4_S4_E_, 
                       __ZTIZN2gc4lang3est11BlockMatrix13forEachColumnIZZNS_3est10EvaluateHp19kernelFuncNoOffsetsEvENKUlNS0_4TileERS2_NS0_6BufferES8_E_clES6_S7_S8_S8_EUlNS_4ExprENS0_6MatrixEE_EEvRKSA_OT_EUlSF_E_, 
                       __ZTIZN2gc4lang3est11BlockMatrix13forEachColumnIZZNS_3est14ExtractDiagJtJ10kernelFuncEvENKUlNS0_4TileERS2_NS0_6BufferES8_S8_E_clES6_S7_S8_S8_S8_EUlNS_4ExprENS0_6MatrixEE_EEvRKSA_OT_EUlSF_E_, 
                       __ZTIZN2gc4lang3est11BlockMatrix13forEachColumnIZZNS_3est14ExtractDiagJtJ19kernelFuncNoOffsetsEvENKUlNS0_4TileERS2_NS0_6BufferES8_E_clES6_S7_S8_S8_EUlNS_4ExprENS0_6MatrixEE_EEvRKSA_OT_EUlSF_E_, 
                       __ZTIZN2gc4lang3est11BlockMatrix13forEachColumnIZZNS_3est17SymmetrizeDiagJtJ10kernelFuncEvENKUlNS0_4TileERS2_E_clES6_S7_EUlNS_4ExprENS0_6MatrixEE_EEvRKS9_OT_EUlSE_E_, 
                       __ZTIZN2gc4lang3est11BlockMatrix13forEachColumnIZZNS_3est30ApplyAdditiveLMDampingExplicit10kernelFuncEvENKUlNS0_4TileENS0_6ScalarERS2_E_clES6_S7_S8_EUlNS_4ExprENS0_6MatrixEE_EEvRKSA_OT_EUlSF_E_, 
                       __ZTIZN2gc4lang3est11BlockMatrix13forEachColumnIZZNS_3est36ApplyMultiplicativeLMDampingExplicit10kernelFuncEvENKUlNS0_4TileENS0_6ScalarERS2_E_clES6_S7_S8_EUlNS_4ExprENS0_6MatrixEE_EEvRKSA_OT_EUlSF_E_, 
                       __ZTIZN2gc4lang3est11BlockMatrix13forEachColumnIZZZNS_3est10EvaluateHp10kernelFuncEvENKUlNS0_4TileERS2_NS0_6BufferES8_S8_RS8_E_clES6_S7_S8_S8_S8_S9_ENKUlvE_clEvEUlNS_4ExprENS0_6MatrixEE_EEvRKSC_OT_EUlSH_E_, 
                       __ZTIZN2gc4lang4sort22scatterHistogramHelluyILb0EEEvNS1_13ScatterInputsIXT_EEENS1_14ScatterOutputsIXT_EEENS0_6BufferENS_4ExprES8_S8_S8_S8_jEUlT_E0_, 
                       __ZTIZN2gc4lang4sort22scatterHistogramHelluyILb0EEEvNS1_13ScatterInputsIXT_EEENS1_14ScatterOutputsIXT_EEENS0_6BufferENS_4ExprES8_S8_S8_S8_jEUlT_E_, 
                       __ZTIZN2gc4lang4sort22scatterHistogramHelluyILb1EEEvNS1_13ScatterInputsIXT_EEENS1_14ScatterOutputsIXT_EEENS0_6BufferENS_4ExprES8_S8_S8_S8_jEUlT_E0_, 
                       __ZTIZN2gc4lang4sort22scatterHistogramHelluyILb1EEEvNS1_13ScatterInputsIXT_EEENS1_14ScatterOutputsIXT_EEENS0_6BufferENS_4ExprES8_S8_S8_S8_jEUlT_E_, 
                       __ZTIZN2gc4lang4sort28scatterHistogramKieberEmmonsILb0EEEvNS1_13ScatterInputsIXT_EEENS1_14ScatterOutputsIXT_EEENS0_6BufferENS_4ExprES8_S8_S8_S8_jEUlvE0_, 
                       __ZTIZN2gc4lang4sort28scatterHistogramKieberEmmonsILb0EEEvNS1_13ScatterInputsIXT_EEENS1_14ScatterOutputsIXT_EEENS0_6BufferENS_4ExprES8_S8_S8_S8_jEUlvE_, 
                       __ZTIZN2gc4lang4sort28scatterHistogramKieberEmmonsILb1EEEvNS1_13ScatterInputsIXT_EEENS1_14ScatterOutputsIXT_EEENS0_6BufferENS_4ExprES8_S8_S8_S8_jEUlvE0_, 
                       __ZTIZN2gc4lang4sort28scatterHistogramKieberEmmonsILb1EEEvNS1_13ScatterInputsIXT_EEENS1_14ScatterOutputsIXT_EEENS0_6BufferENS_4ExprES8_S8_S8_S8_jEUlvE_, 
                       __ZTIZN2gc4lang9tensorops11UnaryOpImpl11alwaysValidEvEUlNS0_6TensorEE_, 
                       __ZTIZN2gc4lang9tensorops11UnaryOpImpl14adjAlwaysValidEvEUlNS0_6TensorES3_E_, 
                       __ZTIZN2gc4lang9tensorops12BinaryOpImpl11alwaysValidEvEUlNS0_6TensorES3_E_, 
                       __ZTIZN2gc4lang9tensorops12BinaryOpImpl14adjAlwaysValidEvEUlNS0_6TensorES3_S3_E_, 
                       __ZTIZNK2gc4lang3est13BlockOrdering11forOrderingIZZZNS_3est22EvaluateJtJFactorLevel10kernelFuncERKNSt3__16vectorIjNS6_9allocatorIjEEEEENKUlNS0_4TileENS0_5ArrayIS2_EENSE_INS1_14FactorOrderingEEERNS1_11JacobianSetERNS1_16BlockMatrixArrayEE_clESD_SF_SH_SJ_SL_ENKUlvE_clEvEUlNS_5TupleENS_4ExprEE_EEvOT_EUlSR_E_, 
                       __ZTIZNK2gc4lang3est13BlockOrdering13forEachFactorIZZNS_3est11EvaluateJtJ18kernelFuncDiagonalEvENKUlNS0_4TileES2_NS1_14FactorOrderingERNS1_8JacobianERNS1_11BlockMatrixEE_clES6_S2_S7_S9_SB_EUlNS_4ExprEE_EEvRKSD_OT_EUlSH_E_, 
                       __ZTIZNK2gc4lang3est13BlockOrdering13forEachFactorIZZNS_3est11EvaluateJtJ21kernelFuncOffDiagonalEvENKUlNS0_4TileES2_NS0_5ArrayINS1_14FactorOrderingEEERNS1_11JacobianSetERNS1_11BlockMatrixEE_clES6_S2_S9_SB_SD_EUlNS_4ExprEE_EEvRKSF_OT_EUlSJ_E_, 
                       __ZTIZNK2gc4lang3est13BlockOrdering13forEachFactorIZZZZNS_3est22EvaluateJtJFactorLevel10kernelFuncERKNSt3__16vectorIjNS6_9allocatorIjEEEEENKUlNS0_4TileENS0_5ArrayIS2_EENSE_INS1_14FactorOrderingEEERNS1_11JacobianSetERNS1_16BlockMatrixArrayEE_clESD_SF_SH_SJ_SL_ENKUlvE_clEvENKUlNS_5TupleENS_4ExprEE_clESO_SP_EUlSP_E_EEvRKSP_OT_EUlSU_E_, 
                       __ZTIZZN2gc3est10EvaluateHp10kernelFuncEvENKUlNS_4lang4TileERNS2_3est11BlockMatrixENS2_6BufferES7_S7_RS7_E_clES3_S6_S7_S7_S7_S8_EUlvE_, 
                       __ZTIZZN2gc3est10EvaluateJp18kernelFuncUnsortedEjENKUlNS_4lang4TileERNS2_3est14FactorOrderingENS2_6BufferERNS4_8JacobianES7_S7_E_clES3_S6_S7_S9_S7_S7_EUlvE_, 
                       __ZTIZZN2gc3est10EvaluateJp18kernelFuncVariadicEjENKUlNS_4lang4TileERNS2_3est14FactorOrderingENS2_6BufferERNS4_8JacobianES7_S7_E_clES3_S6_S7_S9_S7_S7_EUlNS_4ExprEE_, 
                       __ZTIZZN2gc3est10EvaluateJp27kernelFuncVariadicNoOffsetsEjENKUlNS_4lang4TileERNS2_3est14FactorOrderingERNS4_8JacobianENS2_6BufferES9_E_clES3_S6_S8_S9_S9_EUlNS_4ExprEE_, 
                       __ZTIZZN2gc3est11EvaluateJte10kernelFuncEvENKUlNS_4lang4TileENS2_3est14FactorOrderingERNS4_8JacobianENS2_6BufferES8_E_clES3_S5_S7_S8_S8_EUlNS_4ExprESA_E_, 
                       __ZTIZZN2gc3est12EvaluateJtJp10kernelFuncEjENKUlNS_4lang4TileERNS2_3est14FactorOrderingERNS4_8JacobianENS2_6BufferERS9_E_clES3_S6_S8_S9_SA_EUlNS_4ExprESC_E_, 
                       __ZTIZZN2gc3est12InvertBlockM10kernelFuncEvENKUlNS_4lang4TileENS2_6BufferES4_E_clES3_S4_S4_EUlT_E_, 
                       __ZTIZZN2gc3est12InvertBlockM10kernelFuncEvENKUlNS_4lang4TileENS2_6BufferES4_E_clES3_S4_S4_EUlvE0_, 
                       __ZTIZZN2gc3est12InvertBlockM10kernelFuncEvENKUlNS_4lang4TileENS2_6BufferES4_E_clES3_S4_S4_EUlvE_, 
                       __ZTIZZN2gc3est14EvaluateBlockM10kernelFuncEvENKUlNS_4lang4TileERNS2_3est14FactorOrderingERNS4_8JacobianENS2_6BufferES9_E_clES3_S6_S8_S9_S9_EUlNS_4ExprESB_E_, 
                       __ZTIZZN2gc3est14SchurLinearize16factorKernelFuncERKNSt3__16vectorINS0_13ArgumentGroupENS2_9allocatorIS4_EEEERKNS2_3mapINS2_12basic_stringIcNS2_11char_traitsIcEENS5_IcEEEEjNS2_4lessISF_EENS5_INS2_4pairIKSF_jEEEEEEbENKUlNS_4lang4TileENSP_6BufferENSP_3est6FactorERNSS_11JacobianSetENSP_5ArrayISR_EENSW_INSS_14FactorOrderingEEERNSS_16BlockMatrixArrayESX_E_clESQ_SR_ST_SV_SX_SZ_S11_SX_EUlvE_, 
                       __ZTIZZN2gc3est14SchurLinearize28eliminatedVariableKernelFuncERKNSt3__16vectorINS0_13ArgumentGroupENS2_9allocatorIS4_EEEERKNS2_3mapINS2_12basic_stringIcNS2_11char_traitsIcEENS5_IcEEEEjNS2_4lessISF_EENS5_INS2_4pairIKSF_jEEEEEEbENKUlNS_4lang4TileENSP_6BufferERNSP_3est8JacobianENSS_6FactorERNSS_11JacobianSetERNSS_14FactorOrderingENSP_5ArrayISR_EENS10_ISY_EERNSS_16BlockMatrixArrayENSS_22SchurEliminatedHessianES11_SR_SR_E_clESQ_SR_SU_SV_SX_SZ_S11_S12_S14_S15_S11_SR_SR_EUlNS_4ExprEE_, 
                       __ZTIZZN2gc3est17SchurOuterProduct27schurOuterProductKernelFuncERKNSt3__16vectorINS0_13ArgumentGroupENS2_9allocatorIS4_EEEERKNS2_3mapINS2_12basic_stringIcNS2_11char_traitsIcEENS5_IcEEEEjNS2_4lessISF_EENS5_INS2_4pairIKSF_jEEEEEEbENKUlNS_4lang4TileENSP_3est6FactorERNSR_14FactorOrderingENSP_5ArrayINSP_6BufferEEERNSR_16BlockMatrixArrayENSR_22SchurEliminatedHessianESX_SW_SW_E_clESQ_SS_SU_SX_SZ_S10_SX_SW_SW_EUlNS_4ExprEE_, 
                       __ZTIZZN2gc3est18ImplicitSchurJtJp110kernelFuncEvENKUlNS_4lang4TileERNS2_3est8JacobianENS4_14FactorOrderingENS2_6BufferES8_E_clES3_S6_S7_S8_S8_EUlNS_4ExprESA_E_, 
                       __ZTIZZN2gc3est18ImplicitSchurJtJp218kernelFuncUnsortedEjENKUlNS_4lang4TileERNS2_3est14FactorOrderingERNS4_8JacobianENS2_6BufferES9_S9_S9_E_clES3_S6_S8_S9_S9_S9_S9_EUlvE_, 
                       __ZTIZZN2gc3est18ImplicitSchurJtJp218kernelFuncVariadicEjENKUlNS_4lang4TileERNS2_3est8JacobianENS4_14FactorOrderingENS2_6BufferES8_S8_S8_E_clES3_S6_S7_S8_S8_S8_S8_EUlNS_4ExprEE_, 
                       __ZTIZZN2gc3est18ImplicitSchurJtJp227kernelFuncVariadicNoOffsetsEjENKUlNS_4lang4TileERNS2_3est8JacobianENS4_14FactorOrderingENS2_6BufferES8_S8_E_clES3_S6_S7_S8_S8_S8_EUlNS_4ExprEE_, 
                       __ZTIZZN2gc3est20MaterializeJacobians10kernelFuncERKNS0_16ArgumentGroupingERKNSt3__16vectorINS0_13eJacobianTypeENS5_9allocatorIS7_EEEEENKUlNS_4lang4TileENSD_3est6FactorENSD_6BufferESH_SH_NSD_5ArrayINSF_14FactorOrderingEEENSF_11VariableSetENSI_ISH_EESM_NSD_17BindableTypeArrayEE_clESE_SG_SH_SH_SH_SK_SL_SM_SM_SN_EUlvE0_, 
                       __ZTIZZN2gc3est20MaterializeJacobians10kernelFuncERKNS0_16ArgumentGroupingERKNSt3__16vectorINS0_13eJacobianTypeENS5_9allocatorIS7_EEEEENKUlNS_4lang4TileENSD_3est6FactorENSD_6BufferESH_SH_NSD_5ArrayINSF_14FactorOrderingEEENSF_11VariableSetENSI_ISH_EESM_NSD_17BindableTypeArrayEE_clESE_SG_SH_SH_SH_SK_SL_SM_SM_SN_EUlvE1_, 
                       __ZTIZZN2gc3est20MaterializeJacobians10kernelFuncERKNS0_16ArgumentGroupingERKNSt3__16vectorINS0_13eJacobianTypeENS5_9allocatorIS7_EEEEENKUlNS_4lang4TileENSD_3est6FactorENSD_6BufferESH_SH_NSD_5ArrayINSF_14FactorOrderingEEENSF_11VariableSetENSI_ISH_EESM_NSD_17BindableTypeArrayEE_clESE_SG_SH_SH_SH_SK_SL_SM_SM_SN_EUlvE_, 
                       __ZTIZZN2gc3est20SchurBackSubstitute110kernelFuncERKNSt3__16vectorINS0_13ArgumentGroupENS2_9allocatorIS4_EEEERKNS2_3mapINS2_12basic_stringIcNS2_11char_traitsIcEENS5_IcEEEEjNS2_4lessISF_EENS5_INS2_4pairIKSF_jEEEEEEbENKUlNS_4lang4TileENSP_6BufferENSP_5ArrayISR_EEST_NSP_3est6FactorERNSU_14FactorOrderingENSU_22SchurEliminatedHessianESR_E_clESQ_SR_ST_ST_SV_SX_SY_SR_EUlNS_4ExprEE_, 
                       __ZTIZZN2gc3est22EvaluateJtJFactorLevel10kernelFuncERKNSt3__16vectorIjNS2_9allocatorIjEEEEENKUlNS_4lang4TileENS9_5ArrayINS9_3est13BlockOrderingEEENSB_INSC_14FactorOrderingEEERNSC_11JacobianSetERNSC_16BlockMatrixArrayEE_clESA_SE_SG_SI_SK_EUlvE_, 
                       __ZTIZZN2gc3est24ImplicitSchurInitialize110kernelFuncEvENKUlNS_4lang4TileENS2_6BufferERNS2_3est8JacobianENS5_14FactorOrderingENS2_6ScalarES4_S4_E_clES3_S4_S7_S8_S9_S4_S4_EUlNS_4ExprESB_E_, 
                       __ZTIZZN2gc3est24ImplicitSchurInitialize110kernelFuncEvENKUlNS_4lang4TileENS2_6BufferERNS2_3est8JacobianENS5_14FactorOrderingENS2_6ScalarES4_S4_E_clES3_S4_S7_S8_S9_S4_S4_EUlT_E0_, 
                       __ZTIZZN2gc3est24ImplicitSchurInitialize110kernelFuncEvENKUlNS_4lang4TileENS2_6BufferERNS2_3est8JacobianENS5_14FactorOrderingENS2_6ScalarES4_S4_E_clES3_S4_S7_S8_S9_S4_S4_EUlT_E_, 
                       __ZTIZZN2gc3est24ImplicitSchurInitialize110kernelFuncEvENKUlNS_4lang4TileENS2_6BufferERNS2_3est8JacobianENS5_14FactorOrderingENS2_6ScalarES4_S4_E_clES3_S4_S7_S8_S9_S4_S4_EUlvE_, 
                       __ZTIZZN2gc3est24ImplicitSchurInitialize310kernelFuncEvENKUlNS_4lang4TileERNS2_3est8JacobianENS4_14FactorOrderingES7_NS2_6BufferES8_S8_S8_S8_S8_E_clES3_S6_S7_S7_S8_S8_S8_S8_S8_S8_EUlNS_4ExprESA_E_, 
                       __ZTIZZN2gc3est28ImplicitSchurBackSubstitute110kernelFuncERKNSt3__16vectorINS0_13ArgumentGroupENS2_9allocatorIS4_EEEERKNS2_3mapINS2_12basic_stringIcNS2_11char_traitsIcEENS5_IcEEEEjNS2_4lessISF_EENS5_INS2_4pairIKSF_jEEEEEEENKUlNS_4lang4TileERNSP_3est11JacobianSetENSP_5ArrayINSR_14FactorOrderingEEENSU_INSP_6BufferEEESY_SX_E_clESQ_ST_SW_SY_SY_SX_EUlvE_, 
                       __ZTIZZN2gc3est28SchurDampAndInvertEliminated10kernelFuncEvENKUlNS_4lang4TileERNS2_6ScalarENS2_6BufferEE_clES3_S5_S6_EUlT_E0_, 
                       __ZTIZZN2gc3est28SchurDampAndInvertEliminated10kernelFuncEvENKUlNS_4lang4TileERNS2_6ScalarENS2_6BufferEE_clES3_S5_S6_EUlT_E_, 
                       __ZTIZZN2gc3est28SchurDampAndInvertEliminated10kernelFuncEvENKUlNS_4lang4TileERNS2_6ScalarENS2_6BufferEE_clES3_S5_S6_EUlvE_, 
                       __ZTIZZN2gc3est33ApplyAdditiveLMDampingToDiagonals10kernelFuncEvENKUlNS_4lang4TileENS2_6ScalarENS2_6BufferES5_E_clES3_S4_S5_S5_EUlT_E_, 
                       __ZTIZZN2gc3est39ApplyMultiplicativeLMDampingToDiagonals10kernelFuncEvENKUlNS_4lang4TileENS2_6ScalarENS2_6BufferES5_E_clES3_S4_S5_S5_EUlT_E_, 
                       __ZTIZZN2gc3ops10SSIMOpGrad6kernelEvENKUlNS_4lang4TileENS2_6BufferES4_S4_NS2_6VectorES4_S4_E_clES3_S4_S4_S4_S5_S4_S4_EUlT_E0_, 
                       __ZTIZZN2gc3ops10SSIMOpGrad6kernelEvENKUlNS_4lang4TileENS2_6BufferES4_S4_NS2_6VectorES4_S4_E_clES3_S4_S4_S4_S5_S4_S4_EUlT_E_, 
                       __ZTIZZN2gc3ops20SSIMOpPreprocessGrad6kernelEvENKUlNS_4lang4TileENS2_6BufferES4_NS2_6VectorES4_E_clES3_S4_S4_S5_S4_EUlT_E0_, 
                       __ZTIZZN2gc3ops20SSIMOpPreprocessGrad6kernelEvENKUlNS_4lang4TileENS2_6BufferES4_NS2_6VectorES4_E_clES3_S4_S4_S5_S4_EUlT_E1_, 
                       __ZTIZZN2gc3ops20SSIMOpPreprocessGrad6kernelEvENKUlNS_4lang4TileENS2_6BufferES4_NS2_6VectorES4_E_clES3_S4_S4_S5_S4_EUlT_E_, 
                       __ZTIZZN2gc3ops6SSIMOp6kernelEvENKUlNS_4lang4TileENS2_6BufferES4_NS2_6VectorES4_E_clES3_S4_S4_S5_S4_EUlT_E0_, 
                       __ZTIZZN2gc3ops6SSIMOp6kernelEvENKUlNS_4lang4TileENS2_6BufferES4_NS2_6VectorES4_E_clES3_S4_S4_S5_S4_EUlT_E1_, 
                       __ZTIZZN2gc3ops6SSIMOp6kernelEvENKUlNS_4lang4TileENS2_6BufferES4_NS2_6VectorES4_E_clES3_S4_S4_S5_S4_EUlT_E_, 
                       __ZTIZZN2gc4lang3est11BlockMatrix13forEachColumnIZZNS_3est10EvaluateHp19kernelFuncNoOffsetsEvENKUlNS0_4TileERS2_NS0_6BufferES8_E_clES6_S7_S8_S8_EUlNS_4ExprENS0_6MatrixEE_EEvRKSA_OT_ENKUlSF_E_clISA_EEDaSF_EUlvE_, 
                       __ZTIZZN2gc4lang3est11BlockMatrix13forEachColumnIZZNS_3est14ExtractDiagJtJ10kernelFuncEvENKUlNS0_4TileERS2_NS0_6BufferES8_S8_E_clES6_S7_S8_S8_S8_EUlNS_4ExprENS0_6MatrixEE_EEvRKSA_OT_ENKUlSF_E_clISA_EEDaSF_EUlvE_, 
                       __ZTIZZN2gc4lang3est11BlockMatrix13forEachColumnIZZNS_3est14ExtractDiagJtJ19kernelFuncNoOffsetsEvENKUlNS0_4TileERS2_NS0_6BufferES8_E_clES6_S7_S8_S8_EUlNS_4ExprENS0_6MatrixEE_EEvRKSA_OT_ENKUlSF_E_clISA_EEDaSF_EUlvE_, 
                       __ZTIZZN2gc4lang3est11BlockMatrix13forEachColumnIZZNS_3est17SymmetrizeDiagJtJ10kernelFuncEvENKUlNS0_4TileERS2_E_clES6_S7_EUlNS_4ExprENS0_6MatrixEE_EEvRKS9_OT_ENKUlSE_E_clIS9_EEDaSE_EUlvE_, 
                       __ZTIZZN2gc4lang3est11BlockMatrix13forEachColumnIZZNS_3est30ApplyAdditiveLMDampingExplicit10kernelFuncEvENKUlNS0_4TileENS0_6ScalarERS2_E_clES6_S7_S8_EUlNS_4ExprENS0_6MatrixEE_EEvRKSA_OT_ENKUlSF_E_clISA_EEDaSF_EUlvE_, 
                       __ZTIZZN2gc4lang3est11BlockMatrix13forEachColumnIZZNS_3est36ApplyMultiplicativeLMDampingExplicit10kernelFuncEvENKUlNS0_4TileENS0_6ScalarERS2_E_clES6_S7_S8_EUlNS_4ExprENS0_6MatrixEE_EEvRKSA_OT_ENKUlSF_E_clISA_EEDaSF_EUlvE_, 
                       __ZTIZZN2gc4lang3est11BlockMatrix13forEachColumnIZZZNS_3est10EvaluateHp10kernelFuncEvENKUlNS0_4TileERS2_NS0_6BufferES8_S8_RS8_E_clES6_S7_S8_S8_S8_S9_ENKUlvE_clEvEUlNS_4ExprENS0_6MatrixEE_EEvRKSC_OT_ENKUlSH_E_clISC_EEDaSH_EUlvE_, 
                       __ZTIZZNK2gc4lang9tensorops11UnaryOpImplclENS0_6TensorEENKUlvE0_clEvEUlT_E_, 
                       __ZTIZZNK2gc4lang9tensorops12BinaryOpImplclENS0_6TensorES3_ENKUlvE0_clEvEUlT_E_, 
                       __ZTIZZNK2gc4lang9tensorops12BinaryOpImplclENS0_6TensorES3_ENKUlvE1_clEvEUlS3_E0_, 
                       __ZTIZZNK2gc4lang9tensorops12BinaryOpImplclENS0_6TensorES3_ENKUlvE1_clEvEUlS3_E_, 
                       __ZTIZZZN2gc3est10EvaluateJp18kernelFuncVariadicEjENKUlNS_4lang4TileERNS2_3est14FactorOrderingENS2_6BufferERNS4_8JacobianES7_S7_E_clES3_S6_S7_S9_S7_S7_ENKUlNS_4ExprEE_clESB_EUlvE_, 
                       __ZTIZZZN2gc3est11EvaluateJtJ18kernelFuncDiagonalEvENKUlNS_4lang4TileENS2_3est13BlockOrderingENS4_14FactorOrderingERNS4_8JacobianERNS4_11BlockMatrixEE_clES3_S5_S6_S8_SA_ENKUlNS_4ExprEE_clESC_EUlSC_E_, 
                       __ZTIZZZN2gc3est11EvaluateJtJ21kernelFuncOffDiagonalEvENKUlNS_4lang4TileENS2_3est13BlockOrderingENS2_5ArrayINS4_14FactorOrderingEEERNS4_11JacobianSetERNS4_11BlockMatrixEE_clES3_S5_S8_SA_SC_ENKUlNS_4ExprEE_clESE_EUlSE_E_, 
                       __ZTIZZZN2gc3est12InvertBlockM10kernelFuncEvENKUlNS_4lang4TileENS2_6BufferES4_E_clES3_S4_S4_ENKUlvE0_clEvEUlT_E_, 
                       __ZTIZZZN2gc3est14ExtractDiagJtJ10kernelFuncEvENKUlNS_4lang4TileERNS2_3est11BlockMatrixENS2_6BufferES7_S7_E_clES3_S6_S7_S7_S7_ENKUlNS_4ExprENS2_6MatrixEE_clES9_SA_EUlvE_, 
                       __ZTIZZZN2gc3est14ExtractDiagJtJ19kernelFuncNoOffsetsEvENKUlNS_4lang4TileERNS2_3est11BlockMatrixENS2_6BufferES7_E_clES3_S6_S7_S7_ENKUlNS_4ExprENS2_6MatrixEE_clES9_SA_EUlvE_, 
                       __ZTIZZZN2gc3est14SchurLinearize16factorKernelFuncERKNSt3__16vectorINS0_13ArgumentGroupENS2_9allocatorIS4_EEEERKNS2_3mapINS2_12basic_stringIcNS2_11char_traitsIcEENS5_IcEEEEjNS2_4lessISF_EENS5_INS2_4pairIKSF_jEEEEEEbENKUlNS_4lang4TileENSP_6BufferENSP_3est6FactorERNSS_11JacobianSetENSP_5ArrayISR_EENSW_INSS_14FactorOrderingEEERNSS_16BlockMatrixArrayESX_E_clESQ_SR_ST_SV_SX_SZ_S11_SX_ENKUlvE_clEvEUlNS_4ExprEE_, 
                       __ZTIZZZN2gc3est14SchurLinearize28eliminatedVariableKernelFuncERKNSt3__16vectorINS0_13ArgumentGroupENS2_9allocatorIS4_EEEERKNS2_3mapINS2_12basic_stringIcNS2_11char_traitsIcEENS5_IcEEEEjNS2_4lessISF_EENS5_INS2_4pairIKSF_jEEEEEEbENKUlNS_4lang4TileENSP_6BufferERNSP_3est8JacobianENSS_6FactorERNSS_11JacobianSetERNSS_14FactorOrderingENSP_5ArrayISR_EENS10_ISY_EERNSS_16BlockMatrixArrayENSS_22SchurEliminatedHessianES11_SR_SR_E_clESQ_SR_SU_SV_SX_SZ_S11_S12_S14_S15_S11_SR_SR_ENKUlNS_4ExprEE_clES17_EUlS17_E_, 
                       __ZTIZZZN2gc3est17SchurOuterProduct27schurOuterProductKernelFuncERKNSt3__16vectorINS0_13ArgumentGroupENS2_9allocatorIS4_EEEERKNS2_3mapINS2_12basic_stringIcNS2_11char_traitsIcEENS5_IcEEEEjNS2_4lessISF_EENS5_INS2_4pairIKSF_jEEEEEEbENKUlNS_4lang4TileENSP_3est6FactorERNSR_14FactorOrderingENSP_5ArrayINSP_6BufferEEERNSR_16BlockMatrixArrayENSR_22SchurEliminatedHessianESX_SW_SW_E_clESQ_SS_SU_SX_SZ_S10_SX_SW_SW_ENKUlNS_4ExprEE_clES12_EUlvE_, 
                       __ZTIZZZN2gc3est17SymmetrizeDiagJtJ10kernelFuncEvENKUlNS_4lang4TileERNS2_3est11BlockMatrixEE_clES3_S6_ENKUlNS_4ExprENS2_6MatrixEE_clES8_S9_EUlvE_, 
                       __ZTIZZZN2gc3est18ImplicitSchurJtJp218kernelFuncVariadicEjENKUlNS_4lang4TileERNS2_3est8JacobianENS4_14FactorOrderingENS2_6BufferES8_S8_S8_E_clES3_S6_S7_S8_S8_S8_S8_ENKUlNS_4ExprEE_clESA_EUlvE_, 
                       __ZTIZZZN2gc3est20MaterializeJacobians10kernelFuncERKNS0_16ArgumentGroupingERKNSt3__16vectorINS0_13eJacobianTypeENS5_9allocatorIS7_EEEEENKUlNS_4lang4TileENSD_3est6FactorENSD_6BufferESH_SH_NSD_5ArrayINSF_14FactorOrderingEEENSF_11VariableSetENSI_ISH_EESM_NSD_17BindableTypeArrayEE_clESE_SG_SH_SH_SH_SK_SL_SM_SM_SN_ENKUlvE0_clEvEUlNS_4ExprEE_, 
                       __ZTIZZZN2gc3est20MaterializeJacobians10kernelFuncERKNS0_16ArgumentGroupingERKNSt3__16vectorINS0_13eJacobianTypeENS5_9allocatorIS7_EEEEENKUlNS_4lang4TileENSD_3est6FactorENSD_6BufferESH_SH_NSD_5ArrayINSF_14FactorOrderingEEENSF_11VariableSetENSI_ISH_EESM_NSD_17BindableTypeArrayEE_clESE_SG_SH_SH_SH_SK_SL_SM_SM_SN_ENKUlvE1_clEvEUlvE_, 
                       __ZTIZZZN2gc3est20MaterializeJacobians10kernelFuncERKNS0_16ArgumentGroupingERKNSt3__16vectorINS0_13eJacobianTypeENS5_9allocatorIS7_EEEEENKUlNS_4lang4TileENSD_3est6FactorENSD_6BufferESH_SH_NSD_5ArrayINSF_14FactorOrderingEEENSF_11VariableSetENSI_ISH_EESM_NSD_17BindableTypeArrayEE_clESE_SG_SH_SH_SH_SK_SL_SM_SM_SN_ENKUlvE_clEvEUlNS_4ExprEE_, 
                       __ZTIZZZN2gc3est20SchurBackSubstitute110kernelFuncERKNSt3__16vectorINS0_13ArgumentGroupENS2_9allocatorIS4_EEEERKNS2_3mapINS2_12basic_stringIcNS2_11char_traitsIcEENS5_IcEEEEjNS2_4lessISF_EENS5_INS2_4pairIKSF_jEEEEEEbENKUlNS_4lang4TileENSP_6BufferENSP_5ArrayISR_EEST_NSP_3est6FactorERNSU_14FactorOrderingENSU_22SchurEliminatedHessianESR_E_clESQ_SR_ST_ST_SV_SX_SY_SR_ENKUlNS_4ExprEE_clES10_EUlvE_, 
                       __ZTIZZZN2gc3est24ImplicitSchurInitialize310kernelFuncEvENKUlNS_4lang4TileERNS2_3est8JacobianENS4_14FactorOrderingES7_NS2_6BufferES8_S8_S8_S8_S8_E_clES3_S6_S7_S7_S8_S8_S8_S8_S8_S8_ENKUlNS_4ExprESA_E_clESA_SA_EUlSA_E_, 
                       __ZTIZZZN2gc3est28ImplicitSchurBackSubstitute110kernelFuncERKNSt3__16vectorINS0_13ArgumentGroupENS2_9allocatorIS4_EEEERKNS2_3mapINS2_12basic_stringIcNS2_11char_traitsIcEENS5_IcEEEEjNS2_4lessISF_EENS5_INS2_4pairIKSF_jEEEEEEENKUlNS_4lang4TileERNSP_3est11JacobianSetENSP_5ArrayINSR_14FactorOrderingEEENSU_INSP_6BufferEEESY_SX_E_clESQ_ST_SW_SY_SY_SX_ENKUlvE_clEvEUlNS_4ExprEE_, 
                       __ZTIZZZN2gc3est30ApplyAdditiveLMDampingExplicit10kernelFuncEvENKUlNS_4lang4TileENS2_6ScalarERNS2_3est11BlockMatrixEE_clES3_S4_S7_ENKUlNS_4ExprENS2_6MatrixEE_clES9_SA_EUlvE_, 
                       __ZTIZZZN2gc3est36ApplyMultiplicativeLMDampingExplicit10kernelFuncEvENKUlNS_4lang4TileENS2_6ScalarERNS2_3est11BlockMatrixEE_clES3_S4_S7_ENKUlNS_4ExprENS2_6MatrixEE_clES9_SA_EUlvE_, 
                       __ZTIZZZN2gc3ops10SSIMOpGrad6kernelEvENKUlNS_4lang4TileENS2_6BufferES4_S4_NS2_6VectorES4_S4_E_clES3_S4_S4_S4_S5_S4_S4_ENKUlT_E0_clINS_4ExprEEEDaS7_EUlS7_E_, 
                       __ZTIZZZN2gc3ops10SSIMOpGrad6kernelEvENKUlNS_4lang4TileENS2_6BufferES4_S4_NS2_6VectorES4_S4_E_clES3_S4_S4_S4_S5_S4_S4_ENKUlT_E_clINS_4ExprEEEDaS7_EUlS7_E_, 
                       __ZTIZZZN2gc3ops20SSIMOpPreprocessGrad6kernelEvENKUlNS_4lang4TileENS2_6BufferES4_NS2_6VectorES4_E_clES3_S4_S4_S5_S4_ENKUlT_E0_clINS_4ExprEEEDaS7_EUlS7_E_, 
                       __ZTIZZZN2gc3ops20SSIMOpPreprocessGrad6kernelEvENKUlNS_4lang4TileENS2_6BufferES4_NS2_6VectorES4_E_clES3_S4_S4_S5_S4_ENKUlT_E1_clINS_4ExprEEEDaS7_EUlS7_E_, 
                       __ZTIZZZN2gc3ops20SSIMOpPreprocessGrad6kernelEvENKUlNS_4lang4TileENS2_6BufferES4_NS2_6VectorES4_E_clES3_S4_S4_S5_S4_ENKUlT_E_clINS_4ExprEEEDaS7_EUlS7_E_, 
                       __ZTIZZZN2gc3ops6SSIMOp6kernelEvENKUlNS_4lang4TileENS2_6BufferES4_NS2_6VectorES4_E_clES3_S4_S4_S5_S4_ENKUlT_E0_clINS_4ExprEEEDaS7_EUlS7_E_, 
                       __ZTIZZZN2gc3ops6SSIMOp6kernelEvENKUlNS_4lang4TileENS2_6BufferES4_NS2_6VectorES4_E_clES3_S4_S4_S5_S4_ENKUlT_E1_clINS_4ExprEEEDaS7_EUlS7_E_, 
                       __ZTIZZZN2gc3ops6SSIMOp6kernelEvENKUlNS_4lang4TileENS2_6BufferES4_NS2_6VectorES4_E_clES3_S4_S4_S5_S4_ENKUlT_E_clINS_4ExprEEEDaS7_EUlS7_E_, 
                       __ZTIZZZZN2gc3est10EvaluateHp10kernelFuncEvENKUlNS_4lang4TileERNS2_3est11BlockMatrixENS2_6BufferES7_S7_RS7_E_clES3_S6_S7_S7_S7_S8_ENKUlvE_clEvENKUlNS_4ExprENS2_6MatrixEE_clESB_SC_EUlvE_, 
                       __ZTIZZZZN2gc3est11EvaluateJtJ21kernelFuncOffDiagonalEvENKUlNS_4lang4TileENS2_3est13BlockOrderingENS2_5ArrayINS4_14FactorOrderingEEERNS4_11JacobianSetERNS4_11BlockMatrixEE_clES3_S5_S8_SA_SC_ENKUlNS_4ExprEE_clESE_ENKUlSE_E_clESE_EUlvE_, 
                       __ZTIZZZZN2gc3est14ExtractDiagJtJ10kernelFuncEvENKUlNS_4lang4TileERNS2_3est11BlockMatrixENS2_6BufferES7_S7_E_clES3_S6_S7_S7_S7_ENKUlNS_4ExprENS2_6MatrixEE_clES9_SA_ENKUlvE_clEvEUlvE_, 
                       __ZTIZZZZN2gc3est14SchurLinearize16factorKernelFuncERKNSt3__16vectorINS0_13ArgumentGroupENS2_9allocatorIS4_EEEERKNS2_3mapINS2_12basic_stringIcNS2_11char_traitsIcEENS5_IcEEEEjNS2_4lessISF_EENS5_INS2_4pairIKSF_jEEEEEEbENKUlNS_4lang4TileENSP_6BufferENSP_3est6FactorERNSS_11JacobianSetENSP_5ArrayISR_EENSW_INSS_14FactorOrderingEEERNSS_16BlockMatrixArrayESX_E_clESQ_SR_ST_SV_SX_SZ_S11_SX_ENKUlvE_clEvENKUlNS_4ExprEE_clES14_EUlvE_, 
                       __ZTIZZZZN2gc3est14SchurLinearize28eliminatedVariableKernelFuncERKNSt3__16vectorINS0_13ArgumentGroupENS2_9allocatorIS4_EEEERKNS2_3mapINS2_12basic_stringIcNS2_11char_traitsIcEENS5_IcEEEEjNS2_4lessISF_EENS5_INS2_4pairIKSF_jEEEEEEbENKUlNS_4lang4TileENSP_6BufferERNSP_3est8JacobianENSS_6FactorERNSS_11JacobianSetERNSS_14FactorOrderingENSP_5ArrayISR_EENS10_ISY_EERNSS_16BlockMatrixArrayENSS_22SchurEliminatedHessianES11_SR_SR_E_clESQ_SR_SU_SV_SX_SZ_S11_S12_S14_S15_S11_SR_SR_ENKUlNS_4ExprEE_clES17_ENKUlS17_E_clES17_EUlvE_, 
                       __ZTIZZZZN2gc3est17SchurOuterProduct27schurOuterProductKernelFuncERKNSt3__16vectorINS0_13ArgumentGroupENS2_9allocatorIS4_EEEERKNS2_3mapINS2_12basic_stringIcNS2_11char_traitsIcEENS5_IcEEEEjNS2_4lessISF_EENS5_INS2_4pairIKSF_jEEEEEEbENKUlNS_4lang4TileENSP_3est6FactorERNSR_14FactorOrderingENSP_5ArrayINSP_6BufferEEERNSR_16BlockMatrixArrayENSR_22SchurEliminatedHessianESX_SW_SW_E_clESQ_SS_SU_SX_SZ_S10_SX_SW_SW_ENKUlNS_4ExprEE_clES12_ENKUlvE_clEvEUlS12_E_, 
                       __ZTIZZZZN2gc3est18ImplicitSchurJtJp218kernelFuncVariadicEjENKUlNS_4lang4TileERNS2_3est8JacobianENS4_14FactorOrderingENS2_6BufferES8_S8_S8_E_clES3_S6_S7_S8_S8_S8_S8_ENKUlNS_4ExprEE_clESA_ENKUlvE_clEvEUlvE_, 
                       __ZTIZZZZN2gc3est20MaterializeJacobians10kernelFuncERKNS0_16ArgumentGroupingERKNSt3__16vectorINS0_13eJacobianTypeENS5_9allocatorIS7_EEEEENKUlNS_4lang4TileENSD_3est6FactorENSD_6BufferESH_SH_NSD_5ArrayINSF_14FactorOrderingEEENSF_11VariableSetENSI_ISH_EESM_NSD_17BindableTypeArrayEE_clESE_SG_SH_SH_SH_SK_SL_SM_SM_SN_ENKUlvE0_clEvENKUlNS_4ExprEE_clESQ_EUlvE_, 
                       __ZTIZZZZN2gc3est20MaterializeJacobians10kernelFuncERKNS0_16ArgumentGroupingERKNSt3__16vectorINS0_13eJacobianTypeENS5_9allocatorIS7_EEEEENKUlNS_4lang4TileENSD_3est6FactorENSD_6BufferESH_SH_NSD_5ArrayINSF_14FactorOrderingEEENSF_11VariableSetENSI_ISH_EESM_NSD_17BindableTypeArrayEE_clESE_SG_SH_SH_SH_SK_SL_SM_SM_SN_ENKUlvE_clEvENKUlNS_4ExprEE_clESQ_EUlvE_, 
                       __ZTIZZZZN2gc3est24ImplicitSchurInitialize310kernelFuncEvENKUlNS_4lang4TileERNS2_3est8JacobianENS4_14FactorOrderingES7_NS2_6BufferES8_S8_S8_S8_S8_E_clES3_S6_S7_S7_S8_S8_S8_S8_S8_S8_ENKUlNS_4ExprESA_E_clESA_SA_ENKUlSA_E_clESA_EUlvE0_, 
                       __ZTIZZZZN2gc3est24ImplicitSchurInitialize310kernelFuncEvENKUlNS_4lang4TileERNS2_3est8JacobianENS4_14FactorOrderingES7_NS2_6BufferES8_S8_S8_S8_S8_E_clES3_S6_S7_S7_S8_S8_S8_S8_S8_S8_ENKUlNS_4ExprESA_E_clESA_SA_ENKUlSA_E_clESA_EUlvE_, 
                       __ZTIZZZZN2gc3est30ApplyAdditiveLMDampingExplicit10kernelFuncEvENKUlNS_4lang4TileENS2_6ScalarERNS2_3est11BlockMatrixEE_clES3_S4_S7_ENKUlNS_4ExprENS2_6MatrixEE_clES9_SA_ENKUlvE_clEvEUlT_E_, 
                       __ZTIZZZZN2gc3est36ApplyMultiplicativeLMDampingExplicit10kernelFuncEvENKUlNS_4lang4TileENS2_6ScalarERNS2_3est11BlockMatrixEE_clES3_S4_S7_ENKUlNS_4ExprENS2_6MatrixEE_clES9_SA_ENKUlvE_clEvEUlT_E_, 
                       __ZTIZZZZN2gc3ops10SSIMOpGrad6kernelEvENKUlNS_4lang4TileENS2_6BufferES4_S4_NS2_6VectorES4_S4_E_clES3_S4_S4_S4_S5_S4_S4_ENKUlT_E_clINS_4ExprEEEDaS7_ENKUlS7_E_clISA_EESB_S7_EUlvE_, 
                       __ZTIZZZZN2gc3ops20SSIMOpPreprocessGrad6kernelEvENKUlNS_4lang4TileENS2_6BufferES4_NS2_6VectorES4_E_clES3_S4_S4_S5_S4_ENKUlT_E_clINS_4ExprEEEDaS7_ENKUlS7_E_clISA_EESB_S7_EUlvE_, 
                       __ZTIZZZZN2gc3ops6SSIMOp6kernelEvENKUlNS_4lang4TileENS2_6BufferES4_NS2_6VectorES4_E_clES3_S4_S4_S5_S4_ENKUlT_E_clINS_4ExprEEEDaS7_ENKUlS7_E_clISA_EESB_S7_EUlvE_, 
                       __ZTIZZZZZN2gc3est11EvaluateJtJ21kernelFuncOffDiagonalEvENKUlNS_4lang4TileENS2_3est13BlockOrderingENS2_5ArrayINS4_14FactorOrderingEEERNS4_11JacobianSetERNS4_11BlockMatrixEE_clES3_S5_S8_SA_SC_ENKUlNS_4ExprEE_clESE_ENKUlSE_E_clESE_ENKUlvE_clEvEUlSE_E_, 
                       __ZTIZZZZZN2gc3est14SchurLinearize16factorKernelFuncERKNSt3__16vectorINS0_13ArgumentGroupENS2_9allocatorIS4_EEEERKNS2_3mapINS2_12basic_stringIcNS2_11char_traitsIcEENS5_IcEEEEjNS2_4lessISF_EENS5_INS2_4pairIKSF_jEEEEEEbENKUlNS_4lang4TileENSP_6BufferENSP_3est6FactorERNSS_11JacobianSetENSP_5ArrayISR_EENSW_INSS_14FactorOrderingEEERNSS_16BlockMatrixArrayESX_E_clESQ_SR_ST_SV_SX_SZ_S11_SX_ENKUlvE_clEvENKUlNS_4ExprEE_clES14_ENKUlvE_clEvEUlS14_E_, 
                       __ZTIZZZZZN2gc3est14SchurLinearize28eliminatedVariableKernelFuncERKNSt3__16vectorINS0_13ArgumentGroupENS2_9allocatorIS4_EEEERKNS2_3mapINS2_12basic_stringIcNS2_11char_traitsIcEENS5_IcEEEEjNS2_4lessISF_EENS5_INS2_4pairIKSF_jEEEEEEbENKUlNS_4lang4TileENSP_6BufferERNSP_3est8JacobianENSS_6FactorERNSS_11JacobianSetERNSS_14FactorOrderingENSP_5ArrayISR_EENS10_ISY_EERNSS_16BlockMatrixArrayENSS_22SchurEliminatedHessianES11_SR_SR_E_clESQ_SR_SU_SV_SX_SZ_S11_S12_S14_S15_S11_SR_SR_ENKUlNS_4ExprEE_clES17_ENKUlS17_E_clES17_ENKUlvE_clEvEUlvE_, 
                       __ZTIZZZZZN2gc3est17SchurOuterProduct27schurOuterProductKernelFuncERKNSt3__16vectorINS0_13ArgumentGroupENS2_9allocatorIS4_EEEERKNS2_3mapINS2_12basic_stringIcNS2_11char_traitsIcEENS5_IcEEEEjNS2_4lessISF_EENS5_INS2_4pairIKSF_jEEEEEEbENKUlNS_4lang4TileENSP_3est6FactorERNSR_14FactorOrderingENSP_5ArrayINSP_6BufferEEERNSR_16BlockMatrixArrayENSR_22SchurEliminatedHessianESX_SW_SW_E_clESQ_SS_SU_SX_SZ_S10_SX_SW_SW_ENKUlNS_4ExprEE_clES12_ENKUlvE_clEvENKUlS12_E_clES12_EUlvE_, 
                       __ZTIZZZZZN2gc3est22EvaluateJtJFactorLevel10kernelFuncERKNSt3__16vectorIjNS2_9allocatorIjEEEEENKUlNS_4lang4TileENS9_5ArrayINS9_3est13BlockOrderingEEENSB_INSC_14FactorOrderingEEERNSC_11JacobianSetERNSC_16BlockMatrixArrayEE_clESA_SE_SG_SI_SK_ENKUlvE_clEvENKUlNS_5TupleENS_4ExprEE_clESN_SO_ENKUlSO_E_clESO_EUlSO_E_, 
                       __ZTIZZZZZZN2gc3est11EvaluateJtJ21kernelFuncOffDiagonalEvENKUlNS_4lang4TileENS2_3est13BlockOrderingENS2_5ArrayINS4_14FactorOrderingEEERNS4_11JacobianSetERNS4_11BlockMatrixEE_clES3_S5_S8_SA_SC_ENKUlNS_4ExprEE_clESE_ENKUlSE_E_clESE_ENKUlvE_clEvENKUlSE_E_clESE_EUlvE_, 
                       __ZTIZZZZZZN2gc3est14SchurLinearize16factorKernelFuncERKNSt3__16vectorINS0_13ArgumentGroupENS2_9allocatorIS4_EEEERKNS2_3mapINS2_12basic_stringIcNS2_11char_traitsIcEENS5_IcEEEEjNS2_4lessISF_EENS5_INS2_4pairIKSF_jEEEEEEbENKUlNS_4lang4TileENSP_6BufferENSP_3est6FactorERNSS_11JacobianSetENSP_5ArrayISR_EENSW_INSS_14FactorOrderingEEERNSS_16BlockMatrixArrayESX_E_clESQ_SR_ST_SV_SX_SZ_S11_SX_ENKUlvE_clEvENKUlNS_4ExprEE_clES14_ENKUlvE_clEvENKUlS14_E_clES14_EUlvE_, 
                       __ZTIZZZZZZN2gc3est14SchurLinearize28eliminatedVariableKernelFuncERKNSt3__16vectorINS0_13ArgumentGroupENS2_9allocatorIS4_EEEERKNS2_3mapINS2_12basic_stringIcNS2_11char_traitsIcEENS5_IcEEEEjNS2_4lessISF_EENS5_INS2_4pairIKSF_jEEEEEEbENKUlNS_4lang4TileENSP_6BufferERNSP_3est8JacobianENSS_6FactorERNSS_11JacobianSetERNSS_14FactorOrderingENSP_5ArrayISR_EENS10_ISY_EERNSS_16BlockMatrixArrayENSS_22SchurEliminatedHessianES11_SR_SR_E_clESQ_SR_SU_SV_SX_SZ_S11_S12_S14_S15_S11_SR_SR_ENKUlNS_4ExprEE_clES17_ENKUlS17_E_clES17_ENKUlvE_clEvENKUlvE_clEvEUlvE_, 
                       __ZTIZZZZZZN2gc3est17SchurOuterProduct27schurOuterProductKernelFuncERKNSt3__16vectorINS0_13ArgumentGroupENS2_9allocatorIS4_EEEERKNS2_3mapINS2_12basic_stringIcNS2_11char_traitsIcEENS5_IcEEEEjNS2_4lessISF_EENS5_INS2_4pairIKSF_jEEEEEEbENKUlNS_4lang4TileENSP_3est6FactorERNSR_14FactorOrderingENSP_5ArrayINSP_6BufferEEERNSR_16BlockMatrixArrayENSR_22SchurEliminatedHessianESX_SW_SW_E_clESQ_SS_SU_SX_SZ_S10_SX_SW_SW_ENKUlNS_4ExprEE_clES12_ENKUlvE_clEvENKUlS12_E_clES12_ENKUlvE_clEvEUlvE_, 
                       __ZTIZZZZZZN2gc3est22EvaluateJtJFactorLevel10kernelFuncERKNSt3__16vectorIjNS2_9allocatorIjEEEEENKUlNS_4lang4TileENS9_5ArrayINS9_3est13BlockOrderingEEENSB_INSC_14FactorOrderingEEERNSC_11JacobianSetERNSC_16BlockMatrixArrayEE_clESA_SE_SG_SI_SK_ENKUlvE_clEvENKUlNS_5TupleENS_4ExprEE_clESN_SO_ENKUlSO_E_clESO_ENKUlSO_E_clESO_EUlSO_E_, 
                       __ZTIZZZZZZZN2gc3est14SchurLinearize28eliminatedVariableKernelFuncERKNSt3__16vectorINS0_13ArgumentGroupENS2_9allocatorIS4_EEEERKNS2_3mapINS2_12basic_stringIcNS2_11char_traitsIcEENS5_IcEEEEjNS2_4lessISF_EENS5_INS2_4pairIKSF_jEEEEEEbENKUlNS_4lang4TileENSP_6BufferERNSP_3est8JacobianENSS_6FactorERNSS_11JacobianSetERNSS_14FactorOrderingENSP_5ArrayISR_EENS10_ISY_EERNSS_16BlockMatrixArrayENSS_22SchurEliminatedHessianES11_SR_SR_E_clESQ_SR_SU_SV_SX_SZ_S11_S12_S14_S15_S11_SR_SR_ENKUlNS_4ExprEE_clES17_ENKUlS17_E_clES17_ENKUlvE_clEvENKUlvE_clEvENKUlvE_clEvEUlS17_E_, 
                       __ZTSFN2gc4ExprES0_E, __ZTSFN2gc4ExprES0_S0_E, __ZTSFN2gc4StmtERKNS_6TargetES0_E, 
                       __ZTSFN2gc4lang2ad15BackpropFunctorENS0_6TensorES3_S3_E, __ZTSFdddE, 
                       __ZTSN2gc11TypedIRStmtILNS_9eStmtTypeE0EEE, __ZTSN2gc11TypedKernelINS_4lang4TileEJNS1_3est13BlockOrderingENS1_5ArrayINS3_14FactorOrderingEEERNS3_11JacobianSetERNS3_11BlockMatrixEEEE, 
                       __ZTSN2gc11TypedKernelINS_4lang4TileEJNS1_3est13BlockOrderingENS3_14FactorOrderingERNS3_8JacobianERNS3_11BlockMatrixEEEE, 
                       __ZTSN2gc11TypedKernelINS_4lang4TileEJNS1_3est14FactorOrderingERNS3_8JacobianENS1_6BufferES7_EEE, 
                       __ZTSN2gc11TypedKernelINS_4lang4TileEJNS1_3est6FactorENS1_6BufferES5_S5_NS1_5ArrayINS3_14FactorOrderingEEENS3_11VariableSetENS6_IS5_EESA_NS1_17BindableTypeArrayEEEE, 
                       __ZTSN2gc11TypedKernelINS_4lang4TileEJNS1_3est6FactorENS3_11VariableSetENS1_6BufferES6_NS1_17BindableTypeArrayEEEE, 
                       __ZTSN2gc11TypedKernelINS_4lang4TileEJNS1_3est6FactorENS3_11VariableSetENS1_6BufferES6_S6_NS1_17BindableTypeArrayEEEE, 
                       __ZTSN2gc11TypedKernelINS_4lang4TileEJNS1_3est6FactorERNS3_14FactorOrderingENS1_5ArrayINS1_6BufferEEERNS3_16BlockMatrixArrayENS3_22SchurEliminatedHessianES9_S8_S8_EEE, 
                       __ZTSN2gc11TypedKernelINS_4lang4TileEJNS1_3est8VariableEEEE, 
                       __ZTSN2gc11TypedKernelINS_4lang4TileEJNS1_3est8VariableENS1_6ScalarEEEE, 
                       __ZTSN2gc11TypedKernelINS_4lang4TileEJNS1_5ArrayINS1_3est13BlockOrderingEEENS3_INS4_14FactorOrderingEEERNS4_11JacobianSetERNS4_16BlockMatrixArrayEEEE, 
                       __ZTSN2gc11TypedKernelINS_4lang4TileEJNS1_5ArrayINS1_6BufferEEES5_EEE, 
                       __ZTSN2gc11TypedKernelINS_4lang4TileEJNS1_6BufferEEEE, __ZTSN2gc11TypedKernelINS_4lang4TileEJNS1_6BufferENS1_3est6FactorERNS4_11JacobianSetENS1_5ArrayIS3_EENS8_INS4_14FactorOrderingEEERNS4_16BlockMatrixArrayES9_EEE, 
                       __ZTSN2gc11TypedKernelINS_4lang4TileEJNS1_6BufferENS1_3est8VariableEEEE, 
                       __ZTSN2gc11TypedKernelINS_4lang4TileEJNS1_6BufferENS1_5ArrayINS1_3est8VariableEEEEEE, 
                       __ZTSN2gc11TypedKernelINS_4lang4TileEJNS1_6BufferENS1_5ArrayIS3_EES5_NS1_3est6FactorERNS6_14FactorOrderingENS6_22SchurEliminatedHessianES3_EEE, 
                       __ZTSN2gc11TypedKernelINS_4lang4TileEJNS1_6BufferENS1_6ScalarES3_EEE, 
                       __ZTSN2gc11TypedKernelINS_4lang4TileEJNS1_6BufferENS1_6ScalarES3_S3_EEE, 
                       __ZTSN2gc11TypedKernelINS_4lang4TileEJNS1_6BufferERNS1_3est8JacobianENS4_14FactorOrderingENS1_6ScalarES3_S3_EEE, 
                       __ZTSN2gc11TypedKernelINS_4lang4TileEJNS1_6BufferERNS1_3est8JacobianENS4_14FactorOrderingES3_S3_S3_S3_S3_EEE, 
                       __ZTSN2gc11TypedKernelINS_4lang4TileEJNS1_6BufferERNS1_3est8JacobianENS4_6FactorERNS4_11JacobianSetERNS4_14FactorOrderingENS1_5ArrayIS3_EENSC_ISA_EERNS4_16BlockMatrixArrayENS4_22SchurEliminatedHessianESD_S3_S3_EEE, 
                       __ZTSN2gc11TypedKernelINS_4lang4TileEJNS1_6BufferERNS1_3est8JacobianES3_S3_EEE, 
                       __ZTSN2gc11TypedKernelINS_4lang4TileEJNS1_6BufferES3_EEE, 
                       __ZTSN2gc11TypedKernelINS_4lang4TileEJNS1_6BufferES3_NS1_5ArrayINS1_3est8VariableEEEEEE, 
                       __ZTSN2gc11TypedKernelINS_4lang4TileEJNS1_6BufferES3_NS1_6ScalarES4_S4_S4_S4_S3_S3_EEE, 
                       __ZTSN2gc11TypedKernelINS_4lang4TileEJNS1_6BufferES3_NS1_6VectorES3_EEE, 
                       __ZTSN2gc11TypedKernelINS_4lang4TileEJNS1_6BufferES3_RNS1_3est8JacobianES3_S3_EEE, 
                       __ZTSN2gc11TypedKernelINS_4lang4TileEJNS1_6BufferES3_S3_EEE, 
                       __ZTSN2gc11TypedKernelINS_4lang4TileEJNS1_6BufferES3_S3_NS1_6ScalarEEEE, 
                       __ZTSN2gc11TypedKernelINS_4lang4TileEJNS1_6BufferES3_S3_NS1_6VectorES3_S3_EEE, 
                       __ZTSN2gc11TypedKernelINS_4lang4TileEJNS1_6BufferES3_S3_S3_EEE, 
                       __ZTSN2gc11TypedKernelINS_4lang4TileEJNS1_6BufferES3_S3_S3_S3_NS1_6ScalarEEEE, 
                       __ZTSN2gc11TypedKernelINS_4lang4TileEJNS1_6BufferES3_S3_S3_S3_S3_S3_EEE, 
                       __ZTSN2gc11TypedKernelINS_4lang4TileEJNS1_6ScalarENS1_6BufferES4_EEE, 
                       __ZTSN2gc11TypedKernelINS_4lang4TileEJNS1_6ScalarERNS1_3est11BlockMatrixEEEE, 
                       __ZTSN2gc11TypedKernelINS_4lang4TileEJRNS1_3est11BlockMatrixEEEE, 
                       __ZTSN2gc11TypedKernelINS_4lang4TileEJRNS1_3est11BlockMatrixENS1_6BufferES6_EEE, 
                       __ZTSN2gc11TypedKernelINS_4lang4TileEJRNS1_3est11BlockMatrixENS1_6BufferES6_S6_EEE, 
                       __ZTSN2gc11TypedKernelINS_4lang4TileEJRNS1_3est11BlockMatrixENS1_6BufferES6_S6_RS6_EEE, 
                       __ZTSN2gc11TypedKernelINS_4lang4TileEJRNS1_3est11JacobianSetENS1_5ArrayINS3_14FactorOrderingEEENS6_INS1_6BufferEEESA_S9_EEE, 
                       __ZTSN2gc11TypedKernelINS_4lang4TileEJRNS1_3est14FactorOrderingENS1_6BufferERNS3_8JacobianES6_S6_EEE, 
                       __ZTSN2gc11TypedKernelINS_4lang4TileEJRNS1_3est14FactorOrderingERNS3_8JacobianENS1_6BufferERS8_EEE, 
                       __ZTSN2gc11TypedKernelINS_4lang4TileEJRNS1_3est14FactorOrderingERNS3_8JacobianENS1_6BufferES8_EEE, 
                       __ZTSN2gc11TypedKernelINS_4lang4TileEJRNS1_3est14FactorOrderingERNS3_8JacobianENS1_6BufferES8_S8_EEE, 
                       __ZTSN2gc11TypedKernelINS_4lang4TileEJRNS1_3est14FactorOrderingERNS3_8JacobianENS1_6BufferES8_S8_S8_EEE, 
                       __ZTSN2gc11TypedKernelINS_4lang4TileEJRNS1_3est8JacobianENS1_6BufferES6_S6_RS6_EEE, 
                       __ZTSN2gc11TypedKernelINS_4lang4TileEJRNS1_3est8JacobianENS1_6BufferES6_S6_S6_S6_EEE, 
                       __ZTSN2gc11TypedKernelINS_4lang4TileEJRNS1_3est8JacobianENS3_14FactorOrderingENS1_6BufferES7_EEE, 
                       __ZTSN2gc11TypedKernelINS_4lang4TileEJRNS1_3est8JacobianENS3_14FactorOrderingENS1_6BufferES7_S7_EEE, 
                       __ZTSN2gc11TypedKernelINS_4lang4TileEJRNS1_3est8JacobianENS3_14FactorOrderingENS1_6BufferES7_S7_S7_EEE, 
                       __ZTSN2gc11TypedKernelINS_4lang4TileEJRNS1_3est8JacobianENS3_14FactorOrderingES6_NS1_6BufferES7_S7_S7_S7_S7_EEE, 
                       __ZTSN2gc11TypedKernelINS_4lang4TileEJRNS1_6ScalarENS1_6BufferEEEE, 
                       __ZTSN2gc11smallmatrix15MultiplyVariantE, __ZTSN2gc11smallmatrix16TransposeVariantE, 
                       __ZTSN2gc12BindableTypeE, __ZTSN2gc13AutoSchedulerE, __ZTSN2gc13BufferDeleterE, 
                       __ZTSN2gc14BufferRegistryE, __ZTSN2gc16BindableArgumentINS_4lang17BindableTypeArrayEEE, 
                       __ZTSN2gc16BindableArgumentINS_4lang3est11BlockMatrixEEE, 
                       __ZTSN2gc16BindableArgumentINS_4lang3est11JacobianSetEEE, 
                       __ZTSN2gc16BindableArgumentINS_4lang3est11VariableSetEEE, 
                       __ZTSN2gc16BindableArgumentINS_4lang3est12CostFunctionEEE, 
                       __ZTSN2gc16BindableArgumentINS_4lang3est13BlockOrderingEEE, 
                       __ZTSN2gc16BindableArgumentINS_4lang3est14FactorOrderingEEE, 
                       __ZTSN2gc16BindableArgumentINS_4lang3est16BlockMatrixArrayEEE, 
                       __ZTSN2gc16BindableArgumentINS_4lang3est22SchurEliminatedHessianEEE, 
                       __ZTSN2gc16BindableArgumentINS_4lang3est6FactorEEE, __ZTSN2gc16BindableArgumentINS_4lang3est8JacobianEEE, 
                       __ZTSN2gc16BindableArgumentINS_4lang3est8VariableEEE, __ZTSN2gc16BindableArgumentINS_4lang5ArrayINS1_3est13BlockOrderingEEEEE, 
                       __ZTSN2gc16BindableArgumentINS_4lang5ArrayINS1_3est14FactorOrderingEEEEE, 
                       __ZTSN2gc16BindableArgumentINS_4lang5ArrayINS1_3est8VariableEEEEE, 
                       __ZTSN2gc16BindableArgumentINS_4lang5ArrayINS1_6BufferEEEEE, 
                       __ZTSN2gc16BindableArgumentINS_4lang6BufferEEE, __ZTSN2gc16BindableArgumentINS_4lang6ScalarEEE, 
                       __ZTSN2gc16BindableArgumentINS_4lang6VectorEEE, __ZTSN2gc16FunctionArgumentINS_4lang17BindableTypeArrayES2_EE, 
                       __ZTSN2gc16FunctionArgumentINS_4lang3est11VariableSetES3_EE, 
                       __ZTSN2gc16FunctionArgumentINS_4lang3est13BlockOrderingES3_EE, 
                       __ZTSN2gc16FunctionArgumentINS_4lang3est14FactorOrderingES3_EE, 
                       __ZTSN2gc16FunctionArgumentINS_4lang3est22SchurEliminatedHessianES3_EE, 
                       __ZTSN2gc16FunctionArgumentINS_4lang3est6FactorES3_EE, __ZTSN2gc16FunctionArgumentINS_4lang3est8VariableES3_EE, 
                       __ZTSN2gc16FunctionArgumentINS_4lang5ArrayINS1_3est13BlockOrderingEEES5_EE, 
                       __ZTSN2gc16FunctionArgumentINS_4lang5ArrayINS1_3est14FactorOrderingEEES5_EE, 
                       __ZTSN2gc16FunctionArgumentINS_4lang5ArrayINS1_3est8VariableEEES5_EE, 
                       __ZTSN2gc16FunctionArgumentINS_4lang5ArrayINS1_6BufferEEES4_EE, 
                       __ZTSN2gc16FunctionArgumentINS_4lang6BufferES2_EE, __ZTSN2gc16FunctionArgumentINS_4lang6ScalarES2_EE, 
                       __ZTSN2gc16FunctionArgumentINS_4lang6VectorES2_EE, __ZTSN2gc16FunctionArgumentIRNS_4lang3est11BlockMatrixES3_EE, 
                       __ZTSN2gc16FunctionArgumentIRNS_4lang3est11JacobianSetES3_EE, 
                       __ZTSN2gc16FunctionArgumentIRNS_4lang3est14FactorOrderingES3_EE, 
                       __ZTSN2gc16FunctionArgumentIRNS_4lang3est16BlockMatrixArrayES3_EE, 
                       __ZTSN2gc16FunctionArgumentIRNS_4lang3est8JacobianES3_EE, 
                       __ZTSN2gc16FunctionArgumentIRNS_4lang6BufferES2_EE, __ZTSN2gc16FunctionArgumentIRNS_4lang6ScalarES2_EE, 
                       __ZTSN2gc16TemplateFunctionE, __ZTSN2gc17TypedNoTileKernelIJEEE, 
                       __ZTSN2gc17TypedNoTileKernelIJNS_4lang6BufferENS1_6ScalarEEEE, 
                       __ZTSN2gc17TypedNoTileKernelIJNS_4lang6BufferENS1_6VectorEEEE, 
                       __ZTSN2gc17TypedNoTileKernelIJNS_4lang6BufferES2_EEE, __ZTSN2gc17TypedNoTileKernelIJNS_4lang6BufferES2_S2_EEE, 
                       __ZTSN2gc19SchedulingDirectiveE, __ZTSN2gc21BindableArgumentInputE, 
                       __ZTSN2gc22BindableArgumentOutputE, __ZTSN2gc22OpaqueBindableArgumentE, 
                       __ZTSN2gc3est10NoiseModelE, __ZTSN2gc3est10TripletSetE, __ZTSN2gc3est11BlockMatrixE, 
                       __ZTSN2gc3est11VariableMapE, __ZTSN2gc3est11VariableSetE, 
                       __ZTSN2gc3est12CostFunctionE, __ZTSN2gc3est12LossFunctionE, 
                       __ZTSN2gc3est13FactorBuffersE, __ZTSN2gc3est13ModelFunctionE, 
                       __ZTSN2gc3est13TypedBoxMinusINS_4lang6VectorENS2_3SE3EEE, 
                       __ZTSN2gc3est13TypedBoxMinusINS_4lang6VectorENS2_3SO3EEE, 
                       __ZTSN2gc3est14FactorOrderingE, __ZTSN2gc3est14InformationMapE, 
                       __ZTSN2gc3est14PreconditionerE, __ZTSN2gc3est15TypedTripletSetIdEE, 
                       __ZTSN2gc3est15TypedTripletSetIfEE, __ZTSN2gc3est18LevenbergMarquardtINS0_33ExplicitHessianLinearizationPointEEE, 
                       __ZTSN2gc3est18LevenbergMarquardtINS0_33ImplicitHessianLinearizationPointEEE, 
                       __ZTSN2gc3est18TypedModelFunctionINS_4lang3SE3EJRKS3_EEE, 
                       __ZTSN2gc3est18TypedModelFunctionINS_4lang3SO3EJRKS3_EEE, 
                       __ZTSN2gc3est18TypedModelFunctionINS_4lang6ScalarEJRKS3_EEE, 
                       __ZTSN2gc3est18TypedModelFunctionINS_4lang6VectorEJRKS3_EEE, 
                       __ZTSN2gc3est19DenseLDLTSolverDataE, __ZTSN2gc3est19TrustRegionStrategyE, 
                       __ZTSN2gc3est20MaterializeJacobiansE, __ZTSN2gc3est20SparseLDLTSolverDataE, 
                       __ZTSN2gc3est21StandardGaussianNoiseE, __ZTSN2gc3est22SchurEliminatedHessianE, 
                       __ZTSN2gc3est24LeastSquaresLossFunctionE, __ZTSN2gc3est24TypedDenseLDLTSolverDataIdEE, 
                       __ZTSN2gc3est24TypedDenseLDLTSolverDataIfEE, __ZTSN2gc3est24TypedTrustRegionStrategyINS0_33ExplicitHessianLinearizationPointEEE, 
                       __ZTSN2gc3est24TypedTrustRegionStrategyINS0_33ImplicitHessianLinearizationPointEEE, 
                       __ZTSN2gc3est25TypedJacobiPreconditionerINS0_33ExplicitHessianLinearizationPointEEE, 
                       __ZTSN2gc3est25TypedJacobiPreconditionerINS0_33ImplicitHessianLinearizationPointEEE, 
                       __ZTSN2gc3est25TypedSparseLDLTSolverDataIdEE, __ZTSN2gc3est25TypedSparseLDLTSolverDataIfEE, 
                       __ZTSN2gc3est29TypedLeastSquaresLossFunctionIJNS_4lang6ScalarEEEE, 
                       __ZTSN2gc3est2io25BindableArgumentJSONInputE, __ZTSN2gc3est2io26BindableArgumentJSONOutputE, 
                       __ZTSN2gc3est8BoxMinusE, __ZTSN2gc3est9BufferMapE, __ZTSN2gc3est9MinimizerE, 
                       __ZTSN2gc3ops10BinaryOpTTINS0_5MaxTTENS0_10AutoDiffOpEEE, 
                       __ZTSN2gc3ops10BinaryOpTTINS0_5MinTTENS0_10AutoDiffOpEEE, 
                       __ZTSN2gc3ops10BinaryOpTTINS0_8DivideTTENS0_10AutoDiffOpEEE, 
                       __ZTSN2gc3ops10SSIMOpGradE, __ZTSN2gc3ops10ScanOpGradE, __ZTSN2gc3ops11AddAssignTTE, 
                       __ZTSN2gc3ops11RangeStaticE, __ZTSN2gc3ops12CrossEntropyE, 
                       __ZTSN2gc3ops12RangeDynamicE, __ZTSN2gc3ops12ReduceOpGradE, 
                       __ZTSN2gc3ops13NonzeroOpGradE, __ZTSN2gc3ops14AssignmentOpTTINS0_11AddAssignTTEEE, 
                       __ZTSN2gc3ops16AutoDiffBackpropE, __ZTSN2gc3ops20SSIMOpPreprocessGradE, 
                       __ZTSN2gc3ops3AtGE, __ZTSN2gc3ops3GBtE, __ZTSN2gc3ops4CastE, 
                       __ZTSN2gc3ops4CopyE, __ZTSN2gc3ops4HeadE, __ZTSN2gc3ops4L1OpE, 
                       __ZTSN2gc3ops4L2OpE, __ZTSN2gc3ops4TailE, __ZTSN2gc3ops5LayerE, 
                       __ZTSN2gc3ops5MaxTTE, __ZTSN2gc3ops5MinTTE, __ZTSN2gc3ops5ModelE, 
                       __ZTSN2gc3ops6DiffOpE, __ZTSN2gc3ops6ModuleE, __ZTSN2gc3ops6OpBaseE, 
                       __ZTSN2gc3ops6ResizeE, __ZTSN2gc3ops6SSIMOpE, __ZTSN2gc3ops6detail10TensorFillE, 
                       __ZTSN2gc3ops6detail10TensorSizeE, __ZTSN2gc3ops6detail13TensorExtentsE, 
                       __ZTSN2gc3ops6detail22FunctionReturnTypeImplE, __ZTSN2gc3ops6detail27TypedFunctionReturnTypeImplILm1EEE, 
                       __ZTSN2gc3ops8DivideTTE, __ZTSN2gc3ops9OptimizerE, __ZTSN2gc4lang12StringStreamE, 
                       __ZTSN2gc4lang13VariableArrayE, __ZTSN2gc4lang17BindableTypeArrayE, 
                       __ZTSN2gc4lang2ad10RangeSliceE, __ZTSN2gc4lang2ad11TrivialViewE, 
                       __ZTSN2gc4lang2ad15ViewCompositionE, __ZTSN2gc4lang2ad4ViewE, 
                       __ZTSN2gc4lang2ad5SliceE, __ZTSN2gc4lang3SE3E, __ZTSN2gc4lang3SO3E, 
                       __ZTSN2gc4lang3est11BlockMatrixE, __ZTSN2gc4lang3est11JacobianSet16JacobianInstanceE, 
                       __ZTSN2gc4lang3est11JacobianSet28MaterializedJacobianInstanceE, 
                       __ZTSN2gc4lang3est11JacobianSetE, __ZTSN2gc4lang3est11VariableSetE, 
                       __ZTSN2gc4lang3est12CostFunctionE, __ZTSN2gc4lang3est13BlockOrderingE, 
                       __ZTSN2gc4lang3est14FactorOrderingE, __ZTSN2gc4lang3est16BlockMatrixArrayE, 
                       __ZTSN2gc4lang3est18FactorOrderingImplE, __ZTSN2gc4lang3est20MaterializedJacobianE, 
                       __ZTSN2gc4lang3est22SchurEliminatedHessianE, __ZTSN2gc4lang3est6FactorE, 
                       __ZTSN2gc4lang3est8JacobianE, __ZTSN2gc4lang3est8VariableE, 
                       __ZTSN2gc4lang4simd19InnerProductVariantE, __ZTSN2gc4lang4simd29SIMDCachedInnerProductVariantE, 
                       __ZTSN2gc4lang5ArrayINS0_3est13BlockOrderingEEE, __ZTSN2gc4lang5ArrayINS0_3est14FactorOrderingEEE, 
                       __ZTSN2gc4lang5ArrayINS0_3est8VariableEEE, __ZTSN2gc4lang5ArrayINS0_6BufferEEE, 
                       __ZTSN2gc4lang6BufferE, __ZTSN2gc4lang6MatrixE, __ZTSN2gc4lang6ScalarE, 
                       __ZTSN2gc4lang6StringE, __ZTSN2gc4lang6TensorE, __ZTSN2gc4lang6VectorE, 
                       __ZTSN2gc4lang8BlockRefE, __ZTSN2gc4lang8LieGroupE, __ZTSN2gc4lang8VariableE, 
                       __ZTSN2gc6IRStmtE, __ZTSN2gc6KernelE, __ZTSN2gc6ObjectE, __ZTSN2gc6device16GPUOpaqueComputeE, 
                       __ZTSN2gc6device20DeviceComputeEncoderE, __ZTSN2gc6device22FunctionComputeEncoderE, 
                       __ZTSN8nlohmann16json_abi_v3_11_36detail10type_errorE, __ZTSN8nlohmann16json_abi_v3_11_36detail11parse_errorE, 
                       __ZTSN8nlohmann16json_abi_v3_11_36detail12out_of_rangeE, __ZTSN8nlohmann16json_abi_v3_11_36detail16invalid_iteratorE, 
                       __ZTSN8nlohmann16json_abi_v3_11_36detail21output_stream_adapterIcEE, 
                       __ZTSN8nlohmann16json_abi_v3_11_36detail23output_adapter_protocolIcEE, 
                       __ZTSN8nlohmann16json_abi_v3_11_36detail9exceptionE, __ZTSNSt3__110__function34__maybe_derive_from_unary_functionIFN2gc4util10TaggedBoolINS2_3est15IsEliminableTagEEERKNS5_8VariableEEEE, 
                       __ZTSNSt3__110__function34__maybe_derive_from_unary_functionIFvN2gc4ExprEEEE, 
                       __ZTSNSt3__110__function34__maybe_derive_from_unary_functionIFvN2gc4lang4TileENS3_3est13BlockOrderingENS3_5ArrayINS5_14FactorOrderingEEERNS5_11JacobianSetERNS5_11BlockMatrixEEEE, 
                       __ZTSNSt3__110__function34__maybe_derive_from_unary_functionIFvN2gc4lang4TileENS3_3est13BlockOrderingENS5_14FactorOrderingERNS5_8JacobianERNS5_11BlockMatrixEEEE, 
                       __ZTSNSt3__110__function34__maybe_derive_from_unary_functionIFvN2gc4lang4TileENS3_3est14FactorOrderingERNS5_8JacobianENS3_6BufferES9_EEE, 
                       __ZTSNSt3__110__function34__maybe_derive_from_unary_functionIFvN2gc4lang4TileENS3_3est6FactorENS3_6BufferES7_S7_NS3_5ArrayINS5_14FactorOrderingEEENS5_11VariableSetENS8_IS7_EESC_NS3_17BindableTypeArrayEEEE, 
                       __ZTSNSt3__110__function34__maybe_derive_from_unary_functionIFvN2gc4lang4TileENS3_3est6FactorENS5_11VariableSetENS3_6BufferES8_NS3_17BindableTypeArrayEEEE, 
                       __ZTSNSt3__110__function34__maybe_derive_from_unary_functionIFvN2gc4lang4TileENS3_3est6FactorENS5_11VariableSetENS3_6BufferES8_S8_NS3_17BindableTypeArrayEEEE, 
                       __ZTSNSt3__110__function34__maybe_derive_from_unary_functionIFvN2gc4lang4TileENS3_3est6FactorERNS5_14FactorOrderingENS3_5ArrayINS3_6BufferEEERNS5_16BlockMatrixArrayENS5_22SchurEliminatedHessianESB_SA_SA_EEE, 
                       __ZTSNSt3__110__function34__maybe_derive_from_unary_functionIFvN2gc4lang4TileENS3_3est8VariableEEEE, 
                       __ZTSNSt3__110__function34__maybe_derive_from_unary_functionIFvN2gc4lang4TileENS3_3est8VariableENS3_6ScalarEEEE, 
                       __ZTSNSt3__110__function34__maybe_derive_from_unary_functionIFvN2gc4lang4TileENS3_5ArrayINS3_3est13BlockOrderingEEENS5_INS6_14FactorOrderingEEERNS6_11JacobianSetERNS6_16BlockMatrixArrayEEEE, 
                       __ZTSNSt3__110__function34__maybe_derive_from_unary_functionIFvN2gc4lang4TileENS3_5ArrayINS3_6BufferEEES7_EEE, 
                       __ZTSNSt3__110__function34__maybe_derive_from_unary_functionIFvN2gc4lang4TileENS3_6BufferEEEE, 
                       __ZTSNSt3__110__function34__maybe_derive_from_unary_functionIFvN2gc4lang4TileENS3_6BufferENS3_3est6FactorERNS6_11JacobianSetENS3_5ArrayIS5_EENSA_INS6_14FactorOrderingEEERNS6_16BlockMatrixArrayESB_EEE, 
                       __ZTSNSt3__110__function34__maybe_derive_from_unary_functionIFvN2gc4lang4TileENS3_6BufferENS3_3est8VariableEEEE, 
                       __ZTSNSt3__110__function34__maybe_derive_from_unary_functionIFvN2gc4lang4TileENS3_6BufferENS3_5ArrayINS3_3est8VariableEEEEEE, 
                       __ZTSNSt3__110__function34__maybe_derive_from_unary_functionIFvN2gc4lang4TileENS3_6BufferENS3_5ArrayIS5_EES7_NS3_3est6FactorERNS8_14FactorOrderingENS8_22SchurEliminatedHessianES5_EEE, 
                       __ZTSNSt3__110__function34__maybe_derive_from_unary_functionIFvN2gc4lang4TileENS3_6BufferENS3_6ScalarES5_EEE, 
                       __ZTSNSt3__110__function34__maybe_derive_from_unary_functionIFvN2gc4lang4TileENS3_6BufferENS3_6ScalarES5_S5_EEE, 
                       __ZTSNSt3__110__function34__maybe_derive_from_unary_functionIFvN2gc4lang4TileENS3_6BufferERNS3_3est8JacobianENS6_14FactorOrderingENS3_6ScalarES5_S5_EEE, 
                       __ZTSNSt3__110__function34__maybe_derive_from_unary_functionIFvN2gc4lang4TileENS3_6BufferERNS3_3est8JacobianENS6_14FactorOrderingES5_S5_S5_S5_S5_EEE, 
                       __ZTSNSt3__110__function34__maybe_derive_from_unary_functionIFvN2gc4lang4TileENS3_6BufferERNS3_3est8JacobianENS6_6FactorERNS6_11JacobianSetERNS6_14FactorOrderingENS3_5ArrayIS5_EENSE_ISC_EERNS6_16BlockMatrixArrayENS6_22SchurEliminatedHessianESF_S5_S5_EEE, 
                       __ZTSNSt3__110__function34__maybe_derive_from_unary_functionIFvN2gc4lang4TileENS3_6BufferERNS3_3est8JacobianES5_S5_EEE, 
                       __ZTSNSt3__110__function34__maybe_derive_from_unary_functionIFvN2gc4lang4TileENS3_6BufferES5_EEE, 
                       __ZTSNSt3__110__function34__maybe_derive_from_unary_functionIFvN2gc4lang4TileENS3_6BufferES5_NS3_5ArrayINS3_3est8VariableEEEEEE, 
                       __ZTSNSt3__110__function34__maybe_derive_from_unary_functionIFvN2gc4lang4TileENS3_6BufferES5_NS3_6ScalarES6_S6_S6_S6_S5_S5_EEE, 
                       __ZTSNSt3__110__function34__maybe_derive_from_unary_functionIFvN2gc4lang4TileENS3_6BufferES5_NS3_6VectorES5_EEE, 
                       __ZTSNSt3__110__function34__maybe_derive_from_unary_functionIFvN2gc4lang4TileENS3_6BufferES5_RNS3_3est8JacobianES5_S5_EEE, 
                       __ZTSNSt3__110__function34__maybe_derive_from_unary_functionIFvN2gc4lang4TileENS3_6BufferES5_S5_EEE, 
                       __ZTSNSt3__110__function34__maybe_derive_from_unary_functionIFvN2gc4lang4TileENS3_6BufferES5_S5_NS3_6ScalarEEEE, 
                       __ZTSNSt3__110__function34__maybe_derive_from_unary_functionIFvN2gc4lang4TileENS3_6BufferES5_S5_NS3_6VectorES5_S5_EEE, 
                       __ZTSNSt3__110__function34__maybe_derive_from_unary_functionIFvN2gc4lang4TileENS3_6BufferES5_S5_S5_EEE, 
                       __ZTSNSt3__110__function34__maybe_derive_from_unary_functionIFvN2gc4lang4TileENS3_6BufferES5_S5_S5_S5_NS3_6ScalarEEEE, 
                       __ZTSNSt3__110__function34__maybe_derive_from_unary_functionIFvN2gc4lang4TileENS3_6BufferES5_S5_S5_S5_S5_S5_EEE, 
                       __ZTSNSt3__110__function34__maybe_derive_from_unary_functionIFvN2gc4lang4TileENS3_6ScalarENS3_6BufferES6_EEE, 
                       __ZTSNSt3__110__function34__maybe_derive_from_unary_functionIFvN2gc4lang4TileENS3_6ScalarERNS3_3est11BlockMatrixEEEE, 
                       __ZTSNSt3__110__function34__maybe_derive_from_unary_functionIFvN2gc4lang4TileERNS3_3est11BlockMatrixEEEE, 
                       __ZTSNSt3__110__function34__maybe_derive_from_unary_functionIFvN2gc4lang4TileERNS3_3est11BlockMatrixENS3_6BufferES8_EEE, 
                       __ZTSNSt3__110__function34__maybe_derive_from_unary_functionIFvN2gc4lang4TileERNS3_3est11BlockMatrixENS3_6BufferES8_S8_EEE, 
                       __ZTSNSt3__110__function34__maybe_derive_from_unary_functionIFvN2gc4lang4TileERNS3_3est11BlockMatrixENS3_6BufferES8_S8_RS8_EEE, 
                       __ZTSNSt3__110__function34__maybe_derive_from_unary_functionIFvN2gc4lang4TileERNS3_3est11JacobianSetENS3_5ArrayINS5_14FactorOrderingEEENS8_INS3_6BufferEEESC_SB_EEE, 
                       __ZTSNSt3__110__function34__maybe_derive_from_unary_functionIFvN2gc4lang4TileERNS3_3est14FactorOrderingENS3_6BufferERNS5_8JacobianES8_S8_EEE, 
                       __ZTSNSt3__110__function34__maybe_derive_from_unary_functionIFvN2gc4lang4TileERNS3_3est14FactorOrderingERNS5_8JacobianENS3_6BufferERSA_EEE, 
                       __ZTSNSt3__110__function34__maybe_derive_from_unary_functionIFvN2gc4lang4TileERNS3_3est14FactorOrderingERNS5_8JacobianENS3_6BufferESA_EEE, 
                       __ZTSNSt3__110__function34__maybe_derive_from_unary_functionIFvN2gc4lang4TileERNS3_3est14FactorOrderingERNS5_8JacobianENS3_6BufferESA_SA_EEE, 
                       __ZTSNSt3__110__function34__maybe_derive_from_unary_functionIFvN2gc4lang4TileERNS3_3est14FactorOrderingERNS5_8JacobianENS3_6BufferESA_SA_SA_EEE, 
                       __ZTSNSt3__110__function34__maybe_derive_from_unary_functionIFvN2gc4lang4TileERNS3_3est8JacobianENS3_6BufferES8_S8_RS8_EEE, 
                       __ZTSNSt3__110__function34__maybe_derive_from_unary_functionIFvN2gc4lang4TileERNS3_3est8JacobianENS3_6BufferES8_S8_S8_S8_EEE, 
                       __ZTSNSt3__110__function34__maybe_derive_from_unary_functionIFvN2gc4lang4TileERNS3_3est8JacobianENS5_14FactorOrderingENS3_6BufferES9_EEE, 
                       __ZTSNSt3__110__function34__maybe_derive_from_unary_functionIFvN2gc4lang4TileERNS3_3est8JacobianENS5_14FactorOrderingENS3_6BufferES9_S9_EEE, 
                       __ZTSNSt3__110__function34__maybe_derive_from_unary_functionIFvN2gc4lang4TileERNS3_3est8JacobianENS5_14FactorOrderingENS3_6BufferES9_S9_S9_EEE, 
                       __ZTSNSt3__110__function34__maybe_derive_from_unary_functionIFvN2gc4lang4TileERNS3_3est8JacobianENS5_14FactorOrderingES8_NS3_6BufferES9_S9_S9_S9_S9_EEE, 
                       __ZTSNSt3__110__function34__maybe_derive_from_unary_functionIFvN2gc4lang4TileERNS3_6ScalarENS3_6BufferEEEE, 
                       __ZTSNSt3__110__function35__maybe_derive_from_binary_functionIFN2gc4util10TaggedBoolINS2_3est15IsEliminableTagEEERKNS5_8VariableEEEE, 
                       __ZTSNSt3__110__function35__maybe_derive_from_binary_functionIFvN2gc4ExprEEEE, 
                       __ZTSNSt3__110__function35__maybe_derive_from_binary_functionIFvN2gc4lang4TileENS3_3est13BlockOrderingENS3_5ArrayINS5_14FactorOrderingEEERNS5_11JacobianSetERNS5_11BlockMatrixEEEE, 
                       __ZTSNSt3__110__function35__maybe_derive_from_binary_functionIFvN2gc4lang4TileENS3_3est13BlockOrderingENS5_14FactorOrderingERNS5_8JacobianERNS5_11BlockMatrixEEEE, 
                       __ZTSNSt3__110__function35__maybe_derive_from_binary_functionIFvN2gc4lang4TileENS3_3est14FactorOrderingERNS5_8JacobianENS3_6BufferES9_EEE, 
                       __ZTSNSt3__110__function35__maybe_derive_from_binary_functionIFvN2gc4lang4TileENS3_3est6FactorENS3_6BufferES7_S7_NS3_5ArrayINS5_14FactorOrderingEEENS5_11VariableSetENS8_IS7_EESC_NS3_17BindableTypeArrayEEEE, 
                       __ZTSNSt3__110__function35__maybe_derive_from_binary_functionIFvN2gc4lang4TileENS3_3est6FactorENS5_11VariableSetENS3_6BufferES8_NS3_17BindableTypeArrayEEEE, 
                       __ZTSNSt3__110__function35__maybe_derive_from_binary_functionIFvN2gc4lang4TileENS3_3est6FactorENS5_11VariableSetENS3_6BufferES8_S8_NS3_17BindableTypeArrayEEEE, 
                       __ZTSNSt3__110__function35__maybe_derive_from_binary_functionIFvN2gc4lang4TileENS3_3est6FactorERNS5_14FactorOrderingENS3_5ArrayINS3_6BufferEEERNS5_16BlockMatrixArrayENS5_22SchurEliminatedHessianESB_SA_SA_EEE, 
                       __ZTSNSt3__110__function35__maybe_derive_from_binary_functionIFvN2gc4lang4TileENS3_3est8VariableEEEE, 
                       __ZTSNSt3__110__function35__maybe_derive_from_binary_functionIFvN2gc4lang4TileENS3_3est8VariableENS3_6ScalarEEEE, 
                       __ZTSNSt3__110__function35__maybe_derive_from_binary_functionIFvN2gc4lang4TileENS3_5ArrayINS3_3est13BlockOrderingEEENS5_INS6_14FactorOrderingEEERNS6_11JacobianSetERNS6_16BlockMatrixArrayEEEE, 
                       __ZTSNSt3__110__function35__maybe_derive_from_binary_functionIFvN2gc4lang4TileENS3_5ArrayINS3_6BufferEEES7_EEE, 
                       __ZTSNSt3__110__function35__maybe_derive_from_binary_functionIFvN2gc4lang4TileENS3_6BufferEEEE, 
                       __ZTSNSt3__110__function35__maybe_derive_from_binary_functionIFvN2gc4lang4TileENS3_6BufferENS3_3est6FactorERNS6_11JacobianSetENS3_5ArrayIS5_EENSA_INS6_14FactorOrderingEEERNS6_16BlockMatrixArrayESB_EEE, 
                       __ZTSNSt3__110__function35__maybe_derive_from_binary_functionIFvN2gc4lang4TileENS3_6BufferENS3_3est8VariableEEEE, 
                       __ZTSNSt3__110__function35__maybe_derive_from_binary_functionIFvN2gc4lang4TileENS3_6BufferENS3_5ArrayINS3_3est8VariableEEEEEE, 
                       __ZTSNSt3__110__function35__maybe_derive_from_binary_functionIFvN2gc4lang4TileENS3_6BufferENS3_5ArrayIS5_EES7_NS3_3est6FactorERNS8_14FactorOrderingENS8_22SchurEliminatedHessianES5_EEE, 
                       __ZTSNSt3__110__function35__maybe_derive_from_binary_functionIFvN2gc4lang4TileENS3_6BufferENS3_6ScalarES5_EEE, 
                       __ZTSNSt3__110__function35__maybe_derive_from_binary_functionIFvN2gc4lang4TileENS3_6BufferENS3_6ScalarES5_S5_EEE, 
                       __ZTSNSt3__110__function35__maybe_derive_from_binary_functionIFvN2gc4lang4TileENS3_6BufferERNS3_3est8JacobianENS6_14FactorOrderingENS3_6ScalarES5_S5_EEE, 
                       __ZTSNSt3__110__function35__maybe_derive_from_binary_functionIFvN2gc4lang4TileENS3_6BufferERNS3_3est8JacobianENS6_14FactorOrderingES5_S5_S5_S5_S5_EEE, 
                       __ZTSNSt3__110__function35__maybe_derive_from_binary_functionIFvN2gc4lang4TileENS3_6BufferERNS3_3est8JacobianENS6_6FactorERNS6_11JacobianSetERNS6_14FactorOrderingENS3_5ArrayIS5_EENSE_ISC_EERNS6_16BlockMatrixArrayENS6_22SchurEliminatedHessianESF_S5_S5_EEE, 
                       __ZTSNSt3__110__function35__maybe_derive_from_binary_functionIFvN2gc4lang4TileENS3_6BufferERNS3_3est8JacobianES5_S5_EEE, 
                       __ZTSNSt3__110__function35__maybe_derive_from_binary_functionIFvN2gc4lang4TileENS3_6BufferES5_EEE, 
                       __ZTSNSt3__110__function35__maybe_derive_from_binary_functionIFvN2gc4lang4TileENS3_6BufferES5_NS3_5ArrayINS3_3est8VariableEEEEEE, 
                       __ZTSNSt3__110__function35__maybe_derive_from_binary_functionIFvN2gc4lang4TileENS3_6BufferES5_NS3_6ScalarES6_S6_S6_S6_S5_S5_EEE, 
                       __ZTSNSt3__110__function35__maybe_derive_from_binary_functionIFvN2gc4lang4TileENS3_6BufferES5_NS3_6VectorES5_EEE, 
                       __ZTSNSt3__110__function35__maybe_derive_from_binary_functionIFvN2gc4lang4TileENS3_6BufferES5_RNS3_3est8JacobianES5_S5_EEE, 
                       __ZTSNSt3__110__function35__maybe_derive_from_binary_functionIFvN2gc4lang4TileENS3_6BufferES5_S5_EEE, 
                       __ZTSNSt3__110__function35__maybe_derive_from_binary_functionIFvN2gc4lang4TileENS3_6BufferES5_S5_NS3_6ScalarEEEE, 
                       __ZTSNSt3__110__function35__maybe_derive_from_binary_functionIFvN2gc4lang4TileENS3_6BufferES5_S5_NS3_6VectorES5_S5_EEE, 
                       __ZTSNSt3__110__function35__maybe_derive_from_binary_functionIFvN2gc4lang4TileENS3_6BufferES5_S5_S5_EEE, 
                       __ZTSNSt3__110__function35__maybe_derive_from_binary_functionIFvN2gc4lang4TileENS3_6BufferES5_S5_S5_S5_NS3_6ScalarEEEE, 
                       __ZTSNSt3__110__function35__maybe_derive_from_binary_functionIFvN2gc4lang4TileENS3_6BufferES5_S5_S5_S5_S5_S5_EEE, 
                       __ZTSNSt3__110__function35__maybe_derive_from_binary_functionIFvN2gc4lang4TileENS3_6ScalarENS3_6BufferES6_EEE, 
                       __ZTSNSt3__110__function35__maybe_derive_from_binary_functionIFvN2gc4lang4TileENS3_6ScalarERNS3_3est11BlockMatrixEEEE, 
                       __ZTSNSt3__110__function35__maybe_derive_from_binary_functionIFvN2gc4lang4TileERNS3_3est11BlockMatrixEEEE, 
                       __ZTSNSt3__110__function35__maybe_derive_from_binary_functionIFvN2gc4lang4TileERNS3_3est11BlockMatrixENS3_6BufferES8_EEE, 
                       __ZTSNSt3__110__function35__maybe_derive_from_binary_functionIFvN2gc4lang4TileERNS3_3est11BlockMatrixENS3_6BufferES8_S8_EEE, 
                       __ZTSNSt3__110__function35__maybe_derive_from_binary_functionIFvN2gc4lang4TileERNS3_3est11BlockMatrixENS3_6BufferES8_S8_RS8_EEE, 
                       __ZTSNSt3__110__function35__maybe_derive_from_binary_functionIFvN2gc4lang4TileERNS3_3est11JacobianSetENS3_5ArrayINS5_14FactorOrderingEEENS8_INS3_6BufferEEESC_SB_EEE, 
                       __ZTSNSt3__110__function35__maybe_derive_from_binary_functionIFvN2gc4lang4TileERNS3_3est14FactorOrderingENS3_6BufferERNS5_8JacobianES8_S8_EEE, 
                       __ZTSNSt3__110__function35__maybe_derive_from_binary_functionIFvN2gc4lang4TileERNS3_3est14FactorOrderingERNS5_8JacobianENS3_6BufferERSA_EEE, 
                       __ZTSNSt3__110__function35__maybe_derive_from_binary_functionIFvN2gc4lang4TileERNS3_3est14FactorOrderingERNS5_8JacobianENS3_6BufferESA_EEE, 
                       __ZTSNSt3__110__function35__maybe_derive_from_binary_functionIFvN2gc4lang4TileERNS3_3est14FactorOrderingERNS5_8JacobianENS3_6BufferESA_SA_EEE, 
                       __ZTSNSt3__110__function35__maybe_derive_from_binary_functionIFvN2gc4lang4TileERNS3_3est14FactorOrderingERNS5_8JacobianENS3_6BufferESA_SA_SA_EEE, 
                       __ZTSNSt3__110__function35__maybe_derive_from_binary_functionIFvN2gc4lang4TileERNS3_3est8JacobianENS3_6BufferES8_S8_RS8_EEE, 
                       __ZTSNSt3__110__function35__maybe_derive_from_binary_functionIFvN2gc4lang4TileERNS3_3est8JacobianENS3_6BufferES8_S8_S8_S8_EEE, 
                       __ZTSNSt3__110__function35__maybe_derive_from_binary_functionIFvN2gc4lang4TileERNS3_3est8JacobianENS5_14FactorOrderingENS3_6BufferES9_EEE, 
                       __ZTSNSt3__110__function35__maybe_derive_from_binary_functionIFvN2gc4lang4TileERNS3_3est8JacobianENS5_14FactorOrderingENS3_6BufferES9_S9_EEE, 
                       __ZTSNSt3__110__function35__maybe_derive_from_binary_functionIFvN2gc4lang4TileERNS3_3est8JacobianENS5_14FactorOrderingENS3_6BufferES9_S9_S9_EEE, 
                       __ZTSNSt3__110__function35__maybe_derive_from_binary_functionIFvN2gc4lang4TileERNS3_3est8JacobianENS5_14FactorOrderingES8_NS3_6BufferES9_S9_S9_S9_S9_EEE, 
                       __ZTSNSt3__110__function35__maybe_derive_from_binary_functionIFvN2gc4lang4TileERNS3_6ScalarENS3_6BufferEEEE, 
                       __ZTSNSt3__110__function6__baseIFN2gc3ops6TensorES4_S4_EEE, 
                       __ZTSNSt3__110__function6__baseIFN2gc3ops6detail18FunctionReturnTypeERKNS_6vectorINS3_6TensorENS_9allocatorIS7_EEEEEEE, 
                       __ZTSNSt3__110__function6__baseIFN2gc4ExprENS2_4lang6TensorEEEE, 
                       __ZTSNSt3__110__function6__baseIFN2gc4ExprENS2_4lang6TensorES5_EEE, 
                       __ZTSNSt3__110__function6__baseIFN2gc4ExprENS2_4lang6TensorES5_S5_EEE, 
                       __ZTSNSt3__110__function6__baseIFN2gc4ExprERK17loopkit_rt_type_tEEE, 
                       __ZTSNSt3__110__function6__baseIFN2gc4ExprES3_EEE, __ZTSNSt3__110__function6__baseIFN2gc4ExprES3_S3_EEE, 
                       __ZTSNSt3__110__function6__baseIFN2gc4StmtERKNS2_6TargetES3_EEE, 
                       __ZTSNSt3__110__function6__baseIFN2gc4lang2ad15BackpropFunctorENS3_6TensorES6_EEE, 
                       __ZTSNSt3__110__function6__baseIFN2gc4lang2ad15BackpropFunctorENS3_6TensorES6_S6_EEE, 
                       __ZTSNSt3__110__function6__baseIFN2gc4lang3SE3ERKS4_EEE, __ZTSNSt3__110__function6__baseIFN2gc4lang3SO3ERKS4_EEE, 
                       __ZTSNSt3__110__function6__baseIFN2gc4lang6ScalarERKS4_EEE, 
                       __ZTSNSt3__110__function6__baseIFN2gc4lang6TensorENS3_6ScalarES5_EEE, 
                       __ZTSNSt3__110__function6__baseIFN2gc4lang6TensorENS_6vectorINS2_4ExprENS_9allocatorIS6_EEEEEEE, 
                       __ZTSNSt3__110__function6__baseIFN2gc4lang6TensorES4_EEE, 
                       __ZTSNSt3__110__function6__baseIFN2gc4lang6VectorENS3_3SE3ES5_EEE, 
                       __ZTSNSt3__110__function6__baseIFN2gc4lang6VectorENS3_3SO3ES5_EEE, 
                       __ZTSNSt3__110__function6__baseIFN2gc4lang6VectorERKS4_EEE, 
                       __ZTSNSt3__110__function6__baseIFN2gc4lang8VariableERKNS_6vectorIS4_NS_9allocatorIS4_EEEERKNS3_17BindableTypeArrayEEEE, 
                       __ZTSNSt3__110__function6__baseIFN2gc4lang8VariableERKS4_RKNS_6vectorIS4_NS_9allocatorIS4_EEEEEEE, 
                       __ZTSNSt3__110__function6__baseIFN2gc4lang8VariableERKS4_S6_EEE, 
                       __ZTSNSt3__110__function6__baseIFN2gc4util10TaggedBoolINS2_3est15IsEliminableTagEEERKNS5_8VariableEEEE, 
                       __ZTSNSt3__110__function6__baseIFN2gc9float16_tEvEEE, __ZTSNSt3__110__function6__baseIFNS_4__fs10filesystem4pathERKNS_12basic_stringIcNS_11char_traitsIcEENS_9allocatorIcEEEEEEE, 
                       __ZTSNSt3__110__function6__baseIFNS_6vectorIN2gc4lang8VariableENS_9allocatorIS5_EEEERKS8_EEE, 
                       __ZTSNSt3__110__function6__baseIFNS_6vectorINS_10shared_ptrIN2gc6BufferEEENS_9allocatorIS6_EEEERKS9_EEE, 
                       __ZTSNSt3__110__function6__baseIFNS_8optionalI17loopkit_rt_type_tEERKNS_6vectorIS3_NS_9allocatorIS3_EEEEEEE, 
                       __ZTSNSt3__110__function6__baseIFNS_8optionalI17loopkit_rt_type_tEERKS3_EEE, 
                       __ZTSNSt3__110__function6__baseIFNS_8optionalIN2gc11ExtentExprsEEERKNS_6vectorIS4_NS_9allocatorIS4_EEEEEEE, 
                       __ZTSNSt3__110__function6__baseIFNS_8optionalIN2gc11ExtentExprsEEERKS4_EEE, 
                       __ZTSNSt3__110__function6__baseIFNS_8optionalINS_4pairIN2gc11ExtentExprsENS4_4ExprEEEEERKNS_6vectorIS5_NS_9allocatorIS5_EEEEEEE, 
                       __ZTSNSt3__110__function6__baseIFNS_8optionalINS_4pairIN2gc11ExtentExprsENS4_4ExprEEEEERKS5_EEE, 
                       __ZTSNSt3__110__function6__baseIFavEEE, __ZTSNSt3__110__function6__baseIFbNS_10shared_ptrIN2gc16BufferParametersEEEEEE, 
                       __ZTSNSt3__110__function6__baseIFbNS_10shared_ptrIN2gc3ops6OpBaseEEEEEE, 
                       __ZTSNSt3__110__function6__baseIFbNS_12basic_stringIcNS_11char_traitsIcEENS_9allocatorIcEEEEEEE, 
                       __ZTSNSt3__110__function6__baseIFbPN2gc12ComputeGraph4NodeEEEE, 
                       __ZTSNSt3__110__function6__baseIFbRKN2gc3est8VariableEEEE, 
                       __ZTSNSt3__110__function6__baseIFbjjEEE, __ZTSNSt3__110__function6__baseIFbvEEE, 
                       __ZTSNSt3__110__function6__baseIFdddEEE, __ZTSNSt3__110__function6__baseIFdvEEE, 
                       __ZTSNSt3__110__function6__baseIFfvEEE, __ZTSNSt3__110__function6__baseIFhvEEE, 
                       __ZTSNSt3__110__function6__baseIFivEEE, __ZTSNSt3__110__function6__baseIFjvEEE, 
                       __ZTSNSt3__110__function6__baseIFsvEEE, __ZTSNSt3__110__function6__baseIFtvEEE, 
                       __ZTSNSt3__110__function6__baseIFvN2gc3ops6TensorES4_S4_S4_S4_S4_S4_S4_S4_EEE, 
                       __ZTSNSt3__110__function6__baseIFvN2gc4ExprEEEE, __ZTSNSt3__110__function6__baseIFvN2gc4ExprES3_EEE, 
                       __ZTSNSt3__110__function6__baseIFvN2gc4lang4TileENS3_3est13BlockOrderingENS3_5ArrayINS5_14FactorOrderingEEERNS5_11JacobianSetERNS5_11BlockMatrixEEEE, 
                       __ZTSNSt3__110__function6__baseIFvN2gc4lang4TileENS3_3est13BlockOrderingENS5_14FactorOrderingERNS5_8JacobianERNS5_11BlockMatrixEEEE, 
                       __ZTSNSt3__110__function6__baseIFvN2gc4lang4TileENS3_3est14FactorOrderingERNS5_8JacobianENS3_6BufferES9_EEE, 
                       __ZTSNSt3__110__function6__baseIFvN2gc4lang4TileENS3_3est6FactorENS3_6BufferES7_S7_NS3_5ArrayINS5_14FactorOrderingEEENS5_11VariableSetENS8_IS7_EESC_NS3_17BindableTypeArrayEEEE, 
                       __ZTSNSt3__110__function6__baseIFvN2gc4lang4TileENS3_3est6FactorENS5_11VariableSetENS3_6BufferES8_NS3_17BindableTypeArrayEEEE, 
                       __ZTSNSt3__110__function6__baseIFvN2gc4lang4TileENS3_3est6FactorENS5_11VariableSetENS3_6BufferES8_S8_NS3_17BindableTypeArrayEEEE, 
                       __ZTSNSt3__110__function6__baseIFvN2gc4lang4TileENS3_3est6FactorERNS5_14FactorOrderingENS3_5ArrayINS3_6BufferEEERNS5_16BlockMatrixArrayENS5_22SchurEliminatedHessianESB_SA_SA_EEE, 
                       __ZTSNSt3__110__function6__baseIFvN2gc4lang4TileENS3_3est8VariableEEEE, 
                       __ZTSNSt3__110__function6__baseIFvN2gc4lang4TileENS3_3est8VariableENS3_6ScalarEEEE, 
                       __ZTSNSt3__110__function6__baseIFvN2gc4lang4TileENS3_5ArrayINS3_3est13BlockOrderingEEENS5_INS6_14FactorOrderingEEERNS6_11JacobianSetERNS6_16BlockMatrixArrayEEEE, 
                       __ZTSNSt3__110__function6__baseIFvN2gc4lang4TileENS3_5ArrayINS3_6BufferEEES7_EEE, 
                       __ZTSNSt3__110__function6__baseIFvN2gc4lang4TileENS3_6BufferEEEE, 
                       __ZTSNSt3__110__function6__baseIFvN2gc4lang4TileENS3_6BufferENS3_3est6FactorERNS6_11JacobianSetENS3_5ArrayIS5_EENSA_INS6_14FactorOrderingEEERNS6_16BlockMatrixArrayESB_EEE, 
                       __ZTSNSt3__110__function6__baseIFvN2gc4lang4TileENS3_6BufferENS3_3est8VariableEEEE, 
                       __ZTSNSt3__110__function6__baseIFvN2gc4lang4TileENS3_6BufferENS3_5ArrayINS3_3est8VariableEEEEEE, 
                       __ZTSNSt3__110__function6__baseIFvN2gc4lang4TileENS3_6BufferENS3_5ArrayIS5_EES7_NS3_3est6FactorERNS8_14FactorOrderingENS8_22SchurEliminatedHessianES5_EEE, 
                       __ZTSNSt3__110__function6__baseIFvN2gc4lang4TileENS3_6BufferENS3_6ScalarES5_EEE, 
                       __ZTSNSt3__110__function6__baseIFvN2gc4lang4TileENS3_6BufferENS3_6ScalarES5_S5_EEE, 
                       __ZTSNSt3__110__function6__baseIFvN2gc4lang4TileENS3_6BufferERNS3_3est8JacobianENS6_14FactorOrderingENS3_6ScalarES5_S5_EEE, 
                       __ZTSNSt3__110__function6__baseIFvN2gc4lang4TileENS3_6BufferERNS3_3est8JacobianENS6_14FactorOrderingES5_S5_S5_S5_S5_EEE, 
                       __ZTSNSt3__110__function6__baseIFvN2gc4lang4TileENS3_6BufferERNS3_3est8JacobianENS6_6FactorERNS6_11JacobianSetERNS6_14FactorOrderingENS3_5ArrayIS5_EENSE_ISC_EERNS6_16BlockMatrixArrayENS6_22SchurEliminatedHessianESF_S5_S5_EEE, 
                       __ZTSNSt3__110__function6__baseIFvN2gc4lang4TileENS3_6BufferERNS3_3est8JacobianES5_S5_EEE, 
                       __ZTSNSt3__110__function6__baseIFvN2gc4lang4TileENS3_6BufferES5_EEE, 
                       __ZTSNSt3__110__function6__baseIFvN2gc4lang4TileENS3_6BufferES5_NS3_5ArrayINS3_3est8VariableEEEEEE, 
                       __ZTSNSt3__110__function6__baseIFvN2gc4lang4TileENS3_6BufferES5_NS3_6ScalarES6_S6_S6_S6_S5_S5_EEE, 
                       __ZTSNSt3__110__function6__baseIFvN2gc4lang4TileENS3_6BufferES5_NS3_6VectorES5_EEE, 
                       __ZTSNSt3__110__function6__baseIFvN2gc4lang4TileENS3_6BufferES5_RNS3_3est8JacobianES5_S5_EEE, 
                       __ZTSNSt3__110__function6__baseIFvN2gc4lang4TileENS3_6BufferES5_S5_EEE, 
                       __ZTSNSt3__110__function6__baseIFvN2gc4lang4TileENS3_6BufferES5_S5_NS3_6ScalarEEEE, 
                       __ZTSNSt3__110__function6__baseIFvN2gc4lang4TileENS3_6BufferES5_S5_NS3_6VectorES5_S5_EEE, 
                       __ZTSNSt3__110__function6__baseIFvN2gc4lang4TileENS3_6BufferES5_S5_S5_EEE, 
                       __ZTSNSt3__110__function6__baseIFvN2gc4lang4TileENS3_6BufferES5_S5_S5_S5_NS3_6ScalarEEEE, 
                       __ZTSNSt3__110__function6__baseIFvN2gc4lang4TileENS3_6BufferES5_S5_S5_S5_S5_S5_EEE, 
                       __ZTSNSt3__110__function6__baseIFvN2gc4lang4TileENS3_6ScalarENS3_6BufferES6_EEE, 
                       __ZTSNSt3__110__function6__baseIFvN2gc4lang4TileENS3_6ScalarERNS3_3est11BlockMatrixEEEE, 
                       __ZTSNSt3__110__function6__baseIFvN2gc4lang4TileERNS3_3est11BlockMatrixEEEE, 
                       __ZTSNSt3__110__function6__baseIFvN2gc4lang4TileERNS3_3est11BlockMatrixENS3_6BufferES8_EEE, 
                       __ZTSNSt3__110__function6__baseIFvN2gc4lang4TileERNS3_3est11BlockMatrixENS3_6BufferES8_S8_EEE, 
                       __ZTSNSt3__110__function6__baseIFvN2gc4lang4TileERNS3_3est11BlockMatrixENS3_6BufferES8_S8_RS8_EEE, 
                       __ZTSNSt3__110__function6__baseIFvN2gc4lang4TileERNS3_3est11JacobianSetENS3_5ArrayINS5_14FactorOrderingEEENS8_INS3_6BufferEEESC_SB_EEE, 
                       __ZTSNSt3__110__function6__baseIFvN2gc4lang4TileERNS3_3est14FactorOrderingENS3_6BufferERNS5_8JacobianES8_S8_EEE, 
                       __ZTSNSt3__110__function6__baseIFvN2gc4lang4TileERNS3_3est14FactorOrderingERNS5_8JacobianENS3_6BufferERSA_EEE, 
                       __ZTSNSt3__110__function6__baseIFvN2gc4lang4TileERNS3_3est14FactorOrderingERNS5_8JacobianENS3_6BufferESA_EEE, 
                       __ZTSNSt3__110__function6__baseIFvN2gc4lang4TileERNS3_3est14FactorOrderingERNS5_8JacobianENS3_6BufferESA_SA_EEE, 
                       __ZTSNSt3__110__function6__baseIFvN2gc4lang4TileERNS3_3est14FactorOrderingERNS5_8JacobianENS3_6BufferESA_SA_SA_EEE, 
                       __ZTSNSt3__110__function6__baseIFvN2gc4lang4TileERNS3_3est8JacobianENS3_6BufferES8_S8_RS8_EEE, 
                       __ZTSNSt3__110__function6__baseIFvN2gc4lang4TileERNS3_3est8JacobianENS3_6BufferES8_S8_S8_S8_EEE, 
                       __ZTSNSt3__110__function6__baseIFvN2gc4lang4TileERNS3_3est8JacobianENS5_14FactorOrderingENS3_6BufferES9_EEE, 
                       __ZTSNSt3__110__function6__baseIFvN2gc4lang4TileERNS3_3est8JacobianENS5_14FactorOrderingENS3_6BufferES9_S9_EEE, 
                       __ZTSNSt3__110__function6__baseIFvN2gc4lang4TileERNS3_3est8JacobianENS5_14FactorOrderingENS3_6BufferES9_S9_S9_EEE, 
                       __ZTSNSt3__110__function6__baseIFvN2gc4lang4TileERNS3_3est8JacobianENS5_14FactorOrderingES8_NS3_6BufferES9_S9_S9_S9_S9_EEE, 
                       __ZTSNSt3__110__function6__baseIFvN2gc4lang4TileERNS3_6ScalarENS3_6BufferEEEE, 
                       __ZTSNSt3__110__function6__baseIFvN2gc4lang6BufferENS3_6ScalarEEEE, 
                       __ZTSNSt3__110__function6__baseIFvN2gc4lang6BufferENS3_6VectorEEEE, 
                       __ZTSNSt3__110__function6__baseIFvN2gc4lang6BufferES4_EEE, 
                       __ZTSNSt3__110__function6__baseIFvN2gc4lang6BufferES4_S4_EEE, 
                       __ZTSNSt3__110__function6__baseIFvNS_10shared_ptrIN2gc16BufferParametersEEEEEE, 
                       __ZTSNSt3__110__function6__baseIFvNS_6vectorIN2gc4ExprENS_9allocatorIS4_EEEEEEE, 
                       __ZTSNSt3__110__function6__baseIFvPN2gc12ComputeGraph4NodeEEEE, 
                       __ZTSNSt3__110__function6__baseIFvRKN2gc4ExprEEEE, __ZTSNSt3__110__function6__baseIFvRKN2gc4lang4TileENS3_3est13BlockOrderingENS3_5ArrayINS7_14FactorOrderingEEERNS7_11JacobianSetERNS7_11BlockMatrixEEEE, 
                       __ZTSNSt3__110__function6__baseIFvRKN2gc4lang4TileENS3_3est13BlockOrderingENS7_14FactorOrderingERNS7_8JacobianERNS7_11BlockMatrixEEEE, 
                       __ZTSNSt3__110__function6__baseIFvRKN2gc4lang4TileENS3_3est14FactorOrderingERNS7_8JacobianENS3_6BufferESB_EEE, 
                       __ZTSNSt3__110__function6__baseIFvRKN2gc4lang4TileENS3_3est6FactorENS3_6BufferES9_S9_NS3_5ArrayINS7_14FactorOrderingEEENS7_11VariableSetENSA_IS9_EESE_NS3_17BindableTypeArrayEEEE, 
                       __ZTSNSt3__110__function6__baseIFvRKN2gc4lang4TileENS3_3est6FactorENS7_11VariableSetENS3_6BufferESA_NS3_17BindableTypeArrayEEEE, 
                       __ZTSNSt3__110__function6__baseIFvRKN2gc4lang4TileENS3_3est6FactorENS7_11VariableSetENS3_6BufferESA_SA_NS3_17BindableTypeArrayEEEE, 
                       __ZTSNSt3__110__function6__baseIFvRKN2gc4lang4TileENS3_3est6FactorERNS7_14FactorOrderingENS3_5ArrayINS3_6BufferEEERNS7_16BlockMatrixArrayENS7_22SchurEliminatedHessianESD_SC_SC_EEE, 
                       __ZTSNSt3__110__function6__baseIFvRKN2gc4lang4TileENS3_3est8VariableEEEE, 
                       __ZTSNSt3__110__function6__baseIFvRKN2gc4lang4TileENS3_3est8VariableENS3_6ScalarEEEE, 
                       __ZTSNSt3__110__function6__baseIFvRKN2gc4lang4TileENS3_5ArrayINS3_3est13BlockOrderingEEENS7_INS8_14FactorOrderingEEERNS8_11JacobianSetERNS8_16BlockMatrixArrayEEEE, 
                       __ZTSNSt3__110__function6__baseIFvRKN2gc4lang4TileENS3_5ArrayINS3_6BufferEEES9_EEE, 
                       __ZTSNSt3__110__function6__baseIFvRKN2gc4lang4TileENS3_6BufferEEEE, 
                       __ZTSNSt3__110__function6__baseIFvRKN2gc4lang4TileENS3_6BufferENS3_3est6FactorERNS8_11JacobianSetENS3_5ArrayIS7_EENSC_INS8_14FactorOrderingEEERNS8_16BlockMatrixArrayESD_EEE, 
                       __ZTSNSt3__110__function6__baseIFvRKN2gc4lang4TileENS3_6BufferENS3_3est8VariableEEEE, 
                       __ZTSNSt3__110__function6__baseIFvRKN2gc4lang4TileENS3_6BufferENS3_5ArrayINS3_3est8VariableEEEEEE, 
                       __ZTSNSt3__110__function6__baseIFvRKN2gc4lang4TileENS3_6BufferENS3_5ArrayIS7_EES9_NS3_3est6FactorERNSA_14FactorOrderingENSA_22SchurEliminatedHessianES7_EEE, 
                       __ZTSNSt3__110__function6__baseIFvRKN2gc4lang4TileENS3_6BufferENS3_6ScalarES7_EEE, 
                       __ZTSNSt3__110__function6__baseIFvRKN2gc4lang4TileENS3_6BufferENS3_6ScalarES7_S7_EEE, 
                       __ZTSNSt3__110__function6__baseIFvRKN2gc4lang4TileENS3_6BufferERNS3_3est8JacobianENS8_14FactorOrderingENS3_6ScalarES7_S7_EEE, 
                       __ZTSNSt3__110__function6__baseIFvRKN2gc4lang4TileENS3_6BufferERNS3_3est8JacobianENS8_14FactorOrderingES7_S7_S7_S7_S7_EEE, 
                       __ZTSNSt3__110__function6__baseIFvRKN2gc4lang4TileENS3_6BufferERNS3_3est8JacobianENS8_6FactorERNS8_11JacobianSetERNS8_14FactorOrderingENS3_5ArrayIS7_EENSG_ISE_EERNS8_16BlockMatrixArrayENS8_22SchurEliminatedHessianESH_S7_S7_EEE, 
                       __ZTSNSt3__110__function6__baseIFvRKN2gc4lang4TileENS3_6BufferERNS3_3est8JacobianES7_S7_EEE, 
                       __ZTSNSt3__110__function6__baseIFvRKN2gc4lang4TileENS3_6BufferES7_EEE, 
                       __ZTSNSt3__110__function6__baseIFvRKN2gc4lang4TileENS3_6BufferES7_NS3_5ArrayINS3_3est8VariableEEEEEE, 
                       __ZTSNSt3__110__function6__baseIFvRKN2gc4lang4TileENS3_6BufferES7_NS3_6ScalarES8_S8_S8_S8_S7_S7_EEE, 
                       __ZTSNSt3__110__function6__baseIFvRKN2gc4lang4TileENS3_6BufferES7_NS3_6VectorES7_EEE, 
                       __ZTSNSt3__110__function6__baseIFvRKN2gc4lang4TileENS3_6BufferES7_RNS3_3est8JacobianES7_S7_EEE, 
                       __ZTSNSt3__110__function6__baseIFvRKN2gc4lang4TileENS3_6BufferES7_S7_EEE, 
                       __ZTSNSt3__110__function6__baseIFvRKN2gc4lang4TileENS3_6BufferES7_S7_NS3_6ScalarEEEE, 
                       __ZTSNSt3__110__function6__baseIFvRKN2gc4lang4TileENS3_6BufferES7_S7_NS3_6VectorES7_S7_EEE, 
                       __ZTSNSt3__110__function6__baseIFvRKN2gc4lang4TileENS3_6BufferES7_S7_S7_EEE, 
                       __ZTSNSt3__110__function6__baseIFvRKN2gc4lang4TileENS3_6BufferES7_S7_S7_S7_NS3_6ScalarEEEE, 
                       __ZTSNSt3__110__function6__baseIFvRKN2gc4lang4TileENS3_6BufferES7_S7_S7_S7_S7_S7_EEE, 
                       __ZTSNSt3__110__function6__baseIFvRKN2gc4lang4TileENS3_6ScalarENS3_6BufferES8_EEE, 
                       __ZTSNSt3__110__function6__baseIFvRKN2gc4lang4TileENS3_6ScalarERNS3_3est11BlockMatrixEEEE, 
                       __ZTSNSt3__110__function6__baseIFvRKN2gc4lang4TileERNS3_3est11BlockMatrixEEEE, 
                       __ZTSNSt3__110__function6__baseIFvRKN2gc4lang4TileERNS3_3est11BlockMatrixENS3_6BufferESA_EEE, 
                       __ZTSNSt3__110__function6__baseIFvRKN2gc4lang4TileERNS3_3est11BlockMatrixENS3_6BufferESA_SA_EEE, 
                       __ZTSNSt3__110__function6__baseIFvRKN2gc4lang4TileERNS3_3est11BlockMatrixENS3_6BufferESA_SA_RSA_EEE, 
                       __ZTSNSt3__110__function6__baseIFvRKN2gc4lang4TileERNS3_3est11JacobianSetENS3_5ArrayINS7_14FactorOrderingEEENSA_INS3_6BufferEEESE_SD_EEE, 
                       __ZTSNSt3__110__function6__baseIFvRKN2gc4lang4TileERNS3_3est14FactorOrderingENS3_6BufferERNS7_8JacobianESA_SA_EEE, 
                       __ZTSNSt3__110__function6__baseIFvRKN2gc4lang4TileERNS3_3est14FactorOrderingERNS7_8JacobianENS3_6BufferERSC_EEE, 
                       __ZTSNSt3__110__function6__baseIFvRKN2gc4lang4TileERNS3_3est14FactorOrderingERNS7_8JacobianENS3_6BufferESC_EEE, 
                       __ZTSNSt3__110__function6__baseIFvRKN2gc4lang4TileERNS3_3est14FactorOrderingERNS7_8JacobianENS3_6BufferESC_SC_EEE, 
                       __ZTSNSt3__110__function6__baseIFvRKN2gc4lang4TileERNS3_3est14FactorOrderingERNS7_8JacobianENS3_6BufferESC_SC_SC_EEE, 
                       __ZTSNSt3__110__function6__baseIFvRKN2gc4lang4TileERNS3_3est8JacobianENS3_6BufferESA_SA_RSA_EEE, 
                       __ZTSNSt3__110__function6__baseIFvRKN2gc4lang4TileERNS3_3est8JacobianENS3_6BufferESA_SA_SA_SA_EEE, 
                       __ZTSNSt3__110__function6__baseIFvRKN2gc4lang4TileERNS3_3est8JacobianENS7_14FactorOrderingENS3_6BufferESB_EEE, 
                       __ZTSNSt3__110__function6__baseIFvRKN2gc4lang4TileERNS3_3est8JacobianENS7_14FactorOrderingENS3_6BufferESB_SB_EEE, 
                       __ZTSNSt3__110__function6__baseIFvRKN2gc4lang4TileERNS3_3est8JacobianENS7_14FactorOrderingENS3_6BufferESB_SB_SB_EEE, 
                       __ZTSNSt3__110__function6__baseIFvRKN2gc4lang4TileERNS3_3est8JacobianENS7_14FactorOrderingESA_NS3_6BufferESB_SB_SB_SB_SB_EEE, 
                       __ZTSNSt3__110__function6__baseIFvRKN2gc4lang4TileERNS3_6ScalarENS3_6BufferEEEE, 
                       __ZTSNSt3__110__function6__baseIFvRKNS_6vectorIN2gc4ExprENS_9allocatorIS4_EEEENS3_4lang6TensorEEEE, 
                       __ZTSNSt3__110__function6__baseIFvvEEE, __ZTSNSt3__110__function6__baseIFxvEEE, 
                       __ZTSNSt3__110__function6__baseIFyvEEE, __ZTSNSt3__110__function6__funcINS_8functionIFN2gc4util10TaggedBoolINS3_3est15IsEliminableTagEEERKNS6_8VariableEEEENS_9allocatorISD_EEFbSB_EEE, 
                       __ZTSNSt3__110__function6__funcINS_8functionIFvN2gc4ExprEEEENS_9allocatorIS6_EEFvRKS4_EEE, 
                       __ZTSNSt3__110__function6__funcINS_8functionIFvN2gc4lang4TileENS4_3est13BlockOrderingENS4_5ArrayINS6_14FactorOrderingEEERNS6_11JacobianSetERNS6_11BlockMatrixEEEENS_9allocatorISG_EEFvRKS5_S7_SA_SC_SE_EEE, 
                       __ZTSNSt3__110__function6__funcINS_8functionIFvN2gc4lang4TileENS4_3est13BlockOrderingENS6_14FactorOrderingERNS6_8JacobianERNS6_11BlockMatrixEEEENS_9allocatorISE_EEFvRKS5_S7_S8_SA_SC_EEE, 
                       __ZTSNSt3__110__function6__funcINS_8functionIFvN2gc4lang4TileENS4_3est14FactorOrderingERNS6_8JacobianENS4_6BufferESA_EEENS_9allocatorISC_EEFvRKS5_S7_S9_SA_SA_EEE, 
                       __ZTSNSt3__110__function6__funcINS_8functionIFvN2gc4lang4TileENS4_3est6FactorENS4_6BufferES8_S8_NS4_5ArrayINS6_14FactorOrderingEEENS6_11VariableSetENS9_IS8_EESD_NS4_17BindableTypeArrayEEEENS_9allocatorISG_EEFvRKS5_S7_S8_S8_S8_SB_SC_SD_SD_SE_EEE, 
                       __ZTSNSt3__110__function6__funcINS_8functionIFvN2gc4lang4TileENS4_3est6FactorENS6_11VariableSetENS4_6BufferES9_NS4_17BindableTypeArrayEEEENS_9allocatorISC_EEFvRKS5_S7_S8_S9_S9_SA_EEE, 
                       __ZTSNSt3__110__function6__funcINS_8functionIFvN2gc4lang4TileENS4_3est6FactorENS6_11VariableSetENS4_6BufferES9_S9_NS4_17BindableTypeArrayEEEENS_9allocatorISC_EEFvRKS5_S7_S8_S9_S9_S9_SA_EEE, 
                       __ZTSNSt3__110__function6__funcINS_8functionIFvN2gc4lang4TileENS4_3est6FactorERNS6_14FactorOrderingENS4_5ArrayINS4_6BufferEEERNS6_16BlockMatrixArrayENS6_22SchurEliminatedHessianESC_SB_SB_EEENS_9allocatorISH_EEFvRKS5_S7_S9_SC_SE_SF_SC_SB_SB_EEE, 
                       __ZTSNSt3__110__function6__funcINS_8functionIFvN2gc4lang4TileENS4_3est8VariableEEEENS_9allocatorIS9_EEFvRKS5_S7_EEE, 
                       __ZTSNSt3__110__function6__funcINS_8functionIFvN2gc4lang4TileENS4_3est8VariableENS4_6ScalarEEEENS_9allocatorISA_EEFvRKS5_S7_S8_EEE, 
                       __ZTSNSt3__110__function6__funcINS_8functionIFvN2gc4lang4TileENS4_5ArrayINS4_3est13BlockOrderingEEENS6_INS7_14FactorOrderingEEERNS7_11JacobianSetERNS7_16BlockMatrixArrayEEEENS_9allocatorISH_EEFvRKS5_S9_SB_SD_SF_EEE, 
                       __ZTSNSt3__110__function6__funcINS_8functionIFvN2gc4lang4TileENS4_5ArrayINS4_6BufferEEES8_EEENS_9allocatorISA_EEFvRKS5_S8_S8_EEE, 
                       __ZTSNSt3__110__function6__funcINS_8functionIFvN2gc4lang4TileENS4_6BufferEEEENS_9allocatorIS8_EEFvRKS5_S6_EEE, 
                       __ZTSNSt3__110__function6__funcINS_8functionIFvN2gc4lang4TileENS4_6BufferENS4_3est6FactorERNS7_11JacobianSetENS4_5ArrayIS6_EENSB_INS7_14FactorOrderingEEERNS7_16BlockMatrixArrayESC_EEENS_9allocatorISI_EEFvRKS5_S6_S8_SA_SC_SE_SG_SC_EEE, 
                       __ZTSNSt3__110__function6__funcINS_8functionIFvN2gc4lang4TileENS4_6BufferENS4_3est8VariableEEEENS_9allocatorISA_EEFvRKS5_S6_S8_EEE, 
                       __ZTSNSt3__110__function6__funcINS_8functionIFvN2gc4lang4TileENS4_6BufferENS4_5ArrayINS4_3est8VariableEEEEEENS_9allocatorISC_EEFvRKS5_S6_SA_EEE, 
                       __ZTSNSt3__110__function6__funcINS_8functionIFvN2gc4lang4TileENS4_6BufferENS4_5ArrayIS6_EES8_NS4_3est6FactorERNS9_14FactorOrderingENS9_22SchurEliminatedHessianES6_EEENS_9allocatorISF_EEFvRKS5_S6_S8_S8_SA_SC_SD_S6_EEE, 
                       __ZTSNSt3__110__function6__funcINS_8functionIFvN2gc4lang4TileENS4_6BufferENS4_6ScalarES6_EEENS_9allocatorIS9_EEFvRKS5_S6_S7_S6_EEE, 
                       __ZTSNSt3__110__function6__funcINS_8functionIFvN2gc4lang4TileENS4_6BufferENS4_6ScalarES6_S6_EEENS_9allocatorIS9_EEFvRKS5_S6_S7_S6_S6_EEE, 
                       __ZTSNSt3__110__function6__funcINS_8functionIFvN2gc4lang4TileENS4_6BufferERNS4_3est8JacobianENS7_14FactorOrderingENS4_6ScalarES6_S6_EEENS_9allocatorISD_EEFvRKS5_S6_S9_SA_SB_S6_S6_EEE, 
                       __ZTSNSt3__110__function6__funcINS_8functionIFvN2gc4lang4TileENS4_6BufferERNS4_3est8JacobianENS7_14FactorOrderingES6_S6_S6_S6_S6_EEENS_9allocatorISC_EEFvRKS5_S6_S9_SA_S6_S6_S6_S6_S6_EEE, 
                       __ZTSNSt3__110__function6__funcINS_8functionIFvN2gc4lang4TileENS4_6BufferERNS4_3est8JacobianENS7_6FactorERNS7_11JacobianSetERNS7_14FactorOrderingENS4_5ArrayIS6_EENSF_ISD_EERNS7_16BlockMatrixArrayENS7_22SchurEliminatedHessianESG_S6_S6_EEENS_9allocatorISM_EEFvRKS5_S6_S9_SA_SC_SE_SG_SH_SJ_SK_SG_S6_S6_EEE, 
                       __ZTSNSt3__110__function6__funcINS_8functionIFvN2gc4lang4TileENS4_6BufferERNS4_3est8JacobianES6_S6_EEENS_9allocatorISB_EEFvRKS5_S6_S9_S6_S6_EEE, 
                       __ZTSNSt3__110__function6__funcINS_8functionIFvN2gc4lang4TileENS4_6BufferES6_EEENS_9allocatorIS8_EEFvRKS5_S6_S6_EEE, 
                       __ZTSNSt3__110__function6__funcINS_8functionIFvN2gc4lang4TileENS4_6BufferES6_NS4_5ArrayINS4_3est8VariableEEEEEENS_9allocatorISC_EEFvRKS5_S6_S6_SA_EEE, 
                       __ZTSNSt3__110__function6__funcINS_8functionIFvN2gc4lang4TileENS4_6BufferES6_NS4_6ScalarES7_S7_S7_S7_S6_S6_EEENS_9allocatorIS9_EEFvRKS5_S6_S6_S7_S7_S7_S7_S7_S6_S6_EEE, 
                       __ZTSNSt3__110__function6__funcINS_8functionIFvN2gc4lang4TileENS4_6BufferES6_NS4_6VectorES6_EEENS_9allocatorIS9_EEFvRKS5_S6_S6_S7_S6_EEE, 
                       __ZTSNSt3__110__function6__funcINS_8functionIFvN2gc4lang4TileENS4_6BufferES6_RNS4_3est8JacobianES6_S6_EEENS_9allocatorISB_EEFvRKS5_S6_S6_S9_S6_S6_EEE, 
                       __ZTSNSt3__110__function6__funcINS_8functionIFvN2gc4lang4TileENS4_6BufferES6_S6_EEENS_9allocatorIS8_EEFvRKS5_S6_S6_S6_EEE, 
                       __ZTSNSt3__110__function6__funcINS_8functionIFvN2gc4lang4TileENS4_6BufferES6_S6_NS4_6ScalarEEEENS_9allocatorIS9_EEFvRKS5_S6_S6_S6_S7_EEE, 
                       __ZTSNSt3__110__function6__funcINS_8functionIFvN2gc4lang4TileENS4_6BufferES6_S6_NS4_6VectorES6_S6_EEENS_9allocatorIS9_EEFvRKS5_S6_S6_S6_S7_S6_S6_EEE, 
                       __ZTSNSt3__110__function6__funcINS_8functionIFvN2gc4lang4TileENS4_6BufferES6_S6_S6_EEENS_9allocatorIS8_EEFvRKS5_S6_S6_S6_S6_EEE, 
                       __ZTSNSt3__110__function6__funcINS_8functionIFvN2gc4lang4TileENS4_6BufferES6_S6_S6_S6_NS4_6ScalarEEEENS_9allocatorIS9_EEFvRKS5_S6_S6_S6_S6_S6_S7_EEE, 
                       __ZTSNSt3__110__function6__funcINS_8functionIFvN2gc4lang4TileENS4_6BufferES6_S6_S6_S6_S6_S6_EEENS_9allocatorIS8_EEFvRKS5_S6_S6_S6_S6_S6_S6_S6_EEE, 
                       __ZTSNSt3__110__function6__funcINS_8functionIFvN2gc4lang4TileENS4_6ScalarENS4_6BufferES7_EEENS_9allocatorIS9_EEFvRKS5_S6_S7_S7_EEE, 
                       __ZTSNSt3__110__function6__funcINS_8functionIFvN2gc4lang4TileENS4_6ScalarERNS4_3est11BlockMatrixEEEENS_9allocatorISB_EEFvRKS5_S6_S9_EEE, 
                       __ZTSNSt3__110__function6__funcINS_8functionIFvN2gc4lang4TileERNS4_3est11BlockMatrixEEEENS_9allocatorISA_EEFvRKS5_S8_EEE, 
                       __ZTSNSt3__110__function6__funcINS_8functionIFvN2gc4lang4TileERNS4_3est11BlockMatrixENS4_6BufferES9_EEENS_9allocatorISB_EEFvRKS5_S8_S9_S9_EEE, 
                       __ZTSNSt3__110__function6__funcINS_8functionIFvN2gc4lang4TileERNS4_3est11BlockMatrixENS4_6BufferES9_S9_EEENS_9allocatorISB_EEFvRKS5_S8_S9_S9_S9_EEE, 
                       __ZTSNSt3__110__function6__funcINS_8functionIFvN2gc4lang4TileERNS4_3est11BlockMatrixENS4_6BufferES9_S9_RS9_EEENS_9allocatorISC_EEFvRKS5_S8_S9_S9_S9_SA_EEE, 
                       __ZTSNSt3__110__function6__funcINS_8functionIFvN2gc4lang4TileERNS4_3est11JacobianSetENS4_5ArrayINS6_14FactorOrderingEEENS9_INS4_6BufferEEESD_SC_EEENS_9allocatorISF_EEFvRKS5_S8_SB_SD_SD_SC_EEE, 
                       __ZTSNSt3__110__function6__funcINS_8functionIFvN2gc4lang4TileERNS4_3est14FactorOrderingENS4_6BufferERNS6_8JacobianES9_S9_EEENS_9allocatorISD_EEFvRKS5_S8_S9_SB_S9_S9_EEE, 
                       __ZTSNSt3__110__function6__funcINS_8functionIFvN2gc4lang4TileERNS4_3est14FactorOrderingERNS6_8JacobianENS4_6BufferERSB_EEENS_9allocatorISE_EEFvRKS5_S8_SA_SB_SC_EEE, 
                       __ZTSNSt3__110__function6__funcINS_8functionIFvN2gc4lang4TileERNS4_3est14FactorOrderingERNS6_8JacobianENS4_6BufferESB_EEENS_9allocatorISD_EEFvRKS5_S8_SA_SB_SB_EEE, 
                       __ZTSNSt3__110__function6__funcINS_8functionIFvN2gc4lang4TileERNS4_3est14FactorOrderingERNS6_8JacobianENS4_6BufferESB_SB_EEENS_9allocatorISD_EEFvRKS5_S8_SA_SB_SB_SB_EEE, 
                       __ZTSNSt3__110__function6__funcINS_8functionIFvN2gc4lang4TileERNS4_3est14FactorOrderingERNS6_8JacobianENS4_6BufferESB_SB_SB_EEENS_9allocatorISD_EEFvRKS5_S8_SA_SB_SB_SB_SB_EEE, 
                       __ZTSNSt3__110__function6__funcINS_8functionIFvN2gc4lang4TileERNS4_3est8JacobianENS4_6BufferES9_S9_RS9_EEENS_9allocatorISC_EEFvRKS5_S8_S9_S9_S9_SA_EEE, 
                       __ZTSNSt3__110__function6__funcINS_8functionIFvN2gc4lang4TileERNS4_3est8JacobianENS4_6BufferES9_S9_S9_S9_EEENS_9allocatorISB_EEFvRKS5_S8_S9_S9_S9_S9_S9_EEE, 
                       __ZTSNSt3__110__function6__funcINS_8functionIFvN2gc4lang4TileERNS4_3est8JacobianENS6_14FactorOrderingENS4_6BufferESA_EEENS_9allocatorISC_EEFvRKS5_S8_S9_SA_SA_EEE, 
                       __ZTSNSt3__110__function6__funcINS_8functionIFvN2gc4lang4TileERNS4_3est8JacobianENS6_14FactorOrderingENS4_6BufferESA_SA_EEENS_9allocatorISC_EEFvRKS5_S8_S9_SA_SA_SA_EEE, 
                       __ZTSNSt3__110__function6__funcINS_8functionIFvN2gc4lang4TileERNS4_3est8JacobianENS6_14FactorOrderingENS4_6BufferESA_SA_SA_EEENS_9allocatorISC_EEFvRKS5_S8_S9_SA_SA_SA_SA_EEE, 
                       __ZTSNSt3__110__function6__funcINS_8functionIFvN2gc4lang4TileERNS4_3est8JacobianENS6_14FactorOrderingES9_NS4_6BufferESA_SA_SA_SA_SA_EEENS_9allocatorISC_EEFvRKS5_S8_S9_S9_SA_SA_SA_SA_SA_SA_EEE, 
                       __ZTSNSt3__110__function6__funcINS_8functionIFvN2gc4lang4TileERNS4_6ScalarENS4_6BufferEEEENS_9allocatorISA_EEFvRKS5_S7_S8_EEE, 
                       __ZTSNSt3__110__function6__funcIPFN2gc4ExprES3_ENS_9allocatorIS5_EES4_EE, 
                       __ZTSNSt3__110__function6__funcIPFN2gc4ExprES3_S3_ENS_9allocatorIS5_EES4_EE, 
                       __ZTSNSt3__110__function6__funcIPFN2gc4StmtERKNS2_6TargetES3_ENS_9allocatorIS8_EES7_EE, 
                       __ZTSNSt3__110__function6__funcIPFN2gc4lang2ad15BackpropFunctorENS3_6TensorES6_S6_ENS_9allocatorIS8_EES7_EE, 
                       __ZTSNSt3__110__function6__funcIPFdddENS_9allocatorIS3_EES2_EE, 
                       __ZTSNSt3__110__function6__funcIZN2gc3est10EvaluateHp10kernelFuncEvEUlNS2_4lang4TileERNS5_3est11BlockMatrixENS5_6BufferESA_SA_RSA_E_NS_9allocatorISC_EEFvS6_S9_SA_SA_SA_SB_EEE, 
                       __ZTSNSt3__110__function6__funcIZN2gc3est10EvaluateHp19kernelFuncNoOffsetsEvEUlNS2_4lang4TileERNS5_3est11BlockMatrixENS5_6BufferESA_E_NS_9allocatorISB_EEFvS6_S9_SA_SA_EEE, 
                       __ZTSNSt3__110__function6__funcIZN2gc3est10EvaluateJp10kernelFuncEjEUlNS2_4lang4TileENS5_6BufferES7_RNS5_3est8JacobianES7_S7_E_NS_9allocatorISB_EEFvS6_S7_S7_SA_S7_S7_EEE, 
                       __ZTSNSt3__110__function6__funcIZN2gc3est10EvaluateJp18kernelFuncUnsortedEjEUlNS2_4lang4TileERNS5_3est14FactorOrderingENS5_6BufferERNS7_8JacobianESA_SA_E_NS_9allocatorISD_EEFvS6_S9_SA_SC_SA_SA_EEE, 
                       __ZTSNSt3__110__function6__funcIZN2gc3est10EvaluateJp18kernelFuncVariadicEjEUlNS2_4lang4TileERNS5_3est14FactorOrderingENS5_6BufferERNS7_8JacobianESA_SA_E_NS_9allocatorISD_EEFvS6_S9_SA_SC_SA_SA_EEE, 
                       __ZTSNSt3__110__function6__funcIZN2gc3est10EvaluateJp19kernelFuncNoOffsetsEjEUlNS2_4lang4TileENS5_6BufferERNS5_3est8JacobianES7_S7_E_NS_9allocatorISB_EEFvS6_S7_SA_S7_S7_EEE, 
                       __ZTSNSt3__110__function6__funcIZN2gc3est10EvaluateJp27kernelFuncUnsortedNoOffsetsEjEUlNS2_4lang4TileERNS5_3est14FactorOrderingERNS7_8JacobianENS5_6BufferESC_E_NS_9allocatorISD_EEFvS6_S9_SB_SC_SC_EEE, 
                       __ZTSNSt3__110__function6__funcIZN2gc3est10EvaluateJp27kernelFuncVariadicNoOffsetsEjEUlNS2_4lang4TileERNS5_3est14FactorOrderingERNS7_8JacobianENS5_6BufferESC_E_NS_9allocatorISD_EEFvS6_S9_SB_SC_SC_EEE, 
                       __ZTSNSt3__110__function6__funcIZN2gc3est11EvaluateJtJ18kernelFuncDiagonalEvEUlNS2_4lang4TileENS5_3est13BlockOrderingENS7_14FactorOrderingERNS7_8JacobianERNS7_11BlockMatrixEE_NS_9allocatorISE_EEFvS6_S8_S9_SB_SD_EEE, 
                       __ZTSNSt3__110__function6__funcIZN2gc3est11EvaluateJtJ21kernelFuncOffDiagonalEvEUlNS2_4lang4TileENS5_3est13BlockOrderingENS5_5ArrayINS7_14FactorOrderingEEERNS7_11JacobianSetERNS7_11BlockMatrixEE_NS_9allocatorISG_EEFvS6_S8_SB_SD_SF_EEE, 
                       __ZTSNSt3__110__function6__funcIZN2gc3est11EvaluateJte10kernelFuncEvEUlNS2_4lang4TileENS5_3est14FactorOrderingERNS7_8JacobianENS5_6BufferESB_E_NS_9allocatorISC_EEFvS6_S8_SA_SB_SB_EEE, 
                       __ZTSNSt3__110__function6__funcIZN2gc3est11PCGIterate110kernelFuncEvEUlNS2_4lang4TileENS5_6BufferES7_S7_S7_S7_S7_S7_E_NS_9allocatorIS8_EEFvS6_S7_S7_S7_S7_S7_S7_S7_EEE, 
                       __ZTSNSt3__110__function6__funcIZN2gc3est11PCGIterate210kernelFuncEvEUlNS2_4lang4TileENS5_6BufferES7_S7_E_NS_9allocatorIS8_EEFvS6_S7_S7_S7_EEE, 
                       __ZTSNSt3__110__function6__funcIZN2gc3est12EvaluateJtJp10kernelFuncEjEUlNS2_4lang4TileERNS5_3est14FactorOrderingERNS7_8JacobianENS5_6BufferERSC_E_NS_9allocatorISE_EEFvS6_S9_SB_SC_SD_EEE, 
                       __ZTSNSt3__110__function6__funcIZN2gc3est12InvertBlockM10kernelFuncEvEUlNS2_4lang4TileENS5_6BufferES7_E_NS_9allocatorIS8_EEFvS6_S7_S7_EEE, 
                       __ZTSNSt3__110__function6__funcIZN2gc3est14EvaluateBlockM10kernelFuncEvEUlNS2_4lang4TileERNS5_3est14FactorOrderingERNS7_8JacobianENS5_6BufferESC_E_NS_9allocatorISD_EEFvS6_S9_SB_SC_SC_EEE, 
                       __ZTSNSt3__110__function6__funcIZN2gc3est14ExtractDiagJtJ10kernelFuncEvEUlNS2_4lang4TileERNS5_3est11BlockMatrixENS5_6BufferESA_SA_E_NS_9allocatorISB_EEFvS6_S9_SA_SA_SA_EEE, 
                       __ZTSNSt3__110__function6__funcIZN2gc3est14ExtractDiagJtJ19kernelFuncNoOffsetsEvEUlNS2_4lang4TileERNS5_3est11BlockMatrixENS5_6BufferESA_E_NS_9allocatorISB_EEFvS6_S9_SA_SA_EEE, 
                       __ZTSNSt3__110__function6__funcIZN2gc3est14SchurLinearize16factorKernelFuncERKNS_6vectorINS3_13ArgumentGroupENS_9allocatorIS6_EEEERKNS_3mapINS_12basic_stringIcNS_11char_traitsIcEENS7_IcEEEEjNS_4lessISH_EENS7_INS_4pairIKSH_jEEEEEEbEUlNS2_4lang4TileENSR_6BufferENSR_3est6FactorERNSU_11JacobianSetENSR_5ArrayIST_EENSY_INSU_14FactorOrderingEEERNSU_16BlockMatrixArrayESZ_E_NS7_IS14_EEFvSS_ST_SV_SX_SZ_S11_S13_SZ_EEE, 
                       __ZTSNSt3__110__function6__funcIZN2gc3est14SchurLinearize28eliminatedVariableKernelFuncERKNS_6vectorINS3_13ArgumentGroupENS_9allocatorIS6_EEEERKNS_3mapINS_12basic_stringIcNS_11char_traitsIcEENS7_IcEEEEjNS_4lessISH_EENS7_INS_4pairIKSH_jEEEEEEbEUlNS2_4lang4TileENSR_6BufferERNSR_3est8JacobianENSU_6FactorERNSU_11JacobianSetERNSU_14FactorOrderingENSR_5ArrayIST_EENS12_IS10_EERNSU_16BlockMatrixArrayENSU_22SchurEliminatedHessianES13_ST_ST_E_NS7_IS18_EEFvSS_ST_SW_SX_SZ_S11_S13_S14_S16_S17_S13_ST_ST_EEE, 
                       __ZTSNSt3__110__function6__funcIZN2gc3est17SchurOuterProduct27schurOuterProductKernelFuncERKNS_6vectorINS3_13ArgumentGroupENS_9allocatorIS6_EEEERKNS_3mapINS_12basic_stringIcNS_11char_traitsIcEENS7_IcEEEEjNS_4lessISH_EENS7_INS_4pairIKSH_jEEEEEEbEUlNS2_4lang4TileENSR_3est6FactorERNST_14FactorOrderingENSR_5ArrayINSR_6BufferEEERNST_16BlockMatrixArrayENST_22SchurEliminatedHessianESZ_SY_SY_E_NS7_IS13_EEFvSS_SU_SW_SZ_S11_S12_SZ_SY_SY_EEE, 
                       __ZTSNSt3__110__function6__funcIZN2gc3est17SymmetrizeDiagJtJ10kernelFuncEvEUlNS2_4lang4TileERNS5_3est11BlockMatrixEE_NS_9allocatorISA_EEFvS6_S9_EEE, 
                       __ZTSNSt3__110__function6__funcIZN2gc3est18ImplicitSchurJtJp110kernelFuncEvEUlNS2_4lang4TileERNS5_3est8JacobianENS7_14FactorOrderingENS5_6BufferESB_E_NS_9allocatorISC_EEFvS6_S9_SA_SB_SB_EEE, 
                       __ZTSNSt3__110__function6__funcIZN2gc3est18ImplicitSchurJtJp210kernelFuncEjEUlNS2_4lang4TileERNS5_3est8JacobianENS5_6BufferESA_SA_SA_SA_E_NS_9allocatorISB_EEFvS6_S9_SA_SA_SA_SA_SA_EEE, 
                       __ZTSNSt3__110__function6__funcIZN2gc3est18ImplicitSchurJtJp218kernelFuncUnsortedEjEUlNS2_4lang4TileERNS5_3est14FactorOrderingERNS7_8JacobianENS5_6BufferESC_SC_SC_E_NS_9allocatorISD_EEFvS6_S9_SB_SC_SC_SC_SC_EEE, 
                       __ZTSNSt3__110__function6__funcIZN2gc3est18ImplicitSchurJtJp218kernelFuncVariadicEjEUlNS2_4lang4TileERNS5_3est8JacobianENS7_14FactorOrderingENS5_6BufferESB_SB_SB_E_NS_9allocatorISC_EEFvS6_S9_SA_SB_SB_SB_SB_EEE, 
                       __ZTSNSt3__110__function6__funcIZN2gc3est18ImplicitSchurJtJp219kernelFuncNoOffsetsEjEUlNS2_4lang4TileERNS5_3est8JacobianENS5_6BufferESA_SA_RSA_E_NS_9allocatorISC_EEFvS6_S9_SA_SA_SA_SB_EEE, 
                       __ZTSNSt3__110__function6__funcIZN2gc3est18ImplicitSchurJtJp227kernelFuncUnsortedNoOffsetsEjEUlNS2_4lang4TileERNS5_3est14FactorOrderingERNS7_8JacobianENS5_6BufferESC_SC_E_NS_9allocatorISD_EEFvS6_S9_SB_SC_SC_SC_EEE, 
                       __ZTSNSt3__110__function6__funcIZN2gc3est18ImplicitSchurJtJp227kernelFuncVariadicNoOffsetsEjEUlNS2_4lang4TileERNS5_3est8JacobianENS7_14FactorOrderingENS5_6BufferESB_SB_E_NS_9allocatorISC_EEFvS6_S9_SA_SB_SB_SB_EEE, 
                       __ZTSNSt3__110__function6__funcIZN2gc3est20MaterializeJacobians10kernelFuncERKNS3_16ArgumentGroupingERKNS_6vectorINS3_13eJacobianTypeENS_9allocatorIS9_EEEEEUlNS2_4lang4TileENSF_3est6FactorENSF_6BufferESJ_SJ_NSF_5ArrayINSH_14FactorOrderingEEENSH_11VariableSetENSK_ISJ_EESO_NSF_17BindableTypeArrayEE_NSA_ISQ_EEFvSG_SI_SJ_SJ_SJ_SM_SN_SO_SO_SP_EEE, 
                       __ZTSNSt3__110__function6__funcIZN2gc3est20SchurBackSubstitute110kernelFuncERKNS_6vectorINS3_13ArgumentGroupENS_9allocatorIS6_EEEERKNS_3mapINS_12basic_stringIcNS_11char_traitsIcEENS7_IcEEEEjNS_4lessISH_EENS7_INS_4pairIKSH_jEEEEEEbEUlNS2_4lang4TileENSR_6BufferENSR_5ArrayIST_EESV_NSR_3est6FactorERNSW_14FactorOrderingENSW_22SchurEliminatedHessianEST_E_NS7_IS11_EEFvSS_ST_SV_SV_SX_SZ_S10_ST_EEE, 
                       __ZTSNSt3__110__function6__funcIZN2gc3est20SchurBackSubstitute210kernelFuncEvEUlNS2_4lang4TileENS5_6BufferES7_E_NS_9allocatorIS8_EEFvS6_S7_S7_EEE, 
                       __ZTSNSt3__110__function6__funcIZN2gc3est22EvaluateJtJFactorLevel10kernelFuncERKNS_6vectorIjNS_9allocatorIjEEEEEUlNS2_4lang4TileENSB_5ArrayINSB_3est13BlockOrderingEEENSD_INSE_14FactorOrderingEEERNSE_11JacobianSetERNSE_16BlockMatrixArrayEE_NS6_ISN_EEFvSC_SG_SI_SK_SM_EEE, 
                       __ZTSNSt3__110__function6__funcIZN2gc3est24ImplicitSchurInitialize110kernelFuncEvEUlNS2_4lang4TileENS5_6BufferERNS5_3est8JacobianENS8_14FactorOrderingENS5_6ScalarES7_S7_E_NS_9allocatorISD_EEFvS6_S7_SA_SB_SC_S7_S7_EEE, 
                       __ZTSNSt3__110__function6__funcIZN2gc3est24ImplicitSchurInitialize210kernelFuncEjEUlNS2_4lang4TileENS5_6BufferERNS5_3est8JacobianENS8_14FactorOrderingES7_S7_S7_S7_S7_E_NS_9allocatorISC_EEFvS6_S7_SA_SB_S7_S7_S7_S7_S7_EEE, 
                       __ZTSNSt3__110__function6__funcIZN2gc3est24ImplicitSchurInitialize310kernelFuncEvEUlNS2_4lang4TileERNS5_3est8JacobianENS7_14FactorOrderingESA_NS5_6BufferESB_SB_SB_SB_SB_E_NS_9allocatorISC_EEFvS6_S9_SA_SA_SB_SB_SB_SB_SB_SB_EEE, 
                       __ZTSNSt3__110__function6__funcIZN2gc3est25ApplyJacobiPreconditioner10kernelFuncEvEUlNS2_4lang4TileENS5_6BufferES7_S7_E_NS_9allocatorIS8_EEFvS6_S7_S7_S7_EEE, 
                       __ZTSNSt3__110__function6__funcIZN2gc3est28ImplicitSchurBackSubstitute110kernelFuncERKNS_6vectorINS3_13ArgumentGroupENS_9allocatorIS6_EEEERKNS_3mapINS_12basic_stringIcNS_11char_traitsIcEENS7_IcEEEEjNS_4lessISH_EENS7_INS_4pairIKSH_jEEEEEEEUlNS2_4lang4TileERNSR_3est11JacobianSetENSR_5ArrayINST_14FactorOrderingEEENSW_INSR_6BufferEEES10_SZ_E_NS7_IS11_EEFvSS_SV_SY_S10_S10_SZ_EEE, 
                       __ZTSNSt3__110__function6__funcIZN2gc3est28ImplicitSchurBackSubstitute210kernelFuncEvEUlNS2_4lang4TileENS5_6BufferES7_S7_S7_E_NS_9allocatorIS8_EEFvS6_S7_S7_S7_S7_EEE, 
                       __ZTSNSt3__110__function6__funcIZN2gc3est28SchurDampAndInvertEliminated10kernelFuncEvEUlNS2_4lang4TileERNS5_6ScalarENS5_6BufferEE_NS_9allocatorISA_EEFvS6_S8_S9_EEE, 
                       __ZTSNSt3__110__function6__funcIZN2gc3est30ApplyAdditiveLMDampingExplicit10kernelFuncEvEUlNS2_4lang4TileENS5_6ScalarERNS5_3est11BlockMatrixEE_NS_9allocatorISB_EEFvS6_S7_SA_EEE, 
                       __ZTSNSt3__110__function6__funcIZN2gc3est30ApplyAdditiveLMDampingImplicit10kernelFuncEvEUlNS2_4lang4TileENS5_6BufferENS5_6ScalarES7_E_NS_9allocatorIS9_EEFvS6_S7_S8_S7_EEE, 
                       __ZTSNSt3__110__function6__funcIZN2gc3est30ApplyBlockJacobiPreconditioner10kernelFuncEvEUlNS2_4lang4TileENS5_6BufferES7_S7_E_NS_9allocatorIS8_EEFvS6_S7_S7_S7_EEE, 
                       __ZTSNSt3__110__function6__funcIZN2gc3est33ApplyAdditiveLMDampingToDiagonals10kernelFuncEvEUlNS2_4lang4TileENS5_6ScalarENS5_6BufferES8_E_NS_9allocatorIS9_EEFvS6_S7_S8_S8_EEE, 
                       __ZTSNSt3__110__function6__funcIZN2gc3est36ApplyMultiplicativeLMDampingExplicit10kernelFuncEvEUlNS2_4lang4TileENS5_6ScalarERNS5_3est11BlockMatrixEE_NS_9allocatorISB_EEFvS6_S7_SA_EEE, 
                       __ZTSNSt3__110__function6__funcIZN2gc3est36ApplyMultiplicativeLMDampingImplicit10kernelFuncEvEUlNS2_4lang4TileENS5_6BufferENS5_6ScalarES7_S7_E_NS_9allocatorIS9_EEFvS6_S7_S8_S7_S7_EEE, 
                       __ZTSNSt3__110__function6__funcIZN2gc3est39ApplyMultiplicativeLMDampingToDiagonals10kernelFuncEvEUlNS2_4lang4TileENS5_6ScalarENS5_6BufferES8_E_NS_9allocatorIS9_EEFvS6_S7_S8_S8_EEE, 
                       __ZTSNSt3__110__function6__funcIZN2gc3est7InvertM10kernelFuncEvEUlNS2_4lang4TileENS5_6BufferES7_E_NS_9allocatorIS8_EEFvS6_S7_S7_EEE, 
                       __ZTSNSt3__110__function6__funcIZN2gc3ops10BinaryOpTTINS3_5MaxTTENS3_10AutoDiffOpEE6kernelEvEUlRKNS_6vectorI17loopkit_rt_type_tNS_9allocatorIS9_EEEEE_NSA_ISF_EEFNS_8optionalIS9_EESE_EEE, 
                       __ZTSNSt3__110__function6__funcIZN2gc3ops10BinaryOpTTINS3_5MaxTTENS3_10AutoDiffOpEE6kernelEvEUlRKNS_6vectorINS2_11ExtentExprsENS_9allocatorIS9_EEEEE_NSA_ISF_EEFNS_8optionalINS_4pairIS9_NS2_4ExprEEEEESE_EEE, 
                       __ZTSNSt3__110__function6__funcIZN2gc3ops10BinaryOpTTINS3_5MinTTENS3_10AutoDiffOpEE6kernelEvEUlRKNS_6vectorI17loopkit_rt_type_tNS_9allocatorIS9_EEEEE_NSA_ISF_EEFNS_8optionalIS9_EESE_EEE, 
                       __ZTSNSt3__110__function6__funcIZN2gc3ops10BinaryOpTTINS3_5MinTTENS3_10AutoDiffOpEE6kernelEvEUlRKNS_6vectorINS2_11ExtentExprsENS_9allocatorIS9_EEEEE_NSA_ISF_EEFNS_8optionalINS_4pairIS9_NS2_4ExprEEEEESE_EEE, 
                       __ZTSNSt3__110__function6__funcIZN2gc3ops10BinaryOpTTINS3_8DivideTTENS3_10AutoDiffOpEE6kernelEvEUlRKNS_6vectorI17loopkit_rt_type_tNS_9allocatorIS9_EEEEE_NSA_ISF_EEFNS_8optionalIS9_EESE_EEE, 
                       __ZTSNSt3__110__function6__funcIZN2gc3ops10BinaryOpTTINS3_8DivideTTENS3_10AutoDiffOpEE6kernelEvEUlRKNS_6vectorINS2_11ExtentExprsENS_9allocatorIS9_EEEEE_NSA_ISF_EEFNS_8optionalINS_4pairIS9_NS2_4ExprEEEEESE_EEE, 
                       __ZTSNSt3__110__function6__funcIZN2gc3ops10SSIMOpGrad6kernelEvEUlNS2_4lang4TileENS5_6BufferES7_S7_NS5_6VectorES7_S7_E_NS_9allocatorIS9_EEFvS6_S7_S7_S7_S8_S7_S7_EEE, 
                       __ZTSNSt3__110__function6__funcIZN2gc3ops10ScanOpGrad6kernelEvEUlNS2_4lang4TileENS5_6BufferES7_E_NS_9allocatorIS8_EEFvS6_S7_S7_EEE, 
                       __ZTSNSt3__110__function6__funcIZN2gc3ops10ScanOpGrad6kernelEvEUlRKNS2_11ExtentExprsEE_NS_9allocatorIS8_EEFNS_8optionalIS5_EES7_EEE, 
                       __ZTSNSt3__110__function6__funcIZN2gc3ops11AddAssignTTC1EvEUlNS2_4lang4TileENS5_6BufferES7_E_NS_9allocatorIS8_EEFvS6_S7_S7_EEE, 
                       __ZTSNSt3__110__function6__funcIZN2gc3ops11RangeStatic6kernelEvEUlNS2_4lang4TileENS5_6BufferEE_NS_9allocatorIS8_EEFvS6_S7_EEE, 
                       __ZTSNSt3__110__function6__funcIZN2gc3ops12CrossEntropy6kernelEvEUlNS2_4lang4TileENS5_6BufferES7_S7_E_NS_9allocatorIS8_EEFvS6_S7_S7_S7_EEE, 
                       __ZTSNSt3__110__function6__funcIZN2gc3ops12RangeDynamic6kernelEvEUlNS2_4lang4TileENS5_6BufferES7_E_NS_9allocatorIS8_EEFvS6_S7_S7_EEE, 
                       __ZTSNSt3__110__function6__funcIZN2gc3ops12ReduceOpGrad6kernelEvEUlNS2_4lang4TileENS5_6BufferES7_E_NS_9allocatorIS8_EEFvS6_S7_S7_EEE, 
                       __ZTSNSt3__110__function6__funcIZN2gc3ops13NonzeroOpGrad6kernelEvEUlNS2_4lang4TileENS5_6BufferES7_E_NS_9allocatorIS8_EEFvS6_S7_S7_EEE, 
                       __ZTSNSt3__110__function6__funcIZN2gc3ops13NonzeroOpGrad6kernelEvEUlRKNS2_11ExtentExprsEE_NS_9allocatorIS8_EEFNS_8optionalIS5_EES7_EEE, 
                       __ZTSNSt3__110__function6__funcIZN2gc3ops16AutoDiffBackprop6kernelEvEUlRKNS2_6TargetENS2_4StmtEE_NS_9allocatorIS9_EEFS8_S7_S8_EEE, 
                       __ZTSNSt3__110__function6__funcIZN2gc3ops20SSIMOpPreprocessGrad6kernelEvEUlNS2_4lang4TileENS5_6BufferES7_NS5_6VectorES7_E_NS_9allocatorIS9_EEFvS6_S7_S7_S8_S7_EEE, 
                       __ZTSNSt3__110__function6__funcIZN2gc3ops20SSIMOpPreprocessGrad6kernelEvEUlRKNS2_11ExtentExprsEE_NS_9allocatorIS8_EEFNS_8optionalIS5_EES7_EEE, 
                       __ZTSNSt3__110__function6__funcIZN2gc3ops4Cast6kernelEvEUlNS2_4lang4TileENS5_6BufferES7_E_NS_9allocatorIS8_EEFvS6_S7_S7_EEE, 
                       __ZTSNSt3__110__function6__funcIZN2gc3ops4Copy6kernelEvEUlNS2_4lang4TileENS5_6BufferES7_E_NS_9allocatorIS8_EEFvS6_S7_S7_EEE, 
                       __ZTSNSt3__110__function6__funcIZN2gc3ops4Head6kernelEvEUlNS2_4lang4TileENS5_6BufferES7_E_NS_9allocatorIS8_EEFvS6_S7_S7_EEE, 
                       __ZTSNSt3__110__function6__funcIZN2gc3ops4Head6kernelEvEUlRKNS2_11ExtentExprsEE_NS_9allocatorIS8_EEFNS_8optionalIS5_EES7_EEE, 
                       __ZTSNSt3__110__function6__funcIZN2gc3ops4L1Op6kernelEvEUlNS2_4lang4TileENS5_6BufferES7_S7_E_NS_9allocatorIS8_EEFvS6_S7_S7_S7_EEE, 
                       __ZTSNSt3__110__function6__funcIZN2gc3ops4L2Op6kernelEvEUlNS2_4lang4TileENS5_6BufferES7_S7_E_NS_9allocatorIS8_EEFvS6_S7_S7_S7_EEE, 
                       __ZTSNSt3__110__function6__funcIZN2gc3ops4Tail6kernelEvEUlNS2_4lang4TileENS5_6BufferES7_E_NS_9allocatorIS8_EEFvS6_S7_S7_EEE, 
                       __ZTSNSt3__110__function6__funcIZN2gc3ops4Tail6kernelEvEUlRKNS2_11ExtentExprsEE_NS_9allocatorIS8_EEFNS_8optionalIS5_EES7_EEE, 
                       __ZTSNSt3__110__function6__funcIZN2gc3ops5MaxTTC1EvEUlNS2_4lang4TileENS5_6BufferES7_S7_E_NS_9allocatorIS8_EEFvS6_S7_S7_S7_EEE, 
                       __ZTSNSt3__110__function6__funcIZN2gc3ops5MinTTC1EvEUlNS2_4lang4TileENS5_6BufferES7_S7_E_NS_9allocatorIS8_EEFvS6_S7_S7_S7_EEE, 
                       __ZTSNSt3__110__function6__funcIZN2gc3ops6Resize6kernelEvEUlNS2_4lang6BufferES6_E_NS_9allocatorIS7_EEFvS6_S6_EEE, 
                       __ZTSNSt3__110__function6__funcIZN2gc3ops6SSIMOp6kernelEvEUlNS2_4lang4TileENS5_6BufferES7_NS5_6VectorES7_E_NS_9allocatorIS9_EEFvS6_S7_S7_S8_S7_EEE, 
                       __ZTSNSt3__110__function6__funcIZN2gc3ops6detail10TensorFill6kernelEvEUlNS2_4lang4TileENS6_6BufferEE_NS_9allocatorIS9_EEFvS7_S8_EEE, 
                       __ZTSNSt3__110__function6__funcIZN2gc3ops6detail10TensorSize6kernelEvEUlNS2_4lang6BufferENS6_6ScalarEE_NS_9allocatorIS9_EEFvS7_S8_EEE, 
                       __ZTSNSt3__110__function6__funcIZN2gc3ops6detail13TensorExtents6kernelEvEUlNS2_4lang6BufferENS6_6VectorEE_NS_9allocatorIS9_EEFvS7_S8_EEE, 
                       __ZTSNSt3__110__function6__funcIZN2gc3ops6detail13TensorExtents6kernelEvEUlRKNS2_11ExtentExprsEE_NS_9allocatorIS9_EEFNS_8optionalIS6_EES8_EEE, 
                       __ZTSNSt3__110__function6__funcIZN2gc3ops6detail19convertFunctionBodyINS3_6TensorEJS6_S6_EEENS_8functionIFNS4_18FunctionReturnTypeERKNS_6vectorIS6_NS_9allocatorIS6_EEEEEEENS7_IFT_DpT0_EEEEUlSE_E_NSA_ISM_EESF_EE, 
                       __ZTSNSt3__110__function6__funcIZN2gc3ops6detail19convertFunctionBodyIvJNS3_6TensorES6_S6_S6_S6_S6_S6_S6_S6_EEENS_8functionIFNS4_18FunctionReturnTypeERKNS_6vectorIS6_NS_9allocatorIS6_EEEEEEENS7_IFT_DpT0_EEEEUlSE_E_NSA_ISM_EESF_EE, 
                       __ZTSNSt3__110__function6__funcIZN2gc3ops8DivideTTC1EvEUlNS2_4lang4TileENS5_6BufferES7_S7_E_NS_9allocatorIS8_EEFvS6_S7_S7_S7_EEE, 
                       __ZTSNSt3__110__function6__funcIZN2gc4lang3est11BlockMatrix13forEachColumnIZZNS2_3est10EvaluateHp19kernelFuncNoOffsetsEvENKUlNS3_4TileERS5_NS3_6BufferESB_E_clES9_SA_SB_SB_EUlNS2_4ExprENS3_6MatrixEE_EEvRKSD_OT_EUlSI_E_NS_9allocatorISK_EEFvSD_EEE, 
                       __ZTSNSt3__110__function6__funcIZN2gc4lang3est11BlockMatrix13forEachColumnIZZNS2_3est14ExtractDiagJtJ10kernelFuncEvENKUlNS3_4TileERS5_NS3_6BufferESB_SB_E_clES9_SA_SB_SB_SB_EUlNS2_4ExprENS3_6MatrixEE_EEvRKSD_OT_EUlSI_E_NS_9allocatorISK_EEFvSD_EEE, 
                       __ZTSNSt3__110__function6__funcIZN2gc4lang3est11BlockMatrix13forEachColumnIZZNS2_3est14ExtractDiagJtJ19kernelFuncNoOffsetsEvENKUlNS3_4TileERS5_NS3_6BufferESB_E_clES9_SA_SB_SB_EUlNS2_4ExprENS3_6MatrixEE_EEvRKSD_OT_EUlSI_E_NS_9allocatorISK_EEFvSD_EEE, 
                       __ZTSNSt3__110__function6__funcIZN2gc4lang3est11BlockMatrix13forEachColumnIZZNS2_3est17SymmetrizeDiagJtJ10kernelFuncEvENKUlNS3_4TileERS5_E_clES9_SA_EUlNS2_4ExprENS3_6MatrixEE_EEvRKSC_OT_EUlSH_E_NS_9allocatorISJ_EEFvSC_EEE, 
                       __ZTSNSt3__110__function6__funcIZN2gc4lang3est11BlockMatrix13forEachColumnIZZNS2_3est30ApplyAdditiveLMDampingExplicit10kernelFuncEvENKUlNS3_4TileENS3_6ScalarERS5_E_clES9_SA_SB_EUlNS2_4ExprENS3_6MatrixEE_EEvRKSD_OT_EUlSI_E_NS_9allocatorISK_EEFvSD_EEE, 
                       __ZTSNSt3__110__function6__funcIZN2gc4lang3est11BlockMatrix13forEachColumnIZZNS2_3est36ApplyMultiplicativeLMDampingExplicit10kernelFuncEvENKUlNS3_4TileENS3_6ScalarERS5_E_clES9_SA_SB_EUlNS2_4ExprENS3_6MatrixEE_EEvRKSD_OT_EUlSI_E_NS_9allocatorISK_EEFvSD_EEE, 
                       __ZTSNSt3__110__function6__funcIZN2gc4lang3est11BlockMatrix13forEachColumnIZZZNS2_3est10EvaluateHp10kernelFuncEvENKUlNS3_4TileERS5_NS3_6BufferESB_SB_RSB_E_clES9_SA_SB_SB_SB_SC_ENKUlvE_clEvEUlNS2_4ExprENS3_6MatrixEE_EEvRKSF_OT_EUlSK_E_NS_9allocatorISM_EEFvSF_EEE, 
                       __ZTSNSt3__110__function6__funcIZN2gc4lang4sort22scatterHistogramHelluyILb0EEEvNS4_13ScatterInputsIXT_EEENS4_14ScatterOutputsIXT_EEENS3_6BufferENS2_4ExprESB_SB_SB_SB_jEUlT_E0_NS_9allocatorISD_EEFvSB_EEE, 
                       __ZTSNSt3__110__function6__funcIZN2gc4lang4sort22scatterHistogramHelluyILb0EEEvNS4_13ScatterInputsIXT_EEENS4_14ScatterOutputsIXT_EEENS3_6BufferENS2_4ExprESB_SB_SB_SB_jEUlT_E_NS_9allocatorISD_EEFvSB_EEE, 
                       __ZTSNSt3__110__function6__funcIZN2gc4lang4sort22scatterHistogramHelluyILb1EEEvNS4_13ScatterInputsIXT_EEENS4_14ScatterOutputsIXT_EEENS3_6BufferENS2_4ExprESB_SB_SB_SB_jEUlT_E0_NS_9allocatorISD_EEFvSB_EEE, 
                       __ZTSNSt3__110__function6__funcIZN2gc4lang4sort22scatterHistogramHelluyILb1EEEvNS4_13ScatterInputsIXT_EEENS4_14ScatterOutputsIXT_EEENS3_6BufferENS2_4ExprESB_SB_SB_SB_jEUlT_E_NS_9allocatorISD_EEFvSB_EEE, 
                       __ZTSNSt3__110__function6__funcIZN2gc4lang4sort28scatterHistogramKieberEmmonsILb0EEEvNS4_13ScatterInputsIXT_EEENS4_14ScatterOutputsIXT_EEENS3_6BufferENS2_4ExprESB_SB_SB_SB_jEUlvE0_NS_9allocatorISC_EEFvvEEE, 
                       __ZTSNSt3__110__function6__funcIZN2gc4lang4sort28scatterHistogramKieberEmmonsILb0EEEvNS4_13ScatterInputsIXT_EEENS4_14ScatterOutputsIXT_EEENS3_6BufferENS2_4ExprESB_SB_SB_SB_jEUlvE_NS_9allocatorISC_EEFvvEEE, 
                       __ZTSNSt3__110__function6__funcIZN2gc4lang4sort28scatterHistogramKieberEmmonsILb1EEEvNS4_13ScatterInputsIXT_EEENS4_14ScatterOutputsIXT_EEENS3_6BufferENS2_4ExprESB_SB_SB_SB_jEUlvE0_NS_9allocatorISC_EEFvvEEE, 
                       __ZTSNSt3__110__function6__funcIZN2gc4lang4sort28scatterHistogramKieberEmmonsILb1EEEvNS4_13ScatterInputsIXT_EEENS4_14ScatterOutputsIXT_EEENS3_6BufferENS2_4ExprESB_SB_SB_SB_jEUlvE_NS_9allocatorISC_EEFvvEEE, 
                       __ZTSNSt3__110__function6__funcIZN2gc4lang9tensorops11UnaryOpImpl11alwaysValidEvEUlNS3_6TensorEE_NS_9allocatorIS7_EEFNS2_4ExprES6_EEE, 
                       __ZTSNSt3__110__function6__funcIZN2gc4lang9tensorops11UnaryOpImpl14adjAlwaysValidEvEUlNS3_6TensorES6_E_NS_9allocatorIS7_EEFNS2_4ExprES6_S6_EEE, 
                       __ZTSNSt3__110__function6__funcIZN2gc4lang9tensorops12BinaryOpImpl11alwaysValidEvEUlNS3_6TensorES6_E_NS_9allocatorIS7_EEFNS2_4ExprES6_S6_EEE, 
                       __ZTSNSt3__110__function6__funcIZN2gc4lang9tensorops12BinaryOpImpl14adjAlwaysValidEvEUlNS3_6TensorES6_S6_E_NS_9allocatorIS7_EEFNS2_4ExprES6_S6_S6_EEE, 
                       __ZTSNSt3__110__function6__funcIZNK2gc4lang3est13BlockOrdering11forOrderingIZZZNS2_3est22EvaluateJtJFactorLevel10kernelFuncERKNS_6vectorIjNS_9allocatorIjEEEEENKUlNS3_4TileENS3_5ArrayIS5_EENSG_INS4_14FactorOrderingEEERNS4_11JacobianSetERNS4_16BlockMatrixArrayEE_clESF_SH_SJ_SL_SN_ENKUlvE_clEvEUlNS2_5TupleENS2_4ExprEE_EEvOT_EUlST_E_NSA_ISV_EEFvSR_EEE, 
                       __ZTSNSt3__110__function6__funcIZNK2gc4lang3est13BlockOrdering13forEachFactorIZZNS2_3est11EvaluateJtJ18kernelFuncDiagonalEvENKUlNS3_4TileES5_NS4_14FactorOrderingERNS4_8JacobianERNS4_11BlockMatrixEE_clES9_S5_SA_SC_SE_EUlNS2_4ExprEE_EEvRKSG_OT_EUlSK_E_NS_9allocatorISM_EEFvSG_EEE, 
                       __ZTSNSt3__110__function6__funcIZNK2gc4lang3est13BlockOrdering13forEachFactorIZZNS2_3est11EvaluateJtJ21kernelFuncOffDiagonalEvENKUlNS3_4TileES5_NS3_5ArrayINS4_14FactorOrderingEEERNS4_11JacobianSetERNS4_11BlockMatrixEE_clES9_S5_SC_SE_SG_EUlNS2_4ExprEE_EEvRKSI_OT_EUlSM_E_NS_9allocatorISO_EEFvSI_EEE, 
                       __ZTSNSt3__110__function6__funcIZNK2gc4lang3est13BlockOrdering13forEachFactorIZZZZNS2_3est22EvaluateJtJFactorLevel10kernelFuncERKNS_6vectorIjNS_9allocatorIjEEEEENKUlNS3_4TileENS3_5ArrayIS5_EENSG_INS4_14FactorOrderingEEERNS4_11JacobianSetERNS4_16BlockMatrixArrayEE_clESF_SH_SJ_SL_SN_ENKUlvE_clEvENKUlNS2_5TupleENS2_4ExprEE_clESQ_SR_EUlSR_E_EEvRKSR_OT_EUlSW_E_NSA_ISY_EEFvSR_EEE, 
                       __ZTSNSt3__110__function6__funcIZZN2gc3est10EvaluateHp10kernelFuncEvENKUlNS2_4lang4TileERNS5_3est11BlockMatrixENS5_6BufferESA_SA_RSA_E_clES6_S9_SA_SA_SA_SB_EUlvE_NS_9allocatorISD_EEFvvEEE, 
                       __ZTSNSt3__110__function6__funcIZZN2gc3est10EvaluateJp18kernelFuncUnsortedEjENKUlNS2_4lang4TileERNS5_3est14FactorOrderingENS5_6BufferERNS7_8JacobianESA_SA_E_clES6_S9_SA_SC_SA_SA_EUlvE_NS_9allocatorISE_EEFvvEEE, 
                       __ZTSNSt3__110__function6__funcIZZN2gc3est10EvaluateJp18kernelFuncVariadicEjENKUlNS2_4lang4TileERNS5_3est14FactorOrderingENS5_6BufferERNS7_8JacobianESA_SA_E_clES6_S9_SA_SC_SA_SA_EUlNS2_4ExprEE_NS_9allocatorISF_EEFvSE_EEE, 
                       __ZTSNSt3__110__function6__funcIZZN2gc3est10EvaluateJp27kernelFuncVariadicNoOffsetsEjENKUlNS2_4lang4TileERNS5_3est14FactorOrderingERNS7_8JacobianENS5_6BufferESC_E_clES6_S9_SB_SC_SC_EUlNS2_4ExprEE_NS_9allocatorISF_EEFvSE_EEE, 
                       __ZTSNSt3__110__function6__funcIZZN2gc3est11EvaluateJte10kernelFuncEvENKUlNS2_4lang4TileENS5_3est14FactorOrderingERNS7_8JacobianENS5_6BufferESB_E_clES6_S8_SA_SB_SB_EUlNS2_4ExprESD_E_NS_9allocatorISE_EEFvSD_SD_EEE, 
                       __ZTSNSt3__110__function6__funcIZZN2gc3est12EvaluateJtJp10kernelFuncEjENKUlNS2_4lang4TileERNS5_3est14FactorOrderingERNS7_8JacobianENS5_6BufferERSC_E_clES6_S9_SB_SC_SD_EUlNS2_4ExprESF_E_NS_9allocatorISG_EEFvSF_SF_EEE, 
                       __ZTSNSt3__110__function6__funcIZZN2gc3est12InvertBlockM10kernelFuncEvENKUlNS2_4lang4TileENS5_6BufferES7_E_clES6_S7_S7_EUlT_E_NS_9allocatorISA_EEFvNS2_4ExprEEEE, 
                       __ZTSNSt3__110__function6__funcIZZN2gc3est12InvertBlockM10kernelFuncEvENKUlNS2_4lang4TileENS5_6BufferES7_E_clES6_S7_S7_EUlvE0_NS_9allocatorIS9_EEFvvEEE, 
                       __ZTSNSt3__110__function6__funcIZZN2gc3est12InvertBlockM10kernelFuncEvENKUlNS2_4lang4TileENS5_6BufferES7_E_clES6_S7_S7_EUlvE_NS_9allocatorIS9_EEFvvEEE, 
                       __ZTSNSt3__110__function6__funcIZZN2gc3est14EvaluateBlockM10kernelFuncEvENKUlNS2_4lang4TileERNS5_3est14FactorOrderingERNS7_8JacobianENS5_6BufferESC_E_clES6_S9_SB_SC_SC_EUlNS2_4ExprESE_E_NS_9allocatorISF_EEFvSE_SE_EEE, 
                       __ZTSNSt3__110__function6__funcIZZN2gc3est14SchurLinearize16factorKernelFuncERKNS_6vectorINS3_13ArgumentGroupENS_9allocatorIS6_EEEERKNS_3mapINS_12basic_stringIcNS_11char_traitsIcEENS7_IcEEEEjNS_4lessISH_EENS7_INS_4pairIKSH_jEEEEEEbENKUlNS2_4lang4TileENSR_6BufferENSR_3est6FactorERNSU_11JacobianSetENSR_5ArrayIST_EENSY_INSU_14FactorOrderingEEERNSU_16BlockMatrixArrayESZ_E_clESS_ST_SV_SX_SZ_S11_S13_SZ_EUlvE_NS7_IS15_EEFvvEEE, 
                       __ZTSNSt3__110__function6__funcIZZN2gc3est14SchurLinearize28eliminatedVariableKernelFuncERKNS_6vectorINS3_13ArgumentGroupENS_9allocatorIS6_EEEERKNS_3mapINS_12basic_stringIcNS_11char_traitsIcEENS7_IcEEEEjNS_4lessISH_EENS7_INS_4pairIKSH_jEEEEEEbENKUlNS2_4lang4TileENSR_6BufferERNSR_3est8JacobianENSU_6FactorERNSU_11JacobianSetERNSU_14FactorOrderingENSR_5ArrayIST_EENS12_IS10_EERNSU_16BlockMatrixArrayENSU_22SchurEliminatedHessianES13_ST_ST_E_clESS_ST_SW_SX_SZ_S11_S13_S14_S16_S17_S13_ST_ST_EUlNS2_4ExprEE_NS7_IS1A_EEFvS19_EEE, 
                       __ZTSNSt3__110__function6__funcIZZN2gc3est17SchurOuterProduct27schurOuterProductKernelFuncERKNS_6vectorINS3_13ArgumentGroupENS_9allocatorIS6_EEEERKNS_3mapINS_12basic_stringIcNS_11char_traitsIcEENS7_IcEEEEjNS_4lessISH_EENS7_INS_4pairIKSH_jEEEEEEbENKUlNS2_4lang4TileENSR_3est6FactorERNST_14FactorOrderingENSR_5ArrayINSR_6BufferEEERNST_16BlockMatrixArrayENST_22SchurEliminatedHessianESZ_SY_SY_E_clESS_SU_SW_SZ_S11_S12_SZ_SY_SY_EUlNS2_4ExprEE_NS7_IS15_EEFvS14_EEE, 
                       __ZTSNSt3__110__function6__funcIZZN2gc3est18ImplicitSchurJtJp110kernelFuncEvENKUlNS2_4lang4TileERNS5_3est8JacobianENS7_14FactorOrderingENS5_6BufferESB_E_clES6_S9_SA_SB_SB_EUlNS2_4ExprESD_E_NS_9allocatorISE_EEFvSD_SD_EEE, 
                       __ZTSNSt3__110__function6__funcIZZN2gc3est18ImplicitSchurJtJp218kernelFuncUnsortedEjENKUlNS2_4lang4TileERNS5_3est14FactorOrderingERNS7_8JacobianENS5_6BufferESC_SC_SC_E_clES6_S9_SB_SC_SC_SC_SC_EUlvE_NS_9allocatorISE_EEFvvEEE, 
                       __ZTSNSt3__110__function6__funcIZZN2gc3est18ImplicitSchurJtJp218kernelFuncVariadicEjENKUlNS2_4lang4TileERNS5_3est8JacobianENS7_14FactorOrderingENS5_6BufferESB_SB_SB_E_clES6_S9_SA_SB_SB_SB_SB_EUlNS2_4ExprEE_NS_9allocatorISE_EEFvSD_EEE, 
                       __ZTSNSt3__110__function6__funcIZZN2gc3est18ImplicitSchurJtJp227kernelFuncVariadicNoOffsetsEjENKUlNS2_4lang4TileERNS5_3est8JacobianENS7_14FactorOrderingENS5_6BufferESB_SB_E_clES6_S9_SA_SB_SB_SB_EUlNS2_4ExprEE_NS_9allocatorISE_EEFvSD_EEE, 
                       __ZTSNSt3__110__function6__funcIZZN2gc3est20MaterializeJacobians10kernelFuncERKNS3_16ArgumentGroupingERKNS_6vectorINS3_13eJacobianTypeENS_9allocatorIS9_EEEEENKUlNS2_4lang4TileENSF_3est6FactorENSF_6BufferESJ_SJ_NSF_5ArrayINSH_14FactorOrderingEEENSH_11VariableSetENSK_ISJ_EESO_NSF_17BindableTypeArrayEE_clESG_SI_SJ_SJ_SJ_SM_SN_SO_SO_SP_EUlvE0_NSA_ISR_EEFvvEEE, 
                       __ZTSNSt3__110__function6__funcIZZN2gc3est20MaterializeJacobians10kernelFuncERKNS3_16ArgumentGroupingERKNS_6vectorINS3_13eJacobianTypeENS_9allocatorIS9_EEEEENKUlNS2_4lang4TileENSF_3est6FactorENSF_6BufferESJ_SJ_NSF_5ArrayINSH_14FactorOrderingEEENSH_11VariableSetENSK_ISJ_EESO_NSF_17BindableTypeArrayEE_clESG_SI_SJ_SJ_SJ_SM_SN_SO_SO_SP_EUlvE1_NSA_ISR_EEFvvEEE, 
                       __ZTSNSt3__110__function6__funcIZZN2gc3est20MaterializeJacobians10kernelFuncERKNS3_16ArgumentGroupingERKNS_6vectorINS3_13eJacobianTypeENS_9allocatorIS9_EEEEENKUlNS2_4lang4TileENSF_3est6FactorENSF_6BufferESJ_SJ_NSF_5ArrayINSH_14FactorOrderingEEENSH_11VariableSetENSK_ISJ_EESO_NSF_17BindableTypeArrayEE_clESG_SI_SJ_SJ_SJ_SM_SN_SO_SO_SP_EUlvE_NSA_ISR_EEFvvEEE, 
                       __ZTSNSt3__110__function6__funcIZZN2gc3est20SchurBackSubstitute110kernelFuncERKNS_6vectorINS3_13ArgumentGroupENS_9allocatorIS6_EEEERKNS_3mapINS_12basic_stringIcNS_11char_traitsIcEENS7_IcEEEEjNS_4lessISH_EENS7_INS_4pairIKSH_jEEEEEEbENKUlNS2_4lang4TileENSR_6BufferENSR_5ArrayIST_EESV_NSR_3est6FactorERNSW_14FactorOrderingENSW_22SchurEliminatedHessianEST_E_clESS_ST_SV_SV_SX_SZ_S10_ST_EUlNS2_4ExprEE_NS7_IS13_EEFvS12_EEE, 
                       __ZTSNSt3__110__function6__funcIZZN2gc3est22EvaluateJtJFactorLevel10kernelFuncERKNS_6vectorIjNS_9allocatorIjEEEEENKUlNS2_4lang4TileENSB_5ArrayINSB_3est13BlockOrderingEEENSD_INSE_14FactorOrderingEEERNSE_11JacobianSetERNSE_16BlockMatrixArrayEE_clESC_SG_SI_SK_SM_EUlvE_NS6_ISO_EEFvvEEE, 
                       __ZTSNSt3__110__function6__funcIZZN2gc3est24ImplicitSchurInitialize110kernelFuncEvENKUlNS2_4lang4TileENS5_6BufferERNS5_3est8JacobianENS8_14FactorOrderingENS5_6ScalarES7_S7_E_clES6_S7_SA_SB_SC_S7_S7_EUlNS2_4ExprESE_E_NS_9allocatorISF_EEFvSE_SE_EEE, 
                       __ZTSNSt3__110__function6__funcIZZN2gc3est24ImplicitSchurInitialize110kernelFuncEvENKUlNS2_4lang4TileENS5_6BufferERNS5_3est8JacobianENS8_14FactorOrderingENS5_6ScalarES7_S7_E_clES6_S7_SA_SB_SC_S7_S7_EUlT_E0_NS_9allocatorISF_EEFvNS2_4ExprEEEE, 
                       __ZTSNSt3__110__function6__funcIZZN2gc3est24ImplicitSchurInitialize110kernelFuncEvENKUlNS2_4lang4TileENS5_6BufferERNS5_3est8JacobianENS8_14FactorOrderingENS5_6ScalarES7_S7_E_clES6_S7_SA_SB_SC_S7_S7_EUlT_E_NS_9allocatorISF_EEFvNS2_4ExprEEEE, 
                       __ZTSNSt3__110__function6__funcIZZN2gc3est24ImplicitSchurInitialize110kernelFuncEvENKUlNS2_4lang4TileENS5_6BufferERNS5_3est8JacobianENS8_14FactorOrderingENS5_6ScalarES7_S7_E_clES6_S7_SA_SB_SC_S7_S7_EUlvE_NS_9allocatorISE_EEFvvEEE, 
                       __ZTSNSt3__110__function6__funcIZZN2gc3est24ImplicitSchurInitialize310kernelFuncEvENKUlNS2_4lang4TileERNS5_3est8JacobianENS7_14FactorOrderingESA_NS5_6BufferESB_SB_SB_SB_SB_E_clES6_S9_SA_SA_SB_SB_SB_SB_SB_SB_EUlNS2_4ExprESD_E_NS_9allocatorISE_EEFvSD_SD_EEE, 
                       __ZTSNSt3__110__function6__funcIZZN2gc3est28ImplicitSchurBackSubstitute110kernelFuncERKNS_6vectorINS3_13ArgumentGroupENS_9allocatorIS6_EEEERKNS_3mapINS_12basic_stringIcNS_11char_traitsIcEENS7_IcEEEEjNS_4lessISH_EENS7_INS_4pairIKSH_jEEEEEEENKUlNS2_4lang4TileERNSR_3est11JacobianSetENSR_5ArrayINST_14FactorOrderingEEENSW_INSR_6BufferEEES10_SZ_E_clESS_SV_SY_S10_S10_SZ_EUlvE_NS7_IS12_EEFvvEEE, 
                       __ZTSNSt3__110__function6__funcIZZN2gc3est28SchurDampAndInvertEliminated10kernelFuncEvENKUlNS2_4lang4TileERNS5_6ScalarENS5_6BufferEE_clES6_S8_S9_EUlT_E0_NS_9allocatorISC_EEFvNS2_4ExprEEEE, 
                       __ZTSNSt3__110__function6__funcIZZN2gc3est28SchurDampAndInvertEliminated10kernelFuncEvENKUlNS2_4lang4TileERNS5_6ScalarENS5_6BufferEE_clES6_S8_S9_EUlT_E_NS_9allocatorISC_EEFvNS2_4ExprEEEE, 
                       __ZTSNSt3__110__function6__funcIZZN2gc3est28SchurDampAndInvertEliminated10kernelFuncEvENKUlNS2_4lang4TileERNS5_6ScalarENS5_6BufferEE_clES6_S8_S9_EUlvE_NS_9allocatorISB_EEFvvEEE, 
                       __ZTSNSt3__110__function6__funcIZZN2gc3est33ApplyAdditiveLMDampingToDiagonals10kernelFuncEvENKUlNS2_4lang4TileENS5_6ScalarENS5_6BufferES8_E_clES6_S7_S8_S8_EUlT_E_NS_9allocatorISB_EEFvNS2_4ExprEEEE, 
                       __ZTSNSt3__110__function6__funcIZZN2gc3est39ApplyMultiplicativeLMDampingToDiagonals10kernelFuncEvENKUlNS2_4lang4TileENS5_6ScalarENS5_6BufferES8_E_clES6_S7_S8_S8_EUlT_E_NS_9allocatorISB_EEFvNS2_4ExprEEEE, 
                       __ZTSNSt3__110__function6__funcIZZN2gc3ops10SSIMOpGrad6kernelEvENKUlNS2_4lang4TileENS5_6BufferES7_S7_NS5_6VectorES7_S7_E_clES6_S7_S7_S7_S8_S7_S7_EUlT_E0_NS_9allocatorISB_EEFvNS2_4ExprEEEE, 
                       __ZTSNSt3__110__function6__funcIZZN2gc3ops10SSIMOpGrad6kernelEvENKUlNS2_4lang4TileENS5_6BufferES7_S7_NS5_6VectorES7_S7_E_clES6_S7_S7_S7_S8_S7_S7_EUlT_E_NS_9allocatorISB_EEFvNS2_4ExprEEEE, 
                       __ZTSNSt3__110__function6__funcIZZN2gc3ops20SSIMOpPreprocessGrad6kernelEvENKUlNS2_4lang4TileENS5_6BufferES7_NS5_6VectorES7_E_clES6_S7_S7_S8_S7_EUlT_E0_NS_9allocatorISB_EEFvNS2_4ExprEEEE, 
                       __ZTSNSt3__110__function6__funcIZZN2gc3ops20SSIMOpPreprocessGrad6kernelEvENKUlNS2_4lang4TileENS5_6BufferES7_NS5_6VectorES7_E_clES6_S7_S7_S8_S7_EUlT_E1_NS_9allocatorISB_EEFvNS2_4ExprEEEE, 
                       __ZTSNSt3__110__function6__funcIZZN2gc3ops20SSIMOpPreprocessGrad6kernelEvENKUlNS2_4lang4TileENS5_6BufferES7_NS5_6VectorES7_E_clES6_S7_S7_S8_S7_EUlT_E_NS_9allocatorISB_EEFvNS2_4ExprEEEE, 
                       __ZTSNSt3__110__function6__funcIZZN2gc3ops6SSIMOp6kernelEvENKUlNS2_4lang4TileENS5_6BufferES7_NS5_6VectorES7_E_clES6_S7_S7_S8_S7_EUlT_E0_NS_9allocatorISB_EEFvNS2_4ExprEEEE, 
                       __ZTSNSt3__110__function6__funcIZZN2gc3ops6SSIMOp6kernelEvENKUlNS2_4lang4TileENS5_6BufferES7_NS5_6VectorES7_E_clES6_S7_S7_S8_S7_EUlT_E1_NS_9allocatorISB_EEFvNS2_4ExprEEEE, 
                       __ZTSNSt3__110__function6__funcIZZN2gc3ops6SSIMOp6kernelEvENKUlNS2_4lang4TileENS5_6BufferES7_NS5_6VectorES7_E_clES6_S7_S7_S8_S7_EUlT_E_NS_9allocatorISB_EEFvNS2_4ExprEEEE, 
                       __ZTSNSt3__110__function6__funcIZZN2gc4lang3est11BlockMatrix13forEachColumnIZZNS2_3est10EvaluateHp19kernelFuncNoOffsetsEvENKUlNS3_4TileERS5_NS3_6BufferESB_E_clES9_SA_SB_SB_EUlNS2_4ExprENS3_6MatrixEE_EEvRKSD_OT_ENKUlSI_E_clISD_EEDaSI_EUlvE_NS_9allocatorISN_EEFvvEEE, 
                       __ZTSNSt3__110__function6__funcIZZN2gc4lang3est11BlockMatrix13forEachColumnIZZNS2_3est14ExtractDiagJtJ10kernelFuncEvENKUlNS3_4TileERS5_NS3_6BufferESB_SB_E_clES9_SA_SB_SB_SB_EUlNS2_4ExprENS3_6MatrixEE_EEvRKSD_OT_ENKUlSI_E_clISD_EEDaSI_EUlvE_NS_9allocatorISN_EEFvvEEE, 
                       __ZTSNSt3__110__function6__funcIZZN2gc4lang3est11BlockMatrix13forEachColumnIZZNS2_3est14ExtractDiagJtJ19kernelFuncNoOffsetsEvENKUlNS3_4TileERS5_NS3_6BufferESB_E_clES9_SA_SB_SB_EUlNS2_4ExprENS3_6MatrixEE_EEvRKSD_OT_ENKUlSI_E_clISD_EEDaSI_EUlvE_NS_9allocatorISN_EEFvvEEE, 
                       __ZTSNSt3__110__function6__funcIZZN2gc4lang3est11BlockMatrix13forEachColumnIZZNS2_3est17SymmetrizeDiagJtJ10kernelFuncEvENKUlNS3_4TileERS5_E_clES9_SA_EUlNS2_4ExprENS3_6MatrixEE_EEvRKSC_OT_ENKUlSH_E_clISC_EEDaSH_EUlvE_NS_9allocatorISM_EEFvvEEE, 
                       __ZTSNSt3__110__function6__funcIZZN2gc4lang3est11BlockMatrix13forEachColumnIZZNS2_3est30ApplyAdditiveLMDampingExplicit10kernelFuncEvENKUlNS3_4TileENS3_6ScalarERS5_E_clES9_SA_SB_EUlNS2_4ExprENS3_6MatrixEE_EEvRKSD_OT_ENKUlSI_E_clISD_EEDaSI_EUlvE_NS_9allocatorISN_EEFvvEEE, 
                       __ZTSNSt3__110__function6__funcIZZN2gc4lang3est11BlockMatrix13forEachColumnIZZNS2_3est36ApplyMultiplicativeLMDampingExplicit10kernelFuncEvENKUlNS3_4TileENS3_6ScalarERS5_E_clES9_SA_SB_EUlNS2_4ExprENS3_6MatrixEE_EEvRKSD_OT_ENKUlSI_E_clISD_EEDaSI_EUlvE_NS_9allocatorISN_EEFvvEEE, 
                       __ZTSNSt3__110__function6__funcIZZN2gc4lang3est11BlockMatrix13forEachColumnIZZZNS2_3est10EvaluateHp10kernelFuncEvENKUlNS3_4TileERS5_NS3_6BufferESB_SB_RSB_E_clES9_SA_SB_SB_SB_SC_ENKUlvE_clEvEUlNS2_4ExprENS3_6MatrixEE_EEvRKSF_OT_ENKUlSK_E_clISF_EEDaSK_EUlvE_NS_9allocatorISP_EEFvvEEE, 
                       __ZTSNSt3__110__function6__funcIZZNK2gc4lang9tensorops11UnaryOpImplclENS3_6TensorEENKUlvE0_clEvEUlT_E_NS_9allocatorIS9_EEFvNS2_4ExprEEEE, 
                       __ZTSNSt3__110__function6__funcIZZNK2gc4lang9tensorops12BinaryOpImplclENS3_6TensorES6_ENKUlvE0_clEvEUlT_E_NS_9allocatorIS9_EEFvNS2_4ExprEEEE, 
                       __ZTSNSt3__110__function6__funcIZZNK2gc4lang9tensorops12BinaryOpImplclENS3_6TensorES6_ENKUlvE1_clEvEUlS6_E0_NS_9allocatorIS8_EEFS6_S6_EEE, 
                       __ZTSNSt3__110__function6__funcIZZNK2gc4lang9tensorops12BinaryOpImplclENS3_6TensorES6_ENKUlvE1_clEvEUlS6_E_NS_9allocatorIS8_EEFS6_S6_EEE, 
                       __ZTSNSt3__110__function6__funcIZZZN2gc3est10EvaluateJp18kernelFuncVariadicEjENKUlNS2_4lang4TileERNS5_3est14FactorOrderingENS5_6BufferERNS7_8JacobianESA_SA_E_clES6_S9_SA_SC_SA_SA_ENKUlNS2_4ExprEE_clESE_EUlvE_NS_9allocatorISG_EEFvvEEE, 
                       __ZTSNSt3__110__function6__funcIZZZN2gc3est11EvaluateJtJ18kernelFuncDiagonalEvENKUlNS2_4lang4TileENS5_3est13BlockOrderingENS7_14FactorOrderingERNS7_8JacobianERNS7_11BlockMatrixEE_clES6_S8_S9_SB_SD_ENKUlNS2_4ExprEE_clESF_EUlSF_E_NS_9allocatorISH_EEFvSF_EEE, 
                       __ZTSNSt3__110__function6__funcIZZZN2gc3est11EvaluateJtJ21kernelFuncOffDiagonalEvENKUlNS2_4lang4TileENS5_3est13BlockOrderingENS5_5ArrayINS7_14FactorOrderingEEERNS7_11JacobianSetERNS7_11BlockMatrixEE_clES6_S8_SB_SD_SF_ENKUlNS2_4ExprEE_clESH_EUlSH_E_NS_9allocatorISJ_EEFvSH_EEE, 
                       __ZTSNSt3__110__function6__funcIZZZN2gc3est12InvertBlockM10kernelFuncEvENKUlNS2_4lang4TileENS5_6BufferES7_E_clES6_S7_S7_ENKUlvE0_clEvEUlT_E_NS_9allocatorISB_EEFvNS2_4ExprEEEE, 
                       __ZTSNSt3__110__function6__funcIZZZN2gc3est14ExtractDiagJtJ10kernelFuncEvENKUlNS2_4lang4TileERNS5_3est11BlockMatrixENS5_6BufferESA_SA_E_clES6_S9_SA_SA_SA_ENKUlNS2_4ExprENS5_6MatrixEE_clESC_SD_EUlvE_NS_9allocatorISF_EEFvvEEE, 
                       __ZTSNSt3__110__function6__funcIZZZN2gc3est14ExtractDiagJtJ19kernelFuncNoOffsetsEvENKUlNS2_4lang4TileERNS5_3est11BlockMatrixENS5_6BufferESA_E_clES6_S9_SA_SA_ENKUlNS2_4ExprENS5_6MatrixEE_clESC_SD_EUlvE_NS_9allocatorISF_EEFvvEEE, 
                       __ZTSNSt3__110__function6__funcIZZZN2gc3est14SchurLinearize16factorKernelFuncERKNS_6vectorINS3_13ArgumentGroupENS_9allocatorIS6_EEEERKNS_3mapINS_12basic_stringIcNS_11char_traitsIcEENS7_IcEEEEjNS_4lessISH_EENS7_INS_4pairIKSH_jEEEEEEbENKUlNS2_4lang4TileENSR_6BufferENSR_3est6FactorERNSU_11JacobianSetENSR_5ArrayIST_EENSY_INSU_14FactorOrderingEEERNSU_16BlockMatrixArrayESZ_E_clESS_ST_SV_SX_SZ_S11_S13_SZ_ENKUlvE_clEvEUlNS2_4ExprEE_NS7_IS17_EEFvS16_EEE, 
                       __ZTSNSt3__110__function6__funcIZZZN2gc3est14SchurLinearize28eliminatedVariableKernelFuncERKNS_6vectorINS3_13ArgumentGroupENS_9allocatorIS6_EEEERKNS_3mapINS_12basic_stringIcNS_11char_traitsIcEENS7_IcEEEEjNS_4lessISH_EENS7_INS_4pairIKSH_jEEEEEEbENKUlNS2_4lang4TileENSR_6BufferERNSR_3est8JacobianENSU_6FactorERNSU_11JacobianSetERNSU_14FactorOrderingENSR_5ArrayIST_EENS12_IS10_EERNSU_16BlockMatrixArrayENSU_22SchurEliminatedHessianES13_ST_ST_E_clESS_ST_SW_SX_SZ_S11_S13_S14_S16_S17_S13_ST_ST_ENKUlNS2_4ExprEE_clES19_EUlS19_E_NS7_IS1B_EEFvS19_EEE, 
                       __ZTSNSt3__110__function6__funcIZZZN2gc3est17SchurOuterProduct27schurOuterProductKernelFuncERKNS_6vectorINS3_13ArgumentGroupENS_9allocatorIS6_EEEERKNS_3mapINS_12basic_stringIcNS_11char_traitsIcEENS7_IcEEEEjNS_4lessISH_EENS7_INS_4pairIKSH_jEEEEEEbENKUlNS2_4lang4TileENSR_3est6FactorERNST_14FactorOrderingENSR_5ArrayINSR_6BufferEEERNST_16BlockMatrixArrayENST_22SchurEliminatedHessianESZ_SY_SY_E_clESS_SU_SW_SZ_S11_S12_SZ_SY_SY_ENKUlNS2_4ExprEE_clES14_EUlvE_NS7_IS16_EEFvvEEE, 
                       __ZTSNSt3__110__function6__funcIZZZN2gc3est17SymmetrizeDiagJtJ10kernelFuncEvENKUlNS2_4lang4TileERNS5_3est11BlockMatrixEE_clES6_S9_ENKUlNS2_4ExprENS5_6MatrixEE_clESB_SC_EUlvE_NS_9allocatorISE_EEFvvEEE, 
                       __ZTSNSt3__110__function6__funcIZZZN2gc3est18ImplicitSchurJtJp218kernelFuncVariadicEjENKUlNS2_4lang4TileERNS5_3est8JacobianENS7_14FactorOrderingENS5_6BufferESB_SB_SB_E_clES6_S9_SA_SB_SB_SB_SB_ENKUlNS2_4ExprEE_clESD_EUlvE_NS_9allocatorISF_EEFvvEEE, 
                       __ZTSNSt3__110__function6__funcIZZZN2gc3est20MaterializeJacobians10kernelFuncERKNS3_16ArgumentGroupingERKNS_6vectorINS3_13eJacobianTypeENS_9allocatorIS9_EEEEENKUlNS2_4lang4TileENSF_3est6FactorENSF_6BufferESJ_SJ_NSF_5ArrayINSH_14FactorOrderingEEENSH_11VariableSetENSK_ISJ_EESO_NSF_17BindableTypeArrayEE_clESG_SI_SJ_SJ_SJ_SM_SN_SO_SO_SP_ENKUlvE0_clEvEUlNS2_4ExprEE_NSA_IST_EEFvSS_EEE, 
                       __ZTSNSt3__110__function6__funcIZZZN2gc3est20MaterializeJacobians10kernelFuncERKNS3_16ArgumentGroupingERKNS_6vectorINS3_13eJacobianTypeENS_9allocatorIS9_EEEEENKUlNS2_4lang4TileENSF_3est6FactorENSF_6BufferESJ_SJ_NSF_5ArrayINSH_14FactorOrderingEEENSH_11VariableSetENSK_ISJ_EESO_NSF_17BindableTypeArrayEE_clESG_SI_SJ_SJ_SJ_SM_SN_SO_SO_SP_ENKUlvE1_clEvEUlvE_NSA_ISS_EEFvvEEE, 
                       __ZTSNSt3__110__function6__funcIZZZN2gc3est20MaterializeJacobians10kernelFuncERKNS3_16ArgumentGroupingERKNS_6vectorINS3_13eJacobianTypeENS_9allocatorIS9_EEEEENKUlNS2_4lang4TileENSF_3est6FactorENSF_6BufferESJ_SJ_NSF_5ArrayINSH_14FactorOrderingEEENSH_11VariableSetENSK_ISJ_EESO_NSF_17BindableTypeArrayEE_clESG_SI_SJ_SJ_SJ_SM_SN_SO_SO_SP_ENKUlvE_clEvEUlNS2_4ExprEE_NSA_IST_EEFvSS_EEE, 
                       __ZTSNSt3__110__function6__funcIZZZN2gc3est20SchurBackSubstitute110kernelFuncERKNS_6vectorINS3_13ArgumentGroupENS_9allocatorIS6_EEEERKNS_3mapINS_12basic_stringIcNS_11char_traitsIcEENS7_IcEEEEjNS_4lessISH_EENS7_INS_4pairIKSH_jEEEEEEbENKUlNS2_4lang4TileENSR_6BufferENSR_5ArrayIST_EESV_NSR_3est6FactorERNSW_14FactorOrderingENSW_22SchurEliminatedHessianEST_E_clESS_ST_SV_SV_SX_SZ_S10_ST_ENKUlNS2_4ExprEE_clES12_EUlvE_NS7_IS14_EEFvvEEE, 
                       __ZTSNSt3__110__function6__funcIZZZN2gc3est24ImplicitSchurInitialize310kernelFuncEvENKUlNS2_4lang4TileERNS5_3est8JacobianENS7_14FactorOrderingESA_NS5_6BufferESB_SB_SB_SB_SB_E_clES6_S9_SA_SA_SB_SB_SB_SB_SB_SB_ENKUlNS2_4ExprESD_E_clESD_SD_EUlSD_E_NS_9allocatorISF_EEFvSD_EEE, 
                       __ZTSNSt3__110__function6__funcIZZZN2gc3est28ImplicitSchurBackSubstitute110kernelFuncERKNS_6vectorINS3_13ArgumentGroupENS_9allocatorIS6_EEEERKNS_3mapINS_12basic_stringIcNS_11char_traitsIcEENS7_IcEEEEjNS_4lessISH_EENS7_INS_4pairIKSH_jEEEEEEENKUlNS2_4lang4TileERNSR_3est11JacobianSetENSR_5ArrayINST_14FactorOrderingEEENSW_INSR_6BufferEEES10_SZ_E_clESS_SV_SY_S10_S10_SZ_ENKUlvE_clEvEUlNS2_4ExprEE_NS7_IS14_EEFvS13_EEE, 
                       __ZTSNSt3__110__function6__funcIZZZN2gc3est30ApplyAdditiveLMDampingExplicit10kernelFuncEvENKUlNS2_4lang4TileENS5_6ScalarERNS5_3est11BlockMatrixEE_clES6_S7_SA_ENKUlNS2_4ExprENS5_6MatrixEE_clESC_SD_EUlvE_NS_9allocatorISF_EEFvvEEE, 
                       __ZTSNSt3__110__function6__funcIZZZN2gc3est36ApplyMultiplicativeLMDampingExplicit10kernelFuncEvENKUlNS2_4lang4TileENS5_6ScalarERNS5_3est11BlockMatrixEE_clES6_S7_SA_ENKUlNS2_4ExprENS5_6MatrixEE_clESC_SD_EUlvE_NS_9allocatorISF_EEFvvEEE, 
                       __ZTSNSt3__110__function6__funcIZZZN2gc3ops10SSIMOpGrad6kernelEvENKUlNS2_4lang4TileENS5_6BufferES7_S7_NS5_6VectorES7_S7_E_clES6_S7_S7_S7_S8_S7_S7_ENKUlT_E0_clINS2_4ExprEEEDaSA_EUlSA_E_NS_9allocatorISF_EEFvSD_EEE, 
                       __ZTSNSt3__110__function6__funcIZZZN2gc3ops10SSIMOpGrad6kernelEvENKUlNS2_4lang4TileENS5_6BufferES7_S7_NS5_6VectorES7_S7_E_clES6_S7_S7_S7_S8_S7_S7_ENKUlT_E_clINS2_4ExprEEEDaSA_EUlSA_E_NS_9allocatorISF_EEFvSD_EEE, 
                       __ZTSNSt3__110__function6__funcIZZZN2gc3ops20SSIMOpPreprocessGrad6kernelEvENKUlNS2_4lang4TileENS5_6BufferES7_NS5_6VectorES7_E_clES6_S7_S7_S8_S7_ENKUlT_E0_clINS2_4ExprEEEDaSA_EUlSA_E_NS_9allocatorISF_EEFvSD_EEE, 
                       __ZTSNSt3__110__function6__funcIZZZN2gc3ops20SSIMOpPreprocessGrad6kernelEvENKUlNS2_4lang4TileENS5_6BufferES7_NS5_6VectorES7_E_clES6_S7_S7_S8_S7_ENKUlT_E1_clINS2_4ExprEEEDaSA_EUlSA_E_NS_9allocatorISF_EEFvSD_EEE, 
                       __ZTSNSt3__110__function6__funcIZZZN2gc3ops20SSIMOpPreprocessGrad6kernelEvENKUlNS2_4lang4TileENS5_6BufferES7_NS5_6VectorES7_E_clES6_S7_S7_S8_S7_ENKUlT_E_clINS2_4ExprEEEDaSA_EUlSA_E_NS_9allocatorISF_EEFvSD_EEE, 
                       __ZTSNSt3__110__function6__funcIZZZN2gc3ops6SSIMOp6kernelEvENKUlNS2_4lang4TileENS5_6BufferES7_NS5_6VectorES7_E_clES6_S7_S7_S8_S7_ENKUlT_E0_clINS2_4ExprEEEDaSA_EUlSA_E_NS_9allocatorISF_EEFvSD_EEE, 
                       __ZTSNSt3__110__function6__funcIZZZN2gc3ops6SSIMOp6kernelEvENKUlNS2_4lang4TileENS5_6BufferES7_NS5_6VectorES7_E_clES6_S7_S7_S8_S7_ENKUlT_E1_clINS2_4ExprEEEDaSA_EUlSA_E_NS_9allocatorISF_EEFvSD_EEE, 
                       __ZTSNSt3__110__function6__funcIZZZN2gc3ops6SSIMOp6kernelEvENKUlNS2_4lang4TileENS5_6BufferES7_NS5_6VectorES7_E_clES6_S7_S7_S8_S7_ENKUlT_E_clINS2_4ExprEEEDaSA_EUlSA_E_NS_9allocatorISF_EEFvSD_EEE, 
                       __ZTSNSt3__110__function6__funcIZZZZN2gc3est10EvaluateHp10kernelFuncEvENKUlNS2_4lang4TileERNS5_3est11BlockMatrixENS5_6BufferESA_SA_RSA_E_clES6_S9_SA_SA_SA_SB_ENKUlvE_clEvENKUlNS2_4ExprENS5_6MatrixEE_clESE_SF_EUlvE_NS_9allocatorISH_EEFvvEEE, 
                       __ZTSNSt3__110__function6__funcIZZZZN2gc3est11EvaluateJtJ21kernelFuncOffDiagonalEvENKUlNS2_4lang4TileENS5_3est13BlockOrderingENS5_5ArrayINS7_14FactorOrderingEEERNS7_11JacobianSetERNS7_11BlockMatrixEE_clES6_S8_SB_SD_SF_ENKUlNS2_4ExprEE_clESH_ENKUlSH_E_clESH_EUlvE_NS_9allocatorISK_EEFvvEEE, 
                       __ZTSNSt3__110__function6__funcIZZZZN2gc3est14ExtractDiagJtJ10kernelFuncEvENKUlNS2_4lang4TileERNS5_3est11BlockMatrixENS5_6BufferESA_SA_E_clES6_S9_SA_SA_SA_ENKUlNS2_4ExprENS5_6MatrixEE_clESC_SD_ENKUlvE_clEvEUlvE_NS_9allocatorISG_EEFvvEEE, 
                       __ZTSNSt3__110__function6__funcIZZZZN2gc3est14SchurLinearize16factorKernelFuncERKNS_6vectorINS3_13ArgumentGroupENS_9allocatorIS6_EEEERKNS_3mapINS_12basic_stringIcNS_11char_traitsIcEENS7_IcEEEEjNS_4lessISH_EENS7_INS_4pairIKSH_jEEEEEEbENKUlNS2_4lang4TileENSR_6BufferENSR_3est6FactorERNSU_11JacobianSetENSR_5ArrayIST_EENSY_INSU_14FactorOrderingEEERNSU_16BlockMatrixArrayESZ_E_clESS_ST_SV_SX_SZ_S11_S13_SZ_ENKUlvE_clEvENKUlNS2_4ExprEE_clES16_EUlvE_NS7_IS18_EEFvvEEE, 
                       __ZTSNSt3__110__function6__funcIZZZZN2gc3est14SchurLinearize28eliminatedVariableKernelFuncERKNS_6vectorINS3_13ArgumentGroupENS_9allocatorIS6_EEEERKNS_3mapINS_12basic_stringIcNS_11char_traitsIcEENS7_IcEEEEjNS_4lessISH_EENS7_INS_4pairIKSH_jEEEEEEbENKUlNS2_4lang4TileENSR_6BufferERNSR_3est8JacobianENSU_6FactorERNSU_11JacobianSetERNSU_14FactorOrderingENSR_5ArrayIST_EENS12_IS10_EERNSU_16BlockMatrixArrayENSU_22SchurEliminatedHessianES13_ST_ST_E_clESS_ST_SW_SX_SZ_S11_S13_S14_S16_S17_S13_ST_ST_ENKUlNS2_4ExprEE_clES19_ENKUlS19_E_clES19_EUlvE_NS7_IS1C_EEFvvEEE, 
                       __ZTSNSt3__110__function6__funcIZZZZN2gc3est17SchurOuterProduct27schurOuterProductKernelFuncERKNS_6vectorINS3_13ArgumentGroupENS_9allocatorIS6_EEEERKNS_3mapINS_12basic_stringIcNS_11char_traitsIcEENS7_IcEEEEjNS_4lessISH_EENS7_INS_4pairIKSH_jEEEEEEbENKUlNS2_4lang4TileENSR_3est6FactorERNST_14FactorOrderingENSR_5ArrayINSR_6BufferEEERNST_16BlockMatrixArrayENST_22SchurEliminatedHessianESZ_SY_SY_E_clESS_SU_SW_SZ_S11_S12_SZ_SY_SY_ENKUlNS2_4ExprEE_clES14_ENKUlvE_clEvEUlS14_E_NS7_IS17_EEFvS14_EEE, 
                       __ZTSNSt3__110__function6__funcIZZZZN2gc3est18ImplicitSchurJtJp218kernelFuncVariadicEjENKUlNS2_4lang4TileERNS5_3est8JacobianENS7_14FactorOrderingENS5_6BufferESB_SB_SB_E_clES6_S9_SA_SB_SB_SB_SB_ENKUlNS2_4ExprEE_clESD_ENKUlvE_clEvEUlvE_NS_9allocatorISG_EEFvvEEE, 
                       __ZTSNSt3__110__function6__funcIZZZZN2gc3est20MaterializeJacobians10kernelFuncERKNS3_16ArgumentGroupingERKNS_6vectorINS3_13eJacobianTypeENS_9allocatorIS9_EEEEENKUlNS2_4lang4TileENSF_3est6FactorENSF_6BufferESJ_SJ_NSF_5ArrayINSH_14FactorOrderingEEENSH_11VariableSetENSK_ISJ_EESO_NSF_17BindableTypeArrayEE_clESG_SI_SJ_SJ_SJ_SM_SN_SO_SO_SP_ENKUlvE0_clEvENKUlNS2_4ExprEE_clESS_EUlvE_NSA_ISU_EEFvvEEE, 
                       __ZTSNSt3__110__function6__funcIZZZZN2gc3est20MaterializeJacobians10kernelFuncERKNS3_16ArgumentGroupingERKNS_6vectorINS3_13eJacobianTypeENS_9allocatorIS9_EEEEENKUlNS2_4lang4TileENSF_3est6FactorENSF_6BufferESJ_SJ_NSF_5ArrayINSH_14FactorOrderingEEENSH_11VariableSetENSK_ISJ_EESO_NSF_17BindableTypeArrayEE_clESG_SI_SJ_SJ_SJ_SM_SN_SO_SO_SP_ENKUlvE_clEvENKUlNS2_4ExprEE_clESS_EUlvE_NSA_ISU_EEFvvEEE, 
                       __ZTSNSt3__110__function6__funcIZZZZN2gc3est24ImplicitSchurInitialize310kernelFuncEvENKUlNS2_4lang4TileERNS5_3est8JacobianENS7_14FactorOrderingESA_NS5_6BufferESB_SB_SB_SB_SB_E_clES6_S9_SA_SA_SB_SB_SB_SB_SB_SB_ENKUlNS2_4ExprESD_E_clESD_SD_ENKUlSD_E_clESD_EUlvE0_NS_9allocatorISG_EEFvvEEE, 
                       __ZTSNSt3__110__function6__funcIZZZZN2gc3est24ImplicitSchurInitialize310kernelFuncEvENKUlNS2_4lang4TileERNS5_3est8JacobianENS7_14FactorOrderingESA_NS5_6BufferESB_SB_SB_SB_SB_E_clES6_S9_SA_SA_SB_SB_SB_SB_SB_SB_ENKUlNS2_4ExprESD_E_clESD_SD_ENKUlSD_E_clESD_EUlvE_NS_9allocatorISG_EEFvvEEE, 
                       __ZTSNSt3__110__function6__funcIZZZZN2gc3est30ApplyAdditiveLMDampingExplicit10kernelFuncEvENKUlNS2_4lang4TileENS5_6ScalarERNS5_3est11BlockMatrixEE_clES6_S7_SA_ENKUlNS2_4ExprENS5_6MatrixEE_clESC_SD_ENKUlvE_clEvEUlT_E_NS_9allocatorISH_EEFvSC_EEE, 
                       __ZTSNSt3__110__function6__funcIZZZZN2gc3est36ApplyMultiplicativeLMDampingExplicit10kernelFuncEvENKUlNS2_4lang4TileENS5_6ScalarERNS5_3est11BlockMatrixEE_clES6_S7_SA_ENKUlNS2_4ExprENS5_6MatrixEE_clESC_SD_ENKUlvE_clEvEUlT_E_NS_9allocatorISH_EEFvSC_EEE, 
                       __ZTSNSt3__110__function6__funcIZZZZN2gc3ops10SSIMOpGrad6kernelEvENKUlNS2_4lang4TileENS5_6BufferES7_S7_NS5_6VectorES7_S7_E_clES6_S7_S7_S7_S8_S7_S7_ENKUlT_E_clINS2_4ExprEEEDaSA_ENKUlSA_E_clISD_EESE_SA_EUlvE_NS_9allocatorISH_EEFvvEEE, 
                       __ZTSNSt3__110__function6__funcIZZZZN2gc3ops20SSIMOpPreprocessGrad6kernelEvENKUlNS2_4lang4TileENS5_6BufferES7_NS5_6VectorES7_E_clES6_S7_S7_S8_S7_ENKUlT_E_clINS2_4ExprEEEDaSA_ENKUlSA_E_clISD_EESE_SA_EUlvE_NS_9allocatorISH_EEFvvEEE, 
                       __ZTSNSt3__110__function6__funcIZZZZN2gc3ops6SSIMOp6kernelEvENKUlNS2_4lang4TileENS5_6BufferES7_NS5_6VectorES7_E_clES6_S7_S7_S8_S7_ENKUlT_E_clINS2_4ExprEEEDaSA_ENKUlSA_E_clISD_EESE_SA_EUlvE_NS_9allocatorISH_EEFvvEEE, 
                       __ZTSNSt3__110__function6__funcIZZZZZN2gc3est11EvaluateJtJ21kernelFuncOffDiagonalEvENKUlNS2_4lang4TileENS5_3est13BlockOrderingENS5_5ArrayINS7_14FactorOrderingEEERNS7_11JacobianSetERNS7_11BlockMatrixEE_clES6_S8_SB_SD_SF_ENKUlNS2_4ExprEE_clESH_ENKUlSH_E_clESH_ENKUlvE_clEvEUlSH_E_NS_9allocatorISL_EEFvSH_EEE, 
                       __ZTSNSt3__110__function6__funcIZZZZZN2gc3est14SchurLinearize16factorKernelFuncERKNS_6vectorINS3_13ArgumentGroupENS_9allocatorIS6_EEEERKNS_3mapINS_12basic_stringIcNS_11char_traitsIcEENS7_IcEEEEjNS_4lessISH_EENS7_INS_4pairIKSH_jEEEEEEbENKUlNS2_4lang4TileENSR_6BufferENSR_3est6FactorERNSU_11JacobianSetENSR_5ArrayIST_EENSY_INSU_14FactorOrderingEEERNSU_16BlockMatrixArrayESZ_E_clESS_ST_SV_SX_SZ_S11_S13_SZ_ENKUlvE_clEvENKUlNS2_4ExprEE_clES16_ENKUlvE_clEvEUlS16_E_NS7_IS19_EEFvS16_EEE, 
                       __ZTSNSt3__110__function6__funcIZZZZZN2gc3est14SchurLinearize28eliminatedVariableKernelFuncERKNS_6vectorINS3_13ArgumentGroupENS_9allocatorIS6_EEEERKNS_3mapINS_12basic_stringIcNS_11char_traitsIcEENS7_IcEEEEjNS_4lessISH_EENS7_INS_4pairIKSH_jEEEEEEbENKUlNS2_4lang4TileENSR_6BufferERNSR_3est8JacobianENSU_6FactorERNSU_11JacobianSetERNSU_14FactorOrderingENSR_5ArrayIST_EENS12_IS10_EERNSU_16BlockMatrixArrayENSU_22SchurEliminatedHessianES13_ST_ST_E_clESS_ST_SW_SX_SZ_S11_S13_S14_S16_S17_S13_ST_ST_ENKUlNS2_4ExprEE_clES19_ENKUlS19_E_clES19_ENKUlvE_clEvEUlvE_NS7_IS1D_EEFvvEEE, 
                       __ZTSNSt3__110__function6__funcIZZZZZN2gc3est17SchurOuterProduct27schurOuterProductKernelFuncERKNS_6vectorINS3_13ArgumentGroupENS_9allocatorIS6_EEEERKNS_3mapINS_12basic_stringIcNS_11char_traitsIcEENS7_IcEEEEjNS_4lessISH_EENS7_INS_4pairIKSH_jEEEEEEbENKUlNS2_4lang4TileENSR_3est6FactorERNST_14FactorOrderingENSR_5ArrayINSR_6BufferEEERNST_16BlockMatrixArrayENST_22SchurEliminatedHessianESZ_SY_SY_E_clESS_SU_SW_SZ_S11_S12_SZ_SY_SY_ENKUlNS2_4ExprEE_clES14_ENKUlvE_clEvENKUlS14_E_clES14_EUlvE_NS7_IS18_EEFvvEEE, 
                       __ZTSNSt3__110__function6__funcIZZZZZN2gc3est22EvaluateJtJFactorLevel10kernelFuncERKNS_6vectorIjNS_9allocatorIjEEEEENKUlNS2_4lang4TileENSB_5ArrayINSB_3est13BlockOrderingEEENSD_INSE_14FactorOrderingEEERNSE_11JacobianSetERNSE_16BlockMatrixArrayEE_clESC_SG_SI_SK_SM_ENKUlvE_clEvENKUlNS2_5TupleENS2_4ExprEE_clESP_SQ_ENKUlSQ_E_clESQ_EUlSQ_E_NS6_IST_EEFvSQ_EEE, 
                       __ZTSNSt3__110__function6__funcIZZZZZZN2gc3est11EvaluateJtJ21kernelFuncOffDiagonalEvENKUlNS2_4lang4TileENS5_3est13BlockOrderingENS5_5ArrayINS7_14FactorOrderingEEERNS7_11JacobianSetERNS7_11BlockMatrixEE_clES6_S8_SB_SD_SF_ENKUlNS2_4ExprEE_clESH_ENKUlSH_E_clESH_ENKUlvE_clEvENKUlSH_E_clESH_EUlvE_NS_9allocatorISM_EEFvvEEE, 
                       __ZTSNSt3__110__function6__funcIZZZZZZN2gc3est14SchurLinearize16factorKernelFuncERKNS_6vectorINS3_13ArgumentGroupENS_9allocatorIS6_EEEERKNS_3mapINS_12basic_stringIcNS_11char_traitsIcEENS7_IcEEEEjNS_4lessISH_EENS7_INS_4pairIKSH_jEEEEEEbENKUlNS2_4lang4TileENSR_6BufferENSR_3est6FactorERNSU_11JacobianSetENSR_5ArrayIST_EENSY_INSU_14FactorOrderingEEERNSU_16BlockMatrixArrayESZ_E_clESS_ST_SV_SX_SZ_S11_S13_SZ_ENKUlvE_clEvENKUlNS2_4ExprEE_clES16_ENKUlvE_clEvENKUlS16_E_clES16_EUlvE_NS7_IS1A_EEFvvEEE, 
                       __ZTSNSt3__110__function6__funcIZZZZZZN2gc3est14SchurLinearize28eliminatedVariableKernelFuncERKNS_6vectorINS3_13ArgumentGroupENS_9allocatorIS6_EEEERKNS_3mapINS_12basic_stringIcNS_11char_traitsIcEENS7_IcEEEEjNS_4lessISH_EENS7_INS_4pairIKSH_jEEEEEEbENKUlNS2_4lang4TileENSR_6BufferERNSR_3est8JacobianENSU_6FactorERNSU_11JacobianSetERNSU_14FactorOrderingENSR_5ArrayIST_EENS12_IS10_EERNSU_16BlockMatrixArrayENSU_22SchurEliminatedHessianES13_ST_ST_E_clESS_ST_SW_SX_SZ_S11_S13_S14_S16_S17_S13_ST_ST_ENKUlNS2_4ExprEE_clES19_ENKUlS19_E_clES19_ENKUlvE_clEvENKUlvE_clEvEUlvE_NS7_IS1E_EEFvvEEE, 
                       __ZTSNSt3__110__function6__funcIZZZZZZN2gc3est17SchurOuterProduct27schurOuterProductKernelFuncERKNS_6vectorINS3_13ArgumentGroupENS_9allocatorIS6_EEEERKNS_3mapINS_12basic_stringIcNS_11char_traitsIcEENS7_IcEEEEjNS_4lessISH_EENS7_INS_4pairIKSH_jEEEEEEbENKUlNS2_4lang4TileENSR_3est6FactorERNST_14FactorOrderingENSR_5ArrayINSR_6BufferEEERNST_16BlockMatrixArrayENST_22SchurEliminatedHessianESZ_SY_SY_E_clESS_SU_SW_SZ_S11_S12_SZ_SY_SY_ENKUlNS2_4ExprEE_clES14_ENKUlvE_clEvENKUlS14_E_clES14_ENKUlvE_clEvEUlvE_NS7_IS19_EEFvvEEE, 
                       __ZTSNSt3__110__function6__funcIZZZZZZN2gc3est22EvaluateJtJFactorLevel10kernelFuncERKNS_6vectorIjNS_9allocatorIjEEEEENKUlNS2_4lang4TileENSB_5ArrayINSB_3est13BlockOrderingEEENSD_INSE_14FactorOrderingEEERNSE_11JacobianSetERNSE_16BlockMatrixArrayEE_clESC_SG_SI_SK_SM_ENKUlvE_clEvENKUlNS2_5TupleENS2_4ExprEE_clESP_SQ_ENKUlSQ_E_clESQ_ENKUlSQ_E_clESQ_EUlSQ_E_NS6_ISU_EEFvSQ_EEE, 
                       __ZTSNSt3__110__function6__funcIZZZZZZZN2gc3est14SchurLinearize28eliminatedVariableKernelFuncERKNS_6vectorINS3_13ArgumentGroupENS_9allocatorIS6_EEEERKNS_3mapINS_12basic_stringIcNS_11char_traitsIcEENS7_IcEEEEjNS_4lessISH_EENS7_INS_4pairIKSH_jEEEEEEbENKUlNS2_4lang4TileENSR_6BufferERNSR_3est8JacobianENSU_6FactorERNSU_11JacobianSetERNSU_14FactorOrderingENSR_5ArrayIST_EENS12_IS10_EERNSU_16BlockMatrixArrayENSU_22SchurEliminatedHessianES13_ST_ST_E_clESS_ST_SW_SX_SZ_S11_S13_S14_S16_S17_S13_ST_ST_ENKUlNS2_4ExprEE_clES19_ENKUlS19_E_clES19_ENKUlvE_clEvENKUlvE_clEvENKUlvE_clEvEUlS19_E_NS7_IS1F_EEFvS19_EEE, 
                       __ZTSNSt3__110shared_ptrIN2gc12ComputeGraphEE27__shared_ptr_default_deleteIS2_S2_EE, 
                       __ZTSNSt3__110shared_ptrIN2gc13AutoSchedulerEE27__shared_ptr_default_deleteIS2_NS1_9LoopFuserEEE, 
                       __ZTSNSt3__110shared_ptrIN2gc13ExtentsBufferEE27__shared_ptr_default_deleteIS2_S2_EE, 
                       __ZTSNSt3__110shared_ptrIN2gc14ExternalSourceEE27__shared_ptr_default_deleteIS2_NS1_19TypedExternalSourceILNS1_13eTargetDeviceE1EEEEE, 
                       __ZTSNSt3__110shared_ptrIN2gc15TemplateVariantEE27__shared_ptr_default_deleteIS2_NS1_11smallmatrix13NaiveMultiplyEEE, 
                       __ZTSNSt3__110shared_ptrIN2gc15TemplateVariantEE27__shared_ptr_default_deleteIS2_NS1_11smallmatrix14NaiveTransposeEEE, 
                       __ZTSNSt3__110shared_ptrIN2gc15TemplateVariantEE27__shared_ptr_default_deleteIS2_NS1_11smallmatrix21LLVMIntrinsicMultiplyEEE, 
                       __ZTSNSt3__110shared_ptrIN2gc15TemplateVariantEE27__shared_ptr_default_deleteIS2_NS1_11smallmatrix22LLVMIntrinsicTransposeEEE, 
                       __ZTSNSt3__110shared_ptrIN2gc15TemplateVariantEE27__shared_ptr_default_deleteIS2_NS1_4lang4simd23SIMDInnerProductVariantEEE, 
                       __ZTSNSt3__110shared_ptrIN2gc15TemplateVariantEE27__shared_ptr_default_deleteIS2_NS1_4lang4simd26GeneralInnerProductVariantEEE, 
                       __ZTSNSt3__110shared_ptrIN2gc15TemplateVariantEE27__shared_ptr_default_deleteIS2_NS1_4lang4simd29SIMDLargeKInnerProductVariantEEE, 
                       __ZTSNSt3__110shared_ptrIN2gc15TemplateVariantEE27__shared_ptr_default_deleteIS2_NS1_4lang4simd29SIMDSmallKInnerProductVariantEEE, 
                       __ZTSNSt3__110shared_ptrIN2gc16BufferParametersEE27__shared_ptr_default_deleteIS2_S2_EE, 
                       __ZTSNSt3__110shared_ptrIN2gc16ExternalFunctionEE27__shared_ptr_default_deleteIS2_NS1_21TypedExternalFunctionILNS1_13eTargetDeviceE0EEEEE, 
                       __ZTSNSt3__110shared_ptrIN2gc16ExternalFunctionEE27__shared_ptr_default_deleteIS2_NS1_21TypedExternalFunctionILNS1_13eTargetDeviceE1EEEEE, 
                       __ZTSNSt3__110shared_ptrIN2gc16FunctionArgumentINS1_4lang17BindableTypeArrayES4_EEE27__shared_ptr_default_deleteIS5_S5_EE, 
                       __ZTSNSt3__110shared_ptrIN2gc16FunctionArgumentINS1_4lang3est11VariableSetES5_EEE27__shared_ptr_default_deleteIS6_S6_EE, 
                       __ZTSNSt3__110shared_ptrIN2gc16FunctionArgumentINS1_4lang3est13BlockOrderingES5_EEE27__shared_ptr_default_deleteIS6_S6_EE, 
                       __ZTSNSt3__110shared_ptrIN2gc16FunctionArgumentINS1_4lang3est14FactorOrderingES5_EEE27__shared_ptr_default_deleteIS6_S6_EE, 
                       __ZTSNSt3__110shared_ptrIN2gc16FunctionArgumentINS1_4lang3est22SchurEliminatedHessianES5_EEE27__shared_ptr_default_deleteIS6_S6_EE, 
                       __ZTSNSt3__110shared_ptrIN2gc16FunctionArgumentINS1_4lang3est6FactorES5_EEE27__shared_ptr_default_deleteIS6_S6_EE, 
                       __ZTSNSt3__110shared_ptrIN2gc16FunctionArgumentINS1_4lang3est8VariableES5_EEE27__shared_ptr_default_deleteIS6_S6_EE, 
                       __ZTSNSt3__110shared_ptrIN2gc16FunctionArgumentINS1_4lang5ArrayINS3_3est13BlockOrderingEEES7_EEE27__shared_ptr_default_deleteIS8_S8_EE, 
                       __ZTSNSt3__110shared_ptrIN2gc16FunctionArgumentINS1_4lang5ArrayINS3_3est14FactorOrderingEEES7_EEE27__shared_ptr_default_deleteIS8_S8_EE, 
                       __ZTSNSt3__110shared_ptrIN2gc16FunctionArgumentINS1_4lang5ArrayINS3_3est8VariableEEES7_EEE27__shared_ptr_default_deleteIS8_S8_EE, 
                       __ZTSNSt3__110shared_ptrIN2gc16FunctionArgumentINS1_4lang5ArrayINS3_6BufferEEES6_EEE27__shared_ptr_default_deleteIS7_S7_EE, 
                       __ZTSNSt3__110shared_ptrIN2gc16FunctionArgumentINS1_4lang6BufferES4_EEE27__shared_ptr_default_deleteIS5_S5_EE, 
                       __ZTSNSt3__110shared_ptrIN2gc16FunctionArgumentINS1_4lang6ScalarES4_EEE27__shared_ptr_default_deleteIS5_S5_EE, 
                       __ZTSNSt3__110shared_ptrIN2gc16FunctionArgumentINS1_4lang6VectorES4_EEE27__shared_ptr_default_deleteIS5_S5_EE, 
                       __ZTSNSt3__110shared_ptrIN2gc16FunctionArgumentIRNS1_4lang3est11BlockMatrixES5_EEE27__shared_ptr_default_deleteIS7_S7_EE, 
                       __ZTSNSt3__110shared_ptrIN2gc16FunctionArgumentIRNS1_4lang3est11JacobianSetES5_EEE27__shared_ptr_default_deleteIS7_S7_EE, 
                       __ZTSNSt3__110shared_ptrIN2gc16FunctionArgumentIRNS1_4lang3est14FactorOrderingES5_EEE27__shared_ptr_default_deleteIS7_S7_EE, 
                       __ZTSNSt3__110shared_ptrIN2gc16FunctionArgumentIRNS1_4lang3est16BlockMatrixArrayES5_EEE27__shared_ptr_default_deleteIS7_S7_EE, 
                       __ZTSNSt3__110shared_ptrIN2gc16FunctionArgumentIRNS1_4lang3est8JacobianES5_EEE27__shared_ptr_default_deleteIS7_S7_EE, 
                       __ZTSNSt3__110shared_ptrIN2gc16FunctionArgumentIRNS1_4lang6BufferES4_EEE27__shared_ptr_default_deleteIS6_S6_EE, 
                       __ZTSNSt3__110shared_ptrIN2gc16FunctionArgumentIRNS1_4lang6ScalarES4_EEE27__shared_ptr_default_deleteIS6_S6_EE, 
                       __ZTSNSt3__110shared_ptrIN2gc16TemplateFunctionEE27__shared_ptr_default_deleteIS2_NS1_11smallmatrix16MultiplyTemplateEEE, 
                       __ZTSNSt3__110shared_ptrIN2gc16TemplateFunctionEE27__shared_ptr_default_deleteIS2_NS1_11smallmatrix17TransposeTemplateEEE, 
                       __ZTSNSt3__110shared_ptrIN2gc16TemplateFunctionEE27__shared_ptr_default_deleteIS2_NS1_4lang4simd20InnerProductTemplateEEE, 
                       __ZTSNSt3__110shared_ptrIN2gc17IntrinsicFunctionEE27__shared_ptr_default_deleteIS2_S2_EE, 
                       __ZTSNSt3__110shared_ptrIN2gc22OpaqueBindableArgumentEE27__shared_ptr_default_deleteIS2_NS1_16BindableArgumentINS1_4lang17BindableTypeArrayEEEEE, 
                       __ZTSNSt3__110shared_ptrIN2gc22OpaqueBindableArgumentEE27__shared_ptr_default_deleteIS2_NS1_16BindableArgumentINS1_4lang3est11BlockMatrixEEEEE, 
                       __ZTSNSt3__110shared_ptrIN2gc22OpaqueBindableArgumentEE27__shared_ptr_default_deleteIS2_NS1_16BindableArgumentINS1_4lang3est11VariableSetEEEEE, 
                       __ZTSNSt3__110shared_ptrIN2gc22OpaqueBindableArgumentEE27__shared_ptr_default_deleteIS2_NS1_16BindableArgumentINS1_4lang3est12CostFunctionEEEEE, 
                       __ZTSNSt3__110shared_ptrIN2gc22OpaqueBindableArgumentEE27__shared_ptr_default_deleteIS2_NS1_16BindableArgumentINS1_4lang3est13BlockOrderingEEEEE, 
                       __ZTSNSt3__110shared_ptrIN2gc22OpaqueBindableArgumentEE27__shared_ptr_default_deleteIS2_NS1_16BindableArgumentINS1_4lang3est14FactorOrderingEEEEE, 
                       __ZTSNSt3__110shared_ptrIN2gc22OpaqueBindableArgumentEE27__shared_ptr_default_deleteIS2_NS1_16BindableArgumentINS1_4lang3est6FactorEEEEE, 
                       __ZTSNSt3__110shared_ptrIN2gc22OpaqueBindableArgumentEE27__shared_ptr_default_deleteIS2_NS1_16BindableArgumentINS1_4lang3est8VariableEEEEE, 
                       __ZTSNSt3__110shared_ptrIN2gc22OpaqueBindableArgumentEE27__shared_ptr_default_deleteIS2_NS1_16BindableArgumentINS1_4lang5ArrayINS6_6BufferEEEEEEE, 
                       __ZTSNSt3__110shared_ptrIN2gc22OpaqueBindableArgumentEE27__shared_ptr_default_deleteIS2_NS1_16BindableArgumentINS1_4lang6BufferEEEEE, 
                       __ZTSNSt3__110shared_ptrIN2gc24TypedSchedulingDirectiveILNS1_24eSchedulingDirectiveTypeE0EEEE27__shared_ptr_default_deleteIS4_S4_EE, 
                       __ZTSNSt3__110shared_ptrIN2gc24TypedSchedulingDirectiveILNS1_24eSchedulingDirectiveTypeE1EEEE27__shared_ptr_default_deleteIS4_S4_EE, 
                       __ZTSNSt3__110shared_ptrIN2gc24TypedSchedulingDirectiveILNS1_24eSchedulingDirectiveTypeE2EEEE27__shared_ptr_default_deleteIS4_S4_EE, 
                       __ZTSNSt3__110shared_ptrIN2gc24TypedSchedulingDirectiveILNS1_24eSchedulingDirectiveTypeE3EEEE27__shared_ptr_default_deleteIS4_S4_EE, 
                       __ZTSNSt3__110shared_ptrIN2gc24TypedSchedulingDirectiveILNS1_24eSchedulingDirectiveTypeE4EEEE27__shared_ptr_default_deleteIS4_S4_EE, 
                       __ZTSNSt3__110shared_ptrIN2gc24TypedSchedulingDirectiveILNS1_24eSchedulingDirectiveTypeE5EEEE27__shared_ptr_default_deleteIS4_S4_EE, 
                       __ZTSNSt3__110shared_ptrIN2gc24TypedSchedulingDirectiveILNS1_24eSchedulingDirectiveTypeE6EEEE27__shared_ptr_default_deleteIS4_S4_EE, 
                       __ZTSNSt3__110shared_ptrIN2gc3est10NoiseModelEE27__shared_ptr_default_deleteIS3_NS2_21StandardGaussianNoiseEEE, 
                       __ZTSNSt3__110shared_ptrIN2gc3est10NoiseModelEE27__shared_ptr_default_deleteIS3_NS2_22IsotropicGaussianNoiseEEE, 
                       __ZTSNSt3__110shared_ptrIN2gc3est10NoiseModelEE27__shared_ptr_default_deleteIS3_NS2_24AnisotropicGaussianNoiseEEE, 
                       __ZTSNSt3__110shared_ptrIN2gc3est11BlockMatrixEE27__shared_ptr_default_deleteIS3_NS2_16DenseBlockMatrixEEE, 
                       __ZTSNSt3__110shared_ptrIN2gc3est11BlockMatrixEE27__shared_ptr_default_deleteIS3_NS2_20BitmappedBlockMatrixEEE, 
                       __ZTSNSt3__110shared_ptrIN2gc3est11BlockMatrixEE27__shared_ptr_default_deleteIS3_NS2_24CompressedRowBlockMatrixEEE, 
                       __ZTSNSt3__110shared_ptrIN2gc3est11FactorGraphEE27__shared_ptr_default_deleteIS3_S3_EE, 
                       __ZTSNSt3__110shared_ptrIN2gc3est11TypedFactorILNS2_11eFactorTypeE1EEEE27__shared_ptr_default_deleteIS5_S5_EE, 
                       __ZTSNSt3__110shared_ptrIN2gc3est12LinearSolverEE27__shared_ptr_default_deleteIS3_NS2_14TypedPCGSolverINS2_33ExplicitHessianLinearizationPointEEEEE, 
                       __ZTSNSt3__110shared_ptrIN2gc3est12LinearSolverEE27__shared_ptr_default_deleteIS3_NS2_14TypedPCGSolverINS2_33ImplicitHessianLinearizationPointEEEEE, 
                       __ZTSNSt3__110shared_ptrIN2gc3est12LinearSolverEE27__shared_ptr_default_deleteIS3_NS2_15DenseLDLTSolverEEE, 
                       __ZTSNSt3__110shared_ptrIN2gc3est12LinearSolverEE27__shared_ptr_default_deleteIS3_NS2_16SparseLDLTSolverEEE, 
                       __ZTSNSt3__110shared_ptrIN2gc3est13BlockOrderingEE27__shared_ptr_default_deleteIS3_S3_EE, 
                       __ZTSNSt3__110shared_ptrIN2gc3est13FactorBuffersEE27__shared_ptr_default_deleteIS3_NS2_18BasicFactorBuffersEEE, 
                       __ZTSNSt3__110shared_ptrIN2gc3est13FactorBuffersEE27__shared_ptr_default_deleteIS3_NS2_21VariadicFactorBuffersEEE, 
                       __ZTSNSt3__110shared_ptrIN2gc3est13TypedBoxMinusINS1_4lang6VectorENS4_3SE3EEEE27__shared_ptr_default_deleteIS7_S7_EE, 
                       __ZTSNSt3__110shared_ptrIN2gc3est13TypedBoxMinusINS1_4lang6VectorENS4_3SO3EEEE27__shared_ptr_default_deleteIS7_S7_EE, 
                       __ZTSNSt3__110shared_ptrIN2gc3est13VariableGroupEE27__shared_ptr_default_deleteIS3_S3_EE, 
                       __ZTSNSt3__110shared_ptrIN2gc3est14FactorOrderingEE27__shared_ptr_default_deleteIS3_NS2_19BasicFactorOrderingEEE, 
                       __ZTSNSt3__110shared_ptrIN2gc3est14FactorOrderingEE27__shared_ptr_default_deleteIS3_NS2_22VariadicFactorOrderingEEE, 
                       __ZTSNSt3__110shared_ptrIN2gc3est14PreconditionerEE27__shared_ptr_default_deleteIS3_NS2_53ExplicitHessianLinearizationPointJacobiPreconditionerEEE, 
                       __ZTSNSt3__110shared_ptrIN2gc3est14PreconditionerEE27__shared_ptr_default_deleteIS3_NS2_53ImplicitHessianLinearizationPointJacobiPreconditionerEEE, 
                       __ZTSNSt3__110shared_ptrIN2gc3est14PreconditionerEE27__shared_ptr_default_deleteIS3_NS2_58ExplicitHessianLinearizationPointBlockJacobiPreconditionerEEE, 
                       __ZTSNSt3__110shared_ptrIN2gc3est14PreconditionerEE27__shared_ptr_default_deleteIS3_NS2_58ImplicitHessianLinearizationPointBlockJacobiPreconditionerEEE, 
                       __ZTSNSt3__110shared_ptrIN2gc3est15FactorJacobiansEE27__shared_ptr_default_deleteIS3_S3_EE, 
                       __ZTSNSt3__110shared_ptrIN2gc3est18TypedModelFunctionINS1_4lang3SE3EJRKS5_EEEE27__shared_ptr_default_deleteIS8_S8_EE, 
                       __ZTSNSt3__110shared_ptrIN2gc3est18TypedModelFunctionINS1_4lang3SO3EJRKS5_EEEE27__shared_ptr_default_deleteIS8_S8_EE, 
                       __ZTSNSt3__110shared_ptrIN2gc3est18TypedModelFunctionINS1_4lang6ScalarEJRKS5_EEEE27__shared_ptr_default_deleteIS8_S8_EE, 
                       __ZTSNSt3__110shared_ptrIN2gc3est18TypedModelFunctionINS1_4lang6VectorEJRKS5_EEEE27__shared_ptr_default_deleteIS8_S8_EE, 
                       __ZTSNSt3__110shared_ptrIN2gc3est19TrustRegionStrategyEE27__shared_ptr_default_deleteIS3_NS2_51ExplicitHessianLinearizationPointLevenbergMarquardtEEE, 
                       __ZTSNSt3__110shared_ptrIN2gc3est19TrustRegionStrategyEE27__shared_ptr_default_deleteIS3_NS2_51ImplicitHessianLinearizationPointLevenbergMarquardtEEE, 
                       __ZTSNSt3__110shared_ptrIN2gc3est20TrustRegionMinimizerEE27__shared_ptr_default_deleteIS3_S3_EE, 
                       __ZTSNSt3__110shared_ptrIN2gc3est22ModelErrorCostFunctionEE27__shared_ptr_default_deleteIS3_S3_EE, 
                       __ZTSNSt3__110shared_ptrIN2gc3est24LeastSquaresCostFunctionEE27__shared_ptr_default_deleteIS3_S3_EE, 
                       __ZTSNSt3__110shared_ptrIN2gc3est26L2LeastSquaresLossFunctionEE27__shared_ptr_default_deleteIS3_S3_EE, 
                       __ZTSNSt3__110shared_ptrIN2gc3est29TypedLeastSquaresLossFunctionIJNS1_4lang6ScalarEEEEE27__shared_ptr_default_deleteIS6_S6_EE, 
                       __ZTSNSt3__110shared_ptrIN2gc3est33ExplicitHessianLinearizationPointEE27__shared_ptr_default_deleteIS3_S3_EE, 
                       __ZTSNSt3__110shared_ptrIN2gc3est33ImplicitHessianLinearizationPointEE27__shared_ptr_default_deleteIS3_S3_EE, 
                       __ZTSNSt3__110shared_ptrIN2gc3est6FactorEE27__shared_ptr_default_deleteIS3_S3_EE, 
                       __ZTSNSt3__110shared_ptrIN2gc3est7ProblemEE27__shared_ptr_default_deleteIS3_S3_EE, 
                       __ZTSNSt3__110shared_ptrIN2gc3est8BoxMinusEE27__shared_ptr_default_deleteIS3_S3_EE, 
                       __ZTSNSt3__110shared_ptrIN2gc3est8VariableEE27__shared_ptr_default_deleteIS3_NS2_3SE3EEE, 
                       __ZTSNSt3__110shared_ptrIN2gc3est8VariableEE27__shared_ptr_default_deleteIS3_NS2_3SO3EEE, 
                       __ZTSNSt3__110shared_ptrIN2gc3est8VariableEE27__shared_ptr_default_deleteIS3_NS2_6MatrixEEE, 
                       __ZTSNSt3__110shared_ptrIN2gc3est8VariableEE27__shared_ptr_default_deleteIS3_NS2_6ScalarEEE, 
                       __ZTSNSt3__110shared_ptrIN2gc3est8VariableEE27__shared_ptr_default_deleteIS3_NS2_6VectorEEE, 
                       __ZTSNSt3__110shared_ptrIN2gc3ops5LayerEE27__shared_ptr_default_deleteIS3_NS2_4ReLUEEE, 
                       __ZTSNSt3__110shared_ptrIN2gc3ops5LayerEE27__shared_ptr_default_deleteIS3_NS2_6LinearEEE, 
                       __ZTSNSt3__110shared_ptrIN2gc3ops5LayerEE27__shared_ptr_default_deleteIS3_NS2_7SoftMaxEEE, 
                       __ZTSNSt3__110shared_ptrIN2gc3ops5ModelEE27__shared_ptr_default_deleteIS3_NS2_15SequentialModelEEE, 
                       __ZTSNSt3__110shared_ptrIN2gc3ops6detail22FunctionReturnTypeImplEE27__shared_ptr_default_deleteIS4_NS3_27TypedFunctionReturnTypeImplILm1EEEEE, 
                       __ZTSNSt3__110shared_ptrIN2gc3ops9OptimizerEE27__shared_ptr_default_deleteIS3_NS2_13AdamOptimizerEEE, 
                       __ZTSNSt3__110shared_ptrIN2gc4TileEE27__shared_ptr_default_deleteIS2_S2_EE, 
                       __ZTSNSt3__110shared_ptrIN2gc4lang2ad4ViewEE27__shared_ptr_default_deleteIS4_NS3_10RangeSliceEEE, 
                       __ZTSNSt3__110shared_ptrIN2gc4lang2ad4ViewEE27__shared_ptr_default_deleteIS4_NS3_11TrivialViewEEE, 
                       __ZTSNSt3__110shared_ptrIN2gc4lang2ad4ViewEE27__shared_ptr_default_deleteIS4_NS3_15ViewCompositionEEE, 
                       __ZTSNSt3__110shared_ptrIN2gc4lang2ad4ViewEE27__shared_ptr_default_deleteIS4_NS3_5SliceEEE, 
                       __ZTSNSt3__110shared_ptrIN2gc4lang3est18FactorOrderingImplEE27__shared_ptr_default_deleteIS4_NS3_19BasicFactorOrderingEEE, 
                       __ZTSNSt3__110shared_ptrIN2gc4lang3est18FactorOrderingImplEE27__shared_ptr_default_deleteIS4_NS3_22VariadicFactorOrderingEEE, 
                       __ZTSNSt3__110shared_ptrIN2gc6BufferEE27__shared_ptr_default_deleteIS2_S2_EE, 
                       __ZTSNSt3__110shared_ptrIN2gc6KernelEE27__shared_ptr_default_deleteIS2_NS1_11TypedKernelINS1_4lang4TileEJNS6_3est13BlockOrderingENS6_5ArrayINS8_14FactorOrderingEEERNS8_11JacobianSetERNS8_11BlockMatrixEEEEEE, 
                       __ZTSNSt3__110shared_ptrIN2gc6KernelEE27__shared_ptr_default_deleteIS2_NS1_11TypedKernelINS1_4lang4TileEJNS6_3est13BlockOrderingENS8_14FactorOrderingERNS8_8JacobianERNS8_11BlockMatrixEEEEEE, 
                       __ZTSNSt3__110shared_ptrIN2gc6KernelEE27__shared_ptr_default_deleteIS2_NS1_11TypedKernelINS1_4lang4TileEJNS6_3est14FactorOrderingERNS8_8JacobianENS6_6BufferESC_EEEEE, 
                       __ZTSNSt3__110shared_ptrIN2gc6KernelEE27__shared_ptr_default_deleteIS2_NS1_11TypedKernelINS1_4lang4TileEJNS6_3est6FactorENS6_6BufferESA_SA_NS6_5ArrayINS8_14FactorOrderingEEENS8_11VariableSetENSB_ISA_EESF_NS6_17BindableTypeArrayEEEEEE, 
                       __ZTSNSt3__110shared_ptrIN2gc6KernelEE27__shared_ptr_default_deleteIS2_NS1_11TypedKernelINS1_4lang4TileEJNS6_3est6FactorENS8_11VariableSetENS6_6BufferESB_NS6_17BindableTypeArrayEEEEEE, 
                       __ZTSNSt3__110shared_ptrIN2gc6KernelEE27__shared_ptr_default_deleteIS2_NS1_11TypedKernelINS1_4lang4TileEJNS6_3est6FactorENS8_11VariableSetENS6_6BufferESB_SB_NS6_17BindableTypeArrayEEEEEE, 
                       __ZTSNSt3__110shared_ptrIN2gc6KernelEE27__shared_ptr_default_deleteIS2_NS1_11TypedKernelINS1_4lang4TileEJNS6_3est6FactorERNS8_14FactorOrderingENS6_5ArrayINS6_6BufferEEERNS8_16BlockMatrixArrayENS8_22SchurEliminatedHessianESE_SD_SD_EEEEE, 
                       __ZTSNSt3__110shared_ptrIN2gc6KernelEE27__shared_ptr_default_deleteIS2_NS1_11TypedKernelINS1_4lang4TileEJNS6_3est8VariableEEEEEE, 
                       __ZTSNSt3__110shared_ptrIN2gc6KernelEE27__shared_ptr_default_deleteIS2_NS1_11TypedKernelINS1_4lang4TileEJNS6_3est8VariableENS6_6ScalarEEEEEE, 
                       __ZTSNSt3__110shared_ptrIN2gc6KernelEE27__shared_ptr_default_deleteIS2_NS1_11TypedKernelINS1_4lang4TileEJNS6_5ArrayINS6_3est13BlockOrderingEEENS8_INS9_14FactorOrderingEEERNS9_11JacobianSetERNS9_16BlockMatrixArrayEEEEEE, 
                       __ZTSNSt3__110shared_ptrIN2gc6KernelEE27__shared_ptr_default_deleteIS2_NS1_11TypedKernelINS1_4lang4TileEJNS6_5ArrayINS6_6BufferEEESA_EEEEE, 
                       __ZTSNSt3__110shared_ptrIN2gc6KernelEE27__shared_ptr_default_deleteIS2_NS1_11TypedKernelINS1_4lang4TileEJNS6_6BufferEEEEEE, 
                       __ZTSNSt3__110shared_ptrIN2gc6KernelEE27__shared_ptr_default_deleteIS2_NS1_11TypedKernelINS1_4lang4TileEJNS6_6BufferENS6_3est6FactorERNS9_11JacobianSetENS6_5ArrayIS8_EENSD_INS9_14FactorOrderingEEERNS9_16BlockMatrixArrayESE_EEEEE, 
                       __ZTSNSt3__110shared_ptrIN2gc6KernelEE27__shared_ptr_default_deleteIS2_NS1_11TypedKernelINS1_4lang4TileEJNS6_6BufferENS6_3est8VariableEEEEEE, 
                       __ZTSNSt3__110shared_ptrIN2gc6KernelEE27__shared_ptr_default_deleteIS2_NS1_11TypedKernelINS1_4lang4TileEJNS6_6BufferENS6_5ArrayINS6_3est8VariableEEEEEEEE, 
                       __ZTSNSt3__110shared_ptrIN2gc6KernelEE27__shared_ptr_default_deleteIS2_NS1_11TypedKernelINS1_4lang4TileEJNS6_6BufferENS6_5ArrayIS8_EESA_NS6_3est6FactorERNSB_14FactorOrderingENSB_22SchurEliminatedHessianES8_EEEEE, 
                       __ZTSNSt3__110shared_ptrIN2gc6KernelEE27__shared_ptr_default_deleteIS2_NS1_11TypedKernelINS1_4lang4TileEJNS6_6BufferENS6_6ScalarES8_EEEEE, 
                       __ZTSNSt3__110shared_ptrIN2gc6KernelEE27__shared_ptr_default_deleteIS2_NS1_11TypedKernelINS1_4lang4TileEJNS6_6BufferENS6_6ScalarES8_S8_EEEEE, 
                       __ZTSNSt3__110shared_ptrIN2gc6KernelEE27__shared_ptr_default_deleteIS2_NS1_11TypedKernelINS1_4lang4TileEJNS6_6BufferERNS6_3est8JacobianENS9_14FactorOrderingENS6_6ScalarES8_S8_EEEEE, 
                       __ZTSNSt3__110shared_ptrIN2gc6KernelEE27__shared_ptr_default_deleteIS2_NS1_11TypedKernelINS1_4lang4TileEJNS6_6BufferERNS6_3est8JacobianENS9_14FactorOrderingES8_S8_S8_S8_S8_EEEEE, 
                       __ZTSNSt3__110shared_ptrIN2gc6KernelEE27__shared_ptr_default_deleteIS2_NS1_11TypedKernelINS1_4lang4TileEJNS6_6BufferERNS6_3est8JacobianENS9_6FactorERNS9_11JacobianSetERNS9_14FactorOrderingENS6_5ArrayIS8_EENSH_ISF_EERNS9_16BlockMatrixArrayENS9_22SchurEliminatedHessianESI_S8_S8_EEEEE, 
                       __ZTSNSt3__110shared_ptrIN2gc6KernelEE27__shared_ptr_default_deleteIS2_NS1_11TypedKernelINS1_4lang4TileEJNS6_6BufferERNS6_3est8JacobianES8_S8_EEEEE, 
                       __ZTSNSt3__110shared_ptrIN2gc6KernelEE27__shared_ptr_default_deleteIS2_NS1_11TypedKernelINS1_4lang4TileEJNS6_6BufferES8_EEEEE, 
                       __ZTSNSt3__110shared_ptrIN2gc6KernelEE27__shared_ptr_default_deleteIS2_NS1_11TypedKernelINS1_4lang4TileEJNS6_6BufferES8_NS6_5ArrayINS6_3est8VariableEEEEEEEE, 
                       __ZTSNSt3__110shared_ptrIN2gc6KernelEE27__shared_ptr_default_deleteIS2_NS1_11TypedKernelINS1_4lang4TileEJNS6_6BufferES8_NS6_6ScalarES9_S9_S9_S9_S8_S8_EEEEE, 
                       __ZTSNSt3__110shared_ptrIN2gc6KernelEE27__shared_ptr_default_deleteIS2_NS1_11TypedKernelINS1_4lang4TileEJNS6_6BufferES8_NS6_6VectorES8_EEEEE, 
                       __ZTSNSt3__110shared_ptrIN2gc6KernelEE27__shared_ptr_default_deleteIS2_NS1_11TypedKernelINS1_4lang4TileEJNS6_6BufferES8_RNS6_3est8JacobianES8_S8_EEEEE, 
                       __ZTSNSt3__110shared_ptrIN2gc6KernelEE27__shared_ptr_default_deleteIS2_NS1_11TypedKernelINS1_4lang4TileEJNS6_6BufferES8_S8_EEEEE, 
                       __ZTSNSt3__110shared_ptrIN2gc6KernelEE27__shared_ptr_default_deleteIS2_NS1_11TypedKernelINS1_4lang4TileEJNS6_6BufferES8_S8_NS6_6ScalarEEEEEE, 
                       __ZTSNSt3__110shared_ptrIN2gc6KernelEE27__shared_ptr_default_deleteIS2_NS1_11TypedKernelINS1_4lang4TileEJNS6_6BufferES8_S8_NS6_6VectorES8_S8_EEEEE, 
                       __ZTSNSt3__110shared_ptrIN2gc6KernelEE27__shared_ptr_default_deleteIS2_NS1_11TypedKernelINS1_4lang4TileEJNS6_6BufferES8_S8_S8_EEEEE, 
                       __ZTSNSt3__110shared_ptrIN2gc6KernelEE27__shared_ptr_default_deleteIS2_NS1_11TypedKernelINS1_4lang4TileEJNS6_6BufferES8_S8_S8_S8_NS6_6ScalarEEEEEE, 
                       __ZTSNSt3__110shared_ptrIN2gc6KernelEE27__shared_ptr_default_deleteIS2_NS1_11TypedKernelINS1_4lang4TileEJNS6_6BufferES8_S8_S8_S8_S8_S8_EEEEE, 
                       __ZTSNSt3__110shared_ptrIN2gc6KernelEE27__shared_ptr_default_deleteIS2_NS1_11TypedKernelINS1_4lang4TileEJNS6_6ScalarENS6_6BufferES9_EEEEE, 
                       __ZTSNSt3__110shared_ptrIN2gc6KernelEE27__shared_ptr_default_deleteIS2_NS1_11TypedKernelINS1_4lang4TileEJNS6_6ScalarERNS6_3est11BlockMatrixEEEEEE, 
                       __ZTSNSt3__110shared_ptrIN2gc6KernelEE27__shared_ptr_default_deleteIS2_NS1_11TypedKernelINS1_4lang4TileEJRNS6_3est11BlockMatrixEEEEEE, 
                       __ZTSNSt3__110shared_ptrIN2gc6KernelEE27__shared_ptr_default_deleteIS2_NS1_11TypedKernelINS1_4lang4TileEJRNS6_3est11BlockMatrixENS6_6BufferESB_EEEEE, 
                       __ZTSNSt3__110shared_ptrIN2gc6KernelEE27__shared_ptr_default_deleteIS2_NS1_11TypedKernelINS1_4lang4TileEJRNS6_3est11BlockMatrixENS6_6BufferESB_SB_EEEEE, 
                       __ZTSNSt3__110shared_ptrIN2gc6KernelEE27__shared_ptr_default_deleteIS2_NS1_11TypedKernelINS1_4lang4TileEJRNS6_3est11BlockMatrixENS6_6BufferESB_SB_RSB_EEEEE, 
                       __ZTSNSt3__110shared_ptrIN2gc6KernelEE27__shared_ptr_default_deleteIS2_NS1_11TypedKernelINS1_4lang4TileEJRNS6_3est11JacobianSetENS6_5ArrayINS8_14FactorOrderingEEENSB_INS6_6BufferEEESF_SE_EEEEE, 
                       __ZTSNSt3__110shared_ptrIN2gc6KernelEE27__shared_ptr_default_deleteIS2_NS1_11TypedKernelINS1_4lang4TileEJRNS6_3est14FactorOrderingENS6_6BufferERNS8_8JacobianESB_SB_EEEEE, 
                       __ZTSNSt3__110shared_ptrIN2gc6KernelEE27__shared_ptr_default_deleteIS2_NS1_11TypedKernelINS1_4lang4TileEJRNS6_3est14FactorOrderingERNS8_8JacobianENS6_6BufferERSD_EEEEE, 
                       __ZTSNSt3__110shared_ptrIN2gc6KernelEE27__shared_ptr_default_deleteIS2_NS1_11TypedKernelINS1_4lang4TileEJRNS6_3est14FactorOrderingERNS8_8JacobianENS6_6BufferESD_EEEEE, 
                       __ZTSNSt3__110shared_ptrIN2gc6KernelEE27__shared_ptr_default_deleteIS2_NS1_11TypedKernelINS1_4lang4TileEJRNS6_3est14FactorOrderingERNS8_8JacobianENS6_6BufferESD_SD_EEEEE, 
                       __ZTSNSt3__110shared_ptrIN2gc6KernelEE27__shared_ptr_default_deleteIS2_NS1_11TypedKernelINS1_4lang4TileEJRNS6_3est14FactorOrderingERNS8_8JacobianENS6_6BufferESD_SD_SD_EEEEE, 
                       __ZTSNSt3__110shared_ptrIN2gc6KernelEE27__shared_ptr_default_deleteIS2_NS1_11TypedKernelINS1_4lang4TileEJRNS6_3est8JacobianENS6_6BufferESB_SB_RSB_EEEEE, 
                       __ZTSNSt3__110shared_ptrIN2gc6KernelEE27__shared_ptr_default_deleteIS2_NS1_11TypedKernelINS1_4lang4TileEJRNS6_3est8JacobianENS6_6BufferESB_SB_SB_SB_EEEEE, 
                       __ZTSNSt3__110shared_ptrIN2gc6KernelEE27__shared_ptr_default_deleteIS2_NS1_11TypedKernelINS1_4lang4TileEJRNS6_3est8JacobianENS8_14FactorOrderingENS6_6BufferESC_EEEEE, 
                       __ZTSNSt3__110shared_ptrIN2gc6KernelEE27__shared_ptr_default_deleteIS2_NS1_11TypedKernelINS1_4lang4TileEJRNS6_3est8JacobianENS8_14FactorOrderingENS6_6BufferESC_SC_EEEEE, 
                       __ZTSNSt3__110shared_ptrIN2gc6KernelEE27__shared_ptr_default_deleteIS2_NS1_11TypedKernelINS1_4lang4TileEJRNS6_3est8JacobianENS8_14FactorOrderingENS6_6BufferESC_SC_SC_EEEEE, 
                       __ZTSNSt3__110shared_ptrIN2gc6KernelEE27__shared_ptr_default_deleteIS2_NS1_11TypedKernelINS1_4lang4TileEJRNS6_3est8JacobianENS8_14FactorOrderingESB_NS6_6BufferESC_SC_SC_SC_SC_EEEEE, 
                       __ZTSNSt3__110shared_ptrIN2gc6KernelEE27__shared_ptr_default_deleteIS2_NS1_11TypedKernelINS1_4lang4TileEJRNS6_6ScalarENS6_6BufferEEEEEE, 
                       __ZTSNSt3__110shared_ptrIN2gc6KernelEE27__shared_ptr_default_deleteIS2_NS1_17TypedNoTileKernelIJEEEEE, 
                       __ZTSNSt3__110shared_ptrIN2gc6KernelEE27__shared_ptr_default_deleteIS2_NS1_17TypedNoTileKernelIJNS1_4lang6BufferENS6_6ScalarEEEEEE, 
                       __ZTSNSt3__110shared_ptrIN2gc6KernelEE27__shared_ptr_default_deleteIS2_NS1_17TypedNoTileKernelIJNS1_4lang6BufferENS6_6VectorEEEEEE, 
                       __ZTSNSt3__110shared_ptrIN2gc6KernelEE27__shared_ptr_default_deleteIS2_NS1_17TypedNoTileKernelIJNS1_4lang6BufferES7_EEEEE, 
                       __ZTSNSt3__110shared_ptrIN2gc6KernelEE27__shared_ptr_default_deleteIS2_NS1_17TypedNoTileKernelIJNS1_4lang6BufferES7_S7_EEEEE, 
                       __ZTSNSt3__110shared_ptrIN2gc6ObjectEE27__shared_ptr_default_deleteIS2_NS1_11TypedObjectILNS1_11eObjectTypeE1EEEEE, 
                       __ZTSNSt3__110shared_ptrIN2gc6ScalarEE27__shared_ptr_default_deleteIS2_S2_EE, 
                       __ZTSNSt3__110shared_ptrIN2gc6VectorEE27__shared_ptr_default_deleteIS2_S2_EE, 
                       __ZTSNSt3__110shared_ptrIN2gc6device10GPULibraryEE27__shared_ptr_default_deleteIS3_S3_EE, 
                       __ZTSNSt3__110shared_ptrIN2gc6device11GPUFunctionEE27__shared_ptr_default_deleteIS3_S3_EE, 
                       __ZTSNSt3__110shared_ptrIN2gc6device9GPUDeviceEE27__shared_ptr_default_deleteIS3_S3_EE, 
                       __ZTSNSt3__110shared_ptrIN2gc7LibraryEE27__shared_ptr_default_deleteIS2_S2_EE, 
                       __ZTSNSt3__110shared_ptrIN2gc7ProgramEE27__shared_ptr_default_deleteIS2_S2_EE, 
                       __ZTSNSt3__110shared_ptrIN2gc8PipelineEE27__shared_ptr_default_deleteIS2_S2_EE, 
                       __ZTSNSt3__110shared_ptrIN2gc9GeneratorEE27__shared_ptr_default_deleteIS2_NS1_16DefaultGeneratorEEE, 
                       __ZTSNSt3__110shared_ptrIN2gc9GeneratorEE27__shared_ptr_default_deleteIS2_NS1_3est10EvaluateHpEEE, 
                       __ZTSNSt3__110shared_ptrIN2gc9GeneratorEE27__shared_ptr_default_deleteIS2_NS1_3est10EvaluateJpEEE, 
                       __ZTSNSt3__110shared_ptrIN2gc9GeneratorEE27__shared_ptr_default_deleteIS2_NS1_3est11EvaluateJtJEEE, 
                       __ZTSNSt3__110shared_ptrIN2gc9GeneratorEE27__shared_ptr_default_deleteIS2_NS1_3est11EvaluateJteEEE, 
                       __ZTSNSt3__110shared_ptrIN2gc9GeneratorEE27__shared_ptr_default_deleteIS2_NS1_3est11PCGIterate1EEE, 
                       __ZTSNSt3__110shared_ptrIN2gc9GeneratorEE27__shared_ptr_default_deleteIS2_NS1_3est11PCGIterate2EEE, 
                       __ZTSNSt3__110shared_ptrIN2gc9GeneratorEE27__shared_ptr_default_deleteIS2_NS1_3est12EvaluateJtJpEEE, 
                       __ZTSNSt3__110shared_ptrIN2gc9GeneratorEE27__shared_ptr_default_deleteIS2_NS1_3est12InvertBlockMEEE, 
                       __ZTSNSt3__110shared_ptrIN2gc9GeneratorEE27__shared_ptr_default_deleteIS2_NS1_3est14EvaluateBlockMEEE, 
                       __ZTSNSt3__110shared_ptrIN2gc9GeneratorEE27__shared_ptr_default_deleteIS2_NS1_3est14ExtractDiagJtJEEE, 
                       __ZTSNSt3__110shared_ptrIN2gc9GeneratorEE27__shared_ptr_default_deleteIS2_NS1_3est14SchurLinearizeEEE, 
                       __ZTSNSt3__110shared_ptrIN2gc9GeneratorEE27__shared_ptr_default_deleteIS2_NS1_3est17SchurOuterProductEEE, 
                       __ZTSNSt3__110shared_ptrIN2gc9GeneratorEE27__shared_ptr_default_deleteIS2_NS1_3est17SymmetrizeDiagJtJEEE, 
                       __ZTSNSt3__110shared_ptrIN2gc9GeneratorEE27__shared_ptr_default_deleteIS2_NS1_3est18ImplicitSchurJtJp1EEE, 
                       __ZTSNSt3__110shared_ptrIN2gc9GeneratorEE27__shared_ptr_default_deleteIS2_NS1_3est18ImplicitSchurJtJp2EEE, 
                       __ZTSNSt3__110shared_ptrIN2gc9GeneratorEE27__shared_ptr_default_deleteIS2_NS1_3est20MaterializeJacobiansEEE, 
                       __ZTSNSt3__110shared_ptrIN2gc9GeneratorEE27__shared_ptr_default_deleteIS2_NS1_3est20SchurBackSubstitute1EEE, 
                       __ZTSNSt3__110shared_ptrIN2gc9GeneratorEE27__shared_ptr_default_deleteIS2_NS1_3est20SchurBackSubstitute2EEE, 
                       __ZTSNSt3__110shared_ptrIN2gc9GeneratorEE27__shared_ptr_default_deleteIS2_NS1_3est23EvaluateJtJVariableTypeEEE, 
                       __ZTSNSt3__110shared_ptrIN2gc9GeneratorEE27__shared_ptr_default_deleteIS2_NS1_3est24BlockAndFactorReorderingEEE, 
                       __ZTSNSt3__110shared_ptrIN2gc9GeneratorEE27__shared_ptr_default_deleteIS2_NS1_3est24ImplicitSchurInitialize1EEE, 
                       __ZTSNSt3__110shared_ptrIN2gc9GeneratorEE27__shared_ptr_default_deleteIS2_NS1_3est24ImplicitSchurInitialize2EEE, 
                       __ZTSNSt3__110shared_ptrIN2gc9GeneratorEE27__shared_ptr_default_deleteIS2_NS1_3est24ImplicitSchurInitialize3EEE, 
                       __ZTSNSt3__110shared_ptrIN2gc9GeneratorEE27__shared_ptr_default_deleteIS2_NS1_3est25ApplyJacobiPreconditionerEEE, 
                       __ZTSNSt3__110shared_ptrIN2gc9GeneratorEE27__shared_ptr_default_deleteIS2_NS1_3est28ImplicitSchurBackSubstitute1EEE, 
                       __ZTSNSt3__110shared_ptrIN2gc9GeneratorEE27__shared_ptr_default_deleteIS2_NS1_3est28ImplicitSchurBackSubstitute2EEE, 
                       __ZTSNSt3__110shared_ptrIN2gc9GeneratorEE27__shared_ptr_default_deleteIS2_NS1_3est28SchurDampAndInvertEliminatedEEE, 
                       __ZTSNSt3__110shared_ptrIN2gc9GeneratorEE27__shared_ptr_default_deleteIS2_NS1_3est30ApplyAdditiveLMDampingExplicitEEE, 
                       __ZTSNSt3__110shared_ptrIN2gc9GeneratorEE27__shared_ptr_default_deleteIS2_NS1_3est30ApplyAdditiveLMDampingImplicitEEE, 
                       __ZTSNSt3__110shared_ptrIN2gc9GeneratorEE27__shared_ptr_default_deleteIS2_NS1_3est30ApplyBlockJacobiPreconditionerEEE, 
                       __ZTSNSt3__110shared_ptrIN2gc9GeneratorEE27__shared_ptr_default_deleteIS2_NS1_3est33ApplyAdditiveLMDampingToDiagonalsEEE, 
                       __ZTSNSt3__110shared_ptrIN2gc9GeneratorEE27__shared_ptr_default_deleteIS2_NS1_3est36ApplyMultiplicativeLMDampingExplicitEEE, 
                       __ZTSNSt3__110shared_ptrIN2gc9GeneratorEE27__shared_ptr_default_deleteIS2_NS1_3est36ApplyMultiplicativeLMDampingImplicitEEE, 
                       __ZTSNSt3__110shared_ptrIN2gc9GeneratorEE27__shared_ptr_default_deleteIS2_NS1_3est39ApplyMultiplicativeLMDampingToDiagonalsEEE, 
                       __ZTSNSt3__110shared_ptrIN2gc9GeneratorEE27__shared_ptr_default_deleteIS2_NS1_3est7InvertMEEE, 
                       __ZTSNSt3__110shared_ptrIN2gc9InvariantEE27__shared_ptr_default_deleteIS2_NS1_18EqualSizeInvariantEEE, 
                       __ZTSNSt3__110shared_ptrIN2gc9InvariantEE27__shared_ptr_default_deleteIS2_NS1_18EqualTypeInvariantEEE, 
                       __ZTSNSt3__110shared_ptrIN2gc9InvariantEE27__shared_ptr_default_deleteIS2_NS1_18ExactTypeInvariantEEE, 
                       __ZTSNSt3__110shared_ptrIN2gc9InvariantEE27__shared_ptr_default_deleteIS2_NS1_19EqualShapeInvariantEEE, 
                       __ZTSNSt3__110shared_ptrIN2gc9InvariantEE27__shared_ptr_default_deleteIS2_NS1_19ExactShapeInvariantEEE, 
                       __ZTSNSt3__110shared_ptrIN2gc9InvariantEE27__shared_ptr_default_deleteIS2_NS1_24FunctionOfShapeInvariantEEE, 
                       __ZTSNSt3__110shared_ptrIN2gc9InvariantEE27__shared_ptr_default_deleteIS2_NS1_24FunctionOfTypesInvariantEEE, 
                       __ZTSNSt3__110shared_ptrIN2gc9InvariantEE27__shared_ptr_default_deleteIS2_NS1_27MatrixProductShapeInvariantEEE, 
                       __ZTSNSt3__110shared_ptrIN2gc9float16_tEE27__shared_ptr_default_deleteIS2_S2_EE, 
                       __ZTSNSt3__110shared_ptrIaE27__shared_ptr_default_deleteIaaEE, 
                       __ZTSNSt3__110shared_ptrIdE27__shared_ptr_default_deleteIddEE, 
                       __ZTSNSt3__110shared_ptrIfE27__shared_ptr_default_deleteIffEE, 
                       __ZTSNSt3__110shared_ptrIhE27__shared_ptr_default_deleteIhhEE, 
                       __ZTSNSt3__110shared_ptrIiE27__shared_ptr_default_deleteIiiEE, 
                       __ZTSNSt3__110shared_ptrIjE27__shared_ptr_default_deleteIjjEE, 
                       __ZTSNSt3__110shared_ptrIsE27__shared_ptr_default_deleteIssEE, 
                       __ZTSNSt3__110shared_ptrItE27__shared_ptr_default_deleteIttEE, 
                       __ZTSNSt3__110shared_ptrIvE27__shared_ptr_default_deleteIvdEE, 
                       __ZTSNSt3__110shared_ptrIvE27__shared_ptr_default_deleteIvfEE, 
                       __ZTSNSt3__110shared_ptrIxE27__shared_ptr_default_deleteIxxEE, 
                       __ZTSNSt3__110shared_ptrIyE27__shared_ptr_default_deleteIyyEE, 
                       __ZTSNSt3__113basic_filebufIcNS_11char_traitsIcEEEE, __ZTSNSt3__113basic_fstreamIcNS_11char_traitsIcEEEE, 
                       __ZTSNSt3__114basic_ifstreamIcNS_11char_traitsIcEEEE, __ZTSNSt3__114basic_ofstreamIcNS_11char_traitsIcEEEE, 
                       __ZTSNSt3__114default_deleteIA_cEE, __ZTSNSt3__115basic_stringbufIcNS_11char_traitsIcEENS_9allocatorIcEEEE, 
                       __ZTSNSt3__117bad_function_callE, __ZTSNSt3__118basic_stringstreamIcNS_11char_traitsIcEENS_9allocatorIcEEEE, 
                       __ZTSNSt3__119basic_istringstreamIcNS_11char_traitsIcEENS_9allocatorIcEEEE, 
                       __ZTSNSt3__120__packaged_task_baseIFvvEEE, __ZTSNSt3__120__shared_ptr_emplaceIN2gc10FileTargetENS_9allocatorIS2_EEEE, 
                       __ZTSNSt3__120__shared_ptr_emplaceIN2gc11OsLogTargetENS_9allocatorIS2_EEEE, 
                       __ZTSNSt3__120__shared_ptr_emplaceIN2gc13ConsoleTargetENS_9allocatorIS2_EEEE, 
                       __ZTSNSt3__120__shared_ptr_emplaceIN2gc3ops10FilledLikeENS_9allocatorIS3_EEEE, 
                       __ZTSNSt3__120__shared_ptr_emplaceIN2gc3ops10SSIMOpGradENS_9allocatorIS3_EEEE, 
                       __ZTSNSt3__120__shared_ptr_emplaceIN2gc3ops10ScanOpGradENS_9allocatorIS3_EEEE, 
                       __ZTSNSt3__120__shared_ptr_emplaceIN2gc3ops11AddAssignTTENS_9allocatorIS3_EEEE, 
                       __ZTSNSt3__120__shared_ptr_emplaceIN2gc3ops11ConcatShapeENS_9allocatorIS3_EEEE, 
                       __ZTSNSt3__120__shared_ptr_emplaceIN2gc3ops11RangeStaticENS_9allocatorIS3_EEEE, 
                       __ZTSNSt3__120__shared_ptr_emplaceIN2gc3ops12CrossEntropyENS_9allocatorIS3_EEEE, 
                       __ZTSNSt3__120__shared_ptr_emplaceIN2gc3ops12RangeDynamicENS_9allocatorIS3_EEEE, 
                       __ZTSNSt3__120__shared_ptr_emplaceIN2gc3ops12ReduceOpGradENS_9allocatorIS3_EEEE, 
                       __ZTSNSt3__120__shared_ptr_emplaceIN2gc3ops13NonzeroOpGradENS_9allocatorIS3_EEEE, 
                       __ZTSNSt3__120__shared_ptr_emplaceIN2gc3ops13ScanPassOneOpENS_9allocatorIS3_EEEE, 
                       __ZTSNSt3__120__shared_ptr_emplaceIN2gc3ops13ScanPassTwoOpENS_9allocatorIS3_EEEE, 
                       __ZTSNSt3__120__shared_ptr_emplaceIN2gc3ops13SortPassOneOpENS_9allocatorIS3_EEEE, 
                       __ZTSNSt3__120__shared_ptr_emplaceIN2gc3ops13SortPassTwoOpENS_9allocatorIS3_EEEE, 
                       __ZTSNSt3__120__shared_ptr_emplaceIN2gc3ops15ScanPassThreeOpENS_9allocatorIS3_EEEE, 
                       __ZTSNSt3__120__shared_ptr_emplaceIN2gc3ops16AutoDiffBackpropENS_9allocatorIS3_EEEE, 
                       __ZTSNSt3__120__shared_ptr_emplaceIN2gc3ops16NonzeroPassOneOpENS_9allocatorIS3_EEEE, 
                       __ZTSNSt3__120__shared_ptr_emplaceIN2gc3ops16NonzeroPassTwoOpENS_9allocatorIS3_EEEE, 
                       __ZTSNSt3__120__shared_ptr_emplaceIN2gc3ops17SortPassArgsTwoOpENS_9allocatorIS3_EEEE, 
                       __ZTSNSt3__120__shared_ptr_emplaceIN2gc3ops18NonzeroPassThreeOpENS_9allocatorIS3_EEEE, 
                       __ZTSNSt3__120__shared_ptr_emplaceIN2gc3ops20SSIMOpPreprocessGradENS_9allocatorIS3_EEEE, 
                       __ZTSNSt3__120__shared_ptr_emplaceIN2gc3ops3AtGENS_9allocatorIS3_EEEE, 
                       __ZTSNSt3__120__shared_ptr_emplaceIN2gc3ops3GBtENS_9allocatorIS3_EEEE, 
                       __ZTSNSt3__120__shared_ptr_emplaceIN2gc3ops4CastENS_9allocatorIS3_EEEE, 
                       __ZTSNSt3__120__shared_ptr_emplaceIN2gc3ops4CopyENS_9allocatorIS3_EEEE, 
                       __ZTSNSt3__120__shared_ptr_emplaceIN2gc3ops4HeadENS_9allocatorIS3_EEEE, 
                       __ZTSNSt3__120__shared_ptr_emplaceIN2gc3ops4L1OpENS_9allocatorIS3_EEEE, 
                       __ZTSNSt3__120__shared_ptr_emplaceIN2gc3ops4L2OpENS_9allocatorIS3_EEEE, 
                       __ZTSNSt3__120__shared_ptr_emplaceIN2gc3ops4TailENS_9allocatorIS3_EEEE, 
                       __ZTSNSt3__120__shared_ptr_emplaceIN2gc3ops5MaxTTENS_9allocatorIS3_EEEE, 
                       __ZTSNSt3__120__shared_ptr_emplaceIN2gc3ops5MinTTENS_9allocatorIS3_EEEE, 
                       __ZTSNSt3__120__shared_ptr_emplaceIN2gc3ops5PrintENS_9allocatorIS3_EEEE, 
                       __ZTSNSt3__120__shared_ptr_emplaceIN2gc3ops5Split4GradENS_9allocatorIS4_EEEE, 
                       __ZTSNSt3__120__shared_ptr_emplaceIN2gc3ops5SplitENS_9allocatorIS3_EEEE, 
                       __ZTSNSt3__120__shared_ptr_emplaceIN2gc3ops6ConcatENS_9allocatorIS3_EEEE, 
                       __ZTSNSt3__120__shared_ptr_emplaceIN2gc3ops6GatherENS_9allocatorIS3_EEEE, 
                       __ZTSNSt3__120__shared_ptr_emplaceIN2gc3ops6MatMulENS_9allocatorIS3_EEEE, 
                       __ZTSNSt3__120__shared_ptr_emplaceIN2gc3ops6ResizeENS_9allocatorIS3_EEEE, 
                       __ZTSNSt3__120__shared_ptr_emplaceIN2gc3ops6SSIMOpENS_9allocatorIS3_EEEE, 
                       __ZTSNSt3__120__shared_ptr_emplaceIN2gc3ops6detail10TensorFillENS_9allocatorIS4_EEEE, 
                       __ZTSNSt3__120__shared_ptr_emplaceIN2gc3ops6detail10TensorSizeENS_9allocatorIS4_EEEE, 
                       __ZTSNSt3__120__shared_ptr_emplaceIN2gc3ops6detail13TensorExtentsENS_9allocatorIS4_EEEE, 
                       __ZTSNSt3__120__shared_ptr_emplaceIN2gc3ops7ScatterENS_9allocatorIS3_EEEE, 
                       __ZTSNSt3__120__shared_ptr_emplaceIN2gc3ops8DivideTTENS_9allocatorIS3_EEEE, 
                       __ZTSNSt3__120__shared_ptr_emplaceIN2gc3ops8ReduceOpENS_9allocatorIS3_EEEE, 
                       __ZTSNSt3__120__shared_ptr_emplaceIN2gc3ops9BroadcastENS_9allocatorIS3_EEEE, 
                       __ZTSNSt3__120__shared_ptr_emplaceIN2gc3ops9TransposeENS_9allocatorIS3_EEEE, 
                       __ZTSNSt3__120__shared_ptr_emplaceIN8nlohmann16json_abi_v3_11_36detail21output_stream_adapterIcEENS_9allocatorIS5_EEEE, 
                       __ZTSNSt3__120__shared_ptr_emplaceINS_6vectorINS_10unique_ptrIN2gc12BindableTypeENS_14default_deleteIS4_EEEENS_9allocatorIS7_EEEENS8_ISA_EEEE, 
                       __ZTSNSt3__120__shared_ptr_pointerIPN2gc11TypedKernelINS1_4lang4TileEJNS3_3est13BlockOrderingENS3_5ArrayINS5_14FactorOrderingEEERNS5_11JacobianSetERNS5_11BlockMatrixEEEENS_10shared_ptrINS1_6KernelEE27__shared_ptr_default_deleteISH_SE_EENS_9allocatorISE_EEEE, 
                       __ZTSNSt3__120__shared_ptr_pointerIPN2gc11TypedKernelINS1_4lang4TileEJNS3_3est13BlockOrderingENS5_14FactorOrderingERNS5_8JacobianERNS5_11BlockMatrixEEEENS_10shared_ptrINS1_6KernelEE27__shared_ptr_default_deleteISF_SC_EENS_9allocatorISC_EEEE, 
                       __ZTSNSt3__120__shared_ptr_pointerIPN2gc11TypedKernelINS1_4lang4TileEJNS3_3est14FactorOrderingERNS5_8JacobianENS3_6BufferES9_EEENS_10shared_ptrINS1_6KernelEE27__shared_ptr_default_deleteISD_SA_EENS_9allocatorISA_EEEE, 
                       __ZTSNSt3__120__shared_ptr_pointerIPN2gc11TypedKernelINS1_4lang4TileEJNS3_3est6FactorENS3_6BufferES7_S7_NS3_5ArrayINS5_14FactorOrderingEEENS5_11VariableSetENS8_IS7_EESC_NS3_17BindableTypeArrayEEEENS_10shared_ptrINS1_6KernelEE27__shared_ptr_default_deleteISH_SE_EENS_9allocatorISE_EEEE, 
                       __ZTSNSt3__120__shared_ptr_pointerIPN2gc11TypedKernelINS1_4lang4TileEJNS3_3est6FactorENS5_11VariableSetENS3_6BufferES8_NS3_17BindableTypeArrayEEEENS_10shared_ptrINS1_6KernelEE27__shared_ptr_default_deleteISD_SA_EENS_9allocatorISA_EEEE, 
                       __ZTSNSt3__120__shared_ptr_pointerIPN2gc11TypedKernelINS1_4lang4TileEJNS3_3est6FactorENS5_11VariableSetENS3_6BufferES8_S8_NS3_17BindableTypeArrayEEEENS_10shared_ptrINS1_6KernelEE27__shared_ptr_default_deleteISD_SA_EENS_9allocatorISA_EEEE, 
                       __ZTSNSt3__120__shared_ptr_pointerIPN2gc11TypedKernelINS1_4lang4TileEJNS3_3est6FactorERNS5_14FactorOrderingENS3_5ArrayINS3_6BufferEEERNS5_16BlockMatrixArrayENS5_22SchurEliminatedHessianESB_SA_SA_EEENS_10shared_ptrINS1_6KernelEE27__shared_ptr_default_deleteISI_SF_EENS_9allocatorISF_EEEE, 
                       __ZTSNSt3__120__shared_ptr_pointerIPN2gc11TypedKernelINS1_4lang4TileEJNS3_3est8VariableEEEENS_10shared_ptrINS1_6KernelEE27__shared_ptr_default_deleteISA_S7_EENS_9allocatorIS7_EEEE, 
                       __ZTSNSt3__120__shared_ptr_pointerIPN2gc11TypedKernelINS1_4lang4TileEJNS3_3est8VariableENS3_6ScalarEEEENS_10shared_ptrINS1_6KernelEE27__shared_ptr_default_deleteISB_S8_EENS_9allocatorIS8_EEEE, 
                       __ZTSNSt3__120__shared_ptr_pointerIPN2gc11TypedKernelINS1_4lang4TileEJNS3_5ArrayINS3_3est13BlockOrderingEEENS5_INS6_14FactorOrderingEEERNS6_11JacobianSetERNS6_16BlockMatrixArrayEEEENS_10shared_ptrINS1_6KernelEE27__shared_ptr_default_deleteISI_SF_EENS_9allocatorISF_EEEE, 
                       __ZTSNSt3__120__shared_ptr_pointerIPN2gc11TypedKernelINS1_4lang4TileEJNS3_5ArrayINS3_6BufferEEES7_EEENS_10shared_ptrINS1_6KernelEE27__shared_ptr_default_deleteISB_S8_EENS_9allocatorIS8_EEEE, 
                       __ZTSNSt3__120__shared_ptr_pointerIPN2gc11TypedKernelINS1_4lang4TileEJNS3_6BufferEEEENS_10shared_ptrINS1_6KernelEE27__shared_ptr_default_deleteIS9_S6_EENS_9allocatorIS6_EEEE, 
                       __ZTSNSt3__120__shared_ptr_pointerIPN2gc11TypedKernelINS1_4lang4TileEJNS3_6BufferENS3_3est6FactorERNS6_11JacobianSetENS3_5ArrayIS5_EENSA_INS6_14FactorOrderingEEERNS6_16BlockMatrixArrayESB_EEENS_10shared_ptrINS1_6KernelEE27__shared_ptr_default_deleteISJ_SG_EENS_9allocatorISG_EEEE, 
                       __ZTSNSt3__120__shared_ptr_pointerIPN2gc11TypedKernelINS1_4lang4TileEJNS3_6BufferENS3_3est8VariableEEEENS_10shared_ptrINS1_6KernelEE27__shared_ptr_default_deleteISB_S8_EENS_9allocatorIS8_EEEE, 
                       __ZTSNSt3__120__shared_ptr_pointerIPN2gc11TypedKernelINS1_4lang4TileEJNS3_6BufferENS3_5ArrayINS3_3est8VariableEEEEEENS_10shared_ptrINS1_6KernelEE27__shared_ptr_default_deleteISD_SA_EENS_9allocatorISA_EEEE, 
                       __ZTSNSt3__120__shared_ptr_pointerIPN2gc11TypedKernelINS1_4lang4TileEJNS3_6BufferENS3_5ArrayIS5_EES7_NS3_3est6FactorERNS8_14FactorOrderingENS8_22SchurEliminatedHessianES5_EEENS_10shared_ptrINS1_6KernelEE27__shared_ptr_default_deleteISG_SD_EENS_9allocatorISD_EEEE, 
                       __ZTSNSt3__120__shared_ptr_pointerIPN2gc11TypedKernelINS1_4lang4TileEJNS3_6BufferENS3_6ScalarES5_EEENS_10shared_ptrINS1_6KernelEE27__shared_ptr_default_deleteISA_S7_EENS_9allocatorIS7_EEEE, 
                       __ZTSNSt3__120__shared_ptr_pointerIPN2gc11TypedKernelINS1_4lang4TileEJNS3_6BufferENS3_6ScalarES5_S5_EEENS_10shared_ptrINS1_6KernelEE27__shared_ptr_default_deleteISA_S7_EENS_9allocatorIS7_EEEE, 
                       __ZTSNSt3__120__shared_ptr_pointerIPN2gc11TypedKernelINS1_4lang4TileEJNS3_6BufferERNS3_3est8JacobianENS6_14FactorOrderingENS3_6ScalarES5_S5_EEENS_10shared_ptrINS1_6KernelEE27__shared_ptr_default_deleteISE_SB_EENS_9allocatorISB_EEEE, 
                       __ZTSNSt3__120__shared_ptr_pointerIPN2gc11TypedKernelINS1_4lang4TileEJNS3_6BufferERNS3_3est8JacobianENS6_14FactorOrderingES5_S5_S5_S5_S5_EEENS_10shared_ptrINS1_6KernelEE27__shared_ptr_default_deleteISD_SA_EENS_9allocatorISA_EEEE, 
                       __ZTSNSt3__120__shared_ptr_pointerIPN2gc11TypedKernelINS1_4lang4TileEJNS3_6BufferERNS3_3est8JacobianENS6_6FactorERNS6_11JacobianSetERNS6_14FactorOrderingENS3_5ArrayIS5_EENSE_ISC_EERNS6_16BlockMatrixArrayENS6_22SchurEliminatedHessianESF_S5_S5_EEENS_10shared_ptrINS1_6KernelEE27__shared_ptr_default_deleteISN_SK_EENS_9allocatorISK_EEEE, 
                       __ZTSNSt3__120__shared_ptr_pointerIPN2gc11TypedKernelINS1_4lang4TileEJNS3_6BufferERNS3_3est8JacobianES5_S5_EEENS_10shared_ptrINS1_6KernelEE27__shared_ptr_default_deleteISC_S9_EENS_9allocatorIS9_EEEE, 
                       __ZTSNSt3__120__shared_ptr_pointerIPN2gc11TypedKernelINS1_4lang4TileEJNS3_6BufferES5_EEENS_10shared_ptrINS1_6KernelEE27__shared_ptr_default_deleteIS9_S6_EENS_9allocatorIS6_EEEE, 
                       __ZTSNSt3__120__shared_ptr_pointerIPN2gc11TypedKernelINS1_4lang4TileEJNS3_6BufferES5_NS3_5ArrayINS3_3est8VariableEEEEEENS_10shared_ptrINS1_6KernelEE27__shared_ptr_default_deleteISD_SA_EENS_9allocatorISA_EEEE, 
                       __ZTSNSt3__120__shared_ptr_pointerIPN2gc11TypedKernelINS1_4lang4TileEJNS3_6BufferES5_NS3_6ScalarES6_S6_S6_S6_S5_S5_EEENS_10shared_ptrINS1_6KernelEE27__shared_ptr_default_deleteISA_S7_EENS_9allocatorIS7_EEEE, 
                       __ZTSNSt3__120__shared_ptr_pointerIPN2gc11TypedKernelINS1_4lang4TileEJNS3_6BufferES5_NS3_6VectorES5_EEENS_10shared_ptrINS1_6KernelEE27__shared_ptr_default_deleteISA_S7_EENS_9allocatorIS7_EEEE, 
                       __ZTSNSt3__120__shared_ptr_pointerIPN2gc11TypedKernelINS1_4lang4TileEJNS3_6BufferES5_RNS3_3est8JacobianES5_S5_EEENS_10shared_ptrINS1_6KernelEE27__shared_ptr_default_deleteISC_S9_EENS_9allocatorIS9_EEEE, 
                       __ZTSNSt3__120__shared_ptr_pointerIPN2gc11TypedKernelINS1_4lang4TileEJNS3_6BufferES5_S5_EEENS_10shared_ptrINS1_6KernelEE27__shared_ptr_default_deleteIS9_S6_EENS_9allocatorIS6_EEEE, 
                       __ZTSNSt3__120__shared_ptr_pointerIPN2gc11TypedKernelINS1_4lang4TileEJNS3_6BufferES5_S5_NS3_6ScalarEEEENS_10shared_ptrINS1_6KernelEE27__shared_ptr_default_deleteISA_S7_EENS_9allocatorIS7_EEEE, 
                       __ZTSNSt3__120__shared_ptr_pointerIPN2gc11TypedKernelINS1_4lang4TileEJNS3_6BufferES5_S5_NS3_6VectorES5_S5_EEENS_10shared_ptrINS1_6KernelEE27__shared_ptr_default_deleteISA_S7_EENS_9allocatorIS7_EEEE, 
                       __ZTSNSt3__120__shared_ptr_pointerIPN2gc11TypedKernelINS1_4lang4TileEJNS3_6BufferES5_S5_S5_EEENS_10shared_ptrINS1_6KernelEE27__shared_ptr_default_deleteIS9_S6_EENS_9allocatorIS6_EEEE, 
                       __ZTSNSt3__120__shared_ptr_pointerIPN2gc11TypedKernelINS1_4lang4TileEJNS3_6BufferES5_S5_S5_S5_NS3_6ScalarEEEENS_10shared_ptrINS1_6KernelEE27__shared_ptr_default_deleteISA_S7_EENS_9allocatorIS7_EEEE, 
                       __ZTSNSt3__120__shared_ptr_pointerIPN2gc11TypedKernelINS1_4lang4TileEJNS3_6BufferES5_S5_S5_S5_S5_S5_EEENS_10shared_ptrINS1_6KernelEE27__shared_ptr_default_deleteIS9_S6_EENS_9allocatorIS6_EEEE, 
                       __ZTSNSt3__120__shared_ptr_pointerIPN2gc11TypedKernelINS1_4lang4TileEJNS3_6ScalarENS3_6BufferES6_EEENS_10shared_ptrINS1_6KernelEE27__shared_ptr_default_deleteISA_S7_EENS_9allocatorIS7_EEEE, 
                       __ZTSNSt3__120__shared_ptr_pointerIPN2gc11TypedKernelINS1_4lang4TileEJNS3_6ScalarERNS3_3est11BlockMatrixEEEENS_10shared_ptrINS1_6KernelEE27__shared_ptr_default_deleteISC_S9_EENS_9allocatorIS9_EEEE, 
                       __ZTSNSt3__120__shared_ptr_pointerIPN2gc11TypedKernelINS1_4lang4TileEJRNS3_3est11BlockMatrixEEEENS_10shared_ptrINS1_6KernelEE27__shared_ptr_default_deleteISB_S8_EENS_9allocatorIS8_EEEE, 
                       __ZTSNSt3__120__shared_ptr_pointerIPN2gc11TypedKernelINS1_4lang4TileEJRNS3_3est11BlockMatrixENS3_6BufferES8_EEENS_10shared_ptrINS1_6KernelEE27__shared_ptr_default_deleteISC_S9_EENS_9allocatorIS9_EEEE, 
                       __ZTSNSt3__120__shared_ptr_pointerIPN2gc11TypedKernelINS1_4lang4TileEJRNS3_3est11BlockMatrixENS3_6BufferES8_S8_EEENS_10shared_ptrINS1_6KernelEE27__shared_ptr_default_deleteISC_S9_EENS_9allocatorIS9_EEEE, 
                       __ZTSNSt3__120__shared_ptr_pointerIPN2gc11TypedKernelINS1_4lang4TileEJRNS3_3est11BlockMatrixENS3_6BufferES8_S8_RS8_EEENS_10shared_ptrINS1_6KernelEE27__shared_ptr_default_deleteISD_SA_EENS_9allocatorISA_EEEE, 
                       __ZTSNSt3__120__shared_ptr_pointerIPN2gc11TypedKernelINS1_4lang4TileEJRNS3_3est11JacobianSetENS3_5ArrayINS5_14FactorOrderingEEENS8_INS3_6BufferEEESC_SB_EEENS_10shared_ptrINS1_6KernelEE27__shared_ptr_default_deleteISG_SD_EENS_9allocatorISD_EEEE, 
                       __ZTSNSt3__120__shared_ptr_pointerIPN2gc11TypedKernelINS1_4lang4TileEJRNS3_3est14FactorOrderingENS3_6BufferERNS5_8JacobianES8_S8_EEENS_10shared_ptrINS1_6KernelEE27__shared_ptr_default_deleteISE_SB_EENS_9allocatorISB_EEEE, 
                       __ZTSNSt3__120__shared_ptr_pointerIPN2gc11TypedKernelINS1_4lang4TileEJRNS3_3est14FactorOrderingERNS5_8JacobianENS3_6BufferERSA_EEENS_10shared_ptrINS1_6KernelEE27__shared_ptr_default_deleteISF_SC_EENS_9allocatorISC_EEEE, 
                       __ZTSNSt3__120__shared_ptr_pointerIPN2gc11TypedKernelINS1_4lang4TileEJRNS3_3est14FactorOrderingERNS5_8JacobianENS3_6BufferESA_EEENS_10shared_ptrINS1_6KernelEE27__shared_ptr_default_deleteISE_SB_EENS_9allocatorISB_EEEE, 
                       __ZTSNSt3__120__shared_ptr_pointerIPN2gc11TypedKernelINS1_4lang4TileEJRNS3_3est14FactorOrderingERNS5_8JacobianENS3_6BufferESA_SA_EEENS_10shared_ptrINS1_6KernelEE27__shared_ptr_default_deleteISE_SB_EENS_9allocatorISB_EEEE, 
                       __ZTSNSt3__120__shared_ptr_pointerIPN2gc11TypedKernelINS1_4lang4TileEJRNS3_3est14FactorOrderingERNS5_8JacobianENS3_6BufferESA_SA_SA_EEENS_10shared_ptrINS1_6KernelEE27__shared_ptr_default_deleteISE_SB_EENS_9allocatorISB_EEEE, 
                       __ZTSNSt3__120__shared_ptr_pointerIPN2gc11TypedKernelINS1_4lang4TileEJRNS3_3est8JacobianENS3_6BufferES8_S8_RS8_EEENS_10shared_ptrINS1_6KernelEE27__shared_ptr_default_deleteISD_SA_EENS_9allocatorISA_EEEE, 
                       __ZTSNSt3__120__shared_ptr_pointerIPN2gc11TypedKernelINS1_4lang4TileEJRNS3_3est8JacobianENS3_6BufferES8_S8_S8_S8_EEENS_10shared_ptrINS1_6KernelEE27__shared_ptr_default_deleteISC_S9_EENS_9allocatorIS9_EEEE, 
                       __ZTSNSt3__120__shared_ptr_pointerIPN2gc11TypedKernelINS1_4lang4TileEJRNS3_3est8JacobianENS5_14FactorOrderingENS3_6BufferES9_EEENS_10shared_ptrINS1_6KernelEE27__shared_ptr_default_deleteISD_SA_EENS_9allocatorISA_EEEE, 
                       __ZTSNSt3__120__shared_ptr_pointerIPN2gc11TypedKernelINS1_4lang4TileEJRNS3_3est8JacobianENS5_14FactorOrderingENS3_6BufferES9_S9_EEENS_10shared_ptrINS1_6KernelEE27__shared_ptr_default_deleteISD_SA_EENS_9allocatorISA_EEEE, 
                       __ZTSNSt3__120__shared_ptr_pointerIPN2gc11TypedKernelINS1_4lang4TileEJRNS3_3est8JacobianENS5_14FactorOrderingENS3_6BufferES9_S9_S9_EEENS_10shared_ptrINS1_6KernelEE27__shared_ptr_default_deleteISD_SA_EENS_9allocatorISA_EEEE, 
                       __ZTSNSt3__120__shared_ptr_pointerIPN2gc11TypedKernelINS1_4lang4TileEJRNS3_3est8JacobianENS5_14FactorOrderingES8_NS3_6BufferES9_S9_S9_S9_S9_EEENS_10shared_ptrINS1_6KernelEE27__shared_ptr_default_deleteISD_SA_EENS_9allocatorISA_EEEE, 
                       __ZTSNSt3__120__shared_ptr_pointerIPN2gc11TypedKernelINS1_4lang4TileEJRNS3_6ScalarENS3_6BufferEEEENS_10shared_ptrINS1_6KernelEE27__shared_ptr_default_deleteISB_S8_EENS_9allocatorIS8_EEEE, 
                       __ZTSNSt3__120__shared_ptr_pointerIPN2gc11TypedObjectILNS1_11eObjectTypeE1EEENS_10shared_ptrINS1_6ObjectEE27__shared_ptr_default_deleteIS7_S4_EENS_9allocatorIS4_EEEE, 
                       __ZTSNSt3__120__shared_ptr_pointerIPN2gc11smallmatrix13NaiveMultiplyENS_10shared_ptrINS1_15TemplateVariantEE27__shared_ptr_default_deleteIS6_S3_EENS_9allocatorIS3_EEEE, 
                       __ZTSNSt3__120__shared_ptr_pointerIPN2gc11smallmatrix14NaiveTransposeENS_10shared_ptrINS1_15TemplateVariantEE27__shared_ptr_default_deleteIS6_S3_EENS_9allocatorIS3_EEEE, 
                       __ZTSNSt3__120__shared_ptr_pointerIPN2gc11smallmatrix16MultiplyTemplateENS_10shared_ptrINS1_16TemplateFunctionEE27__shared_ptr_default_deleteIS6_S3_EENS_9allocatorIS3_EEEE, 
                       __ZTSNSt3__120__shared_ptr_pointerIPN2gc11smallmatrix17TransposeTemplateENS_10shared_ptrINS1_16TemplateFunctionEE27__shared_ptr_default_deleteIS6_S3_EENS_9allocatorIS3_EEEE, 
                       __ZTSNSt3__120__shared_ptr_pointerIPN2gc11smallmatrix21LLVMIntrinsicMultiplyENS_10shared_ptrINS1_15TemplateVariantEE27__shared_ptr_default_deleteIS6_S3_EENS_9allocatorIS3_EEEE, 
                       __ZTSNSt3__120__shared_ptr_pointerIPN2gc11smallmatrix22LLVMIntrinsicTransposeENS_10shared_ptrINS1_15TemplateVariantEE27__shared_ptr_default_deleteIS6_S3_EENS_9allocatorIS3_EEEE, 
                       __ZTSNSt3__120__shared_ptr_pointerIPN2gc12ComputeGraphENS_10shared_ptrIS2_E27__shared_ptr_default_deleteIS2_S2_EENS_9allocatorIS2_EEEE, 
                       __ZTSNSt3__120__shared_ptr_pointerIPN2gc13ExtentsBufferENS_10shared_ptrIS2_E27__shared_ptr_default_deleteIS2_S2_EENS_9allocatorIS2_EEEE, 
                       __ZTSNSt3__120__shared_ptr_pointerIPN2gc16BindableArgumentINS1_4lang17BindableTypeArrayEEENS_10shared_ptrINS1_22OpaqueBindableArgumentEE27__shared_ptr_default_deleteIS8_S5_EENS_9allocatorIS5_EEEE, 
                       __ZTSNSt3__120__shared_ptr_pointerIPN2gc16BindableArgumentINS1_4lang3est11BlockMatrixEEENS_10shared_ptrINS1_22OpaqueBindableArgumentEE27__shared_ptr_default_deleteIS9_S6_EENS_9allocatorIS6_EEEE, 
                       __ZTSNSt3__120__shared_ptr_pointerIPN2gc16BindableArgumentINS1_4lang3est11VariableSetEEENS_10shared_ptrINS1_22OpaqueBindableArgumentEE27__shared_ptr_default_deleteIS9_S6_EENS_9allocatorIS6_EEEE, 
                       __ZTSNSt3__120__shared_ptr_pointerIPN2gc16BindableArgumentINS1_4lang3est12CostFunctionEEENS_10shared_ptrINS1_22OpaqueBindableArgumentEE27__shared_ptr_default_deleteIS9_S6_EENS_9allocatorIS6_EEEE, 
                       __ZTSNSt3__120__shared_ptr_pointerIPN2gc16BindableArgumentINS1_4lang3est13BlockOrderingEEENS_10shared_ptrINS1_22OpaqueBindableArgumentEE27__shared_ptr_default_deleteIS9_S6_EENS_9allocatorIS6_EEEE, 
                       __ZTSNSt3__120__shared_ptr_pointerIPN2gc16BindableArgumentINS1_4lang3est14FactorOrderingEEENS_10shared_ptrINS1_22OpaqueBindableArgumentEE27__shared_ptr_default_deleteIS9_S6_EENS_9allocatorIS6_EEEE, 
                       __ZTSNSt3__120__shared_ptr_pointerIPN2gc16BindableArgumentINS1_4lang3est6FactorEEENS_10shared_ptrINS1_22OpaqueBindableArgumentEE27__shared_ptr_default_deleteIS9_S6_EENS_9allocatorIS6_EEEE, 
                       __ZTSNSt3__120__shared_ptr_pointerIPN2gc16BindableArgumentINS1_4lang3est8VariableEEENS_10shared_ptrINS1_22OpaqueBindableArgumentEE27__shared_ptr_default_deleteIS9_S6_EENS_9allocatorIS6_EEEE, 
                       __ZTSNSt3__120__shared_ptr_pointerIPN2gc16BindableArgumentINS1_4lang5ArrayINS3_6BufferEEEEENS_10shared_ptrINS1_22OpaqueBindableArgumentEE27__shared_ptr_default_deleteISA_S7_EENS_9allocatorIS7_EEEE, 
                       __ZTSNSt3__120__shared_ptr_pointerIPN2gc16BindableArgumentINS1_4lang6BufferEEENS_10shared_ptrINS1_22OpaqueBindableArgumentEE27__shared_ptr_default_deleteIS8_S5_EENS_9allocatorIS5_EEEE, 
                       __ZTSNSt3__120__shared_ptr_pointerIPN2gc16BufferParametersENS_10shared_ptrIS2_E27__shared_ptr_default_deleteIS2_S2_EENS_9allocatorIS2_EEEE, 
                       __ZTSNSt3__120__shared_ptr_pointerIPN2gc16DefaultGeneratorENS_10shared_ptrINS1_9GeneratorEE27__shared_ptr_default_deleteIS5_S2_EENS_9allocatorIS2_EEEE, 
                       __ZTSNSt3__120__shared_ptr_pointerIPN2gc16FunctionArgumentINS1_4lang17BindableTypeArrayES4_EENS_10shared_ptrIS5_E27__shared_ptr_default_deleteIS5_S5_EENS_9allocatorIS5_EEEE, 
                       __ZTSNSt3__120__shared_ptr_pointerIPN2gc16FunctionArgumentINS1_4lang3est11VariableSetES5_EENS_10shared_ptrIS6_E27__shared_ptr_default_deleteIS6_S6_EENS_9allocatorIS6_EEEE, 
                       __ZTSNSt3__120__shared_ptr_pointerIPN2gc16FunctionArgumentINS1_4lang3est13BlockOrderingES5_EENS_10shared_ptrIS6_E27__shared_ptr_default_deleteIS6_S6_EENS_9allocatorIS6_EEEE, 
                       __ZTSNSt3__120__shared_ptr_pointerIPN2gc16FunctionArgumentINS1_4lang3est14FactorOrderingES5_EENS_10shared_ptrIS6_E27__shared_ptr_default_deleteIS6_S6_EENS_9allocatorIS6_EEEE, 
                       __ZTSNSt3__120__shared_ptr_pointerIPN2gc16FunctionArgumentINS1_4lang3est22SchurEliminatedHessianES5_EENS_10shared_ptrIS6_E27__shared_ptr_default_deleteIS6_S6_EENS_9allocatorIS6_EEEE, 
                       __ZTSNSt3__120__shared_ptr_pointerIPN2gc16FunctionArgumentINS1_4lang3est6FactorES5_EENS_10shared_ptrIS6_E27__shared_ptr_default_deleteIS6_S6_EENS_9allocatorIS6_EEEE, 
                       __ZTSNSt3__120__shared_ptr_pointerIPN2gc16FunctionArgumentINS1_4lang3est8VariableES5_EENS_10shared_ptrIS6_E27__shared_ptr_default_deleteIS6_S6_EENS_9allocatorIS6_EEEE, 
                       __ZTSNSt3__120__shared_ptr_pointerIPN2gc16FunctionArgumentINS1_4lang5ArrayINS3_3est13BlockOrderingEEES7_EENS_10shared_ptrIS8_E27__shared_ptr_default_deleteIS8_S8_EENS_9allocatorIS8_EEEE, 
                       __ZTSNSt3__120__shared_ptr_pointerIPN2gc16FunctionArgumentINS1_4lang5ArrayINS3_3est14FactorOrderingEEES7_EENS_10shared_ptrIS8_E27__shared_ptr_default_deleteIS8_S8_EENS_9allocatorIS8_EEEE, 
                       __ZTSNSt3__120__shared_ptr_pointerIPN2gc16FunctionArgumentINS1_4lang5ArrayINS3_3est8VariableEEES7_EENS_10shared_ptrIS8_E27__shared_ptr_default_deleteIS8_S8_EENS_9allocatorIS8_EEEE, 
                       __ZTSNSt3__120__shared_ptr_pointerIPN2gc16FunctionArgumentINS1_4lang5ArrayINS3_6BufferEEES6_EENS_10shared_ptrIS7_E27__shared_ptr_default_deleteIS7_S7_EENS_9allocatorIS7_EEEE, 
                       __ZTSNSt3__120__shared_ptr_pointerIPN2gc16FunctionArgumentINS1_4lang6BufferES4_EENS_10shared_ptrIS5_E27__shared_ptr_default_deleteIS5_S5_EENS_9allocatorIS5_EEEE, 
                       __ZTSNSt3__120__shared_ptr_pointerIPN2gc16FunctionArgumentINS1_4lang6ScalarES4_EENS_10shared_ptrIS5_E27__shared_ptr_default_deleteIS5_S5_EENS_9allocatorIS5_EEEE, 
                       __ZTSNSt3__120__shared_ptr_pointerIPN2gc16FunctionArgumentINS1_4lang6VectorES4_EENS_10shared_ptrIS5_E27__shared_ptr_default_deleteIS5_S5_EENS_9allocatorIS5_EEEE, 
                       __ZTSNSt3__120__shared_ptr_pointerIPN2gc16FunctionArgumentIRNS1_4lang3est11BlockMatrixES5_EENS_10shared_ptrIS7_E27__shared_ptr_default_deleteIS7_S7_EENS_9allocatorIS7_EEEE, 
                       __ZTSNSt3__120__shared_ptr_pointerIPN2gc16FunctionArgumentIRNS1_4lang3est11JacobianSetES5_EENS_10shared_ptrIS7_E27__shared_ptr_default_deleteIS7_S7_EENS_9allocatorIS7_EEEE, 
                       __ZTSNSt3__120__shared_ptr_pointerIPN2gc16FunctionArgumentIRNS1_4lang3est14FactorOrderingES5_EENS_10shared_ptrIS7_E27__shared_ptr_default_deleteIS7_S7_EENS_9allocatorIS7_EEEE, 
                       __ZTSNSt3__120__shared_ptr_pointerIPN2gc16FunctionArgumentIRNS1_4lang3est16BlockMatrixArrayES5_EENS_10shared_ptrIS7_E27__shared_ptr_default_deleteIS7_S7_EENS_9allocatorIS7_EEEE, 
                       __ZTSNSt3__120__shared_ptr_pointerIPN2gc16FunctionArgumentIRNS1_4lang3est8JacobianES5_EENS_10shared_ptrIS7_E27__shared_ptr_default_deleteIS7_S7_EENS_9allocatorIS7_EEEE, 
                       __ZTSNSt3__120__shared_ptr_pointerIPN2gc16FunctionArgumentIRNS1_4lang6BufferES4_EENS_10shared_ptrIS6_E27__shared_ptr_default_deleteIS6_S6_EENS_9allocatorIS6_EEEE, 
                       __ZTSNSt3__120__shared_ptr_pointerIPN2gc16FunctionArgumentIRNS1_4lang6ScalarES4_EENS_10shared_ptrIS6_E27__shared_ptr_default_deleteIS6_S6_EENS_9allocatorIS6_EEEE, 
                       __ZTSNSt3__120__shared_ptr_pointerIPN2gc17IntrinsicFunctionENS_10shared_ptrIS2_E27__shared_ptr_default_deleteIS2_S2_EENS_9allocatorIS2_EEEE, 
                       __ZTSNSt3__120__shared_ptr_pointerIPN2gc17TypedNoTileKernelIJEEENS_10shared_ptrINS1_6KernelEE27__shared_ptr_default_deleteIS6_S3_EENS_9allocatorIS3_EEEE, 
                       __ZTSNSt3__120__shared_ptr_pointerIPN2gc17TypedNoTileKernelIJNS1_4lang6BufferENS3_6ScalarEEEENS_10shared_ptrINS1_6KernelEE27__shared_ptr_default_deleteIS9_S6_EENS_9allocatorIS6_EEEE, 
                       __ZTSNSt3__120__shared_ptr_pointerIPN2gc17TypedNoTileKernelIJNS1_4lang6BufferENS3_6VectorEEEENS_10shared_ptrINS1_6KernelEE27__shared_ptr_default_deleteIS9_S6_EENS_9allocatorIS6_EEEE, 
                       __ZTSNSt3__120__shared_ptr_pointerIPN2gc17TypedNoTileKernelIJNS1_4lang6BufferES4_EEENS_10shared_ptrINS1_6KernelEE27__shared_ptr_default_deleteIS8_S5_EENS_9allocatorIS5_EEEE, 
                       __ZTSNSt3__120__shared_ptr_pointerIPN2gc17TypedNoTileKernelIJNS1_4lang6BufferES4_S4_EEENS_10shared_ptrINS1_6KernelEE27__shared_ptr_default_deleteIS8_S5_EENS_9allocatorIS5_EEEE, 
                       __ZTSNSt3__120__shared_ptr_pointerIPN2gc18EqualSizeInvariantENS_10shared_ptrINS1_9InvariantEE27__shared_ptr_default_deleteIS5_S2_EENS_9allocatorIS2_EEEE, 
                       __ZTSNSt3__120__shared_ptr_pointerIPN2gc18EqualTypeInvariantENS_10shared_ptrINS1_9InvariantEE27__shared_ptr_default_deleteIS5_S2_EENS_9allocatorIS2_EEEE, 
                       __ZTSNSt3__120__shared_ptr_pointerIPN2gc18ExactTypeInvariantENS_10shared_ptrINS1_9InvariantEE27__shared_ptr_default_deleteIS5_S2_EENS_9allocatorIS2_EEEE, 
                       __ZTSNSt3__120__shared_ptr_pointerIPN2gc19EqualShapeInvariantENS_10shared_ptrINS1_9InvariantEE27__shared_ptr_default_deleteIS5_S2_EENS_9allocatorIS2_EEEE, 
                       __ZTSNSt3__120__shared_ptr_pointerIPN2gc19ExactShapeInvariantENS_10shared_ptrINS1_9InvariantEE27__shared_ptr_default_deleteIS5_S2_EENS_9allocatorIS2_EEEE, 
                       __ZTSNSt3__120__shared_ptr_pointerIPN2gc19TypedExternalSourceILNS1_13eTargetDeviceE1EEENS_10shared_ptrINS1_14ExternalSourceEE27__shared_ptr_default_deleteIS7_S4_EENS_9allocatorIS4_EEEE, 
                       __ZTSNSt3__120__shared_ptr_pointerIPN2gc21TypedExternalFunctionILNS1_13eTargetDeviceE0EEENS_10shared_ptrINS1_16ExternalFunctionEE27__shared_ptr_default_deleteIS7_S4_EENS_9allocatorIS4_EEEE, 
                       __ZTSNSt3__120__shared_ptr_pointerIPN2gc21TypedExternalFunctionILNS1_13eTargetDeviceE1EEENS_10shared_ptrINS1_16ExternalFunctionEE27__shared_ptr_default_deleteIS7_S4_EENS_9allocatorIS4_EEEE, 
                       __ZTSNSt3__120__shared_ptr_pointerIPN2gc24FunctionOfShapeInvariantENS_10shared_ptrINS1_9InvariantEE27__shared_ptr_default_deleteIS5_S2_EENS_9allocatorIS2_EEEE, 
                       __ZTSNSt3__120__shared_ptr_pointerIPN2gc24FunctionOfTypesInvariantENS_10shared_ptrINS1_9InvariantEE27__shared_ptr_default_deleteIS5_S2_EENS_9allocatorIS2_EEEE, 
                       __ZTSNSt3__120__shared_ptr_pointerIPN2gc24TypedSchedulingDirectiveILNS1_24eSchedulingDirectiveTypeE0EEENS_10shared_ptrIS4_E27__shared_ptr_default_deleteIS4_S4_EENS_9allocatorIS4_EEEE, 
                       __ZTSNSt3__120__shared_ptr_pointerIPN2gc24TypedSchedulingDirectiveILNS1_24eSchedulingDirectiveTypeE1EEENS_10shared_ptrIS4_E27__shared_ptr_default_deleteIS4_S4_EENS_9allocatorIS4_EEEE, 
                       __ZTSNSt3__120__shared_ptr_pointerIPN2gc24TypedSchedulingDirectiveILNS1_24eSchedulingDirectiveTypeE2EEENS_10shared_ptrIS4_E27__shared_ptr_default_deleteIS4_S4_EENS_9allocatorIS4_EEEE, 
                       __ZTSNSt3__120__shared_ptr_pointerIPN2gc24TypedSchedulingDirectiveILNS1_24eSchedulingDirectiveTypeE3EEENS_10shared_ptrIS4_E27__shared_ptr_default_deleteIS4_S4_EENS_9allocatorIS4_EEEE, 
                       __ZTSNSt3__120__shared_ptr_pointerIPN2gc24TypedSchedulingDirectiveILNS1_24eSchedulingDirectiveTypeE4EEENS_10shared_ptrIS4_E27__shared_ptr_default_deleteIS4_S4_EENS_9allocatorIS4_EEEE, 
                       __ZTSNSt3__120__shared_ptr_pointerIPN2gc24TypedSchedulingDirectiveILNS1_24eSchedulingDirectiveTypeE5EEENS_10shared_ptrIS4_E27__shared_ptr_default_deleteIS4_S4_EENS_9allocatorIS4_EEEE, 
                       __ZTSNSt3__120__shared_ptr_pointerIPN2gc24TypedSchedulingDirectiveILNS1_24eSchedulingDirectiveTypeE6EEENS_10shared_ptrIS4_E27__shared_ptr_default_deleteIS4_S4_EENS_9allocatorIS4_EEEE, 
                       __ZTSNSt3__120__shared_ptr_pointerIPN2gc27MatrixProductShapeInvariantENS_10shared_ptrINS1_9InvariantEE27__shared_ptr_default_deleteIS5_S2_EENS_9allocatorIS2_EEEE, 
                       __ZTSNSt3__120__shared_ptr_pointerIPN2gc3est10EvaluateHpENS_10shared_ptrINS1_9GeneratorEE27__shared_ptr_default_deleteIS6_S3_EENS_9allocatorIS3_EEEE, 
                       __ZTSNSt3__120__shared_ptr_pointerIPN2gc3est10EvaluateJpENS_10shared_ptrINS1_9GeneratorEE27__shared_ptr_default_deleteIS6_S3_EENS_9allocatorIS3_EEEE, 
                       __ZTSNSt3__120__shared_ptr_pointerIPN2gc3est11EvaluateJtJENS_10shared_ptrINS1_9GeneratorEE27__shared_ptr_default_deleteIS6_S3_EENS_9allocatorIS3_EEEE, 
                       __ZTSNSt3__120__shared_ptr_pointerIPN2gc3est11EvaluateJteENS_10shared_ptrINS1_9GeneratorEE27__shared_ptr_default_deleteIS6_S3_EENS_9allocatorIS3_EEEE, 
                       __ZTSNSt3__120__shared_ptr_pointerIPN2gc3est11FactorGraphENS_10shared_ptrIS3_E27__shared_ptr_default_deleteIS3_S3_EENS_9allocatorIS3_EEEE, 
                       __ZTSNSt3__120__shared_ptr_pointerIPN2gc3est11PCGIterate1ENS_10shared_ptrINS1_9GeneratorEE27__shared_ptr_default_deleteIS6_S3_EENS_9allocatorIS3_EEEE, 
                       __ZTSNSt3__120__shared_ptr_pointerIPN2gc3est11PCGIterate2ENS_10shared_ptrINS1_9GeneratorEE27__shared_ptr_default_deleteIS6_S3_EENS_9allocatorIS3_EEEE, 
                       __ZTSNSt3__120__shared_ptr_pointerIPN2gc3est11TypedFactorILNS2_11eFactorTypeE1EEENS_10shared_ptrIS5_E27__shared_ptr_default_deleteIS5_S5_EENS_9allocatorIS5_EEEE, 
                       __ZTSNSt3__120__shared_ptr_pointerIPN2gc3est12EvaluateJtJpENS_10shared_ptrINS1_9GeneratorEE27__shared_ptr_default_deleteIS6_S3_EENS_9allocatorIS3_EEEE, 
                       __ZTSNSt3__120__shared_ptr_pointerIPN2gc3est12InvertBlockMENS_10shared_ptrINS1_9GeneratorEE27__shared_ptr_default_deleteIS6_S3_EENS_9allocatorIS3_EEEE, 
                       __ZTSNSt3__120__shared_ptr_pointerIPN2gc3est13BlockOrderingENS_10shared_ptrIS3_E27__shared_ptr_default_deleteIS3_S3_EENS_9allocatorIS3_EEEE, 
                       __ZTSNSt3__120__shared_ptr_pointerIPN2gc3est13TypedBoxMinusINS1_4lang6VectorENS4_3SE3EEENS_10shared_ptrIS7_E27__shared_ptr_default_deleteIS7_S7_EENS_9allocatorIS7_EEEE, 
                       __ZTSNSt3__120__shared_ptr_pointerIPN2gc3est13TypedBoxMinusINS1_4lang6VectorENS4_3SO3EEENS_10shared_ptrIS7_E27__shared_ptr_default_deleteIS7_S7_EENS_9allocatorIS7_EEEE, 
                       __ZTSNSt3__120__shared_ptr_pointerIPN2gc3est13VariableGroupENS_10shared_ptrIS3_E27__shared_ptr_default_deleteIS3_S3_EENS_9allocatorIS3_EEEE, 
                       __ZTSNSt3__120__shared_ptr_pointerIPN2gc3est14EvaluateBlockMENS_10shared_ptrINS1_9GeneratorEE27__shared_ptr_default_deleteIS6_S3_EENS_9allocatorIS3_EEEE, 
                       __ZTSNSt3__120__shared_ptr_pointerIPN2gc3est14ExtractDiagJtJENS_10shared_ptrINS1_9GeneratorEE27__shared_ptr_default_deleteIS6_S3_EENS_9allocatorIS3_EEEE, 
                       __ZTSNSt3__120__shared_ptr_pointerIPN2gc3est14SchurLinearizeENS_10shared_ptrINS1_9GeneratorEE27__shared_ptr_default_deleteIS6_S3_EENS_9allocatorIS3_EEEE, 
                       __ZTSNSt3__120__shared_ptr_pointerIPN2gc3est14TypedPCGSolverINS2_33ExplicitHessianLinearizationPointEEENS_10shared_ptrINS2_12LinearSolverEE27__shared_ptr_default_deleteIS8_S5_EENS_9allocatorIS5_EEEE, 
                       __ZTSNSt3__120__shared_ptr_pointerIPN2gc3est14TypedPCGSolverINS2_33ImplicitHessianLinearizationPointEEENS_10shared_ptrINS2_12LinearSolverEE27__shared_ptr_default_deleteIS8_S5_EENS_9allocatorIS5_EEEE, 
                       __ZTSNSt3__120__shared_ptr_pointerIPN2gc3est15DenseLDLTSolverENS_10shared_ptrINS2_12LinearSolverEE27__shared_ptr_default_deleteIS6_S3_EENS_9allocatorIS3_EEEE, 
                       __ZTSNSt3__120__shared_ptr_pointerIPN2gc3est15FactorJacobiansENS_10shared_ptrIS3_E27__shared_ptr_default_deleteIS3_S3_EENS_9allocatorIS3_EEEE, 
                       __ZTSNSt3__120__shared_ptr_pointerIPN2gc3est16DenseBlockMatrixENS_10shared_ptrINS2_11BlockMatrixEE27__shared_ptr_default_deleteIS6_S3_EENS_9allocatorIS3_EEEE, 
                       __ZTSNSt3__120__shared_ptr_pointerIPN2gc3est16SparseLDLTSolverENS_10shared_ptrINS2_12LinearSolverEE27__shared_ptr_default_deleteIS6_S3_EENS_9allocatorIS3_EEEE, 
                       __ZTSNSt3__120__shared_ptr_pointerIPN2gc3est17SchurOuterProductENS_10shared_ptrINS1_9GeneratorEE27__shared_ptr_default_deleteIS6_S3_EENS_9allocatorIS3_EEEE, 
                       __ZTSNSt3__120__shared_ptr_pointerIPN2gc3est17SymmetrizeDiagJtJENS_10shared_ptrINS1_9GeneratorEE27__shared_ptr_default_deleteIS6_S3_EENS_9allocatorIS3_EEEE, 
                       __ZTSNSt3__120__shared_ptr_pointerIPN2gc3est18BasicFactorBuffersENS_10shared_ptrINS2_13FactorBuffersEE27__shared_ptr_default_deleteIS6_S3_EENS_9allocatorIS3_EEEE, 
                       __ZTSNSt3__120__shared_ptr_pointerIPN2gc3est18ImplicitSchurJtJp1ENS_10shared_ptrINS1_9GeneratorEE27__shared_ptr_default_deleteIS6_S3_EENS_9allocatorIS3_EEEE, 
                       __ZTSNSt3__120__shared_ptr_pointerIPN2gc3est18ImplicitSchurJtJp2ENS_10shared_ptrINS1_9GeneratorEE27__shared_ptr_default_deleteIS6_S3_EENS_9allocatorIS3_EEEE, 
                       __ZTSNSt3__120__shared_ptr_pointerIPN2gc3est18TypedModelFunctionINS1_4lang3SE3EJRKS5_EEENS_10shared_ptrIS8_E27__shared_ptr_default_deleteIS8_S8_EENS_9allocatorIS8_EEEE, 
                       __ZTSNSt3__120__shared_ptr_pointerIPN2gc3est18TypedModelFunctionINS1_4lang3SO3EJRKS5_EEENS_10shared_ptrIS8_E27__shared_ptr_default_deleteIS8_S8_EENS_9allocatorIS8_EEEE, 
                       __ZTSNSt3__120__shared_ptr_pointerIPN2gc3est18TypedModelFunctionINS1_4lang6ScalarEJRKS5_EEENS_10shared_ptrIS8_E27__shared_ptr_default_deleteIS8_S8_EENS_9allocatorIS8_EEEE, 
                       __ZTSNSt3__120__shared_ptr_pointerIPN2gc3est18TypedModelFunctionINS1_4lang6VectorEJRKS5_EEENS_10shared_ptrIS8_E27__shared_ptr_default_deleteIS8_S8_EENS_9allocatorIS8_EEEE, 
                       __ZTSNSt3__120__shared_ptr_pointerIPN2gc3est19BasicFactorOrderingENS_10shared_ptrINS2_14FactorOrderingEE27__shared_ptr_default_deleteIS6_S3_EENS_9allocatorIS3_EEEE, 
                       __ZTSNSt3__120__shared_ptr_pointerIPN2gc3est20BitmappedBlockMatrixENS_10shared_ptrINS2_11BlockMatrixEE27__shared_ptr_default_deleteIS6_S3_EENS_9allocatorIS3_EEEE, 
                       __ZTSNSt3__120__shared_ptr_pointerIPN2gc3est20MaterializeJacobiansENS_10shared_ptrINS1_9GeneratorEE27__shared_ptr_default_deleteIS6_S3_EENS_9allocatorIS3_EEEE, 
                       __ZTSNSt3__120__shared_ptr_pointerIPN2gc3est20SchurBackSubstitute1ENS_10shared_ptrINS1_9GeneratorEE27__shared_ptr_default_deleteIS6_S3_EENS_9allocatorIS3_EEEE, 
                       __ZTSNSt3__120__shared_ptr_pointerIPN2gc3est20SchurBackSubstitute2ENS_10shared_ptrINS1_9GeneratorEE27__shared_ptr_default_deleteIS6_S3_EENS_9allocatorIS3_EEEE, 
                       __ZTSNSt3__120__shared_ptr_pointerIPN2gc3est20TrustRegionMinimizerENS_10shared_ptrIS3_E27__shared_ptr_default_deleteIS3_S3_EENS_9allocatorIS3_EEEE, 
                       __ZTSNSt3__120__shared_ptr_pointerIPN2gc3est21StandardGaussianNoiseENS_10shared_ptrINS2_10NoiseModelEE27__shared_ptr_default_deleteIS6_S3_EENS_9allocatorIS3_EEEE, 
                       __ZTSNSt3__120__shared_ptr_pointerIPN2gc3est21VariadicFactorBuffersENS_10shared_ptrINS2_13FactorBuffersEE27__shared_ptr_default_deleteIS6_S3_EENS_9allocatorIS3_EEEE, 
                       __ZTSNSt3__120__shared_ptr_pointerIPN2gc3est22IsotropicGaussianNoiseENS_10shared_ptrINS2_10NoiseModelEE27__shared_ptr_default_deleteIS6_S3_EENS_9allocatorIS3_EEEE, 
                       __ZTSNSt3__120__shared_ptr_pointerIPN2gc3est22ModelErrorCostFunctionENS_10shared_ptrIS3_E27__shared_ptr_default_deleteIS3_S3_EENS_9allocatorIS3_EEEE, 
                       __ZTSNSt3__120__shared_ptr_pointerIPN2gc3est22VariadicFactorOrderingENS_10shared_ptrINS2_14FactorOrderingEE27__shared_ptr_default_deleteIS6_S3_EENS_9allocatorIS3_EEEE, 
                       __ZTSNSt3__120__shared_ptr_pointerIPN2gc3est23EvaluateJtJVariableTypeENS_10shared_ptrINS1_9GeneratorEE27__shared_ptr_default_deleteIS6_S3_EENS_9allocatorIS3_EEEE, 
                       __ZTSNSt3__120__shared_ptr_pointerIPN2gc3est24AnisotropicGaussianNoiseENS_10shared_ptrINS2_10NoiseModelEE27__shared_ptr_default_deleteIS6_S3_EENS_9allocatorIS3_EEEE, 
                       __ZTSNSt3__120__shared_ptr_pointerIPN2gc3est24BlockAndFactorReorderingENS_10shared_ptrINS1_9GeneratorEE27__shared_ptr_default_deleteIS6_S3_EENS_9allocatorIS3_EEEE, 
                       __ZTSNSt3__120__shared_ptr_pointerIPN2gc3est24CompressedRowBlockMatrixENS_10shared_ptrINS2_11BlockMatrixEE27__shared_ptr_default_deleteIS6_S3_EENS_9allocatorIS3_EEEE, 
                       __ZTSNSt3__120__shared_ptr_pointerIPN2gc3est24ImplicitSchurInitialize1ENS_10shared_ptrINS1_9GeneratorEE27__shared_ptr_default_deleteIS6_S3_EENS_9allocatorIS3_EEEE, 
                       __ZTSNSt3__120__shared_ptr_pointerIPN2gc3est24ImplicitSchurInitialize2ENS_10shared_ptrINS1_9GeneratorEE27__shared_ptr_default_deleteIS6_S3_EENS_9allocatorIS3_EEEE, 
                       __ZTSNSt3__120__shared_ptr_pointerIPN2gc3est24ImplicitSchurInitialize3ENS_10shared_ptrINS1_9GeneratorEE27__shared_ptr_default_deleteIS6_S3_EENS_9allocatorIS3_EEEE, 
                       __ZTSNSt3__120__shared_ptr_pointerIPN2gc3est24LeastSquaresCostFunctionENS_10shared_ptrIS3_E27__shared_ptr_default_deleteIS3_S3_EENS_9allocatorIS3_EEEE, 
                       __ZTSNSt3__120__shared_ptr_pointerIPN2gc3est25ApplyJacobiPreconditionerENS_10shared_ptrINS1_9GeneratorEE27__shared_ptr_default_deleteIS6_S3_EENS_9allocatorIS3_EEEE, 
                       __ZTSNSt3__120__shared_ptr_pointerIPN2gc3est26L2LeastSquaresLossFunctionENS_10shared_ptrIS3_E27__shared_ptr_default_deleteIS3_S3_EENS_9allocatorIS3_EEEE, 
                       __ZTSNSt3__120__shared_ptr_pointerIPN2gc3est28ImplicitSchurBackSubstitute1ENS_10shared_ptrINS1_9GeneratorEE27__shared_ptr_default_deleteIS6_S3_EENS_9allocatorIS3_EEEE, 
                       __ZTSNSt3__120__shared_ptr_pointerIPN2gc3est28ImplicitSchurBackSubstitute2ENS_10shared_ptrINS1_9GeneratorEE27__shared_ptr_default_deleteIS6_S3_EENS_9allocatorIS3_EEEE, 
                       __ZTSNSt3__120__shared_ptr_pointerIPN2gc3est28SchurDampAndInvertEliminatedENS_10shared_ptrINS1_9GeneratorEE27__shared_ptr_default_deleteIS6_S3_EENS_9allocatorIS3_EEEE, 
                       __ZTSNSt3__120__shared_ptr_pointerIPN2gc3est29TypedLeastSquaresLossFunctionIJNS1_4lang6ScalarEEEENS_10shared_ptrIS6_E27__shared_ptr_default_deleteIS6_S6_EENS_9allocatorIS6_EEEE, 
                       __ZTSNSt3__120__shared_ptr_pointerIPN2gc3est30ApplyAdditiveLMDampingExplicitENS_10shared_ptrINS1_9GeneratorEE27__shared_ptr_default_deleteIS6_S3_EENS_9allocatorIS3_EEEE, 
                       __ZTSNSt3__120__shared_ptr_pointerIPN2gc3est30ApplyAdditiveLMDampingImplicitENS_10shared_ptrINS1_9GeneratorEE27__shared_ptr_default_deleteIS6_S3_EENS_9allocatorIS3_EEEE, 
                       __ZTSNSt3__120__shared_ptr_pointerIPN2gc3est30ApplyBlockJacobiPreconditionerENS_10shared_ptrINS1_9GeneratorEE27__shared_ptr_default_deleteIS6_S3_EENS_9allocatorIS3_EEEE, 
                       __ZTSNSt3__120__shared_ptr_pointerIPN2gc3est33ApplyAdditiveLMDampingToDiagonalsENS_10shared_ptrINS1_9GeneratorEE27__shared_ptr_default_deleteIS6_S3_EENS_9allocatorIS3_EEEE, 
                       __ZTSNSt3__120__shared_ptr_pointerIPN2gc3est33ExplicitHessianLinearizationPointENS_10shared_ptrIS3_E27__shared_ptr_default_deleteIS3_S3_EENS_9allocatorIS3_EEEE, 
                       __ZTSNSt3__120__shared_ptr_pointerIPN2gc3est33ImplicitHessianLinearizationPointENS_10shared_ptrIS3_E27__shared_ptr_default_deleteIS3_S3_EENS_9allocatorIS3_EEEE, 
                       __ZTSNSt3__120__shared_ptr_pointerIPN2gc3est36ApplyMultiplicativeLMDampingExplicitENS_10shared_ptrINS1_9GeneratorEE27__shared_ptr_default_deleteIS6_S3_EENS_9allocatorIS3_EEEE, 
                       __ZTSNSt3__120__shared_ptr_pointerIPN2gc3est36ApplyMultiplicativeLMDampingImplicitENS_10shared_ptrINS1_9GeneratorEE27__shared_ptr_default_deleteIS6_S3_EENS_9allocatorIS3_EEEE, 
                       __ZTSNSt3__120__shared_ptr_pointerIPN2gc3est39ApplyMultiplicativeLMDampingToDiagonalsENS_10shared_ptrINS1_9GeneratorEE27__shared_ptr_default_deleteIS6_S3_EENS_9allocatorIS3_EEEE, 
                       __ZTSNSt3__120__shared_ptr_pointerIPN2gc3est3SE3ENS_10shared_ptrINS2_8VariableEE27__shared_ptr_default_deleteIS6_S3_EENS_9allocatorIS3_EEEE, 
                       __ZTSNSt3__120__shared_ptr_pointerIPN2gc3est3SO3ENS_10shared_ptrINS2_8VariableEE27__shared_ptr_default_deleteIS6_S3_EENS_9allocatorIS3_EEEE, 
                       __ZTSNSt3__120__shared_ptr_pointerIPN2gc3est51ExplicitHessianLinearizationPointLevenbergMarquardtENS_10shared_ptrINS2_19TrustRegionStrategyEE27__shared_ptr_default_deleteIS6_S3_EENS_9allocatorIS3_EEEE, 
                       __ZTSNSt3__120__shared_ptr_pointerIPN2gc3est51ImplicitHessianLinearizationPointLevenbergMarquardtENS_10shared_ptrINS2_19TrustRegionStrategyEE27__shared_ptr_default_deleteIS6_S3_EENS_9allocatorIS3_EEEE, 
                       __ZTSNSt3__120__shared_ptr_pointerIPN2gc3est53ExplicitHessianLinearizationPointJacobiPreconditionerENS_10shared_ptrINS2_14PreconditionerEE27__shared_ptr_default_deleteIS6_S3_EENS_9allocatorIS3_EEEE, 
                       __ZTSNSt3__120__shared_ptr_pointerIPN2gc3est53ImplicitHessianLinearizationPointJacobiPreconditionerENS_10shared_ptrINS2_14PreconditionerEE27__shared_ptr_default_deleteIS6_S3_EENS_9allocatorIS3_EEEE, 
                       __ZTSNSt3__120__shared_ptr_pointerIPN2gc3est58ExplicitHessianLinearizationPointBlockJacobiPreconditionerENS_10shared_ptrINS2_14PreconditionerEE27__shared_ptr_default_deleteIS6_S3_EENS_9allocatorIS3_EEEE, 
                       __ZTSNSt3__120__shared_ptr_pointerIPN2gc3est58ImplicitHessianLinearizationPointBlockJacobiPreconditionerENS_10shared_ptrINS2_14PreconditionerEE27__shared_ptr_default_deleteIS6_S3_EENS_9allocatorIS3_EEEE, 
                       __ZTSNSt3__120__shared_ptr_pointerIPN2gc3est6FactorENS_10shared_ptrIS3_E27__shared_ptr_default_deleteIS3_S3_EENS_9allocatorIS3_EEEE, 
                       __ZTSNSt3__120__shared_ptr_pointerIPN2gc3est6MatrixENS_10shared_ptrINS2_8VariableEE27__shared_ptr_default_deleteIS6_S3_EENS_9allocatorIS3_EEEE, 
                       __ZTSNSt3__120__shared_ptr_pointerIPN2gc3est6ScalarENS_10shared_ptrINS2_8VariableEE27__shared_ptr_default_deleteIS6_S3_EENS_9allocatorIS3_EEEE, 
                       __ZTSNSt3__120__shared_ptr_pointerIPN2gc3est6VectorENS_10shared_ptrINS2_8VariableEE27__shared_ptr_default_deleteIS6_S3_EENS_9allocatorIS3_EEEE, 
                       __ZTSNSt3__120__shared_ptr_pointerIPN2gc3est7InvertMENS_10shared_ptrINS1_9GeneratorEE27__shared_ptr_default_deleteIS6_S3_EENS_9allocatorIS3_EEEE, 
                       __ZTSNSt3__120__shared_ptr_pointerIPN2gc3est7ProblemENS_10shared_ptrIS3_E27__shared_ptr_default_deleteIS3_S3_EENS_9allocatorIS3_EEEE, 
                       __ZTSNSt3__120__shared_ptr_pointerIPN2gc3est8BoxMinusENS_10shared_ptrIS3_E27__shared_ptr_default_deleteIS3_S3_EENS_9allocatorIS3_EEEE, 
                       __ZTSNSt3__120__shared_ptr_pointerIPN2gc3ops13AdamOptimizerENS_10shared_ptrINS2_9OptimizerEE27__shared_ptr_default_deleteIS6_S3_EENS_9allocatorIS3_EEEE, 
                       __ZTSNSt3__120__shared_ptr_pointerIPN2gc3ops15SequentialModelENS_10shared_ptrINS2_5ModelEE27__shared_ptr_default_deleteIS6_S3_EENS_9allocatorIS3_EEEE, 
                       __ZTSNSt3__120__shared_ptr_pointerIPN2gc3ops4ReLUENS_10shared_ptrINS2_5LayerEE27__shared_ptr_default_deleteIS6_S3_EENS_9allocatorIS3_EEEE, 
                       __ZTSNSt3__120__shared_ptr_pointerIPN2gc3ops6LinearENS_10shared_ptrINS2_5LayerEE27__shared_ptr_default_deleteIS6_S3_EENS_9allocatorIS3_EEEE, 
                       __ZTSNSt3__120__shared_ptr_pointerIPN2gc3ops6detail27TypedFunctionReturnTypeImplILm1EEENS_10shared_ptrINS3_22FunctionReturnTypeImplEE27__shared_ptr_default_deleteIS8_S5_EENS_9allocatorIS5_EEEE, 
                       __ZTSNSt3__120__shared_ptr_pointerIPN2gc3ops7SoftMaxENS_10shared_ptrINS2_5LayerEE27__shared_ptr_default_deleteIS6_S3_EENS_9allocatorIS3_EEEE, 
                       __ZTSNSt3__120__shared_ptr_pointerIPN2gc4TileENS_10shared_ptrIS2_E27__shared_ptr_default_deleteIS2_S2_EENS_9allocatorIS2_EEEE, 
                       __ZTSNSt3__120__shared_ptr_pointerIPN2gc4lang2ad10RangeSliceENS_10shared_ptrINS3_4ViewEE27__shared_ptr_default_deleteIS7_S4_EENS_9allocatorIS4_EEEE, 
                       __ZTSNSt3__120__shared_ptr_pointerIPN2gc4lang2ad11TrivialViewENS_10shared_ptrINS3_4ViewEE27__shared_ptr_default_deleteIS7_S4_EENS_9allocatorIS4_EEEE, 
                       __ZTSNSt3__120__shared_ptr_pointerIPN2gc4lang2ad15ViewCompositionENS_10shared_ptrINS3_4ViewEE27__shared_ptr_default_deleteIS7_S4_EENS_9allocatorIS4_EEEE, 
                       __ZTSNSt3__120__shared_ptr_pointerIPN2gc4lang2ad5SliceENS_10shared_ptrINS3_4ViewEE27__shared_ptr_default_deleteIS7_S4_EENS_9allocatorIS4_EEEE, 
                       __ZTSNSt3__120__shared_ptr_pointerIPN2gc4lang3est19BasicFactorOrderingENS_10shared_ptrINS3_18FactorOrderingImplEE27__shared_ptr_default_deleteIS7_S4_EENS_9allocatorIS4_EEEE, 
                       __ZTSNSt3__120__shared_ptr_pointerIPN2gc4lang3est22VariadicFactorOrderingENS_10shared_ptrINS3_18FactorOrderingImplEE27__shared_ptr_default_deleteIS7_S4_EENS_9allocatorIS4_EEEE, 
                       __ZTSNSt3__120__shared_ptr_pointerIPN2gc4lang4simd20InnerProductTemplateENS_10shared_ptrINS1_16TemplateFunctionEE27__shared_ptr_default_deleteIS7_S4_EENS_9allocatorIS4_EEEE, 
                       __ZTSNSt3__120__shared_ptr_pointerIPN2gc4lang4simd23SIMDInnerProductVariantENS_10shared_ptrINS1_15TemplateVariantEE27__shared_ptr_default_deleteIS7_S4_EENS_9allocatorIS4_EEEE, 
                       __ZTSNSt3__120__shared_ptr_pointerIPN2gc4lang4simd26GeneralInnerProductVariantENS_10shared_ptrINS1_15TemplateVariantEE27__shared_ptr_default_deleteIS7_S4_EENS_9allocatorIS4_EEEE, 
                       __ZTSNSt3__120__shared_ptr_pointerIPN2gc4lang4simd29SIMDLargeKInnerProductVariantENS_10shared_ptrINS1_15TemplateVariantEE27__shared_ptr_default_deleteIS7_S4_EENS_9allocatorIS4_EEEE, 
                       __ZTSNSt3__120__shared_ptr_pointerIPN2gc4lang4simd29SIMDSmallKInnerProductVariantENS_10shared_ptrINS1_15TemplateVariantEE27__shared_ptr_default_deleteIS7_S4_EENS_9allocatorIS4_EEEE, 
                       __ZTSNSt3__120__shared_ptr_pointerIPN2gc6BufferENS_10shared_ptrIS2_E27__shared_ptr_default_deleteIS2_S2_EENS_9allocatorIS2_EEEE, 
                       __ZTSNSt3__120__shared_ptr_pointerIPN2gc6ScalarENS_10shared_ptrIS2_E27__shared_ptr_default_deleteIS2_S2_EENS_9allocatorIS2_EEEE, 
                       __ZTSNSt3__120__shared_ptr_pointerIPN2gc6VectorENS_10shared_ptrIS2_E27__shared_ptr_default_deleteIS2_S2_EENS_9allocatorIS2_EEEE, 
                       __ZTSNSt3__120__shared_ptr_pointerIPN2gc6device10GPULibraryENS_10shared_ptrIS3_E27__shared_ptr_default_deleteIS3_S3_EENS_9allocatorIS3_EEEE, 
                       __ZTSNSt3__120__shared_ptr_pointerIPN2gc6device11GPUFunctionENS_10shared_ptrIS3_E27__shared_ptr_default_deleteIS3_S3_EENS_9allocatorIS3_EEEE, 
                       __ZTSNSt3__120__shared_ptr_pointerIPN2gc6device9GPUDeviceENS_10shared_ptrIS3_E27__shared_ptr_default_deleteIS3_S3_EENS_9allocatorIS3_EEEE, 
                       __ZTSNSt3__120__shared_ptr_pointerIPN2gc7LibraryENS_10shared_ptrIS2_E27__shared_ptr_default_deleteIS2_S2_EENS_9allocatorIS2_EEEE, 
                       __ZTSNSt3__120__shared_ptr_pointerIPN2gc7ProgramENS_10shared_ptrIS2_E27__shared_ptr_default_deleteIS2_S2_EENS_9allocatorIS2_EEEE, 
                       __ZTSNSt3__120__shared_ptr_pointerIPN2gc8PipelineENS_10shared_ptrIS2_E27__shared_ptr_default_deleteIS2_S2_EENS_9allocatorIS2_EEEE, 
                       __ZTSNSt3__120__shared_ptr_pointerIPN2gc9LoopFuserENS_10shared_ptrINS1_13AutoSchedulerEE27__shared_ptr_default_deleteIS5_S2_EENS_9allocatorIS2_EEEE, 
                       __ZTSNSt3__120__shared_ptr_pointerIPN2gc9float16_tENS1_13BufferDeleterENS_9allocatorIS2_EEEE, 
                       __ZTSNSt3__120__shared_ptr_pointerIPN2gc9float16_tENS_10shared_ptrIS2_E27__shared_ptr_default_deleteIS2_S2_EENS_9allocatorIS2_EEEE, 
                       __ZTSNSt3__120__shared_ptr_pointerIPaN2gc13BufferDeleterENS_9allocatorIaEEEE, 
                       __ZTSNSt3__120__shared_ptr_pointerIPaNS_10shared_ptrIaE27__shared_ptr_default_deleteIaaEENS_9allocatorIaEEEE, 
                       __ZTSNSt3__120__shared_ptr_pointerIPcNS_14default_deleteIA_cEENS_9allocatorIS3_EEEE, 
                       __ZTSNSt3__120__shared_ptr_pointerIPdN2gc13BufferDeleterENS_9allocatorIdEEEE, 
                       __ZTSNSt3__120__shared_ptr_pointerIPdNS_10shared_ptrIdE27__shared_ptr_default_deleteIddEENS_9allocatorIdEEEE, 
                       __ZTSNSt3__120__shared_ptr_pointerIPdNS_10shared_ptrIvE27__shared_ptr_default_deleteIvdEENS_9allocatorIdEEEE, 
                       __ZTSNSt3__120__shared_ptr_pointerIPfN2gc13BufferDeleterENS_9allocatorIfEEEE, 
                       __ZTSNSt3__120__shared_ptr_pointerIPfNS_10shared_ptrIfE27__shared_ptr_default_deleteIffEENS_9allocatorIfEEEE, 
                       __ZTSNSt3__120__shared_ptr_pointerIPfNS_10shared_ptrIvE27__shared_ptr_default_deleteIvfEENS_9allocatorIfEEEE, 
                       __ZTSNSt3__120__shared_ptr_pointerIPhN2gc13BufferDeleterENS_9allocatorIhEEEE, 
                       __ZTSNSt3__120__shared_ptr_pointerIPhNS_10shared_ptrIhE27__shared_ptr_default_deleteIhhEENS_9allocatorIhEEEE, 
                       __ZTSNSt3__120__shared_ptr_pointerIPiN2gc13BufferDeleterENS_9allocatorIiEEEE, 
                       __ZTSNSt3__120__shared_ptr_pointerIPiNS_10shared_ptrIiE27__shared_ptr_default_deleteIiiEENS_9allocatorIiEEEE, 
                       __ZTSNSt3__120__shared_ptr_pointerIPjN2gc13BufferDeleterENS_9allocatorIjEEEE, 
                       __ZTSNSt3__120__shared_ptr_pointerIPjNS_10shared_ptrIjE27__shared_ptr_default_deleteIjjEENS_9allocatorIjEEEE, 
                       __ZTSNSt3__120__shared_ptr_pointerIPsN2gc13BufferDeleterENS_9allocatorIsEEEE, 
                       __ZTSNSt3__120__shared_ptr_pointerIPsNS_10shared_ptrIsE27__shared_ptr_default_deleteIssEENS_9allocatorIsEEEE, 
                       __ZTSNSt3__120__shared_ptr_pointerIPtN2gc13BufferDeleterENS_9allocatorItEEEE, 
                       __ZTSNSt3__120__shared_ptr_pointerIPtNS_10shared_ptrItE27__shared_ptr_default_deleteIttEENS_9allocatorItEEEE, 
                       __ZTSNSt3__120__shared_ptr_pointerIPxN2gc13BufferDeleterENS_9allocatorIxEEEE, 
                       __ZTSNSt3__120__shared_ptr_pointerIPxNS_10shared_ptrIxE27__shared_ptr_default_deleteIxxEENS_9allocatorIxEEEE, 
                       __ZTSNSt3__120__shared_ptr_pointerIPyN2gc13BufferDeleterENS_9allocatorIyEEEE, 
                       __ZTSNSt3__120__shared_ptr_pointerIPyNS_10shared_ptrIyE27__shared_ptr_default_deleteIyyEENS_9allocatorIyEEEE, 
                       __ZTSNSt3__123enable_shared_from_thisIN2gc16GeneratorFactoryEEE, 
                       __ZTSNSt3__123enable_shared_from_thisIN2gc22OpaqueBindableArgumentEEE, 
                       __ZTSNSt3__123enable_shared_from_thisIN2gc3est12LossFunctionEEE, 
                       __ZTSNSt3__123enable_shared_from_thisIN2gc3ops6OpBaseEEE, 
                       __ZTSNSt3__133__unary_function_keep_layout_baseIN2gc4ExprEvEE, 
                       __ZTSNSt3__133__unary_function_keep_layout_baseIRKN2gc3est8VariableENS1_4util10TaggedBoolINS2_15IsEliminableTagEEEEE, 
                       __ZTSNSt3__134__binary_function_keep_layout_baseIN2gc4lang4TileENS2_3est8VariableEvEE, 
                       __ZTSNSt3__134__binary_function_keep_layout_baseIN2gc4lang4TileENS2_6BufferEvEE, 
                       __ZTSNSt3__134__binary_function_keep_layout_baseIN2gc4lang4TileERNS2_3est11BlockMatrixEvEE, 
                       __ZTSNSt3__18functionIFN2gc4util10TaggedBoolINS1_3est15IsEliminableTagEEERKNS4_8VariableEEEE, 
                       __ZTSNSt3__18functionIFvN2gc4ExprEEEE, __ZTSNSt3__18functionIFvN2gc4lang4TileENS2_3est13BlockOrderingENS2_5ArrayINS4_14FactorOrderingEEERNS4_11JacobianSetERNS4_11BlockMatrixEEEE, 
                       __ZTSNSt3__18functionIFvN2gc4lang4TileENS2_3est13BlockOrderingENS4_14FactorOrderingERNS4_8JacobianERNS4_11BlockMatrixEEEE, 
                       __ZTSNSt3__18functionIFvN2gc4lang4TileENS2_3est14FactorOrderingERNS4_8JacobianENS2_6BufferES8_EEE, 
                       __ZTSNSt3__18functionIFvN2gc4lang4TileENS2_3est6FactorENS2_6BufferES6_S6_NS2_5ArrayINS4_14FactorOrderingEEENS4_11VariableSetENS7_IS6_EESB_NS2_17BindableTypeArrayEEEE, 
                       __ZTSNSt3__18functionIFvN2gc4lang4TileENS2_3est6FactorENS4_11VariableSetENS2_6BufferES7_NS2_17BindableTypeArrayEEEE, 
                       __ZTSNSt3__18functionIFvN2gc4lang4TileENS2_3est6FactorENS4_11VariableSetENS2_6BufferES7_S7_NS2_17BindableTypeArrayEEEE, 
                       __ZTSNSt3__18functionIFvN2gc4lang4TileENS2_3est6FactorERNS4_14FactorOrderingENS2_5ArrayINS2_6BufferEEERNS4_16BlockMatrixArrayENS4_22SchurEliminatedHessianESA_S9_S9_EEE, 
                       __ZTSNSt3__18functionIFvN2gc4lang4TileENS2_3est8VariableEEEE, 
                       __ZTSNSt3__18functionIFvN2gc4lang4TileENS2_3est8VariableENS2_6ScalarEEEE, 
                       __ZTSNSt3__18functionIFvN2gc4lang4TileENS2_5ArrayINS2_3est13BlockOrderingEEENS4_INS5_14FactorOrderingEEERNS5_11JacobianSetERNS5_16BlockMatrixArrayEEEE, 
                       __ZTSNSt3__18functionIFvN2gc4lang4TileENS2_5ArrayINS2_6BufferEEES6_EEE, 
                       __ZTSNSt3__18functionIFvN2gc4lang4TileENS2_6BufferEEEE, __ZTSNSt3__18functionIFvN2gc4lang4TileENS2_6BufferENS2_3est6FactorERNS5_11JacobianSetENS2_5ArrayIS4_EENS9_INS5_14FactorOrderingEEERNS5_16BlockMatrixArrayESA_EEE, 
                       __ZTSNSt3__18functionIFvN2gc4lang4TileENS2_6BufferENS2_3est8VariableEEEE, 
                       __ZTSNSt3__18functionIFvN2gc4lang4TileENS2_6BufferENS2_5ArrayINS2_3est8VariableEEEEEE, 
                       __ZTSNSt3__18functionIFvN2gc4lang4TileENS2_6BufferENS2_5ArrayIS4_EES6_NS2_3est6FactorERNS7_14FactorOrderingENS7_22SchurEliminatedHessianES4_EEE, 
                       __ZTSNSt3__18functionIFvN2gc4lang4TileENS2_6BufferENS2_6ScalarES4_EEE, 
                       __ZTSNSt3__18functionIFvN2gc4lang4TileENS2_6BufferENS2_6ScalarES4_S4_EEE, 
                       __ZTSNSt3__18functionIFvN2gc4lang4TileENS2_6BufferERNS2_3est8JacobianENS5_14FactorOrderingENS2_6ScalarES4_S4_EEE, 
                       __ZTSNSt3__18functionIFvN2gc4lang4TileENS2_6BufferERNS2_3est8JacobianENS5_14FactorOrderingES4_S4_S4_S4_S4_EEE, 
                       __ZTSNSt3__18functionIFvN2gc4lang4TileENS2_6BufferERNS2_3est8JacobianENS5_6FactorERNS5_11JacobianSetERNS5_14FactorOrderingENS2_5ArrayIS4_EENSD_ISB_EERNS5_16BlockMatrixArrayENS5_22SchurEliminatedHessianESE_S4_S4_EEE, 
                       __ZTSNSt3__18functionIFvN2gc4lang4TileENS2_6BufferERNS2_3est8JacobianES4_S4_EEE, 
                       __ZTSNSt3__18functionIFvN2gc4lang4TileENS2_6BufferES4_EEE, 
                       __ZTSNSt3__18functionIFvN2gc4lang4TileENS2_6BufferES4_NS2_5ArrayINS2_3est8VariableEEEEEE, 
                       __ZTSNSt3__18functionIFvN2gc4lang4TileENS2_6BufferES4_NS2_6ScalarES5_S5_S5_S5_S4_S4_EEE, 
                       __ZTSNSt3__18functionIFvN2gc4lang4TileENS2_6BufferES4_NS2_6VectorES4_EEE, 
                       __ZTSNSt3__18functionIFvN2gc4lang4TileENS2_6BufferES4_RNS2_3est8JacobianES4_S4_EEE, 
                       __ZTSNSt3__18functionIFvN2gc4lang4TileENS2_6BufferES4_S4_EEE, 
                       __ZTSNSt3__18functionIFvN2gc4lang4TileENS2_6BufferES4_S4_NS2_6ScalarEEEE, 
                       __ZTSNSt3__18functionIFvN2gc4lang4TileENS2_6BufferES4_S4_NS2_6VectorES4_S4_EEE, 
                       __ZTSNSt3__18functionIFvN2gc4lang4TileENS2_6BufferES4_S4_S4_EEE, 
                       __ZTSNSt3__18functionIFvN2gc4lang4TileENS2_6BufferES4_S4_S4_S4_NS2_6ScalarEEEE, 
                       __ZTSNSt3__18functionIFvN2gc4lang4TileENS2_6BufferES4_S4_S4_S4_S4_S4_EEE, 
                       __ZTSNSt3__18functionIFvN2gc4lang4TileENS2_6ScalarENS2_6BufferES5_EEE, 
                       __ZTSNSt3__18functionIFvN2gc4lang4TileENS2_6ScalarERNS2_3est11BlockMatrixEEEE, 
                       __ZTSNSt3__18functionIFvN2gc4lang4TileERNS2_3est11BlockMatrixEEEE, 
                       __ZTSNSt3__18functionIFvN2gc4lang4TileERNS2_3est11BlockMatrixENS2_6BufferES7_EEE, 
                       __ZTSNSt3__18functionIFvN2gc4lang4TileERNS2_3est11BlockMatrixENS2_6BufferES7_S7_EEE, 
                       __ZTSNSt3__18functionIFvN2gc4lang4TileERNS2_3est11BlockMatrixENS2_6BufferES7_S7_RS7_EEE, 
                       __ZTSNSt3__18functionIFvN2gc4lang4TileERNS2_3est11JacobianSetENS2_5ArrayINS4_14FactorOrderingEEENS7_INS2_6BufferEEESB_SA_EEE, 
                       __ZTSNSt3__18functionIFvN2gc4lang4TileERNS2_3est14FactorOrderingENS2_6BufferERNS4_8JacobianES7_S7_EEE, 
                       __ZTSNSt3__18functionIFvN2gc4lang4TileERNS2_3est14FactorOrderingERNS4_8JacobianENS2_6BufferERS9_EEE, 
                       __ZTSNSt3__18functionIFvN2gc4lang4TileERNS2_3est14FactorOrderingERNS4_8JacobianENS2_6BufferES9_EEE, 
                       __ZTSNSt3__18functionIFvN2gc4lang4TileERNS2_3est14FactorOrderingERNS4_8JacobianENS2_6BufferES9_S9_EEE, 
                       __ZTSNSt3__18functionIFvN2gc4lang4TileERNS2_3est14FactorOrderingERNS4_8JacobianENS2_6BufferES9_S9_S9_EEE, 
                       __ZTSNSt3__18functionIFvN2gc4lang4TileERNS2_3est8JacobianENS2_6BufferES7_S7_RS7_EEE, 
                       __ZTSNSt3__18functionIFvN2gc4lang4TileERNS2_3est8JacobianENS2_6BufferES7_S7_S7_S7_EEE, 
                       __ZTSNSt3__18functionIFvN2gc4lang4TileERNS2_3est8JacobianENS4_14FactorOrderingENS2_6BufferES8_EEE, 
                       __ZTSNSt3__18functionIFvN2gc4lang4TileERNS2_3est8JacobianENS4_14FactorOrderingENS2_6BufferES8_S8_EEE, 
                       __ZTSNSt3__18functionIFvN2gc4lang4TileERNS2_3est8JacobianENS4_14FactorOrderingENS2_6BufferES8_S8_S8_EEE, 
                       __ZTSNSt3__18functionIFvN2gc4lang4TileERNS2_3est8JacobianENS4_14FactorOrderingES7_NS2_6BufferES8_S8_S8_S8_S8_EEE, 
                       __ZTSNSt3__18functionIFvN2gc4lang4TileERNS2_6ScalarENS2_6BufferEEEE, 
                       __ZTSPFN2gc4ExprES0_E, __ZTSPFN2gc4ExprES0_S0_E, __ZTSPFN2gc4StmtERKNS_6TargetES0_E, 
                       __ZTSPFN2gc4lang2ad15BackpropFunctorENS0_6TensorES3_S3_E, 
                       __ZTSPFdddE, __ZTSZN2gc3est10EvaluateHp10kernelFuncEvEUlNS_4lang4TileERNS2_3est11BlockMatrixENS2_6BufferES7_S7_RS7_E_, 
                       __ZTSZN2gc3est10EvaluateHp19kernelFuncNoOffsetsEvEUlNS_4lang4TileERNS2_3est11BlockMatrixENS2_6BufferES7_E_, 
                       __ZTSZN2gc3est10EvaluateJp10kernelFuncEjEUlNS_4lang4TileENS2_6BufferES4_RNS2_3est8JacobianES4_S4_E_, 
                       __ZTSZN2gc3est10EvaluateJp18kernelFuncUnsortedEjEUlNS_4lang4TileERNS2_3est14FactorOrderingENS2_6BufferERNS4_8JacobianES7_S7_E_, 
                       __ZTSZN2gc3est10EvaluateJp18kernelFuncVariadicEjEUlNS_4lang4TileERNS2_3est14FactorOrderingENS2_6BufferERNS4_8JacobianES7_S7_E_, 
                       __ZTSZN2gc3est10EvaluateJp19kernelFuncNoOffsetsEjEUlNS_4lang4TileENS2_6BufferERNS2_3est8JacobianES4_S4_E_, 
                       __ZTSZN2gc3est10EvaluateJp27kernelFuncUnsortedNoOffsetsEjEUlNS_4lang4TileERNS2_3est14FactorOrderingERNS4_8JacobianENS2_6BufferES9_E_, 
                       __ZTSZN2gc3est10EvaluateJp27kernelFuncVariadicNoOffsetsEjEUlNS_4lang4TileERNS2_3est14FactorOrderingERNS4_8JacobianENS2_6BufferES9_E_, 
                       __ZTSZN2gc3est11EvaluateJtJ18kernelFuncDiagonalEvEUlNS_4lang4TileENS2_3est13BlockOrderingENS4_14FactorOrderingERNS4_8JacobianERNS4_11BlockMatrixEE_, 
                       __ZTSZN2gc3est11EvaluateJtJ21kernelFuncOffDiagonalEvEUlNS_4lang4TileENS2_3est13BlockOrderingENS2_5ArrayINS4_14FactorOrderingEEERNS4_11JacobianSetERNS4_11BlockMatrixEE_, 
                       __ZTSZN2gc3est11EvaluateJte10kernelFuncEvEUlNS_4lang4TileENS2_3est14FactorOrderingERNS4_8JacobianENS2_6BufferES8_E_, 
                       __ZTSZN2gc3est11PCGIterate110kernelFuncEvEUlNS_4lang4TileENS2_6BufferES4_S4_S4_S4_S4_S4_E_, 
                       __ZTSZN2gc3est11PCGIterate210kernelFuncEvEUlNS_4lang4TileENS2_6BufferES4_S4_E_, 
                       __ZTSZN2gc3est12EvaluateJtJp10kernelFuncEjEUlNS_4lang4TileERNS2_3est14FactorOrderingERNS4_8JacobianENS2_6BufferERS9_E_, 
                       __ZTSZN2gc3est12InvertBlockM10kernelFuncEvEUlNS_4lang4TileENS2_6BufferES4_E_, 
                       __ZTSZN2gc3est14EvaluateBlockM10kernelFuncEvEUlNS_4lang4TileERNS2_3est14FactorOrderingERNS4_8JacobianENS2_6BufferES9_E_, 
                       __ZTSZN2gc3est14ExtractDiagJtJ10kernelFuncEvEUlNS_4lang4TileERNS2_3est11BlockMatrixENS2_6BufferES7_S7_E_, 
                       __ZTSZN2gc3est14ExtractDiagJtJ19kernelFuncNoOffsetsEvEUlNS_4lang4TileERNS2_3est11BlockMatrixENS2_6BufferES7_E_, 
                       __ZTSZN2gc3est14SchurLinearize16factorKernelFuncERKNSt3__16vectorINS0_13ArgumentGroupENS2_9allocatorIS4_EEEERKNS2_3mapINS2_12basic_stringIcNS2_11char_traitsIcEENS5_IcEEEEjNS2_4lessISF_EENS5_INS2_4pairIKSF_jEEEEEEbEUlNS_4lang4TileENSP_6BufferENSP_3est6FactorERNSS_11JacobianSetENSP_5ArrayISR_EENSW_INSS_14FactorOrderingEEERNSS_16BlockMatrixArrayESX_E_, 
                       __ZTSZN2gc3est14SchurLinearize28eliminatedVariableKernelFuncERKNSt3__16vectorINS0_13ArgumentGroupENS2_9allocatorIS4_EEEERKNS2_3mapINS2_12basic_stringIcNS2_11char_traitsIcEENS5_IcEEEEjNS2_4lessISF_EENS5_INS2_4pairIKSF_jEEEEEEbEUlNS_4lang4TileENSP_6BufferERNSP_3est8JacobianENSS_6FactorERNSS_11JacobianSetERNSS_14FactorOrderingENSP_5ArrayISR_EENS10_ISY_EERNSS_16BlockMatrixArrayENSS_22SchurEliminatedHessianES11_SR_SR_E_, 
                       __ZTSZN2gc3est17SchurOuterProduct27schurOuterProductKernelFuncERKNSt3__16vectorINS0_13ArgumentGroupENS2_9allocatorIS4_EEEERKNS2_3mapINS2_12basic_stringIcNS2_11char_traitsIcEENS5_IcEEEEjNS2_4lessISF_EENS5_INS2_4pairIKSF_jEEEEEEbEUlNS_4lang4TileENSP_3est6FactorERNSR_14FactorOrderingENSP_5ArrayINSP_6BufferEEERNSR_16BlockMatrixArrayENSR_22SchurEliminatedHessianESX_SW_SW_E_, 
                       __ZTSZN2gc3est17SymmetrizeDiagJtJ10kernelFuncEvEUlNS_4lang4TileERNS2_3est11BlockMatrixEE_, 
                       __ZTSZN2gc3est18ImplicitSchurJtJp110kernelFuncEvEUlNS_4lang4TileERNS2_3est8JacobianENS4_14FactorOrderingENS2_6BufferES8_E_, 
                       __ZTSZN2gc3est18ImplicitSchurJtJp210kernelFuncEjEUlNS_4lang4TileERNS2_3est8JacobianENS2_6BufferES7_S7_S7_S7_E_, 
                       __ZTSZN2gc3est18ImplicitSchurJtJp218kernelFuncUnsortedEjEUlNS_4lang4TileERNS2_3est14FactorOrderingERNS4_8JacobianENS2_6BufferES9_S9_S9_E_, 
                       __ZTSZN2gc3est18ImplicitSchurJtJp218kernelFuncVariadicEjEUlNS_4lang4TileERNS2_3est8JacobianENS4_14FactorOrderingENS2_6BufferES8_S8_S8_E_, 
                       __ZTSZN2gc3est18ImplicitSchurJtJp219kernelFuncNoOffsetsEjEUlNS_4lang4TileERNS2_3est8JacobianENS2_6BufferES7_S7_RS7_E_, 
                       __ZTSZN2gc3est18ImplicitSchurJtJp227kernelFuncUnsortedNoOffsetsEjEUlNS_4lang4TileERNS2_3est14FactorOrderingERNS4_8JacobianENS2_6BufferES9_S9_E_, 
                       __ZTSZN2gc3est18ImplicitSchurJtJp227kernelFuncVariadicNoOffsetsEjEUlNS_4lang4TileERNS2_3est8JacobianENS4_14FactorOrderingENS2_6BufferES8_S8_E_, 
                       __ZTSZN2gc3est20MaterializeJacobians10kernelFuncERKNS0_16ArgumentGroupingERKNSt3__16vectorINS0_13eJacobianTypeENS5_9allocatorIS7_EEEEEUlNS_4lang4TileENSD_3est6FactorENSD_6BufferESH_SH_NSD_5ArrayINSF_14FactorOrderingEEENSF_11VariableSetENSI_ISH_EESM_NSD_17BindableTypeArrayEE_, 
                       __ZTSZN2gc3est20SchurBackSubstitute110kernelFuncERKNSt3__16vectorINS0_13ArgumentGroupENS2_9allocatorIS4_EEEERKNS2_3mapINS2_12basic_stringIcNS2_11char_traitsIcEENS5_IcEEEEjNS2_4lessISF_EENS5_INS2_4pairIKSF_jEEEEEEbEUlNS_4lang4TileENSP_6BufferENSP_5ArrayISR_EEST_NSP_3est6FactorERNSU_14FactorOrderingENSU_22SchurEliminatedHessianESR_E_, 
                       __ZTSZN2gc3est20SchurBackSubstitute210kernelFuncEvEUlNS_4lang4TileENS2_6BufferES4_E_, 
                       __ZTSZN2gc3est22EvaluateJtJFactorLevel10kernelFuncERKNSt3__16vectorIjNS2_9allocatorIjEEEEEUlNS_4lang4TileENS9_5ArrayINS9_3est13BlockOrderingEEENSB_INSC_14FactorOrderingEEERNSC_11JacobianSetERNSC_16BlockMatrixArrayEE_, 
                       __ZTSZN2gc3est24ImplicitSchurInitialize110kernelFuncEvEUlNS_4lang4TileENS2_6BufferERNS2_3est8JacobianENS5_14FactorOrderingENS2_6ScalarES4_S4_E_, 
                       __ZTSZN2gc3est24ImplicitSchurInitialize210kernelFuncEjEUlNS_4lang4TileENS2_6BufferERNS2_3est8JacobianENS5_14FactorOrderingES4_S4_S4_S4_S4_E_, 
                       __ZTSZN2gc3est24ImplicitSchurInitialize310kernelFuncEvEUlNS_4lang4TileERNS2_3est8JacobianENS4_14FactorOrderingES7_NS2_6BufferES8_S8_S8_S8_S8_E_, 
                       __ZTSZN2gc3est25ApplyJacobiPreconditioner10kernelFuncEvEUlNS_4lang4TileENS2_6BufferES4_S4_E_, 
                       __ZTSZN2gc3est28ImplicitSchurBackSubstitute110kernelFuncERKNSt3__16vectorINS0_13ArgumentGroupENS2_9allocatorIS4_EEEERKNS2_3mapINS2_12basic_stringIcNS2_11char_traitsIcEENS5_IcEEEEjNS2_4lessISF_EENS5_INS2_4pairIKSF_jEEEEEEEUlNS_4lang4TileERNSP_3est11JacobianSetENSP_5ArrayINSR_14FactorOrderingEEENSU_INSP_6BufferEEESY_SX_E_, 
                       __ZTSZN2gc3est28ImplicitSchurBackSubstitute210kernelFuncEvEUlNS_4lang4TileENS2_6BufferES4_S4_S4_E_, 
                       __ZTSZN2gc3est28SchurDampAndInvertEliminated10kernelFuncEvEUlNS_4lang4TileERNS2_6ScalarENS2_6BufferEE_, 
                       __ZTSZN2gc3est30ApplyAdditiveLMDampingExplicit10kernelFuncEvEUlNS_4lang4TileENS2_6ScalarERNS2_3est11BlockMatrixEE_, 
                       __ZTSZN2gc3est30ApplyAdditiveLMDampingImplicit10kernelFuncEvEUlNS_4lang4TileENS2_6BufferENS2_6ScalarES4_E_, 
                       __ZTSZN2gc3est30ApplyBlockJacobiPreconditioner10kernelFuncEvEUlNS_4lang4TileENS2_6BufferES4_S4_E_, 
                       __ZTSZN2gc3est33ApplyAdditiveLMDampingToDiagonals10kernelFuncEvEUlNS_4lang4TileENS2_6ScalarENS2_6BufferES5_E_, 
                       __ZTSZN2gc3est36ApplyMultiplicativeLMDampingExplicit10kernelFuncEvEUlNS_4lang4TileENS2_6ScalarERNS2_3est11BlockMatrixEE_, 
                       __ZTSZN2gc3est36ApplyMultiplicativeLMDampingImplicit10kernelFuncEvEUlNS_4lang4TileENS2_6BufferENS2_6ScalarES4_S4_E_, 
                       __ZTSZN2gc3est39ApplyMultiplicativeLMDampingToDiagonals10kernelFuncEvEUlNS_4lang4TileENS2_6ScalarENS2_6BufferES5_E_, 
                       __ZTSZN2gc3est7InvertM10kernelFuncEvEUlNS_4lang4TileENS2_6BufferES4_E_, 
                       __ZTSZN2gc3ops10BinaryOpTTINS0_5MaxTTENS0_10AutoDiffOpEE6kernelEvEUlRKNSt3__16vectorI17loopkit_rt_type_tNS5_9allocatorIS7_EEEEE_, 
                       __ZTSZN2gc3ops10BinaryOpTTINS0_5MaxTTENS0_10AutoDiffOpEE6kernelEvEUlRKNSt3__16vectorINS_11ExtentExprsENS5_9allocatorIS7_EEEEE_, 
                       __ZTSZN2gc3ops10BinaryOpTTINS0_5MinTTENS0_10AutoDiffOpEE6kernelEvEUlRKNSt3__16vectorI17loopkit_rt_type_tNS5_9allocatorIS7_EEEEE_, 
                       __ZTSZN2gc3ops10BinaryOpTTINS0_5MinTTENS0_10AutoDiffOpEE6kernelEvEUlRKNSt3__16vectorINS_11ExtentExprsENS5_9allocatorIS7_EEEEE_, 
                       __ZTSZN2gc3ops10BinaryOpTTINS0_8DivideTTENS0_10AutoDiffOpEE6kernelEvEUlRKNSt3__16vectorI17loopkit_rt_type_tNS5_9allocatorIS7_EEEEE_, 
                       __ZTSZN2gc3ops10BinaryOpTTINS0_8DivideTTENS0_10AutoDiffOpEE6kernelEvEUlRKNSt3__16vectorINS_11ExtentExprsENS5_9allocatorIS7_EEEEE_, 
                       __ZTSZN2gc3ops10SSIMOpGrad6kernelEvEUlNS_4lang4TileENS2_6BufferES4_S4_NS2_6VectorES4_S4_E_, 
                       __ZTSZN2gc3ops10ScanOpGrad6kernelEvEUlNS_4lang4TileENS2_6BufferES4_E_, 
                       __ZTSZN2gc3ops10ScanOpGrad6kernelEvEUlRKNS_11ExtentExprsEE_, 
                       __ZTSZN2gc3ops11AddAssignTTC1EvEUlNS_4lang4TileENS2_6BufferES4_E_, 
                       __ZTSZN2gc3ops11RangeStatic6kernelEvEUlNS_4lang4TileENS2_6BufferEE_, 
                       __ZTSZN2gc3ops12CrossEntropy6kernelEvEUlNS_4lang4TileENS2_6BufferES4_S4_E_, 
                       __ZTSZN2gc3ops12RangeDynamic6kernelEvEUlNS_4lang4TileENS2_6BufferES4_E_, 
                       __ZTSZN2gc3ops12ReduceOpGrad6kernelEvEUlNS_4lang4TileENS2_6BufferES4_E_, 
                       __ZTSZN2gc3ops13NonzeroOpGrad6kernelEvEUlNS_4lang4TileENS2_6BufferES4_E_, 
                       __ZTSZN2gc3ops13NonzeroOpGrad6kernelEvEUlRKNS_11ExtentExprsEE_, 
                       __ZTSZN2gc3ops16AutoDiffBackprop6kernelEvEUlRKNS_6TargetENS_4StmtEE_, 
                       __ZTSZN2gc3ops20SSIMOpPreprocessGrad6kernelEvEUlNS_4lang4TileENS2_6BufferES4_NS2_6VectorES4_E_, 
                       __ZTSZN2gc3ops20SSIMOpPreprocessGrad6kernelEvEUlRKNS_11ExtentExprsEE_, 
                       __ZTSZN2gc3ops4Cast6kernelEvEUlNS_4lang4TileENS2_6BufferES4_E_, 
                       __ZTSZN2gc3ops4Copy6kernelEvEUlNS_4lang4TileENS2_6BufferES4_E_, 
                       __ZTSZN2gc3ops4Head6kernelEvEUlNS_4lang4TileENS2_6BufferES4_E_, 
                       __ZTSZN2gc3ops4Head6kernelEvEUlRKNS_11ExtentExprsEE_, __ZTSZN2gc3ops4L1Op6kernelEvEUlNS_4lang4TileENS2_6BufferES4_S4_E_, 
                       __ZTSZN2gc3ops4L2Op6kernelEvEUlNS_4lang4TileENS2_6BufferES4_S4_E_, 
                       __ZTSZN2gc3ops4Tail6kernelEvEUlNS_4lang4TileENS2_6BufferES4_E_, 
                       __ZTSZN2gc3ops4Tail6kernelEvEUlRKNS_11ExtentExprsEE_, __ZTSZN2gc3ops5MaxTTC1EvEUlNS_4lang4TileENS2_6BufferES4_S4_E_, 
                       __ZTSZN2gc3ops5MinTTC1EvEUlNS_4lang4TileENS2_6BufferES4_S4_E_, 
                       __ZTSZN2gc3ops6Resize6kernelEvEUlNS_4lang6BufferES3_E_, __ZTSZN2gc3ops6SSIMOp6kernelEvEUlNS_4lang4TileENS2_6BufferES4_NS2_6VectorES4_E_, 
                       __ZTSZN2gc3ops6detail10TensorFill6kernelEvEUlNS_4lang4TileENS3_6BufferEE_, 
                       __ZTSZN2gc3ops6detail10TensorSize6kernelEvEUlNS_4lang6BufferENS3_6ScalarEE_, 
                       __ZTSZN2gc3ops6detail13TensorExtents6kernelEvEUlNS_4lang6BufferENS3_6VectorEE_, 
                       __ZTSZN2gc3ops6detail13TensorExtents6kernelEvEUlRKNS_11ExtentExprsEE_, 
                       __ZTSZN2gc3ops6detail19convertFunctionBodyINS0_6TensorEJS3_S3_EEENSt3__18functionIFNS1_18FunctionReturnTypeERKNS4_6vectorIS3_NS4_9allocatorIS3_EEEEEEENS5_IFT_DpT0_EEEEUlSC_E_, 
                       __ZTSZN2gc3ops6detail19convertFunctionBodyIvJNS0_6TensorES3_S3_S3_S3_S3_S3_S3_S3_EEENSt3__18functionIFNS1_18FunctionReturnTypeERKNS4_6vectorIS3_NS4_9allocatorIS3_EEEEEEENS5_IFT_DpT0_EEEEUlSC_E_, 
                       __ZTSZN2gc3ops8DivideTTC1EvEUlNS_4lang4TileENS2_6BufferES4_S4_E_, 
                       __ZTSZN2gc4lang3est11BlockMatrix13forEachColumnIZZNS_3est10EvaluateHp19kernelFuncNoOffsetsEvENKUlNS0_4TileERS2_NS0_6BufferES8_E_clES6_S7_S8_S8_EUlNS_4ExprENS0_6MatrixEE_EEvRKSA_OT_EUlSF_E_, 
                       __ZTSZN2gc4lang3est11BlockMatrix13forEachColumnIZZNS_3est14ExtractDiagJtJ10kernelFuncEvENKUlNS0_4TileERS2_NS0_6BufferES8_S8_E_clES6_S7_S8_S8_S8_EUlNS_4ExprENS0_6MatrixEE_EEvRKSA_OT_EUlSF_E_, 
                       __ZTSZN2gc4lang3est11BlockMatrix13forEachColumnIZZNS_3est14ExtractDiagJtJ19kernelFuncNoOffsetsEvENKUlNS0_4TileERS2_NS0_6BufferES8_E_clES6_S7_S8_S8_EUlNS_4ExprENS0_6MatrixEE_EEvRKSA_OT_EUlSF_E_, 
                       __ZTSZN2gc4lang3est11BlockMatrix13forEachColumnIZZNS_3est17SymmetrizeDiagJtJ10kernelFuncEvENKUlNS0_4TileERS2_E_clES6_S7_EUlNS_4ExprENS0_6MatrixEE_EEvRKS9_OT_EUlSE_E_, 
                       __ZTSZN2gc4lang3est11BlockMatrix13forEachColumnIZZNS_3est30ApplyAdditiveLMDampingExplicit10kernelFuncEvENKUlNS0_4TileENS0_6ScalarERS2_E_clES6_S7_S8_EUlNS_4ExprENS0_6MatrixEE_EEvRKSA_OT_EUlSF_E_, 
                       __ZTSZN2gc4lang3est11BlockMatrix13forEachColumnIZZNS_3est36ApplyMultiplicativeLMDampingExplicit10kernelFuncEvENKUlNS0_4TileENS0_6ScalarERS2_E_clES6_S7_S8_EUlNS_4ExprENS0_6MatrixEE_EEvRKSA_OT_EUlSF_E_, 
                       __ZTSZN2gc4lang3est11BlockMatrix13forEachColumnIZZZNS_3est10EvaluateHp10kernelFuncEvENKUlNS0_4TileERS2_NS0_6BufferES8_S8_RS8_E_clES6_S7_S8_S8_S8_S9_ENKUlvE_clEvEUlNS_4ExprENS0_6MatrixEE_EEvRKSC_OT_EUlSH_E_, 
                       __ZTSZN2gc4lang4sort22scatterHistogramHelluyILb0EEEvNS1_13ScatterInputsIXT_EEENS1_14ScatterOutputsIXT_EEENS0_6BufferENS_4ExprES8_S8_S8_S8_jEUlT_E0_, 
                       __ZTSZN2gc4lang4sort22scatterHistogramHelluyILb0EEEvNS1_13ScatterInputsIXT_EEENS1_14ScatterOutputsIXT_EEENS0_6BufferENS_4ExprES8_S8_S8_S8_jEUlT_E_, 
                       __ZTSZN2gc4lang4sort22scatterHistogramHelluyILb1EEEvNS1_13ScatterInputsIXT_EEENS1_14ScatterOutputsIXT_EEENS0_6BufferENS_4ExprES8_S8_S8_S8_jEUlT_E0_, 
                       __ZTSZN2gc4lang4sort22scatterHistogramHelluyILb1EEEvNS1_13ScatterInputsIXT_EEENS1_14ScatterOutputsIXT_EEENS0_6BufferENS_4ExprES8_S8_S8_S8_jEUlT_E_, 
                       __ZTSZN2gc4lang4sort28scatterHistogramKieberEmmonsILb0EEEvNS1_13ScatterInputsIXT_EEENS1_14ScatterOutputsIXT_EEENS0_6BufferENS_4ExprES8_S8_S8_S8_jEUlvE0_, 
                       __ZTSZN2gc4lang4sort28scatterHistogramKieberEmmonsILb0EEEvNS1_13ScatterInputsIXT_EEENS1_14ScatterOutputsIXT_EEENS0_6BufferENS_4ExprES8_S8_S8_S8_jEUlvE_, 
                       __ZTSZN2gc4lang4sort28scatterHistogramKieberEmmonsILb1EEEvNS1_13ScatterInputsIXT_EEENS1_14ScatterOutputsIXT_EEENS0_6BufferENS_4ExprES8_S8_S8_S8_jEUlvE0_, 
                       __ZTSZN2gc4lang4sort28scatterHistogramKieberEmmonsILb1EEEvNS1_13ScatterInputsIXT_EEENS1_14ScatterOutputsIXT_EEENS0_6BufferENS_4ExprES8_S8_S8_S8_jEUlvE_, 
                       __ZTSZN2gc4lang9tensorops11UnaryOpImpl11alwaysValidEvEUlNS0_6TensorEE_, 
                       __ZTSZN2gc4lang9tensorops11UnaryOpImpl14adjAlwaysValidEvEUlNS0_6TensorES3_E_, 
                       __ZTSZN2gc4lang9tensorops12BinaryOpImpl11alwaysValidEvEUlNS0_6TensorES3_E_, 
                       __ZTSZN2gc4lang9tensorops12BinaryOpImpl14adjAlwaysValidEvEUlNS0_6TensorES3_S3_E_, 
                       __ZTSZNK2gc4lang3est13BlockOrdering11forOrderingIZZZNS_3est22EvaluateJtJFactorLevel10kernelFuncERKNSt3__16vectorIjNS6_9allocatorIjEEEEENKUlNS0_4TileENS0_5ArrayIS2_EENSE_INS1_14FactorOrderingEEERNS1_11JacobianSetERNS1_16BlockMatrixArrayEE_clESD_SF_SH_SJ_SL_ENKUlvE_clEvEUlNS_5TupleENS_4ExprEE_EEvOT_EUlSR_E_, 
                       __ZTSZNK2gc4lang3est13BlockOrdering13forEachFactorIZZNS_3est11EvaluateJtJ18kernelFuncDiagonalEvENKUlNS0_4TileES2_NS1_14FactorOrderingERNS1_8JacobianERNS1_11BlockMatrixEE_clES6_S2_S7_S9_SB_EUlNS_4ExprEE_EEvRKSD_OT_EUlSH_E_, 
                       __ZTSZNK2gc4lang3est13BlockOrdering13forEachFactorIZZNS_3est11EvaluateJtJ21kernelFuncOffDiagonalEvENKUlNS0_4TileES2_NS0_5ArrayINS1_14FactorOrderingEEERNS1_11JacobianSetERNS1_11BlockMatrixEE_clES6_S2_S9_SB_SD_EUlNS_4ExprEE_EEvRKSF_OT_EUlSJ_E_, 
                       __ZTSZNK2gc4lang3est13BlockOrdering13forEachFactorIZZZZNS_3est22EvaluateJtJFactorLevel10kernelFuncERKNSt3__16vectorIjNS6_9allocatorIjEEEEENKUlNS0_4TileENS0_5ArrayIS2_EENSE_INS1_14FactorOrderingEEERNS1_11JacobianSetERNS1_16BlockMatrixArrayEE_clESD_SF_SH_SJ_SL_ENKUlvE_clEvENKUlNS_5TupleENS_4ExprEE_clESO_SP_EUlSP_E_EEvRKSP_OT_EUlSU_E_, 
                       __ZTSZZN2gc3est10EvaluateHp10kernelFuncEvENKUlNS_4lang4TileERNS2_3est11BlockMatrixENS2_6BufferES7_S7_RS7_E_clES3_S6_S7_S7_S7_S8_EUlvE_, 
                       __ZTSZZN2gc3est10EvaluateJp18kernelFuncUnsortedEjENKUlNS_4lang4TileERNS2_3est14FactorOrderingENS2_6BufferERNS4_8JacobianES7_S7_E_clES3_S6_S7_S9_S7_S7_EUlvE_, 
                       __ZTSZZN2gc3est10EvaluateJp18kernelFuncVariadicEjENKUlNS_4lang4TileERNS2_3est14FactorOrderingENS2_6BufferERNS4_8JacobianES7_S7_E_clES3_S6_S7_S9_S7_S7_EUlNS_4ExprEE_, 
                       __ZTSZZN2gc3est10EvaluateJp27kernelFuncVariadicNoOffsetsEjENKUlNS_4lang4TileERNS2_3est14FactorOrderingERNS4_8JacobianENS2_6BufferES9_E_clES3_S6_S8_S9_S9_EUlNS_4ExprEE_, 
                       __ZTSZZN2gc3est11EvaluateJte10kernelFuncEvENKUlNS_4lang4TileENS2_3est14FactorOrderingERNS4_8JacobianENS2_6BufferES8_E_clES3_S5_S7_S8_S8_EUlNS_4ExprESA_E_, 
                       __ZTSZZN2gc3est12EvaluateJtJp10kernelFuncEjENKUlNS_4lang4TileERNS2_3est14FactorOrderingERNS4_8JacobianENS2_6BufferERS9_E_clES3_S6_S8_S9_SA_EUlNS_4ExprESC_E_, 
                       __ZTSZZN2gc3est12InvertBlockM10kernelFuncEvENKUlNS_4lang4TileENS2_6BufferES4_E_clES3_S4_S4_EUlT_E_, 
                       __ZTSZZN2gc3est12InvertBlockM10kernelFuncEvENKUlNS_4lang4TileENS2_6BufferES4_E_clES3_S4_S4_EUlvE0_, 
                       __ZTSZZN2gc3est12InvertBlockM10kernelFuncEvENKUlNS_4lang4TileENS2_6BufferES4_E_clES3_S4_S4_EUlvE_, 
                       __ZTSZZN2gc3est14EvaluateBlockM10kernelFuncEvENKUlNS_4lang4TileERNS2_3est14FactorOrderingERNS4_8JacobianENS2_6BufferES9_E_clES3_S6_S8_S9_S9_EUlNS_4ExprESB_E_, 
                       __ZTSZZN2gc3est14SchurLinearize16factorKernelFuncERKNSt3__16vectorINS0_13ArgumentGroupENS2_9allocatorIS4_EEEERKNS2_3mapINS2_12basic_stringIcNS2_11char_traitsIcEENS5_IcEEEEjNS2_4lessISF_EENS5_INS2_4pairIKSF_jEEEEEEbENKUlNS_4lang4TileENSP_6BufferENSP_3est6FactorERNSS_11JacobianSetENSP_5ArrayISR_EENSW_INSS_14FactorOrderingEEERNSS_16BlockMatrixArrayESX_E_clESQ_SR_ST_SV_SX_SZ_S11_SX_EUlvE_, 
                       __ZTSZZN2gc3est14SchurLinearize28eliminatedVariableKernelFuncERKNSt3__16vectorINS0_13ArgumentGroupENS2_9allocatorIS4_EEEERKNS2_3mapINS2_12basic_stringIcNS2_11char_traitsIcEENS5_IcEEEEjNS2_4lessISF_EENS5_INS2_4pairIKSF_jEEEEEEbENKUlNS_4lang4TileENSP_6BufferERNSP_3est8JacobianENSS_6FactorERNSS_11JacobianSetERNSS_14FactorOrderingENSP_5ArrayISR_EENS10_ISY_EERNSS_16BlockMatrixArrayENSS_22SchurEliminatedHessianES11_SR_SR_E_clESQ_SR_SU_SV_SX_SZ_S11_S12_S14_S15_S11_SR_SR_EUlNS_4ExprEE_, 
                       __ZTSZZN2gc3est17SchurOuterProduct27schurOuterProductKernelFuncERKNSt3__16vectorINS0_13ArgumentGroupENS2_9allocatorIS4_EEEERKNS2_3mapINS2_12basic_stringIcNS2_11char_traitsIcEENS5_IcEEEEjNS2_4lessISF_EENS5_INS2_4pairIKSF_jEEEEEEbENKUlNS_4lang4TileENSP_3est6FactorERNSR_14FactorOrderingENSP_5ArrayINSP_6BufferEEERNSR_16BlockMatrixArrayENSR_22SchurEliminatedHessianESX_SW_SW_E_clESQ_SS_SU_SX_SZ_S10_SX_SW_SW_EUlNS_4ExprEE_, 
                       __ZTSZZN2gc3est18ImplicitSchurJtJp110kernelFuncEvENKUlNS_4lang4TileERNS2_3est8JacobianENS4_14FactorOrderingENS2_6BufferES8_E_clES3_S6_S7_S8_S8_EUlNS_4ExprESA_E_, 
                       __ZTSZZN2gc3est18ImplicitSchurJtJp218kernelFuncUnsortedEjENKUlNS_4lang4TileERNS2_3est14FactorOrderingERNS4_8JacobianENS2_6BufferES9_S9_S9_E_clES3_S6_S8_S9_S9_S9_S9_EUlvE_, 
                       __ZTSZZN2gc3est18ImplicitSchurJtJp218kernelFuncVariadicEjENKUlNS_4lang4TileERNS2_3est8JacobianENS4_14FactorOrderingENS2_6BufferES8_S8_S8_E_clES3_S6_S7_S8_S8_S8_S8_EUlNS_4ExprEE_, 
                       __ZTSZZN2gc3est18ImplicitSchurJtJp227kernelFuncVariadicNoOffsetsEjENKUlNS_4lang4TileERNS2_3est8JacobianENS4_14FactorOrderingENS2_6BufferES8_S8_E_clES3_S6_S7_S8_S8_S8_EUlNS_4ExprEE_, 
                       __ZTSZZN2gc3est20MaterializeJacobians10kernelFuncERKNS0_16ArgumentGroupingERKNSt3__16vectorINS0_13eJacobianTypeENS5_9allocatorIS7_EEEEENKUlNS_4lang4TileENSD_3est6FactorENSD_6BufferESH_SH_NSD_5ArrayINSF_14FactorOrderingEEENSF_11VariableSetENSI_ISH_EESM_NSD_17BindableTypeArrayEE_clESE_SG_SH_SH_SH_SK_SL_SM_SM_SN_EUlvE0_, 
                       __ZTSZZN2gc3est20MaterializeJacobians10kernelFuncERKNS0_16ArgumentGroupingERKNSt3__16vectorINS0_13eJacobianTypeENS5_9allocatorIS7_EEEEENKUlNS_4lang4TileENSD_3est6FactorENSD_6BufferESH_SH_NSD_5ArrayINSF_14FactorOrderingEEENSF_11VariableSetENSI_ISH_EESM_NSD_17BindableTypeArrayEE_clESE_SG_SH_SH_SH_SK_SL_SM_SM_SN_EUlvE1_, 
                       __ZTSZZN2gc3est20MaterializeJacobians10kernelFuncERKNS0_16ArgumentGroupingERKNSt3__16vectorINS0_13eJacobianTypeENS5_9allocatorIS7_EEEEENKUlNS_4lang4TileENSD_3est6FactorENSD_6BufferESH_SH_NSD_5ArrayINSF_14FactorOrderingEEENSF_11VariableSetENSI_ISH_EESM_NSD_17BindableTypeArrayEE_clESE_SG_SH_SH_SH_SK_SL_SM_SM_SN_EUlvE_, 
                       __ZTSZZN2gc3est20SchurBackSubstitute110kernelFuncERKNSt3__16vectorINS0_13ArgumentGroupENS2_9allocatorIS4_EEEERKNS2_3mapINS2_12basic_stringIcNS2_11char_traitsIcEENS5_IcEEEEjNS2_4lessISF_EENS5_INS2_4pairIKSF_jEEEEEEbENKUlNS_4lang4TileENSP_6BufferENSP_5ArrayISR_EEST_NSP_3est6FactorERNSU_14FactorOrderingENSU_22SchurEliminatedHessianESR_E_clESQ_SR_ST_ST_SV_SX_SY_SR_EUlNS_4ExprEE_, 
                       __ZTSZZN2gc3est22EvaluateJtJFactorLevel10kernelFuncERKNSt3__16vectorIjNS2_9allocatorIjEEEEENKUlNS_4lang4TileENS9_5ArrayINS9_3est13BlockOrderingEEENSB_INSC_14FactorOrderingEEERNSC_11JacobianSetERNSC_16BlockMatrixArrayEE_clESA_SE_SG_SI_SK_EUlvE_, 
                       __ZTSZZN2gc3est24ImplicitSchurInitialize110kernelFuncEvENKUlNS_4lang4TileENS2_6BufferERNS2_3est8JacobianENS5_14FactorOrderingENS2_6ScalarES4_S4_E_clES3_S4_S7_S8_S9_S4_S4_EUlNS_4ExprESB_E_, 
                       __ZTSZZN2gc3est24ImplicitSchurInitialize110kernelFuncEvENKUlNS_4lang4TileENS2_6BufferERNS2_3est8JacobianENS5_14FactorOrderingENS2_6ScalarES4_S4_E_clES3_S4_S7_S8_S9_S4_S4_EUlT_E0_, 
                       __ZTSZZN2gc3est24ImplicitSchurInitialize110kernelFuncEvENKUlNS_4lang4TileENS2_6BufferERNS2_3est8JacobianENS5_14FactorOrderingENS2_6ScalarES4_S4_E_clES3_S4_S7_S8_S9_S4_S4_EUlT_E_, 
                       __ZTSZZN2gc3est24ImplicitSchurInitialize110kernelFuncEvENKUlNS_4lang4TileENS2_6BufferERNS2_3est8JacobianENS5_14FactorOrderingENS2_6ScalarES4_S4_E_clES3_S4_S7_S8_S9_S4_S4_EUlvE_, 
                       __ZTSZZN2gc3est24ImplicitSchurInitialize310kernelFuncEvENKUlNS_4lang4TileERNS2_3est8JacobianENS4_14FactorOrderingES7_NS2_6BufferES8_S8_S8_S8_S8_E_clES3_S6_S7_S7_S8_S8_S8_S8_S8_S8_EUlNS_4ExprESA_E_, 
                       __ZTSZZN2gc3est28ImplicitSchurBackSubstitute110kernelFuncERKNSt3__16vectorINS0_13ArgumentGroupENS2_9allocatorIS4_EEEERKNS2_3mapINS2_12basic_stringIcNS2_11char_traitsIcEENS5_IcEEEEjNS2_4lessISF_EENS5_INS2_4pairIKSF_jEEEEEEENKUlNS_4lang4TileERNSP_3est11JacobianSetENSP_5ArrayINSR_14FactorOrderingEEENSU_INSP_6BufferEEESY_SX_E_clESQ_ST_SW_SY_SY_SX_EUlvE_, 
                       __ZTSZZN2gc3est28SchurDampAndInvertEliminated10kernelFuncEvENKUlNS_4lang4TileERNS2_6ScalarENS2_6BufferEE_clES3_S5_S6_EUlT_E0_, 
                       __ZTSZZN2gc3est28SchurDampAndInvertEliminated10kernelFuncEvENKUlNS_4lang4TileERNS2_6ScalarENS2_6BufferEE_clES3_S5_S6_EUlT_E_, 
                       __ZTSZZN2gc3est28SchurDampAndInvertEliminated10kernelFuncEvENKUlNS_4lang4TileERNS2_6ScalarENS2_6BufferEE_clES3_S5_S6_EUlvE_, 
                       __ZTSZZN2gc3est33ApplyAdditiveLMDampingToDiagonals10kernelFuncEvENKUlNS_4lang4TileENS2_6ScalarENS2_6BufferES5_E_clES3_S4_S5_S5_EUlT_E_, 
                       __ZTSZZN2gc3est39ApplyMultiplicativeLMDampingToDiagonals10kernelFuncEvENKUlNS_4lang4TileENS2_6ScalarENS2_6BufferES5_E_clES3_S4_S5_S5_EUlT_E_, 
                       __ZTSZZN2gc3ops10SSIMOpGrad6kernelEvENKUlNS_4lang4TileENS2_6BufferES4_S4_NS2_6VectorES4_S4_E_clES3_S4_S4_S4_S5_S4_S4_EUlT_E0_, 
                       __ZTSZZN2gc3ops10SSIMOpGrad6kernelEvENKUlNS_4lang4TileENS2_6BufferES4_S4_NS2_6VectorES4_S4_E_clES3_S4_S4_S4_S5_S4_S4_EUlT_E_, 
                       __ZTSZZN2gc3ops20SSIMOpPreprocessGrad6kernelEvENKUlNS_4lang4TileENS2_6BufferES4_NS2_6VectorES4_E_clES3_S4_S4_S5_S4_EUlT_E0_, 
                       __ZTSZZN2gc3ops20SSIMOpPreprocessGrad6kernelEvENKUlNS_4lang4TileENS2_6BufferES4_NS2_6VectorES4_E_clES3_S4_S4_S5_S4_EUlT_E1_, 
                       __ZTSZZN2gc3ops20SSIMOpPreprocessGrad6kernelEvENKUlNS_4lang4TileENS2_6BufferES4_NS2_6VectorES4_E_clES3_S4_S4_S5_S4_EUlT_E_, 
                       __ZTSZZN2gc3ops6SSIMOp6kernelEvENKUlNS_4lang4TileENS2_6BufferES4_NS2_6VectorES4_E_clES3_S4_S4_S5_S4_EUlT_E0_, 
                       __ZTSZZN2gc3ops6SSIMOp6kernelEvENKUlNS_4lang4TileENS2_6BufferES4_NS2_6VectorES4_E_clES3_S4_S4_S5_S4_EUlT_E1_, 
                       __ZTSZZN2gc3ops6SSIMOp6kernelEvENKUlNS_4lang4TileENS2_6BufferES4_NS2_6VectorES4_E_clES3_S4_S4_S5_S4_EUlT_E_, 
                       __ZTSZZN2gc4lang3est11BlockMatrix13forEachColumnIZZNS_3est10EvaluateHp19kernelFuncNoOffsetsEvENKUlNS0_4TileERS2_NS0_6BufferES8_E_clES6_S7_S8_S8_EUlNS_4ExprENS0_6MatrixEE_EEvRKSA_OT_ENKUlSF_E_clISA_EEDaSF_EUlvE_, 
                       __ZTSZZN2gc4lang3est11BlockMatrix13forEachColumnIZZNS_3est14ExtractDiagJtJ10kernelFuncEvENKUlNS0_4TileERS2_NS0_6BufferES8_S8_E_clES6_S7_S8_S8_S8_EUlNS_4ExprENS0_6MatrixEE_EEvRKSA_OT_ENKUlSF_E_clISA_EEDaSF_EUlvE_, 
                       __ZTSZZN2gc4lang3est11BlockMatrix13forEachColumnIZZNS_3est14ExtractDiagJtJ19kernelFuncNoOffsetsEvENKUlNS0_4TileERS2_NS0_6BufferES8_E_clES6_S7_S8_S8_EUlNS_4ExprENS0_6MatrixEE_EEvRKSA_OT_ENKUlSF_E_clISA_EEDaSF_EUlvE_, 
                       __ZTSZZN2gc4lang3est11BlockMatrix13forEachColumnIZZNS_3est17SymmetrizeDiagJtJ10kernelFuncEvENKUlNS0_4TileERS2_E_clES6_S7_EUlNS_4ExprENS0_6MatrixEE_EEvRKS9_OT_ENKUlSE_E_clIS9_EEDaSE_EUlvE_, 
                       __ZTSZZN2gc4lang3est11BlockMatrix13forEachColumnIZZNS_3est30ApplyAdditiveLMDampingExplicit10kernelFuncEvENKUlNS0_4TileENS0_6ScalarERS2_E_clES6_S7_S8_EUlNS_4ExprENS0_6MatrixEE_EEvRKSA_OT_ENKUlSF_E_clISA_EEDaSF_EUlvE_, 
                       __ZTSZZN2gc4lang3est11BlockMatrix13forEachColumnIZZNS_3est36ApplyMultiplicativeLMDampingExplicit10kernelFuncEvENKUlNS0_4TileENS0_6ScalarERS2_E_clES6_S7_S8_EUlNS_4ExprENS0_6MatrixEE_EEvRKSA_OT_ENKUlSF_E_clISA_EEDaSF_EUlvE_, 
                       __ZTSZZN2gc4lang3est11BlockMatrix13forEachColumnIZZZNS_3est10EvaluateHp10kernelFuncEvENKUlNS0_4TileERS2_NS0_6BufferES8_S8_RS8_E_clES6_S7_S8_S8_S8_S9_ENKUlvE_clEvEUlNS_4ExprENS0_6MatrixEE_EEvRKSC_OT_ENKUlSH_E_clISC_EEDaSH_EUlvE_, 
                       __ZTSZZNK2gc4lang9tensorops11UnaryOpImplclENS0_6TensorEENKUlvE0_clEvEUlT_E_, 
                       __ZTSZZNK2gc4lang9tensorops12BinaryOpImplclENS0_6TensorES3_ENKUlvE0_clEvEUlT_E_, 
                       __ZTSZZNK2gc4lang9tensorops12BinaryOpImplclENS0_6TensorES3_ENKUlvE1_clEvEUlS3_E0_, 
                       __ZTSZZNK2gc4lang9tensorops12BinaryOpImplclENS0_6TensorES3_ENKUlvE1_clEvEUlS3_E_, 
                       __ZTSZZZN2gc3est10EvaluateJp18kernelFuncVariadicEjENKUlNS_4lang4TileERNS2_3est14FactorOrderingENS2_6BufferERNS4_8JacobianES7_S7_E_clES3_S6_S7_S9_S7_S7_ENKUlNS_4ExprEE_clESB_EUlvE_, 
                       __ZTSZZZN2gc3est11EvaluateJtJ18kernelFuncDiagonalEvENKUlNS_4lang4TileENS2_3est13BlockOrderingENS4_14FactorOrderingERNS4_8JacobianERNS4_11BlockMatrixEE_clES3_S5_S6_S8_SA_ENKUlNS_4ExprEE_clESC_EUlSC_E_, 
                       __ZTSZZZN2gc3est11EvaluateJtJ21kernelFuncOffDiagonalEvENKUlNS_4lang4TileENS2_3est13BlockOrderingENS2_5ArrayINS4_14FactorOrderingEEERNS4_11JacobianSetERNS4_11BlockMatrixEE_clES3_S5_S8_SA_SC_ENKUlNS_4ExprEE_clESE_EUlSE_E_, 
                       __ZTSZZZN2gc3est12InvertBlockM10kernelFuncEvENKUlNS_4lang4TileENS2_6BufferES4_E_clES3_S4_S4_ENKUlvE0_clEvEUlT_E_, 
                       __ZTSZZZN2gc3est14ExtractDiagJtJ10kernelFuncEvENKUlNS_4lang4TileERNS2_3est11BlockMatrixENS2_6BufferES7_S7_E_clES3_S6_S7_S7_S7_ENKUlNS_4ExprENS2_6MatrixEE_clES9_SA_EUlvE_, 
                       __ZTSZZZN2gc3est14ExtractDiagJtJ19kernelFuncNoOffsetsEvENKUlNS_4lang4TileERNS2_3est11BlockMatrixENS2_6BufferES7_E_clES3_S6_S7_S7_ENKUlNS_4ExprENS2_6MatrixEE_clES9_SA_EUlvE_, 
                       __ZTSZZZN2gc3est14SchurLinearize16factorKernelFuncERKNSt3__16vectorINS0_13ArgumentGroupENS2_9allocatorIS4_EEEERKNS2_3mapINS2_12basic_stringIcNS2_11char_traitsIcEENS5_IcEEEEjNS2_4lessISF_EENS5_INS2_4pairIKSF_jEEEEEEbENKUlNS_4lang4TileENSP_6BufferENSP_3est6FactorERNSS_11JacobianSetENSP_5ArrayISR_EENSW_INSS_14FactorOrderingEEERNSS_16BlockMatrixArrayESX_E_clESQ_SR_ST_SV_SX_SZ_S11_SX_ENKUlvE_clEvEUlNS_4ExprEE_, 
                       __ZTSZZZN2gc3est14SchurLinearize28eliminatedVariableKernelFuncERKNSt3__16vectorINS0_13ArgumentGroupENS2_9allocatorIS4_EEEERKNS2_3mapINS2_12basic_stringIcNS2_11char_traitsIcEENS5_IcEEEEjNS2_4lessISF_EENS5_INS2_4pairIKSF_jEEEEEEbENKUlNS_4lang4TileENSP_6BufferERNSP_3est8JacobianENSS_6FactorERNSS_11JacobianSetERNSS_14FactorOrderingENSP_5ArrayISR_EENS10_ISY_EERNSS_16BlockMatrixArrayENSS_22SchurEliminatedHessianES11_SR_SR_E_clESQ_SR_SU_SV_SX_SZ_S11_S12_S14_S15_S11_SR_SR_ENKUlNS_4ExprEE_clES17_EUlS17_E_, 
                       __ZTSZZZN2gc3est17SchurOuterProduct27schurOuterProductKernelFuncERKNSt3__16vectorINS0_13ArgumentGroupENS2_9allocatorIS4_EEEERKNS2_3mapINS2_12basic_stringIcNS2_11char_traitsIcEENS5_IcEEEEjNS2_4lessISF_EENS5_INS2_4pairIKSF_jEEEEEEbENKUlNS_4lang4TileENSP_3est6FactorERNSR_14FactorOrderingENSP_5ArrayINSP_6BufferEEERNSR_16BlockMatrixArrayENSR_22SchurEliminatedHessianESX_SW_SW_E_clESQ_SS_SU_SX_SZ_S10_SX_SW_SW_ENKUlNS_4ExprEE_clES12_EUlvE_, 
                       __ZTSZZZN2gc3est17SymmetrizeDiagJtJ10kernelFuncEvENKUlNS_4lang4TileERNS2_3est11BlockMatrixEE_clES3_S6_ENKUlNS_4ExprENS2_6MatrixEE_clES8_S9_EUlvE_, 
                       __ZTSZZZN2gc3est18ImplicitSchurJtJp218kernelFuncVariadicEjENKUlNS_4lang4TileERNS2_3est8JacobianENS4_14FactorOrderingENS2_6BufferES8_S8_S8_E_clES3_S6_S7_S8_S8_S8_S8_ENKUlNS_4ExprEE_clESA_EUlvE_, 
                       __ZTSZZZN2gc3est20MaterializeJacobians10kernelFuncERKNS0_16ArgumentGroupingERKNSt3__16vectorINS0_13eJacobianTypeENS5_9allocatorIS7_EEEEENKUlNS_4lang4TileENSD_3est6FactorENSD_6BufferESH_SH_NSD_5ArrayINSF_14FactorOrderingEEENSF_11VariableSetENSI_ISH_EESM_NSD_17BindableTypeArrayEE_clESE_SG_SH_SH_SH_SK_SL_SM_SM_SN_ENKUlvE0_clEvEUlNS_4ExprEE_, 
                       __ZTSZZZN2gc3est20MaterializeJacobians10kernelFuncERKNS0_16ArgumentGroupingERKNSt3__16vectorINS0_13eJacobianTypeENS5_9allocatorIS7_EEEEENKUlNS_4lang4TileENSD_3est6FactorENSD_6BufferESH_SH_NSD_5ArrayINSF_14FactorOrderingEEENSF_11VariableSetENSI_ISH_EESM_NSD_17BindableTypeArrayEE_clESE_SG_SH_SH_SH_SK_SL_SM_SM_SN_ENKUlvE1_clEvEUlvE_, 
                       __ZTSZZZN2gc3est20MaterializeJacobians10kernelFuncERKNS0_16ArgumentGroupingERKNSt3__16vectorINS0_13eJacobianTypeENS5_9allocatorIS7_EEEEENKUlNS_4lang4TileENSD_3est6FactorENSD_6BufferESH_SH_NSD_5ArrayINSF_14FactorOrderingEEENSF_11VariableSetENSI_ISH_EESM_NSD_17BindableTypeArrayEE_clESE_SG_SH_SH_SH_SK_SL_SM_SM_SN_ENKUlvE_clEvEUlNS_4ExprEE_, 
                       __ZTSZZZN2gc3est20SchurBackSubstitute110kernelFuncERKNSt3__16vectorINS0_13ArgumentGroupENS2_9allocatorIS4_EEEERKNS2_3mapINS2_12basic_stringIcNS2_11char_traitsIcEENS5_IcEEEEjNS2_4lessISF_EENS5_INS2_4pairIKSF_jEEEEEEbENKUlNS_4lang4TileENSP_6BufferENSP_5ArrayISR_EEST_NSP_3est6FactorERNSU_14FactorOrderingENSU_22SchurEliminatedHessianESR_E_clESQ_SR_ST_ST_SV_SX_SY_SR_ENKUlNS_4ExprEE_clES10_EUlvE_, 
                       __ZTSZZZN2gc3est24ImplicitSchurInitialize310kernelFuncEvENKUlNS_4lang4TileERNS2_3est8JacobianENS4_14FactorOrderingES7_NS2_6BufferES8_S8_S8_S8_S8_E_clES3_S6_S7_S7_S8_S8_S8_S8_S8_S8_ENKUlNS_4ExprESA_E_clESA_SA_EUlSA_E_, 
                       __ZTSZZZN2gc3est28ImplicitSchurBackSubstitute110kernelFuncERKNSt3__16vectorINS0_13ArgumentGroupENS2_9allocatorIS4_EEEERKNS2_3mapINS2_12basic_stringIcNS2_11char_traitsIcEENS5_IcEEEEjNS2_4lessISF_EENS5_INS2_4pairIKSF_jEEEEEEENKUlNS_4lang4TileERNSP_3est11JacobianSetENSP_5ArrayINSR_14FactorOrderingEEENSU_INSP_6BufferEEESY_SX_E_clESQ_ST_SW_SY_SY_SX_ENKUlvE_clEvEUlNS_4ExprEE_, 
                       __ZTSZZZN2gc3est30ApplyAdditiveLMDampingExplicit10kernelFuncEvENKUlNS_4lang4TileENS2_6ScalarERNS2_3est11BlockMatrixEE_clES3_S4_S7_ENKUlNS_4ExprENS2_6MatrixEE_clES9_SA_EUlvE_, 
                       __ZTSZZZN2gc3est36ApplyMultiplicativeLMDampingExplicit10kernelFuncEvENKUlNS_4lang4TileENS2_6ScalarERNS2_3est11BlockMatrixEE_clES3_S4_S7_ENKUlNS_4ExprENS2_6MatrixEE_clES9_SA_EUlvE_, 
                       __ZTSZZZN2gc3ops10SSIMOpGrad6kernelEvENKUlNS_4lang4TileENS2_6BufferES4_S4_NS2_6VectorES4_S4_E_clES3_S4_S4_S4_S5_S4_S4_ENKUlT_E0_clINS_4ExprEEEDaS7_EUlS7_E_, 
                       __ZTSZZZN2gc3ops10SSIMOpGrad6kernelEvENKUlNS_4lang4TileENS2_6BufferES4_S4_NS2_6VectorES4_S4_E_clES3_S4_S4_S4_S5_S4_S4_ENKUlT_E_clINS_4ExprEEEDaS7_EUlS7_E_, 
                       __ZTSZZZN2gc3ops20SSIMOpPreprocessGrad6kernelEvENKUlNS_4lang4TileENS2_6BufferES4_NS2_6VectorES4_E_clES3_S4_S4_S5_S4_ENKUlT_E0_clINS_4ExprEEEDaS7_EUlS7_E_, 
                       __ZTSZZZN2gc3ops20SSIMOpPreprocessGrad6kernelEvENKUlNS_4lang4TileENS2_6BufferES4_NS2_6VectorES4_E_clES3_S4_S4_S5_S4_ENKUlT_E1_clINS_4ExprEEEDaS7_EUlS7_E_, 
                       __ZTSZZZN2gc3ops20SSIMOpPreprocessGrad6kernelEvENKUlNS_4lang4TileENS2_6BufferES4_NS2_6VectorES4_E_clES3_S4_S4_S5_S4_ENKUlT_E_clINS_4ExprEEEDaS7_EUlS7_E_, 
                       __ZTSZZZN2gc3ops6SSIMOp6kernelEvENKUlNS_4lang4TileENS2_6BufferES4_NS2_6VectorES4_E_clES3_S4_S4_S5_S4_ENKUlT_E0_clINS_4ExprEEEDaS7_EUlS7_E_, 
                       __ZTSZZZN2gc3ops6SSIMOp6kernelEvENKUlNS_4lang4TileENS2_6BufferES4_NS2_6VectorES4_E_clES3_S4_S4_S5_S4_ENKUlT_E1_clINS_4ExprEEEDaS7_EUlS7_E_, 
                       __ZTSZZZN2gc3ops6SSIMOp6kernelEvENKUlNS_4lang4TileENS2_6BufferES4_NS2_6VectorES4_E_clES3_S4_S4_S5_S4_ENKUlT_E_clINS_4ExprEEEDaS7_EUlS7_E_, 
                       __ZTSZZZZN2gc3est10EvaluateHp10kernelFuncEvENKUlNS_4lang4TileERNS2_3est11BlockMatrixENS2_6BufferES7_S7_RS7_E_clES3_S6_S7_S7_S7_S8_ENKUlvE_clEvENKUlNS_4ExprENS2_6MatrixEE_clESB_SC_EUlvE_, 
                       __ZTSZZZZN2gc3est11EvaluateJtJ21kernelFuncOffDiagonalEvENKUlNS_4lang4TileENS2_3est13BlockOrderingENS2_5ArrayINS4_14FactorOrderingEEERNS4_11JacobianSetERNS4_11BlockMatrixEE_clES3_S5_S8_SA_SC_ENKUlNS_4ExprEE_clESE_ENKUlSE_E_clESE_EUlvE_, 
                       __ZTSZZZZN2gc3est14ExtractDiagJtJ10kernelFuncEvENKUlNS_4lang4TileERNS2_3est11BlockMatrixENS2_6BufferES7_S7_E_clES3_S6_S7_S7_S7_ENKUlNS_4ExprENS2_6MatrixEE_clES9_SA_ENKUlvE_clEvEUlvE_, 
                       __ZTSZZZZN2gc3est14SchurLinearize16factorKernelFuncERKNSt3__16vectorINS0_13ArgumentGroupENS2_9allocatorIS4_EEEERKNS2_3mapINS2_12basic_stringIcNS2_11char_traitsIcEENS5_IcEEEEjNS2_4lessISF_EENS5_INS2_4pairIKSF_jEEEEEEbENKUlNS_4lang4TileENSP_6BufferENSP_3est6FactorERNSS_11JacobianSetENSP_5ArrayISR_EENSW_INSS_14FactorOrderingEEERNSS_16BlockMatrixArrayESX_E_clESQ_SR_ST_SV_SX_SZ_S11_SX_ENKUlvE_clEvENKUlNS_4ExprEE_clES14_EUlvE_, 
                       __ZTSZZZZN2gc3est14SchurLinearize28eliminatedVariableKernelFuncERKNSt3__16vectorINS0_13ArgumentGroupENS2_9allocatorIS4_EEEERKNS2_3mapINS2_12basic_stringIcNS2_11char_traitsIcEENS5_IcEEEEjNS2_4lessISF_EENS5_INS2_4pairIKSF_jEEEEEEbENKUlNS_4lang4TileENSP_6BufferERNSP_3est8JacobianENSS_6FactorERNSS_11JacobianSetERNSS_14FactorOrderingENSP_5ArrayISR_EENS10_ISY_EERNSS_16BlockMatrixArrayENSS_22SchurEliminatedHessianES11_SR_SR_E_clESQ_SR_SU_SV_SX_SZ_S11_S12_S14_S15_S11_SR_SR_ENKUlNS_4ExprEE_clES17_ENKUlS17_E_clES17_EUlvE_, 
                       __ZTSZZZZN2gc3est17SchurOuterProduct27schurOuterProductKernelFuncERKNSt3__16vectorINS0_13ArgumentGroupENS2_9allocatorIS4_EEEERKNS2_3mapINS2_12basic_stringIcNS2_11char_traitsIcEENS5_IcEEEEjNS2_4lessISF_EENS5_INS2_4pairIKSF_jEEEEEEbENKUlNS_4lang4TileENSP_3est6FactorERNSR_14FactorOrderingENSP_5ArrayINSP_6BufferEEERNSR_16BlockMatrixArrayENSR_22SchurEliminatedHessianESX_SW_SW_E_clESQ_SS_SU_SX_SZ_S10_SX_SW_SW_ENKUlNS_4ExprEE_clES12_ENKUlvE_clEvEUlS12_E_, 
                       __ZTSZZZZN2gc3est18ImplicitSchurJtJp218kernelFuncVariadicEjENKUlNS_4lang4TileERNS2_3est8JacobianENS4_14FactorOrderingENS2_6BufferES8_S8_S8_E_clES3_S6_S7_S8_S8_S8_S8_ENKUlNS_4ExprEE_clESA_ENKUlvE_clEvEUlvE_, 
                       __ZTSZZZZN2gc3est20MaterializeJacobians10kernelFuncERKNS0_16ArgumentGroupingERKNSt3__16vectorINS0_13eJacobianTypeENS5_9allocatorIS7_EEEEENKUlNS_4lang4TileENSD_3est6FactorENSD_6BufferESH_SH_NSD_5ArrayINSF_14FactorOrderingEEENSF_11VariableSetENSI_ISH_EESM_NSD_17BindableTypeArrayEE_clESE_SG_SH_SH_SH_SK_SL_SM_SM_SN_ENKUlvE0_clEvENKUlNS_4ExprEE_clESQ_EUlvE_, 
                       __ZTSZZZZN2gc3est20MaterializeJacobians10kernelFuncERKNS0_16ArgumentGroupingERKNSt3__16vectorINS0_13eJacobianTypeENS5_9allocatorIS7_EEEEENKUlNS_4lang4TileENSD_3est6FactorENSD_6BufferESH_SH_NSD_5ArrayINSF_14FactorOrderingEEENSF_11VariableSetENSI_ISH_EESM_NSD_17BindableTypeArrayEE_clESE_SG_SH_SH_SH_SK_SL_SM_SM_SN_ENKUlvE_clEvENKUlNS_4ExprEE_clESQ_EUlvE_, 
                       __ZTSZZZZN2gc3est24ImplicitSchurInitialize310kernelFuncEvENKUlNS_4lang4TileERNS2_3est8JacobianENS4_14FactorOrderingES7_NS2_6BufferES8_S8_S8_S8_S8_E_clES3_S6_S7_S7_S8_S8_S8_S8_S8_S8_ENKUlNS_4ExprESA_E_clESA_SA_ENKUlSA_E_clESA_EUlvE0_, 
                       __ZTSZZZZN2gc3est24ImplicitSchurInitialize310kernelFuncEvENKUlNS_4lang4TileERNS2_3est8JacobianENS4_14FactorOrderingES7_NS2_6BufferES8_S8_S8_S8_S8_E_clES3_S6_S7_S7_S8_S8_S8_S8_S8_S8_ENKUlNS_4ExprESA_E_clESA_SA_ENKUlSA_E_clESA_EUlvE_, 
                       __ZTSZZZZN2gc3est30ApplyAdditiveLMDampingExplicit10kernelFuncEvENKUlNS_4lang4TileENS2_6ScalarERNS2_3est11BlockMatrixEE_clES3_S4_S7_ENKUlNS_4ExprENS2_6MatrixEE_clES9_SA_ENKUlvE_clEvEUlT_E_, 
                       __ZTSZZZZN2gc3est36ApplyMultiplicativeLMDampingExplicit10kernelFuncEvENKUlNS_4lang4TileENS2_6ScalarERNS2_3est11BlockMatrixEE_clES3_S4_S7_ENKUlNS_4ExprENS2_6MatrixEE_clES9_SA_ENKUlvE_clEvEUlT_E_, 
                       __ZTSZZZZN2gc3ops10SSIMOpGrad6kernelEvENKUlNS_4lang4TileENS2_6BufferES4_S4_NS2_6VectorES4_S4_E_clES3_S4_S4_S4_S5_S4_S4_ENKUlT_E_clINS_4ExprEEEDaS7_ENKUlS7_E_clISA_EESB_S7_EUlvE_, 
                       __ZTSZZZZN2gc3ops20SSIMOpPreprocessGrad6kernelEvENKUlNS_4lang4TileENS2_6BufferES4_NS2_6VectorES4_E_clES3_S4_S4_S5_S4_ENKUlT_E_clINS_4ExprEEEDaS7_ENKUlS7_E_clISA_EESB_S7_EUlvE_, 
                       __ZTSZZZZN2gc3ops6SSIMOp6kernelEvENKUlNS_4lang4TileENS2_6BufferES4_NS2_6VectorES4_E_clES3_S4_S4_S5_S4_ENKUlT_E_clINS_4ExprEEEDaS7_ENKUlS7_E_clISA_EESB_S7_EUlvE_, 
                       __ZTSZZZZZN2gc3est11EvaluateJtJ21kernelFuncOffDiagonalEvENKUlNS_4lang4TileENS2_3est13BlockOrderingENS2_5ArrayINS4_14FactorOrderingEEERNS4_11JacobianSetERNS4_11BlockMatrixEE_clES3_S5_S8_SA_SC_ENKUlNS_4ExprEE_clESE_ENKUlSE_E_clESE_ENKUlvE_clEvEUlSE_E_, 
                       __ZTSZZZZZN2gc3est14SchurLinearize16factorKernelFuncERKNSt3__16vectorINS0_13ArgumentGroupENS2_9allocatorIS4_EEEERKNS2_3mapINS2_12basic_stringIcNS2_11char_traitsIcEENS5_IcEEEEjNS2_4lessISF_EENS5_INS2_4pairIKSF_jEEEEEEbENKUlNS_4lang4TileENSP_6BufferENSP_3est6FactorERNSS_11JacobianSetENSP_5ArrayISR_EENSW_INSS_14FactorOrderingEEERNSS_16BlockMatrixArrayESX_E_clESQ_SR_ST_SV_SX_SZ_S11_SX_ENKUlvE_clEvENKUlNS_4ExprEE_clES14_ENKUlvE_clEvEUlS14_E_, 
                       __ZTSZZZZZN2gc3est14SchurLinearize28eliminatedVariableKernelFuncERKNSt3__16vectorINS0_13ArgumentGroupENS2_9allocatorIS4_EEEERKNS2_3mapINS2_12basic_stringIcNS2_11char_traitsIcEENS5_IcEEEEjNS2_4lessISF_EENS5_INS2_4pairIKSF_jEEEEEEbENKUlNS_4lang4TileENSP_6BufferERNSP_3est8JacobianENSS_6FactorERNSS_11JacobianSetERNSS_14FactorOrderingENSP_5ArrayISR_EENS10_ISY_EERNSS_16BlockMatrixArrayENSS_22SchurEliminatedHessianES11_SR_SR_E_clESQ_SR_SU_SV_SX_SZ_S11_S12_S14_S15_S11_SR_SR_ENKUlNS_4ExprEE_clES17_ENKUlS17_E_clES17_ENKUlvE_clEvEUlvE_, 
                       __ZTSZZZZZN2gc3est17SchurOuterProduct27schurOuterProductKernelFuncERKNSt3__16vectorINS0_13ArgumentGroupENS2_9allocatorIS4_EEEERKNS2_3mapINS2_12basic_stringIcNS2_11char_traitsIcEENS5_IcEEEEjNS2_4lessISF_EENS5_INS2_4pairIKSF_jEEEEEEbENKUlNS_4lang4TileENSP_3est6FactorERNSR_14FactorOrderingENSP_5ArrayINSP_6BufferEEERNSR_16BlockMatrixArrayENSR_22SchurEliminatedHessianESX_SW_SW_E_clESQ_SS_SU_SX_SZ_S10_SX_SW_SW_ENKUlNS_4ExprEE_clES12_ENKUlvE_clEvENKUlS12_E_clES12_EUlvE_, 
                       __ZTSZZZZZN2gc3est22EvaluateJtJFactorLevel10kernelFuncERKNSt3__16vectorIjNS2_9allocatorIjEEEEENKUlNS_4lang4TileENS9_5ArrayINS9_3est13BlockOrderingEEENSB_INSC_14FactorOrderingEEERNSC_11JacobianSetERNSC_16BlockMatrixArrayEE_clESA_SE_SG_SI_SK_ENKUlvE_clEvENKUlNS_5TupleENS_4ExprEE_clESN_SO_ENKUlSO_E_clESO_EUlSO_E_, 
                       __ZTSZZZZZZN2gc3est11EvaluateJtJ21kernelFuncOffDiagonalEvENKUlNS_4lang4TileENS2_3est13BlockOrderingENS2_5ArrayINS4_14FactorOrderingEEERNS4_11JacobianSetERNS4_11BlockMatrixEE_clES3_S5_S8_SA_SC_ENKUlNS_4ExprEE_clESE_ENKUlSE_E_clESE_ENKUlvE_clEvENKUlSE_E_clESE_EUlvE_, 
                       __ZTSZZZZZZN2gc3est14SchurLinearize16factorKernelFuncERKNSt3__16vectorINS0_13ArgumentGroupENS2_9allocatorIS4_EEEERKNS2_3mapINS2_12basic_stringIcNS2_11char_traitsIcEENS5_IcEEEEjNS2_4lessISF_EENS5_INS2_4pairIKSF_jEEEEEEbENKUlNS_4lang4TileENSP_6BufferENSP_3est6FactorERNSS_11JacobianSetENSP_5ArrayISR_EENSW_INSS_14FactorOrderingEEERNSS_16BlockMatrixArrayESX_E_clESQ_SR_ST_SV_SX_SZ_S11_SX_ENKUlvE_clEvENKUlNS_4ExprEE_clES14_ENKUlvE_clEvENKUlS14_E_clES14_EUlvE_, 
                       __ZTSZZZZZZN2gc3est14SchurLinearize28eliminatedVariableKernelFuncERKNSt3__16vectorINS0_13ArgumentGroupENS2_9allocatorIS4_EEEERKNS2_3mapINS2_12basic_stringIcNS2_11char_traitsIcEENS5_IcEEEEjNS2_4lessISF_EENS5_INS2_4pairIKSF_jEEEEEEbENKUlNS_4lang4TileENSP_6BufferERNSP_3est8JacobianENSS_6FactorERNSS_11JacobianSetERNSS_14FactorOrderingENSP_5ArrayISR_EENS10_ISY_EERNSS_16BlockMatrixArrayENSS_22SchurEliminatedHessianES11_SR_SR_E_clESQ_SR_SU_SV_SX_SZ_S11_S12_S14_S15_S11_SR_SR_ENKUlNS_4ExprEE_clES17_ENKUlS17_E_clES17_ENKUlvE_clEvENKUlvE_clEvEUlvE_, 
                       __ZTSZZZZZZN2gc3est17SchurOuterProduct27schurOuterProductKernelFuncERKNSt3__16vectorINS0_13ArgumentGroupENS2_9allocatorIS4_EEEERKNS2_3mapINS2_12basic_stringIcNS2_11char_traitsIcEENS5_IcEEEEjNS2_4lessISF_EENS5_INS2_4pairIKSF_jEEEEEEbENKUlNS_4lang4TileENSP_3est6FactorERNSR_14FactorOrderingENSP_5ArrayINSP_6BufferEEERNSR_16BlockMatrixArrayENSR_22SchurEliminatedHessianESX_SW_SW_E_clESQ_SS_SU_SX_SZ_S10_SX_SW_SW_ENKUlNS_4ExprEE_clES12_ENKUlvE_clEvENKUlS12_E_clES12_ENKUlvE_clEvEUlvE_, 
                       __ZTSZZZZZZN2gc3est22EvaluateJtJFactorLevel10kernelFuncERKNSt3__16vectorIjNS2_9allocatorIjEEEEENKUlNS_4lang4TileENS9_5ArrayINS9_3est13BlockOrderingEEENSB_INSC_14FactorOrderingEEERNSC_11JacobianSetERNSC_16BlockMatrixArrayEE_clESA_SE_SG_SI_SK_ENKUlvE_clEvENKUlNS_5TupleENS_4ExprEE_clESN_SO_ENKUlSO_E_clESO_ENKUlSO_E_clESO_EUlSO_E_, 
                       __ZTSZZZZZZZN2gc3est14SchurLinearize28eliminatedVariableKernelFuncERKNSt3__16vectorINS0_13ArgumentGroupENS2_9allocatorIS4_EEEERKNS2_3mapINS2_12basic_stringIcNS2_11char_traitsIcEENS5_IcEEEEjNS2_4lessISF_EENS5_INS2_4pairIKSF_jEEEEEEbENKUlNS_4lang4TileENSP_6BufferERNSP_3est8JacobianENSS_6FactorERNSS_11JacobianSetERNSS_14FactorOrderingENSP_5ArrayISR_EENS10_ISY_EERNSS_16BlockMatrixArrayENSS_22SchurEliminatedHessianES11_SR_SR_E_clESQ_SR_SU_SV_SX_SZ_S11_S12_S14_S15_S11_SR_SR_ENKUlNS_4ExprEE_clES17_ENKUlS17_E_clES17_ENKUlvE_clEvENKUlvE_clEvENKUlvE_clEvEUlS17_E_ ]
  - targets:         [ x86_64-macos, arm64-macos, arm64e-macos ]
    symbols:         [ __ZN2gc10CoreLogger15minimumSeverityEv, __ZN2gc10CoreLogger18setMinimumSeverityENS_6Logger9eSeverityE, 
                       __ZN2gc10CoreLogger3logENS_6Logger9eSeverityEPKcz, __ZN2gc10CoreLogger8instanceEv, 
                       __ZN2gc10CoreLoggerC1Ev, __ZN2gc10CoreLoggerC2Ev, __ZN2gc10FileTargetC1EPKcbb, 
                       __ZN2gc10FileTargetC2EPKcbb, __ZN2gc10FileTargetD0Ev, __ZN2gc10FileTargetD1Ev, 
                       __ZN2gc10FileTargetD2Ev, __ZN2gc10asConstIntERKNS_4ExprE, 
                       __ZN2gc10fromStringERKNSt3__112basic_stringIcNS0_11char_traitsIcEENS0_9allocatorIcEEEER17loopkit_rt_type_t, 
                       __ZN2gc10isConstantERK22loopkit_rt_dimension_t, __ZN2gc10isIntegralERK17loopkit_rt_type_t, 
                       __ZN2gc10loadBufferERKNSt3__14__fs10filesystem4pathENS0_10shared_ptrINS_6BufferEEE, 
                       __ZN2gc10loadBufferERKNSt3__14__fs10filesystem4pathERKNS0_12basic_stringIcNS0_11char_traitsIcEENS0_9allocatorIcEEEENS0_10shared_ptrINS_6BufferEEE, 
                       __ZN2gc10logicalAndENS_4ExprES0_, __ZN2gc10logicalNotENS_4ExprE, 
                       __ZN2gc10noOpKernelERKNSt3__112basic_stringIcNS0_11char_traitsIcEENS0_9allocatorIcEEEE, 
                       __ZN2gc10parseStageERKNS_5StageE, __ZN2gc10saveBufferERKNSt3__14__fs10filesystem4pathENS0_10shared_ptrINS_6BufferEEE, 
                       __ZN2gc10saveBufferERKNSt3__14__fs10filesystem4pathERKNS0_12basic_stringIcNS0_11char_traitsIcEENS0_9allocatorIcEEEENS0_10shared_ptrINS_6BufferEEE, 
                       __ZN2gc10sortSourceEv, __ZN2gc10substituteENS_4ExprES0_NS_4StmtE, 
                       __ZN2gc10uniqueNameERKNSt3__112basic_stringIcNS0_11char_traitsIcEENS0_9allocatorIcEEEE, 
                       __ZN2gc10uniqueNameEc, __ZN2gc10warpSourceEv, __ZN2gc11AOTRegistry12programTableERKNSt3__112basic_stringIcNS1_11char_traitsIcEENS1_9allocatorIcEEEE, 
                       __ZN2gc11AOTRegistry17registerFunctionsERKNSt3__13mapINS1_12basic_stringIcNS1_11char_traitsIcEENS1_9allocatorIcEEEENS1_8functionIFiPPvEEENS1_4lessIS8_EENS6_INS1_4pairIKS8_SD_EEEEEE, 
                       __ZN2gc11AOTRegistry20registerProgramTableERKNS_15AOTProgramTableE, 
                       __ZN2gc11AOTRegistry5clearEv, __ZN2gc11AOTRegistry8functionERKNSt3__112basic_stringIcNS1_11char_traitsIcEENS1_9allocatorIcEEEE, 
                       __ZN2gc11AOTRegistry8instanceEv, __ZN2gc11BoundBuffer12setTemporaryEb, 
                       __ZN2gc11BoundBuffer17attachAndRegisterERKNSt3__112basic_stringIcNS1_11char_traitsIcEENS1_9allocatorIcEEEENS1_10shared_ptrINS_6BufferEEE, 
                       __ZN2gc11BoundBuffer6attachENSt3__110shared_ptrINS_6BufferEEE, 
                       __ZN2gc11BoundBuffer6detachEv, __ZN2gc11BoundBufferC1ENSt3__110shared_ptrINS_6BufferEEE, 
                       __ZN2gc11BoundBufferC1Ev, __ZN2gc11BoundBufferC2ENSt3__110shared_ptrINS_6BufferEEE, 
                       __ZN2gc11BoundBufferC2Ev, __ZN2gc11CompilerLog5EntryC1ENS0_9eSeverityERKNSt3__112basic_stringIcNS3_11char_traitsIcEENS3_9allocatorIcEEEE, 
                       __ZN2gc11CompilerLog5EntryC2ENS0_9eSeverityERKNSt3__112basic_stringIcNS3_11char_traitsIcEENS3_9allocatorIcEEEE, 
                       __ZN2gc11CompilerLog5clearEv, __ZN2gc11CompilerLog8addEntryENS0_9eSeverityERKNSt3__112basic_stringIcNS2_11char_traitsIcEENS2_9allocatorIcEEEE, 
                       __ZN2gc11CompilerLog8instanceEv, __ZN2gc11Environment18defaultSandboxPathEv, 
                       __ZN2gc11Environment19defaultMetalLibPathEv, __ZN2gc11Environment19defaultResourcePathEv, 
                       __ZN2gc11EnvironmentC1Ev, __ZN2gc11EnvironmentC2Ev, __ZN2gc11ExtentExprsC1ENS_4util9TaggedIntIjNS_19ExtentsDimensionTagEEENS_4ExprENS_9eOrderingE, 
                       __ZN2gc11ExtentExprsC1ENS_4util9TaggedIntIjNS_19ExtentsDimensionTagEEENS_9eOrderingE, 
                       __ZN2gc11ExtentExprsC1ENS_9eOrderingE, __ZN2gc11ExtentExprsC1ERKNSt3__16vectorINS_4ExprENS1_9allocatorIS3_EEEENS_9eOrderingE, 
                       __ZN2gc11ExtentExprsC1ESt16initializer_listINS_4ExprEENS_9eOrderingE, 
                       __ZN2gc11ExtentExprsC2ENS_4util9TaggedIntIjNS_19ExtentsDimensionTagEEENS_4ExprENS_9eOrderingE, 
                       __ZN2gc11ExtentExprsC2ENS_4util9TaggedIntIjNS_19ExtentsDimensionTagEEENS_9eOrderingE, 
                       __ZN2gc11ExtentExprsC2ENS_9eOrderingE, __ZN2gc11ExtentExprsC2ERKNSt3__16vectorINS_4ExprENS1_9allocatorIS3_EEEENS_9eOrderingE, 
                       __ZN2gc11ExtentExprsC2ESt16initializer_listINS_4ExprEENS_9eOrderingE, 
                       __ZN2gc11ExtentExprsixEi, __ZN2gc11OsLogTarget12getOsLogTypeENS_6Logger9eSeverityE, 
                       __ZN2gc11TypedIRStmtILNS_9eStmtTypeE0EE4makeERK17loopkit_rt_type_tRKNSt3__112basic_stringIcNS6_11char_traitsIcEENS6_9allocatorIcEEEERKNS_4ExprE, 
                       __ZN2gc11TypedIRStmtILNS_9eStmtTypeE0EE4makeERK17loopkit_rt_type_tRKNSt3__112basic_stringIcNS6_11char_traitsIcEENS6_9allocatorIcEEEERKNS_4ExprEPK19loopkit_rt_buffer_t, 
                       __ZN2gc11TypedIRStmtILNS_9eStmtTypeE0EE4makeERK17loopkit_rt_type_tRKNSt3__112basic_stringIcNS6_11char_traitsIcEENS6_9allocatorIcEEEERKNS_4ExprERK19loopkit_rt_buffer_t, 
                       __ZN2gc11TypedIRStmtILNS_9eStmtTypeE0EEC1ERKNSt3__112basic_stringIcNS3_11char_traitsIcEENS3_9allocatorIcEEEE, 
                       __ZN2gc11TypedIRStmtILNS_9eStmtTypeE0EEC2ERKNSt3__112basic_stringIcNS3_11char_traitsIcEENS3_9allocatorIcEEEE, 
                       __ZN2gc11TypedIRStmtILNS_9eStmtTypeE10EE4makeERKNSt3__112basic_stringIcNS3_11char_traitsIcEENS3_9allocatorIcEEEENS_4ExprENS3_8functionIFvSC_EEE, 
                       __ZN2gc11TypedIRStmtILNS_9eStmtTypeE10EEC1ERKNSt3__112basic_stringIcNS3_11char_traitsIcEENS3_9allocatorIcEEEENS_4ExprENS3_8functionIFvSC_EEE, 
                       __ZN2gc11TypedIRStmtILNS_9eStmtTypeE10EEC2ERKNSt3__112basic_stringIcNS3_11char_traitsIcEENS3_9allocatorIcEEEENS_4ExprENS3_8functionIFvSC_EEE, 
                       __ZN2gc11TypedIRStmtILNS_9eStmtTypeE1EE4makeERKNSt3__112basic_stringIcNS3_11char_traitsIcEENS3_9allocatorIcEEEERKNS_4ExprESE_, 
                       __ZN2gc11TypedIRStmtILNS_9eStmtTypeE1EEC1ERKNSt3__112basic_stringIcNS3_11char_traitsIcEENS3_9allocatorIcEEEERKNS_4ExprESE_, 
                       __ZN2gc11TypedIRStmtILNS_9eStmtTypeE1EEC2ERKNSt3__112basic_stringIcNS3_11char_traitsIcEENS3_9allocatorIcEEEERKNS_4ExprESE_, 
                       __ZN2gc11TypedIRStmtILNS_9eStmtTypeE2EE4makeERKNSt3__112basic_stringIcNS3_11char_traitsIcEENS3_9allocatorIcEEEERKNS3_6vectorINS_4ExprENS7_ISD_EEEERK17loopkit_rt_type_tRKNS_11eMemoryTypeESH_RKSD_, 
                       __ZN2gc11TypedIRStmtILNS_9eStmtTypeE2EEC1ERKNSt3__112basic_stringIcNS3_11char_traitsIcEENS3_9allocatorIcEEEERKNS3_6vectorINS_4ExprENS7_ISD_EEEERK17loopkit_rt_type_tRKNS_11eMemoryTypeESH_RKSD_, 
                       __ZN2gc11TypedIRStmtILNS_9eStmtTypeE2EEC2ERKNSt3__112basic_stringIcNS3_11char_traitsIcEENS3_9allocatorIcEEEERKNS3_6vectorINS_4ExprENS7_ISD_EEEERK17loopkit_rt_type_tRKNS_11eMemoryTypeESH_RKSD_, 
                       __ZN2gc11TypedIRStmtILNS_9eStmtTypeE3EE4makeERKNS_4ExprES5_NSt3__18functionIFvS5_EEERKNS6_12basic_stringIcNS6_11char_traitsIcEENS6_9allocatorIcEEEERKNS_8eForTypeE, 
                       __ZN2gc11TypedIRStmtILNS_9eStmtTypeE3EEC1ERKNS_4ExprES5_NSt3__18functionIFvS5_EEERKNS6_12basic_stringIcNS6_11char_traitsIcEENS6_9allocatorIcEEEERKNS_8eForTypeE, 
                       __ZN2gc11TypedIRStmtILNS_9eStmtTypeE3EEC2ERKNS_4ExprES5_NSt3__18functionIFvS5_EEERKNS6_12basic_stringIcNS6_11char_traitsIcEENS6_9allocatorIcEEEERKNS_8eForTypeE, 
                       __ZN2gc11TypedIRStmtILNS_9eStmtTypeE4EE4makeERKNS_4ExprENSt3__18functionIFvvEEE, 
                       __ZN2gc11TypedIRStmtILNS_9eStmtTypeE4EEC1ERKNS_4ExprENSt3__18functionIFvvEEE, 
                       __ZN2gc11TypedIRStmtILNS_9eStmtTypeE4EEC2ERKNS_4ExprENSt3__18functionIFvvEEE, 
