--- !tapi-tbd
tbd-version:     4
targets:         [ x86_64-macos, arm64-macos, arm64e-macos ]
install-name:    '/System/Library/PrivateFrameworks/PerfPowerServicesReader.framework/Versions/A/PerfPowerServicesReader'
exports:
  - targets:         [ x86_64-macos ]
    weak-symbols:    [ __ZTI12PPSSQLiteRow, __ZTIN3pps18Histogram_InternalE, __ZTIN5boost10wrapexceptINS_7bad_getEEE, 
                       __ZTIN5boost10wrapexceptISt14overflow_errorEE, __ZTIN5boost10wrapexceptISt16invalid_argumentEE, 
                       __ZTIN5boost13serialization25extended_type_info_typeidIN3pps18Histogram_InternalEEE, 
                       __ZTIN5boost13serialization25extended_type_info_typeidINS_7variantINS_9histogram4axis7regularIdNS_11use_defaultES6_S6_EEJNS4_8variableIdS6_S6_NSt3__19allocatorIdEEEENS4_7integerIiS6_NS4_6option3bitILj1EEEEEEEEEE, 
                       __ZTIN5boost13serialization25extended_type_info_typeidINS_9histogram17unlimited_storageINSt3__19allocatorIcEEEEEE, 
                       __ZTIN5boost13serialization25extended_type_info_typeidINS_9histogram4axis7integerIiNS_11use_defaultENS3_6option3bitILj1EEEEEEE, 
                       __ZTIN5boost13serialization25extended_type_info_typeidINS_9histogram4axis7regularIdNS_11use_defaultES5_S5_EEEE, 
                       __ZTIN5boost13serialization25extended_type_info_typeidINS_9histogram4axis7variantIJNS3_7regularIdNS_11use_defaultES6_S6_EENS3_8variableIdS6_S6_NSt3__19allocatorIdEEEENS3_7integerIiS6_NS3_6option3bitILj1EEEEEEEEEE, 
                       __ZTIN5boost13serialization25extended_type_info_typeidINS_9histogram4axis8variableIdNS_11use_defaultES5_NSt3__19allocatorIdEEEEEE, 
                       __ZTIN5boost13serialization25extended_type_info_typeidINS_9histogram4axis9transform2idEEE, 
                       __ZTIN5boost13serialization25extended_type_info_typeidINS_9histogram6detail6mp_intINSt3__19allocatorIyEEEEEE, 
                       __ZTIN5boost13serialization25extended_type_info_typeidINS_9histogram9histogramINSt3__16vectorINS2_4axis7variantIJNS6_7regularIdNS_11use_defaultES9_S9_EENS6_8variableIdS9_S9_NS4_9allocatorIdEEEENS6_7integerIiS9_NS6_6option3bitILj1EEEEEEEENSC_ISK_EEEENS2_17unlimited_storageINSC_IcEEEEEEEE, 
                       __ZTIN5boost13serialization25extended_type_info_typeidINSt3__13mapIiNS2_6vectorINS2_12basic_stringIcNS2_11char_traitsIcEENS2_9allocatorIcEEEENS8_ISA_EEEENS2_4lessIiEENS8_INS2_4pairIKiSC_EEEEEEEE, 
                       __ZTIN5boost13serialization25extended_type_info_typeidINSt3__14pairIKiNS2_6vectorINS2_12basic_stringIcNS2_11char_traitsIcEENS2_9allocatorIcEEEENS9_ISB_EEEEEEEE, 
                       __ZTIN5boost13serialization25extended_type_info_typeidINSt3__16vectorIN3pps8AxisEnumENS2_9allocatorIS5_EEEEEE, 
                       __ZTIN5boost13serialization25extended_type_info_typeidINSt3__16vectorINS2_12basic_stringIcNS2_11char_traitsIcEENS2_9allocatorIcEEEENS7_IS9_EEEEEE, 
                       __ZTIN5boost13serialization25extended_type_info_typeidINSt3__16vectorINS_9histogram4axis7variantIJNS5_7regularIdNS_11use_defaultES8_S8_EENS5_8variableIdS8_S8_NS2_9allocatorIdEEEENS5_7integerIiS8_NS5_6option3bitILj1EEEEEEEENSB_ISJ_EEEEEE, 
                       __ZTIN5boost13serialization25extended_type_info_typeidINSt3__16vectorIdNS2_9allocatorIdEEEEEE, 
                       __ZTIN5boost13serialization25extended_type_info_typeidINSt3__16vectorIyNS2_9allocatorIyEEEEEE, 
                       __ZTIN5boost13serialization6detail17singleton_wrapperINS0_25extended_type_info_typeidIN3pps18Histogram_InternalEEEEE, 
                       __ZTIN5boost13serialization6detail17singleton_wrapperINS0_25extended_type_info_typeidINS_7variantINS_9histogram4axis7regularIdNS_11use_defaultES8_S8_EEJNS6_8variableIdS8_S8_NSt3__19allocatorIdEEEENS6_7integerIiS8_NS6_6option3bitILj1EEEEEEEEEEEE, 
                       __ZTIN5boost13serialization6detail17singleton_wrapperINS0_25extended_type_info_typeidINS_9histogram17unlimited_storageINSt3__19allocatorIcEEEEEEEE, 
                       __ZTIN5boost13serialization6detail17singleton_wrapperINS0_25extended_type_info_typeidINS_9histogram4axis7integerIiNS_11use_defaultENS5_6option3bitILj1EEEEEEEEE, 
                       __ZTIN5boost13serialization6detail17singleton_wrapperINS0_25extended_type_info_typeidINS_9histogram4axis7regularIdNS_11use_defaultES7_S7_EEEEEE, 
                       __ZTIN5boost13serialization6detail17singleton_wrapperINS0_25extended_type_info_typeidINS_9histogram4axis7variantIJNS5_7regularIdNS_11use_defaultES8_S8_EENS5_8variableIdS8_S8_NSt3__19allocatorIdEEEENS5_7integerIiS8_NS5_6option3bitILj1EEEEEEEEEEEE, 
                       __ZTIN5boost13serialization6detail17singleton_wrapperINS0_25extended_type_info_typeidINS_9histogram4axis8variableIdNS_11use_defaultES7_NSt3__19allocatorIdEEEEEEEE, 
                       __ZTIN5boost13serialization6detail17singleton_wrapperINS0_25extended_type_info_typeidINS_9histogram4axis9transform2idEEEEE, 
                       __ZTIN5boost13serialization6detail17singleton_wrapperINS0_25extended_type_info_typeidINS_9histogram6detail6mp_intINSt3__19allocatorIyEEEEEEEE, 
                       __ZTIN5boost13serialization6detail17singleton_wrapperINS0_25extended_type_info_typeidINS_9histogram9histogramINSt3__16vectorINS4_4axis7variantIJNS8_7regularIdNS_11use_defaultESB_SB_EENS8_8variableIdSB_SB_NS6_9allocatorIdEEEENS8_7integerIiSB_NS8_6option3bitILj1EEEEEEEENSE_ISM_EEEENS4_17unlimited_storageINSE_IcEEEEEEEEEE, 
                       __ZTIN5boost13serialization6detail17singleton_wrapperINS0_25extended_type_info_typeidINSt3__13mapIiNS4_6vectorINS4_12basic_stringIcNS4_11char_traitsIcEENS4_9allocatorIcEEEENSA_ISC_EEEENS4_4lessIiEENSA_INS4_4pairIKiSE_EEEEEEEEEE, 
                       __ZTIN5boost13serialization6detail17singleton_wrapperINS0_25extended_type_info_typeidINSt3__14pairIKiNS4_6vectorINS4_12basic_stringIcNS4_11char_traitsIcEENS4_9allocatorIcEEEENSB_ISD_EEEEEEEEEE, 
                       __ZTIN5boost13serialization6detail17singleton_wrapperINS0_25extended_type_info_typeidINSt3__16vectorIN3pps8AxisEnumENS4_9allocatorIS7_EEEEEEEE, 
                       __ZTIN5boost13serialization6detail17singleton_wrapperINS0_25extended_type_info_typeidINSt3__16vectorINS4_12basic_stringIcNS4_11char_traitsIcEENS4_9allocatorIcEEEENS9_ISB_EEEEEEEE, 
                       __ZTIN5boost13serialization6detail17singleton_wrapperINS0_25extended_type_info_typeidINSt3__16vectorINS_9histogram4axis7variantIJNS7_7regularIdNS_11use_defaultESA_SA_EENS7_8variableIdSA_SA_NS4_9allocatorIdEEEENS7_7integerIiSA_NS7_6option3bitILj1EEEEEEEENSD_ISL_EEEEEEEE, 
                       __ZTIN5boost13serialization6detail17singleton_wrapperINS0_25extended_type_info_typeidINSt3__16vectorIdNS4_9allocatorIdEEEEEEEE, 
                       __ZTIN5boost13serialization6detail17singleton_wrapperINS0_25extended_type_info_typeidINSt3__16vectorIyNS4_9allocatorIyEEEEEEEE, 
                       __ZTIN5boost13serialization6detail17singleton_wrapperINS_7archive6detail11iserializerINS3_13text_iarchiveEN3pps18Histogram_InternalEEEEE, 
                       __ZTIN5boost13serialization6detail17singleton_wrapperINS_7archive6detail11iserializerINS3_13text_iarchiveENS_7variantINS_9histogram4axis7regularIdNS_11use_defaultESB_SB_EEJNS9_8variableIdSB_SB_NSt3__19allocatorIdEEEENS9_7integerIiSB_NS9_6option3bitILj1EEEEEEEEEEEE, 
                       __ZTIN5boost13serialization6detail17singleton_wrapperINS_7archive6detail11iserializerINS3_13text_iarchiveENS_9histogram17unlimited_storageINSt3__19allocatorIcEEEEEEEE, 
                       __ZTIN5boost13serialization6detail17singleton_wrapperINS_7archive6detail11iserializerINS3_13text_iarchiveENS_9histogram4axis7integerIiNS_11use_defaultENS8_6option3bitILj1EEEEEEEEE, 
                       __ZTIN5boost13serialization6detail17singleton_wrapperINS_7archive6detail11iserializerINS3_13text_iarchiveENS_9histogram4axis7regularIdNS_11use_defaultESA_SA_EEEEEE, 
                       __ZTIN5boost13serialization6detail17singleton_wrapperINS_7archive6detail11iserializerINS3_13text_iarchiveENS_9histogram4axis7variantIJNS8_7regularIdNS_11use_defaultESB_SB_EENS8_8variableIdSB_SB_NSt3__19allocatorIdEEEENS8_7integerIiSB_NS8_6option3bitILj1EEEEEEEEEEEE, 
                       __ZTIN5boost13serialization6detail17singleton_wrapperINS_7archive6detail11iserializerINS3_13text_iarchiveENS_9histogram4axis8variableIdNS_11use_defaultESA_NSt3__19allocatorIdEEEEEEEE, 
                       __ZTIN5boost13serialization6detail17singleton_wrapperINS_7archive6detail11iserializerINS3_13text_iarchiveENS_9histogram4axis9transform2idEEEEE, 
                       __ZTIN5boost13serialization6detail17singleton_wrapperINS_7archive6detail11iserializerINS3_13text_iarchiveENS_9histogram6detail6mp_intINSt3__19allocatorIyEEEEEEEE, 
                       __ZTIN5boost13serialization6detail17singleton_wrapperINS_7archive6detail11iserializerINS3_13text_iarchiveENS_9histogram9histogramINSt3__16vectorINS7_4axis7variantIJNSB_7regularIdNS_11use_defaultESE_SE_EENSB_8variableIdSE_SE_NS9_9allocatorIdEEEENSB_7integerIiSE_NSB_6option3bitILj1EEEEEEEENSH_ISP_EEEENS7_17unlimited_storageINSH_IcEEEEEEEEEE, 
                       __ZTIN5boost13serialization6detail17singleton_wrapperINS_7archive6detail11iserializerINS3_13text_iarchiveENSt3__13mapIiNS7_6vectorINS7_12basic_stringIcNS7_11char_traitsIcEENS7_9allocatorIcEEEENSD_ISF_EEEENS7_4lessIiEENSD_INS7_4pairIKiSH_EEEEEEEEEE, 
                       __ZTIN5boost13serialization6detail17singleton_wrapperINS_7archive6detail11iserializerINS3_13text_iarchiveENSt3__14pairIKiNS7_6vectorINS7_12basic_stringIcNS7_11char_traitsIcEENS7_9allocatorIcEEEENSE_ISG_EEEEEEEEEE, 
                       __ZTIN5boost13serialization6detail17singleton_wrapperINS_7archive6detail11iserializerINS3_13text_iarchiveENSt3__16vectorIN3pps8AxisEnumENS7_9allocatorISA_EEEEEEEE, 
                       __ZTIN5boost13serialization6detail17singleton_wrapperINS_7archive6detail11iserializerINS3_13text_iarchiveENSt3__16vectorINS7_12basic_stringIcNS7_11char_traitsIcEENS7_9allocatorIcEEEENSC_ISE_EEEEEEEE, 
                       __ZTIN5boost13serialization6detail17singleton_wrapperINS_7archive6detail11iserializerINS3_13text_iarchiveENSt3__16vectorINS_9histogram4axis7variantIJNSA_7regularIdNS_11use_defaultESD_SD_EENSA_8variableIdSD_SD_NS7_9allocatorIdEEEENSA_7integerIiSD_NSA_6option3bitILj1EEEEEEEENSG_ISO_EEEEEEEE, 
                       __ZTIN5boost13serialization6detail17singleton_wrapperINS_7archive6detail11iserializerINS3_13text_iarchiveENSt3__16vectorIdNS7_9allocatorIdEEEEEEEE, 
                       __ZTIN5boost13serialization6detail17singleton_wrapperINS_7archive6detail11iserializerINS3_13text_iarchiveENSt3__16vectorIyNS7_9allocatorIyEEEEEEEE, 
                       __ZTIN5boost13serialization6detail17singleton_wrapperINS_7archive6detail11oserializerINS3_13text_oarchiveEN3pps18Histogram_InternalEEEEE, 
                       __ZTIN5boost13serialization6detail17singleton_wrapperINS_7archive6detail11oserializerINS3_13text_oarchiveENS_7variantINS_9histogram4axis7regularIdNS_11use_defaultESB_SB_EEJNS9_8variableIdSB_SB_NSt3__19allocatorIdEEEENS9_7integerIiSB_NS9_6option3bitILj1EEEEEEEEEEEE, 
                       __ZTIN5boost13serialization6detail17singleton_wrapperINS_7archive6detail11oserializerINS3_13text_oarchiveENS_9histogram17unlimited_storageINSt3__19allocatorIcEEEEEEEE, 
                       __ZTIN5boost13serialization6detail17singleton_wrapperINS_7archive6detail11oserializerINS3_13text_oarchiveENS_9histogram4axis7integerIiNS_11use_defaultENS8_6option3bitILj1EEEEEEEEE, 
                       __ZTIN5boost13serialization6detail17singleton_wrapperINS_7archive6detail11oserializerINS3_13text_oarchiveENS_9histogram4axis7regularIdNS_11use_defaultESA_SA_EEEEEE, 
                       __ZTIN5boost13serialization6detail17singleton_wrapperINS_7archive6detail11oserializerINS3_13text_oarchiveENS_9histogram4axis7variantIJNS8_7regularIdNS_11use_defaultESB_SB_EENS8_8variableIdSB_SB_NSt3__19allocatorIdEEEENS8_7integerIiSB_NS8_6option3bitILj1EEEEEEEEEEEE, 
                       __ZTIN5boost13serialization6detail17singleton_wrapperINS_7archive6detail11oserializerINS3_13text_oarchiveENS_9histogram4axis8variableIdNS_11use_defaultESA_NSt3__19allocatorIdEEEEEEEE, 
                       __ZTIN5boost13serialization6detail17singleton_wrapperINS_7archive6detail11oserializerINS3_13text_oarchiveENS_9histogram4axis9transform2idEEEEE, 
                       __ZTIN5boost13serialization6detail17singleton_wrapperINS_7archive6detail11oserializerINS3_13text_oarchiveENS_9histogram6detail6mp_intINSt3__19allocatorIyEEEEEEEE, 
                       __ZTIN5boost13serialization6detail17singleton_wrapperINS_7archive6detail11oserializerINS3_13text_oarchiveENS_9histogram9histogramINSt3__16vectorINS7_4axis7variantIJNSB_7regularIdNS_11use_defaultESE_SE_EENSB_8variableIdSE_SE_NS9_9allocatorIdEEEENSB_7integerIiSE_NSB_6option3bitILj1EEEEEEEENSH_ISP_EEEENS7_17unlimited_storageINSH_IcEEEEEEEEEE, 
                       __ZTIN5boost13serialization6detail17singleton_wrapperINS_7archive6detail11oserializerINS3_13text_oarchiveENSt3__13mapIiNS7_6vectorINS7_12basic_stringIcNS7_11char_traitsIcEENS7_9allocatorIcEEEENSD_ISF_EEEENS7_4lessIiEENSD_INS7_4pairIKiSH_EEEEEEEEEE, 
                       __ZTIN5boost13serialization6detail17singleton_wrapperINS_7archive6detail11oserializerINS3_13text_oarchiveENSt3__14pairIKiNS7_6vectorINS7_12basic_stringIcNS7_11char_traitsIcEENS7_9allocatorIcEEEENSE_ISG_EEEEEEEEEE, 
                       __ZTIN5boost13serialization6detail17singleton_wrapperINS_7archive6detail11oserializerINS3_13text_oarchiveENSt3__16vectorIN3pps8AxisEnumENS7_9allocatorISA_EEEEEEEE, 
                       __ZTIN5boost13serialization6detail17singleton_wrapperINS_7archive6detail11oserializerINS3_13text_oarchiveENSt3__16vectorINS7_12basic_stringIcNS7_11char_traitsIcEENS7_9allocatorIcEEEENSC_ISE_EEEEEEEE, 
                       __ZTIN5boost13serialization6detail17singleton_wrapperINS_7archive6detail11oserializerINS3_13text_oarchiveENSt3__16vectorINS_9histogram4axis7variantIJNSA_7regularIdNS_11use_defaultESD_SD_EENSA_8variableIdSD_SD_NS7_9allocatorIdEEEENSA_7integerIiSD_NSA_6option3bitILj1EEEEEEEENSG_ISO_EEEEEEEE, 
                       __ZTIN5boost13serialization6detail17singleton_wrapperINS_7archive6detail11oserializerINS3_13text_oarchiveENSt3__16vectorIdNS7_9allocatorIdEEEEEEEE, 
                       __ZTIN5boost13serialization6detail17singleton_wrapperINS_7archive6detail11oserializerINS3_13text_oarchiveENSt3__16vectorIyNS7_9allocatorIyEEEEEEEE, 
                       __ZTIN5boost13serialization9singletonINS0_25extended_type_info_typeidIN3pps18Histogram_InternalEEEEE, 
                       __ZTIN5boost13serialization9singletonINS0_25extended_type_info_typeidINS_7variantINS_9histogram4axis7regularIdNS_11use_defaultES7_S7_EEJNS5_8variableIdS7_S7_NSt3__19allocatorIdEEEENS5_7integerIiS7_NS5_6option3bitILj1EEEEEEEEEEEE, 
                       __ZTIN5boost13serialization9singletonINS0_25extended_type_info_typeidINS_9histogram17unlimited_storageINSt3__19allocatorIcEEEEEEEE, 
                       __ZTIN5boost13serialization9singletonINS0_25extended_type_info_typeidINS_9histogram4axis7integerIiNS_11use_defaultENS4_6option3bitILj1EEEEEEEEE, 
                       __ZTIN5boost13serialization9singletonINS0_25extended_type_info_typeidINS_9histogram4axis7regularIdNS_11use_defaultES6_S6_EEEEEE, 
                       __ZTIN5boost13serialization9singletonINS0_25extended_type_info_typeidINS_9histogram4axis7variantIJNS4_7regularIdNS_11use_defaultES7_S7_EENS4_8variableIdS7_S7_NSt3__19allocatorIdEEEENS4_7integerIiS7_NS4_6option3bitILj1EEEEEEEEEEEE, 
                       __ZTIN5boost13serialization9singletonINS0_25extended_type_info_typeidINS_9histogram4axis8variableIdNS_11use_defaultES6_NSt3__19allocatorIdEEEEEEEE, 
                       __ZTIN5boost13serialization9singletonINS0_25extended_type_info_typeidINS_9histogram4axis9transform2idEEEEE, 
                       __ZTIN5boost13serialization9singletonINS0_25extended_type_info_typeidINS_9histogram6detail6mp_intINSt3__19allocatorIyEEEEEEEE, 
                       __ZTIN5boost13serialization9singletonINS0_25extended_type_info_typeidINS_9histogram9histogramINSt3__16vectorINS3_4axis7variantIJNS7_7regularIdNS_11use_defaultESA_SA_EENS7_8variableIdSA_SA_NS5_9allocatorIdEEEENS7_7integerIiSA_NS7_6option3bitILj1EEEEEEEENSD_ISL_EEEENS3_17unlimited_storageINSD_IcEEEEEEEEEE, 
                       __ZTIN5boost13serialization9singletonINS0_25extended_type_info_typeidINSt3__13mapIiNS3_6vectorINS3_12basic_stringIcNS3_11char_traitsIcEENS3_9allocatorIcEEEENS9_ISB_EEEENS3_4lessIiEENS9_INS3_4pairIKiSD_EEEEEEEEEE, 
                       __ZTIN5boost13serialization9singletonINS0_25extended_type_info_typeidINSt3__14pairIKiNS3_6vectorINS3_12basic_stringIcNS3_11char_traitsIcEENS3_9allocatorIcEEEENSA_ISC_EEEEEEEEEE, 
                       __ZTIN5boost13serialization9singletonINS0_25extended_type_info_typeidINSt3__16vectorIN3pps8AxisEnumENS3_9allocatorIS6_EEEEEEEE, 
                       __ZTIN5boost13serialization9singletonINS0_25extended_type_info_typeidINSt3__16vectorINS3_12basic_stringIcNS3_11char_traitsIcEENS3_9allocatorIcEEEENS8_ISA_EEEEEEEE, 
                       __ZTIN5boost13serialization9singletonINS0_25extended_type_info_typeidINSt3__16vectorINS_9histogram4axis7variantIJNS6_7regularIdNS_11use_defaultES9_S9_EENS6_8variableIdS9_S9_NS3_9allocatorIdEEEENS6_7integerIiS9_NS6_6option3bitILj1EEEEEEEENSC_ISK_EEEEEEEE, 
                       __ZTIN5boost13serialization9singletonINS0_25extended_type_info_typeidINSt3__16vectorIdNS3_9allocatorIdEEEEEEEE, 
                       __ZTIN5boost13serialization9singletonINS0_25extended_type_info_typeidINSt3__16vectorIyNS3_9allocatorIyEEEEEEEE, 
                       __ZTIN5boost16exception_detail10clone_baseE, __ZTIN5boost7archive13text_iarchiveE, 
                       __ZTIN5boost7archive13text_oarchiveE, __ZTIN5boost7archive21basic_text_iprimitiveINSt3__113basic_istreamIcNS2_11char_traitsIcEEEEEE, 
                       __ZTIN5boost7archive21basic_text_oprimitiveINSt3__113basic_ostreamIcNS2_11char_traitsIcEEEEEE, 
                       __ZTIN5boost7archive6detail11iserializerINS0_13text_iarchiveEN3pps18Histogram_InternalEEE, 
                       __ZTIN5boost7archive6detail11iserializerINS0_13text_iarchiveENS_7variantINS_9histogram4axis7regularIdNS_11use_defaultES8_S8_EEJNS6_8variableIdS8_S8_NSt3__19allocatorIdEEEENS6_7integerIiS8_NS6_6option3bitILj1EEEEEEEEEE, 
                       __ZTIN5boost7archive6detail11iserializerINS0_13text_iarchiveENS_9histogram17unlimited_storageINSt3__19allocatorIcEEEEEE, 
                       __ZTIN5boost7archive6detail11iserializerINS0_13text_iarchiveENS_9histogram4axis7integerIiNS_11use_defaultENS5_6option3bitILj1EEEEEEE, 
                       __ZTIN5boost7archive6detail11iserializerINS0_13text_iarchiveENS_9histogram4axis7regularIdNS_11use_defaultES7_S7_EEEE, 
                       __ZTIN5boost7archive6detail11iserializerINS0_13text_iarchiveENS_9histogram4axis7variantIJNS5_7regularIdNS_11use_defaultES8_S8_EENS5_8variableIdS8_S8_NSt3__19allocatorIdEEEENS5_7integerIiS8_NS5_6option3bitILj1EEEEEEEEEE, 
                       __ZTIN5boost7archive6detail11iserializerINS0_13text_iarchiveENS_9histogram4axis8variableIdNS_11use_defaultES7_NSt3__19allocatorIdEEEEEE, 
                       __ZTIN5boost7archive6detail11iserializerINS0_13text_iarchiveENS_9histogram4axis9transform2idEEE, 
                       __ZTIN5boost7archive6detail11iserializerINS0_13text_iarchiveENS_9histogram6detail6mp_intINSt3__19allocatorIyEEEEEE, 
                       __ZTIN5boost7archive6detail11iserializerINS0_13text_iarchiveENS_9histogram9histogramINSt3__16vectorINS4_4axis7variantIJNS8_7regularIdNS_11use_defaultESB_SB_EENS8_8variableIdSB_SB_NS6_9allocatorIdEEEENS8_7integerIiSB_NS8_6option3bitILj1EEEEEEEENSE_ISM_EEEENS4_17unlimited_storageINSE_IcEEEEEEEE, 
                       __ZTIN5boost7archive6detail11iserializerINS0_13text_iarchiveENSt3__13mapIiNS4_6vectorINS4_12basic_stringIcNS4_11char_traitsIcEENS4_9allocatorIcEEEENSA_ISC_EEEENS4_4lessIiEENSA_INS4_4pairIKiSE_EEEEEEEE, 
                       __ZTIN5boost7archive6detail11iserializerINS0_13text_iarchiveENSt3__14pairIKiNS4_6vectorINS4_12basic_stringIcNS4_11char_traitsIcEENS4_9allocatorIcEEEENSB_ISD_EEEEEEEE, 
                       __ZTIN5boost7archive6detail11iserializerINS0_13text_iarchiveENSt3__16vectorIN3pps8AxisEnumENS4_9allocatorIS7_EEEEEE, 
                       __ZTIN5boost7archive6detail11iserializerINS0_13text_iarchiveENSt3__16vectorINS4_12basic_stringIcNS4_11char_traitsIcEENS4_9allocatorIcEEEENS9_ISB_EEEEEE, 
                       __ZTIN5boost7archive6detail11iserializerINS0_13text_iarchiveENSt3__16vectorINS_9histogram4axis7variantIJNS7_7regularIdNS_11use_defaultESA_SA_EENS7_8variableIdSA_SA_NS4_9allocatorIdEEEENS7_7integerIiSA_NS7_6option3bitILj1EEEEEEEENSD_ISL_EEEEEE, 
                       __ZTIN5boost7archive6detail11iserializerINS0_13text_iarchiveENSt3__16vectorIdNS4_9allocatorIdEEEEEE, 
                       __ZTIN5boost7archive6detail11iserializerINS0_13text_iarchiveENSt3__16vectorIyNS4_9allocatorIyEEEEEE, 
                       __ZTIN5boost7archive6detail11oserializerINS0_13text_oarchiveEN3pps18Histogram_InternalEEE, 
                       __ZTIN5boost7archive6detail11oserializerINS0_13text_oarchiveENS_7variantINS_9histogram4axis7regularIdNS_11use_defaultES8_S8_EEJNS6_8variableIdS8_S8_NSt3__19allocatorIdEEEENS6_7integerIiS8_NS6_6option3bitILj1EEEEEEEEEE, 
                       __ZTIN5boost7archive6detail11oserializerINS0_13text_oarchiveENS_9histogram17unlimited_storageINSt3__19allocatorIcEEEEEE, 
                       __ZTIN5boost7archive6detail11oserializerINS0_13text_oarchiveENS_9histogram4axis7integerIiNS_11use_defaultENS5_6option3bitILj1EEEEEEE, 
                       __ZTIN5boost7archive6detail11oserializerINS0_13text_oarchiveENS_9histogram4axis7regularIdNS_11use_defaultES7_S7_EEEE, 
                       __ZTIN5boost7archive6detail11oserializerINS0_13text_oarchiveENS_9histogram4axis7variantIJNS5_7regularIdNS_11use_defaultES8_S8_EENS5_8variableIdS8_S8_NSt3__19allocatorIdEEEENS5_7integerIiS8_NS5_6option3bitILj1EEEEEEEEEE, 
                       __ZTIN5boost7archive6detail11oserializerINS0_13text_oarchiveENS_9histogram4axis8variableIdNS_11use_defaultES7_NSt3__19allocatorIdEEEEEE, 
                       __ZTIN5boost7archive6detail11oserializerINS0_13text_oarchiveENS_9histogram4axis9transform2idEEE, 
                       __ZTIN5boost7archive6detail11oserializerINS0_13text_oarchiveENS_9histogram6detail6mp_intINSt3__19allocatorIyEEEEEE, 
                       __ZTIN5boost7archive6detail11oserializerINS0_13text_oarchiveENS_9histogram9histogramINSt3__16vectorINS4_4axis7variantIJNS8_7regularIdNS_11use_defaultESB_SB_EENS8_8variableIdSB_SB_NS6_9allocatorIdEEEENS8_7integerIiSB_NS8_6option3bitILj1EEEEEEEENSE_ISM_EEEENS4_17unlimited_storageINSE_IcEEEEEEEE, 
                       __ZTIN5boost7archive6detail11oserializerINS0_13text_oarchiveENSt3__13mapIiNS4_6vectorINS4_12basic_stringIcNS4_11char_traitsIcEENS4_9allocatorIcEEEENSA_ISC_EEEENS4_4lessIiEENSA_INS4_4pairIKiSE_EEEEEEEE, 
                       __ZTIN5boost7archive6detail11oserializerINS0_13text_oarchiveENSt3__14pairIKiNS4_6vectorINS4_12basic_stringIcNS4_11char_traitsIcEENS4_9allocatorIcEEEENSB_ISD_EEEEEEEE, 
                       __ZTIN5boost7archive6detail11oserializerINS0_13text_oarchiveENSt3__16vectorIN3pps8AxisEnumENS4_9allocatorIS7_EEEEEE, 
                       __ZTIN5boost7archive6detail11oserializerINS0_13text_oarchiveENSt3__16vectorINS4_12basic_stringIcNS4_11char_traitsIcEENS4_9allocatorIcEEEENS9_ISB_EEEEEE, 
                       __ZTIN5boost7archive6detail11oserializerINS0_13text_oarchiveENSt3__16vectorINS_9histogram4axis7variantIJNS7_7regularIdNS_11use_defaultESA_SA_EENS7_8variableIdSA_SA_NS4_9allocatorIdEEEENS7_7integerIiSA_NS7_6option3bitILj1EEEEEEEENSD_ISL_EEEEEE, 
                       __ZTIN5boost7archive6detail11oserializerINS0_13text_oarchiveENSt3__16vectorIdNS4_9allocatorIdEEEEEE, 
                       __ZTIN5boost7archive6detail11oserializerINS0_13text_oarchiveENSt3__16vectorIyNS4_9allocatorIyEEEEEE, 
                       __ZTIN5boost7archive6detail15common_iarchiveINS0_13text_iarchiveEEE, 
                       __ZTIN5boost7archive6detail15common_oarchiveINS0_13text_oarchiveEEE, 
                       __ZTIN5boost7archive6detail18interface_iarchiveINS0_13text_iarchiveEEE, 
                       __ZTIN5boost7archive6detail18interface_oarchiveINS0_13text_oarchiveEEE, 
                       __ZTIN5boost7bad_getE, __ZTIN5boost7variantINS_9histogram4axis7regularIdNS_11use_defaultES4_S4_EEJNS2_8variableIdS4_S4_NSt3__19allocatorIdEEEENS2_7integerIiS4_NS2_6option3bitILj1EEEEEEEE, 
                       __ZTIN5boost9exceptionE, __ZTIN5boost9histogram17unlimited_storageINSt3__19allocatorIcEEEE, 
                       __ZTIN5boost9histogram4axis14iterator_mixinINS1_7integerIiNS_11use_defaultENS1_6option3bitILj1EEEEEEE, 
                       __ZTIN5boost9histogram4axis14iterator_mixinINS1_7regularIdNS_11use_defaultES4_S4_EEEE, 
                       __ZTIN5boost9histogram4axis14iterator_mixinINS1_7variantIJNS1_7regularIdNS_11use_defaultES5_S5_EENS1_8variableIdS5_S5_NSt3__19allocatorIdEEEENS1_7integerIiS5_NS1_6option3bitILj1EEEEEEEEEE, 
                       __ZTIN5boost9histogram4axis14iterator_mixinINS1_8variableIdNS_11use_defaultES4_NSt3__19allocatorIdEEEEEE, 
                       __ZTIN5boost9histogram4axis7integerIiNS_11use_defaultENS1_6option3bitILj1EEEEE, 
                       __ZTIN5boost9histogram4axis7regularIdNS_11use_defaultES3_S3_EE, 
                       __ZTIN5boost9histogram4axis7variantIJNS1_7regularIdNS_11use_defaultES4_S4_EENS1_8variableIdS4_S4_NSt3__19allocatorIdEEEENS1_7integerIiS4_NS1_6option3bitILj1EEEEEEEE, 
                       __ZTIN5boost9histogram4axis8variableIdNS_11use_defaultES3_NSt3__19allocatorIdEEEE, 
                       __ZTIN5boost9histogram4axis9transform2idE, __ZTIN5boost9histogram6detail6mp_intINSt3__19allocatorIyEEEE, 
                       __ZTIN5boost9histogram9histogramINSt3__16vectorINS0_4axis7variantIJNS4_7regularIdNS_11use_defaultES7_S7_EENS4_8variableIdS7_S7_NS2_9allocatorIdEEEENS4_7integerIiS7_NS4_6option3bitILj1EEEEEEEENSA_ISI_EEEENS0_17unlimited_storageINSA_IcEEEEEE, 
                       __ZTINSt3__110__function6__baseIFvP14NSMutableArrayEEE, __ZTINSt3__13mapIiNS_6vectorINS_12basic_stringIcNS_11char_traitsIcEENS_9allocatorIcEEEENS5_IS7_EEEENS_4lessIiEENS5_INS_4pairIKiS9_EEEEEE, 
                       __ZTINSt3__14pairIKiNS_6vectorINS_12basic_stringIcNS_11char_traitsIcEENS_9allocatorIcEEEENS6_IS8_EEEEEE, 
                       __ZTINSt3__16vectorIN3pps8AxisEnumENS_9allocatorIS2_EEEE, 
                       __ZTINSt3__16vectorIN5boost9histogram4axis7variantIJNS3_7regularIdNS1_11use_defaultES6_S6_EENS3_8variableIdS6_S6_NS_9allocatorIdEEEENS3_7integerIiS6_NS3_6option3bitILj1EEEEEEEENS9_ISH_EEEE, 
                       __ZTINSt3__16vectorINS_12basic_stringIcNS_11char_traitsIcEENS_9allocatorIcEEEENS4_IS6_EEEE, 
                       __ZTINSt3__16vectorIdNS_9allocatorIdEEEE, __ZTINSt3__16vectorIyNS_9allocatorIyEEEE, 
                       __ZTS12PPSSQLiteRow, __ZTSN3pps18Histogram_InternalE, __ZTSN5boost10wrapexceptINS_7bad_getEEE, 
                       __ZTSN5boost10wrapexceptISt14overflow_errorEE, __ZTSN5boost10wrapexceptISt16invalid_argumentEE, 
                       __ZTSN5boost13serialization25extended_type_info_typeidIN3pps18Histogram_InternalEEE, 
                       __ZTSN5boost13serialization25extended_type_info_typeidINS_7variantINS_9histogram4axis7regularIdNS_11use_defaultES6_S6_EEJNS4_8variableIdS6_S6_NSt3__19allocatorIdEEEENS4_7integerIiS6_NS4_6option3bitILj1EEEEEEEEEE, 
                       __ZTSN5boost13serialization25extended_type_info_typeidINS_9histogram17unlimited_storageINSt3__19allocatorIcEEEEEE, 
                       __ZTSN5boost13serialization25extended_type_info_typeidINS_9histogram4axis7integerIiNS_11use_defaultENS3_6option3bitILj1EEEEEEE, 
                       __ZTSN5boost13serialization25extended_type_info_typeidINS_9histogram4axis7regularIdNS_11use_defaultES5_S5_EEEE, 
                       __ZTSN5boost13serialization25extended_type_info_typeidINS_9histogram4axis7variantIJNS3_7regularIdNS_11use_defaultES6_S6_EENS3_8variableIdS6_S6_NSt3__19allocatorIdEEEENS3_7integerIiS6_NS3_6option3bitILj1EEEEEEEEEE, 
                       __ZTSN5boost13serialization25extended_type_info_typeidINS_9histogram4axis8variableIdNS_11use_defaultES5_NSt3__19allocatorIdEEEEEE, 
                       __ZTSN5boost13serialization25extended_type_info_typeidINS_9histogram4axis9transform2idEEE, 
                       __ZTSN5boost13serialization25extended_type_info_typeidINS_9histogram6detail6mp_intINSt3__19allocatorIyEEEEEE, 
                       __ZTSN5boost13serialization25extended_type_info_typeidINS_9histogram9histogramINSt3__16vectorINS2_4axis7variantIJNS6_7regularIdNS_11use_defaultES9_S9_EENS6_8variableIdS9_S9_NS4_9allocatorIdEEEENS6_7integerIiS9_NS6_6option3bitILj1EEEEEEEENSC_ISK_EEEENS2_17unlimited_storageINSC_IcEEEEEEEE, 
                       __ZTSN5boost13serialization25extended_type_info_typeidINSt3__13mapIiNS2_6vectorINS2_12basic_stringIcNS2_11char_traitsIcEENS2_9allocatorIcEEEENS8_ISA_EEEENS2_4lessIiEENS8_INS2_4pairIKiSC_EEEEEEEE, 
                       __ZTSN5boost13serialization25extended_type_info_typeidINSt3__14pairIKiNS2_6vectorINS2_12basic_stringIcNS2_11char_traitsIcEENS2_9allocatorIcEEEENS9_ISB_EEEEEEEE, 
                       __ZTSN5boost13serialization25extended_type_info_typeidINSt3__16vectorIN3pps8AxisEnumENS2_9allocatorIS5_EEEEEE, 
                       __ZTSN5boost13serialization25extended_type_info_typeidINSt3__16vectorINS2_12basic_stringIcNS2_11char_traitsIcEENS2_9allocatorIcEEEENS7_IS9_EEEEEE, 
                       __ZTSN5boost13serialization25extended_type_info_typeidINSt3__16vectorINS_9histogram4axis7variantIJNS5_7regularIdNS_11use_defaultES8_S8_EENS5_8variableIdS8_S8_NS2_9allocatorIdEEEENS5_7integerIiS8_NS5_6option3bitILj1EEEEEEEENSB_ISJ_EEEEEE, 
                       __ZTSN5boost13serialization25extended_type_info_typeidINSt3__16vectorIdNS2_9allocatorIdEEEEEE, 
                       __ZTSN5boost13serialization25extended_type_info_typeidINSt3__16vectorIyNS2_9allocatorIyEEEEEE, 
                       __ZTSN5boost13serialization6detail17singleton_wrapperINS0_25extended_type_info_typeidIN3pps18Histogram_InternalEEEEE, 
                       __ZTSN5boost13serialization6detail17singleton_wrapperINS0_25extended_type_info_typeidINS_7variantINS_9histogram4axis7regularIdNS_11use_defaultES8_S8_EEJNS6_8variableIdS8_S8_NSt3__19allocatorIdEEEENS6_7integerIiS8_NS6_6option3bitILj1EEEEEEEEEEEE, 
                       __ZTSN5boost13serialization6detail17singleton_wrapperINS0_25extended_type_info_typeidINS_9histogram17unlimited_storageINSt3__19allocatorIcEEEEEEEE, 
                       __ZTSN5boost13serialization6detail17singleton_wrapperINS0_25extended_type_info_typeidINS_9histogram4axis7integerIiNS_11use_defaultENS5_6option3bitILj1EEEEEEEEE, 
                       __ZTSN5boost13serialization6detail17singleton_wrapperINS0_25extended_type_info_typeidINS_9histogram4axis7regularIdNS_11use_defaultES7_S7_EEEEEE, 
                       __ZTSN5boost13serialization6detail17singleton_wrapperINS0_25extended_type_info_typeidINS_9histogram4axis7variantIJNS5_7regularIdNS_11use_defaultES8_S8_EENS5_8variableIdS8_S8_NSt3__19allocatorIdEEEENS5_7integerIiS8_NS5_6option3bitILj1EEEEEEEEEEEE, 
                       __ZTSN5boost13serialization6detail17singleton_wrapperINS0_25extended_type_info_typeidINS_9histogram4axis8variableIdNS_11use_defaultES7_NSt3__19allocatorIdEEEEEEEE, 
                       __ZTSN5boost13serialization6detail17singleton_wrapperINS0_25extended_type_info_typeidINS_9histogram4axis9transform2idEEEEE, 
                       __ZTSN5boost13serialization6detail17singleton_wrapperINS0_25extended_type_info_typeidINS_9histogram6detail6mp_intINSt3__19allocatorIyEEEEEEEE, 
                       __ZTSN5boost13serialization6detail17singleton_wrapperINS0_25extended_type_info_typeidINS_9histogram9histogramINSt3__16vectorINS4_4axis7variantIJNS8_7regularIdNS_11use_defaultESB_SB_EENS8_8variableIdSB_SB_NS6_9allocatorIdEEEENS8_7integerIiSB_NS8_6option3bitILj1EEEEEEEENSE_ISM_EEEENS4_17unlimited_storageINSE_IcEEEEEEEEEE, 
                       __ZTSN5boost13serialization6detail17singleton_wrapperINS0_25extended_type_info_typeidINSt3__13mapIiNS4_6vectorINS4_12basic_stringIcNS4_11char_traitsIcEENS4_9allocatorIcEEEENSA_ISC_EEEENS4_4lessIiEENSA_INS4_4pairIKiSE_EEEEEEEEEE, 
                       __ZTSN5boost13serialization6detail17singleton_wrapperINS0_25extended_type_info_typeidINSt3__14pairIKiNS4_6vectorINS4_12basic_stringIcNS4_11char_traitsIcEENS4_9allocatorIcEEEENSB_ISD_EEEEEEEEEE, 
                       __ZTSN5boost13serialization6detail17singleton_wrapperINS0_25extended_type_info_typeidINSt3__16vectorIN3pps8AxisEnumENS4_9allocatorIS7_EEEEEEEE, 
                       __ZTSN5boost13serialization6detail17singleton_wrapperINS0_25extended_type_info_typeidINSt3__16vectorINS4_12basic_stringIcNS4_11char_traitsIcEENS4_9allocatorIcEEEENS9_ISB_EEEEEEEE, 
                       __ZTSN5boost13serialization6detail17singleton_wrapperINS0_25extended_type_info_typeidINSt3__16vectorINS_9histogram4axis7variantIJNS7_7regularIdNS_11use_defaultESA_SA_EENS7_8variableIdSA_SA_NS4_9allocatorIdEEEENS7_7integerIiSA_NS7_6option3bitILj1EEEEEEEENSD_ISL_EEEEEEEE, 
                       __ZTSN5boost13serialization6detail17singleton_wrapperINS0_25extended_type_info_typeidINSt3__16vectorIdNS4_9allocatorIdEEEEEEEE, 
                       __ZTSN5boost13serialization6detail17singleton_wrapperINS0_25extended_type_info_typeidINSt3__16vectorIyNS4_9allocatorIyEEEEEEEE, 
                       __ZTSN5boost13serialization6detail17singleton_wrapperINS_7archive6detail11iserializerINS3_13text_iarchiveEN3pps18Histogram_InternalEEEEE, 
                       __ZTSN5boost13serialization6detail17singleton_wrapperINS_7archive6detail11iserializerINS3_13text_iarchiveENS_7variantINS_9histogram4axis7regularIdNS_11use_defaultESB_SB_EEJNS9_8variableIdSB_SB_NSt3__19allocatorIdEEEENS9_7integerIiSB_NS9_6option3bitILj1EEEEEEEEEEEE, 
                       __ZTSN5boost13serialization6detail17singleton_wrapperINS_7archive6detail11iserializerINS3_13text_iarchiveENS_9histogram17unlimited_storageINSt3__19allocatorIcEEEEEEEE, 
                       __ZTSN5boost13serialization6detail17singleton_wrapperINS_7archive6detail11iserializerINS3_13text_iarchiveENS_9histogram4axis7integerIiNS_11use_defaultENS8_6option3bitILj1EEEEEEEEE, 
                       __ZTSN5boost13serialization6detail17singleton_wrapperINS_7archive6detail11iserializerINS3_13text_iarchiveENS_9histogram4axis7regularIdNS_11use_defaultESA_SA_EEEEEE, 
                       __ZTSN5boost13serialization6detail17singleton_wrapperINS_7archive6detail11iserializerINS3_13text_iarchiveENS_9histogram4axis7variantIJNS8_7regularIdNS_11use_defaultESB_SB_EENS8_8variableIdSB_SB_NSt3__19allocatorIdEEEENS8_7integerIiSB_NS8_6option3bitILj1EEEEEEEEEEEE, 
                       __ZTSN5boost13serialization6detail17singleton_wrapperINS_7archive6detail11iserializerINS3_13text_iarchiveENS_9histogram4axis8variableIdNS_11use_defaultESA_NSt3__19allocatorIdEEEEEEEE, 
                       __ZTSN5boost13serialization6detail17singleton_wrapperINS_7archive6detail11iserializerINS3_13text_iarchiveENS_9histogram4axis9transform2idEEEEE, 
                       __ZTSN5boost13serialization6detail17singleton_wrapperINS_7archive6detail11iserializerINS3_13text_iarchiveENS_9histogram6detail6mp_intINSt3__19allocatorIyEEEEEEEE, 
                       __ZTSN5boost13serialization6detail17singleton_wrapperINS_7archive6detail11iserializerINS3_13text_iarchiveENS_9histogram9histogramINSt3__16vectorINS7_4axis7variantIJNSB_7regularIdNS_11use_defaultESE_SE_EENSB_8variableIdSE_SE_NS9_9allocatorIdEEEENSB_7integerIiSE_NSB_6option3bitILj1EEEEEEEENSH_ISP_EEEENS7_17unlimited_storageINSH_IcEEEEEEEEEE, 
                       __ZTSN5boost13serialization6detail17singleton_wrapperINS_7archive6detail11iserializerINS3_13text_iarchiveENSt3__13mapIiNS7_6vectorINS7_12basic_stringIcNS7_11char_traitsIcEENS7_9allocatorIcEEEENSD_ISF_EEEENS7_4lessIiEENSD_INS7_4pairIKiSH_EEEEEEEEEE, 
                       __ZTSN5boost13serialization6detail17singleton_wrapperINS_7archive6detail11iserializerINS3_13text_iarchiveENSt3__14pairIKiNS7_6vectorINS7_12basic_stringIcNS7_11char_traitsIcEENS7_9allocatorIcEEEENSE_ISG_EEEEEEEEEE, 
                       __ZTSN5boost13serialization6detail17singleton_wrapperINS_7archive6detail11iserializerINS3_13text_iarchiveENSt3__16vectorIN3pps8AxisEnumENS7_9allocatorISA_EEEEEEEE, 
                       __ZTSN5boost13serialization6detail17singleton_wrapperINS_7archive6detail11iserializerINS3_13text_iarchiveENSt3__16vectorINS7_12basic_stringIcNS7_11char_traitsIcEENS7_9allocatorIcEEEENSC_ISE_EEEEEEEE, 
                       __ZTSN5boost13serialization6detail17singleton_wrapperINS_7archive6detail11iserializerINS3_13text_iarchiveENSt3__16vectorINS_9histogram4axis7variantIJNSA_7regularIdNS_11use_defaultESD_SD_EENSA_8variableIdSD_SD_NS7_9allocatorIdEEEENSA_7integerIiSD_NSA_6option3bitILj1EEEEEEEENSG_ISO_EEEEEEEE, 
                       __ZTSN5boost13serialization6detail17singleton_wrapperINS_7archive6detail11iserializerINS3_13text_iarchiveENSt3__16vectorIdNS7_9allocatorIdEEEEEEEE, 
                       __ZTSN5boost13serialization6detail17singleton_wrapperINS_7archive6detail11iserializerINS3_13text_iarchiveENSt3__16vectorIyNS7_9allocatorIyEEEEEEEE, 
                       __ZTSN5boost13serialization6detail17singleton_wrapperINS_7archive6detail11oserializerINS3_13text_oarchiveEN3pps18Histogram_InternalEEEEE, 
                       __ZTSN5boost13serialization6detail17singleton_wrapperINS_7archive6detail11oserializerINS3_13text_oarchiveENS_7variantINS_9histogram4axis7regularIdNS_11use_defaultESB_SB_EEJNS9_8variableIdSB_SB_NSt3__19allocatorIdEEEENS9_7integerIiSB_NS9_6option3bitILj1EEEEEEEEEEEE, 
                       __ZTSN5boost13serialization6detail17singleton_wrapperINS_7archive6detail11oserializerINS3_13text_oarchiveENS_9histogram17unlimited_storageINSt3__19allocatorIcEEEEEEEE, 
                       __ZTSN5boost13serialization6detail17singleton_wrapperINS_7archive6detail11oserializerINS3_13text_oarchiveENS_9histogram4axis7integerIiNS_11use_defaultENS8_6option3bitILj1EEEEEEEEE, 
                       __ZTSN5boost13serialization6detail17singleton_wrapperINS_7archive6detail11oserializerINS3_13text_oarchiveENS_9histogram4axis7regularIdNS_11use_defaultESA_SA_EEEEEE, 
                       __ZTSN5boost13serialization6detail17singleton_wrapperINS_7archive6detail11oserializerINS3_13text_oarchiveENS_9histogram4axis7variantIJNS8_7regularIdNS_11use_defaultESB_SB_EENS8_8variableIdSB_SB_NSt3__19allocatorIdEEEENS8_7integerIiSB_NS8_6option3bitILj1EEEEEEEEEEEE, 
                       __ZTSN5boost13serialization6detail17singleton_wrapperINS_7archive6detail11oserializerINS3_13text_oarchiveENS_9histogram4axis8variableIdNS_11use_defaultESA_NSt3__19allocatorIdEEEEEEEE, 
                       __ZTSN5boost13serialization6detail17singleton_wrapperINS_7archive6detail11oserializerINS3_13text_oarchiveENS_9histogram4axis9transform2idEEEEE, 
                       __ZTSN5boost13serialization6detail17singleton_wrapperINS_7archive6detail11oserializerINS3_13text_oarchiveENS_9histogram6detail6mp_intINSt3__19allocatorIyEEEEEEEE, 
                       __ZTSN5boost13serialization6detail17singleton_wrapperINS_7archive6detail11oserializerINS3_13text_oarchiveENS_9histogram9histogramINSt3__16vectorINS7_4axis7variantIJNSB_7regularIdNS_11use_defaultESE_SE_EENSB_8variableIdSE_SE_NS9_9allocatorIdEEEENSB_7integerIiSE_NSB_6option3bitILj1EEEEEEEENSH_ISP_EEEENS7_17unlimited_storageINSH_IcEEEEEEEEEE, 
                       __ZTSN5boost13serialization6detail17singleton_wrapperINS_7archive6detail11oserializerINS3_13text_oarchiveENSt3__13mapIiNS7_6vectorINS7_12basic_stringIcNS7_11char_traitsIcEENS7_9allocatorIcEEEENSD_ISF_EEEENS7_4lessIiEENSD_INS7_4pairIKiSH_EEEEEEEEEE, 
                       __ZTSN5boost13serialization6detail17singleton_wrapperINS_7archive6detail11oserializerINS3_13text_oarchiveENSt3__14pairIKiNS7_6vectorINS7_12basic_stringIcNS7_11char_traitsIcEENS7_9allocatorIcEEEENSE_ISG_EEEEEEEEEE, 
                       __ZTSN5boost13serialization6detail17singleton_wrapperINS_7archive6detail11oserializerINS3_13text_oarchiveENSt3__16vectorIN3pps8AxisEnumENS7_9allocatorISA_EEEEEEEE, 
                       __ZTSN5boost13serialization6detail17singleton_wrapperINS_7archive6detail11oserializerINS3_13text_oarchiveENSt3__16vectorINS7_12basic_stringIcNS7_11char_traitsIcEENS7_9allocatorIcEEEENSC_ISE_EEEEEEEE, 
                       __ZTSN5boost13serialization6detail17singleton_wrapperINS_7archive6detail11oserializerINS3_13text_oarchiveENSt3__16vectorINS_9histogram4axis7variantIJNSA_7regularIdNS_11use_defaultESD_SD_EENSA_8variableIdSD_SD_NS7_9allocatorIdEEEENSA_7integerIiSD_NSA_6option3bitILj1EEEEEEEENSG_ISO_EEEEEEEE, 
                       __ZTSN5boost13serialization6detail17singleton_wrapperINS_7archive6detail11oserializerINS3_13text_oarchiveENSt3__16vectorIdNS7_9allocatorIdEEEEEEEE, 
                       __ZTSN5boost13serialization6detail17singleton_wrapperINS_7archive6detail11oserializerINS3_13text_oarchiveENSt3__16vectorIyNS7_9allocatorIyEEEEEEEE, 
                       __ZTSN5boost13serialization9singletonINS0_25extended_type_info_typeidIN3pps18Histogram_InternalEEEEE, 
                       __ZTSN5boost13serialization9singletonINS0_25extended_type_info_typeidINS_7variantINS_9histogram4axis7regularIdNS_11use_defaultES7_S7_EEJNS5_8variableIdS7_S7_NSt3__19allocatorIdEEEENS5_7integerIiS7_NS5_6option3bitILj1EEEEEEEEEEEE, 
                       __ZTSN5boost13serialization9singletonINS0_25extended_type_info_typeidINS_9histogram17unlimited_storageINSt3__19allocatorIcEEEEEEEE, 
                       __ZTSN5boost13serialization9singletonINS0_25extended_type_info_typeidINS_9histogram4axis7integerIiNS_11use_defaultENS4_6option3bitILj1EEEEEEEEE, 
                       __ZTSN5boost13serialization9singletonINS0_25extended_type_info_typeidINS_9histogram4axis7regularIdNS_11use_defaultES6_S6_EEEEEE, 
                       __ZTSN5boost13serialization9singletonINS0_25extended_type_info_typeidINS_9histogram4axis7variantIJNS4_7regularIdNS_11use_defaultES7_S7_EENS4_8variableIdS7_S7_NSt3__19allocatorIdEEEENS4_7integerIiS7_NS4_6option3bitILj1EEEEEEEEEEEE, 
                       __ZTSN5boost13serialization9singletonINS0_25extended_type_info_typeidINS_9histogram4axis8variableIdNS_11use_defaultES6_NSt3__19allocatorIdEEEEEEEE, 
                       __ZTSN5boost13serialization9singletonINS0_25extended_type_info_typeidINS_9histogram4axis9transform2idEEEEE, 
                       __ZTSN5boost13serialization9singletonINS0_25extended_type_info_typeidINS_9histogram6detail6mp_intINSt3__19allocatorIyEEEEEEEE, 
                       __ZTSN5boost13serialization9singletonINS0_25extended_type_info_typeidINS_9histogram9histogramINSt3__16vectorINS3_4axis7variantIJNS7_7regularIdNS_11use_defaultESA_SA_EENS7_8variableIdSA_SA_NS5_9allocatorIdEEEENS7_7integerIiSA_NS7_6option3bitILj1EEEEEEEENSD_ISL_EEEENS3_17unlimited_storageINSD_IcEEEEEEEEEE, 
                       __ZTSN5boost13serialization9singletonINS0_25extended_type_info_typeidINSt3__13mapIiNS3_6vectorINS3_12basic_stringIcNS3_11char_traitsIcEENS3_9allocatorIcEEEENS9_ISB_EEEENS3_4lessIiEENS9_INS3_4pairIKiSD_EEEEEEEEEE, 
                       __ZTSN5boost13serialization9singletonINS0_25extended_type_info_typeidINSt3__14pairIKiNS3_6vectorINS3_12basic_stringIcNS3_11char_traitsIcEENS3_9allocatorIcEEEENSA_ISC_EEEEEEEEEE, 
                       __ZTSN5boost13serialization9singletonINS0_25extended_type_info_typeidINSt3__16vectorIN3pps8AxisEnumENS3_9allocatorIS6_EEEEEEEE, 
                       __ZTSN5boost13serialization9singletonINS0_25extended_type_info_typeidINSt3__16vectorINS3_12basic_stringIcNS3_11char_traitsIcEENS3_9allocatorIcEEEENS8_ISA_EEEEEEEE, 
                       __ZTSN5boost13serialization9singletonINS0_25extended_type_info_typeidINSt3__16vectorINS_9histogram4axis7variantIJNS6_7regularIdNS_11use_defaultES9_S9_EENS6_8variableIdS9_S9_NS3_9allocatorIdEEEENS6_7integerIiS9_NS6_6option3bitILj1EEEEEEEENSC_ISK_EEEEEEEE, 
                       __ZTSN5boost13serialization9singletonINS0_25extended_type_info_typeidINSt3__16vectorIdNS3_9allocatorIdEEEEEEEE, 
                       __ZTSN5boost13serialization9singletonINS0_25extended_type_info_typeidINSt3__16vectorIyNS3_9allocatorIyEEEEEEEE, 
                       __ZTSN5boost16exception_detail10clone_baseE, __ZTSN5boost7archive13text_iarchiveE, 
                       __ZTSN5boost7archive13text_oarchiveE, __ZTSN5boost7archive21basic_text_iprimitiveINSt3__113basic_istreamIcNS2_11char_traitsIcEEEEEE, 
                       __ZTSN5boost7archive21basic_text_oprimitiveINSt3__113basic_ostreamIcNS2_11char_traitsIcEEEEEE, 
                       __ZTSN5boost7archive6detail11iserializerINS0_13text_iarchiveEN3pps18Histogram_InternalEEE, 
                       __ZTSN5boost7archive6detail11iserializerINS0_13text_iarchiveENS_7variantINS_9histogram4axis7regularIdNS_11use_defaultES8_S8_EEJNS6_8variableIdS8_S8_NSt3__19allocatorIdEEEENS6_7integerIiS8_NS6_6option3bitILj1EEEEEEEEEE, 
                       __ZTSN5boost7archive6detail11iserializerINS0_13text_iarchiveENS_9histogram17unlimited_storageINSt3__19allocatorIcEEEEEE, 
                       __ZTSN5boost7archive6detail11iserializerINS0_13text_iarchiveENS_9histogram4axis7integerIiNS_11use_defaultENS5_6option3bitILj1EEEEEEE, 
                       __ZTSN5boost7archive6detail11iserializerINS0_13text_iarchiveENS_9histogram4axis7regularIdNS_11use_defaultES7_S7_EEEE, 
                       __ZTSN5boost7archive6detail11iserializerINS0_13text_iarchiveENS_9histogram4axis7variantIJNS5_7regularIdNS_11use_defaultES8_S8_EENS5_8variableIdS8_S8_NSt3__19allocatorIdEEEENS5_7integerIiS8_NS5_6option3bitILj1EEEEEEEEEE, 
                       __ZTSN5boost7archive6detail11iserializerINS0_13text_iarchiveENS_9histogram4axis8variableIdNS_11use_defaultES7_NSt3__19allocatorIdEEEEEE, 
                       __ZTSN5boost7archive6detail11iserializerINS0_13text_iarchiveENS_9histogram4axis9transform2idEEE, 
                       __ZTSN5boost7archive6detail11iserializerINS0_13text_iarchiveENS_9histogram6detail6mp_intINSt3__19allocatorIyEEEEEE, 
                       __ZTSN5boost7archive6detail11iserializerINS0_13text_iarchiveENS_9histogram9histogramINSt3__16vectorINS4_4axis7variantIJNS8_7regularIdNS_11use_defaultESB_SB_EENS8_8variableIdSB_SB_NS6_9allocatorIdEEEENS8_7integerIiSB_NS8_6option3bitILj1EEEEEEEENSE_ISM_EEEENS4_17unlimited_storageINSE_IcEEEEEEEE, 
                       __ZTSN5boost7archive6detail11iserializerINS0_13text_iarchiveENSt3__13mapIiNS4_6vectorINS4_12basic_stringIcNS4_11char_traitsIcEENS4_9allocatorIcEEEENSA_ISC_EEEENS4_4lessIiEENSA_INS4_4pairIKiSE_EEEEEEEE, 
                       __ZTSN5boost7archive6detail11iserializerINS0_13text_iarchiveENSt3__14pairIKiNS4_6vectorINS4_12basic_stringIcNS4_11char_traitsIcEENS4_9allocatorIcEEEENSB_ISD_EEEEEEEE, 
                       __ZTSN5boost7archive6detail11iserializerINS0_13text_iarchiveENSt3__16vectorIN3pps8AxisEnumENS4_9allocatorIS7_EEEEEE, 
                       __ZTSN5boost7archive6detail11iserializerINS0_13text_iarchiveENSt3__16vectorINS4_12basic_stringIcNS4_11char_traitsIcEENS4_9allocatorIcEEEENS9_ISB_EEEEEE, 
                       __ZTSN5boost7archive6detail11iserializerINS0_13text_iarchiveENSt3__16vectorINS_9histogram4axis7variantIJNS7_7regularIdNS_11use_defaultESA_SA_EENS7_8variableIdSA_SA_NS4_9allocatorIdEEEENS7_7integerIiSA_NS7_6option3bitILj1EEEEEEEENSD_ISL_EEEEEE, 
                       __ZTSN5boost7archive6detail11iserializerINS0_13text_iarchiveENSt3__16vectorIdNS4_9allocatorIdEEEEEE, 
                       __ZTSN5boost7archive6detail11iserializerINS0_13text_iarchiveENSt3__16vectorIyNS4_9allocatorIyEEEEEE, 
                       __ZTSN5boost7archive6detail11oserializerINS0_13text_oarchiveEN3pps18Histogram_InternalEEE, 
                       __ZTSN5boost7archive6detail11oserializerINS0_13text_oarchiveENS_7variantINS_9histogram4axis7regularIdNS_11use_defaultES8_S8_EEJNS6_8variableIdS8_S8_NSt3__19allocatorIdEEEENS6_7integerIiS8_NS6_6option3bitILj1EEEEEEEEEE, 
                       __ZTSN5boost7archive6detail11oserializerINS0_13text_oarchiveENS_9histogram17unlimited_storageINSt3__19allocatorIcEEEEEE, 
                       __ZTSN5boost7archive6detail11oserializerINS0_13text_oarchiveENS_9histogram4axis7integerIiNS_11use_defaultENS5_6option3bitILj1EEEEEEE, 
                       __ZTSN5boost7archive6detail11oserializerINS0_13text_oarchiveENS_9histogram4axis7regularIdNS_11use_defaultES7_S7_EEEE, 
                       __ZTSN5boost7archive6detail11oserializerINS0_13text_oarchiveENS_9histogram4axis7variantIJNS5_7regularIdNS_11use_defaultES8_S8_EENS5_8variableIdS8_S8_NSt3__19allocatorIdEEEENS5_7integerIiS8_NS5_6option3bitILj1EEEEEEEEEE, 
                       __ZTSN5boost7archive6detail11oserializerINS0_13text_oarchiveENS_9histogram4axis8variableIdNS_11use_defaultES7_NSt3__19allocatorIdEEEEEE, 
                       __ZTSN5boost7archive6detail11oserializerINS0_13text_oarchiveENS_9histogram4axis9transform2idEEE, 
                       __ZTSN5boost7archive6detail11oserializerINS0_13text_oarchiveENS_9histogram6detail6mp_intINSt3__19allocatorIyEEEEEE, 
                       __ZTSN5boost7archive6detail11oserializerINS0_13text_oarchiveENS_9histogram9histogramINSt3__16vectorINS4_4axis7variantIJNS8_7regularIdNS_11use_defaultESB_SB_EENS8_8variableIdSB_SB_NS6_9allocatorIdEEEENS8_7integerIiSB_NS8_6option3bitILj1EEEEEEEENSE_ISM_EEEENS4_17unlimited_storageINSE_IcEEEEEEEE, 
                       __ZTSN5boost7archive6detail11oserializerINS0_13text_oarchiveENSt3__13mapIiNS4_6vectorINS4_12basic_stringIcNS4_11char_traitsIcEENS4_9allocatorIcEEEENSA_ISC_EEEENS4_4lessIiEENSA_INS4_4pairIKiSE_EEEEEEEE, 
                       __ZTSN5boost7archive6detail11oserializerINS0_13text_oarchiveENSt3__14pairIKiNS4_6vectorINS4_12basic_stringIcNS4_11char_traitsIcEENS4_9allocatorIcEEEENSB_ISD_EEEEEEEE, 
                       __ZTSN5boost7archive6detail11oserializerINS0_13text_oarchiveENSt3__16vectorIN3pps8AxisEnumENS4_9allocatorIS7_EEEEEE, 
                       __ZTSN5boost7archive6detail11oserializerINS0_13text_oarchiveENSt3__16vectorINS4_12basic_stringIcNS4_11char_traitsIcEENS4_9allocatorIcEEEENS9_ISB_EEEEEE, 
                       __ZTSN5boost7archive6detail11oserializerINS0_13text_oarchiveENSt3__16vectorINS_9histogram4axis7variantIJNS7_7regularIdNS_11use_defaultESA_SA_EENS7_8variableIdSA_SA_NS4_9allocatorIdEEEENS7_7integerIiSA_NS7_6option3bitILj1EEEEEEEENSD_ISL_EEEEEE, 
                       __ZTSN5boost7archive6detail11oserializerINS0_13text_oarchiveENSt3__16vectorIdNS4_9allocatorIdEEEEEE, 
                       __ZTSN5boost7archive6detail11oserializerINS0_13text_oarchiveENSt3__16vectorIyNS4_9allocatorIyEEEEEE, 
                       __ZTSN5boost7archive6detail15common_iarchiveINS0_13text_iarchiveEEE, 
                       __ZTSN5boost7archive6detail15common_oarchiveINS0_13text_oarchiveEEE, 
                       __ZTSN5boost7archive6detail18interface_iarchiveINS0_13text_iarchiveEEE, 
                       __ZTSN5boost7archive6detail18interface_oarchiveINS0_13text_oarchiveEEE, 
                       __ZTSN5boost7bad_getE, __ZTSN5boost7variantINS_9histogram4axis7regularIdNS_11use_defaultES4_S4_EEJNS2_8variableIdS4_S4_NSt3__19allocatorIdEEEENS2_7integerIiS4_NS2_6option3bitILj1EEEEEEEE, 
                       __ZTSN5boost9exceptionE, __ZTSN5boost9histogram17unlimited_storageINSt3__19allocatorIcEEEE, 
                       __ZTSN5boost9histogram4axis14iterator_mixinINS1_7integerIiNS_11use_defaultENS1_6option3bitILj1EEEEEEE, 
                       __ZTSN5boost9histogram4axis14iterator_mixinINS1_7regularIdNS_11use_defaultES4_S4_EEEE, 
                       __ZTSN5boost9histogram4axis14iterator_mixinINS1_7variantIJNS1_7regularIdNS_11use_defaultES5_S5_EENS1_8variableIdS5_S5_NSt3__19allocatorIdEEEENS1_7integerIiS5_NS1_6option3bitILj1EEEEEEEEEE, 
                       __ZTSN5boost9histogram4axis14iterator_mixinINS1_8variableIdNS_11use_defaultES4_NSt3__19allocatorIdEEEEEE, 
                       __ZTSN5boost9histogram4axis7integerIiNS_11use_defaultENS1_6option3bitILj1EEEEE, 
                       __ZTSN5boost9histogram4axis7regularIdNS_11use_defaultES3_S3_EE, 
                       __ZTSN5boost9histogram4axis7variantIJNS1_7regularIdNS_11use_defaultES4_S4_EENS1_8variableIdS4_S4_NSt3__19allocatorIdEEEENS1_7integerIiS4_NS1_6option3bitILj1EEEEEEEE, 
                       __ZTSN5boost9histogram4axis8variableIdNS_11use_defaultES3_NSt3__19allocatorIdEEEE, 
                       __ZTSN5boost9histogram4axis9transform2idE, __ZTSN5boost9histogram6detail6mp_intINSt3__19allocatorIyEEEE, 
                       __ZTSN5boost9histogram9histogramINSt3__16vectorINS0_4axis7variantIJNS4_7regularIdNS_11use_defaultES7_S7_EENS4_8variableIdS7_S7_NS2_9allocatorIdEEEENS4_7integerIiS7_NS4_6option3bitILj1EEEEEEEENSA_ISI_EEEENS0_17unlimited_storageINSA_IcEEEEEE, 
                       __ZTSNSt3__110__function6__baseIFvP14NSMutableArrayEEE, __ZTSNSt3__13mapIiNS_6vectorINS_12basic_stringIcNS_11char_traitsIcEENS_9allocatorIcEEEENS5_IS7_EEEENS_4lessIiEENS5_INS_4pairIKiS9_EEEEEE, 
                       __ZTSNSt3__14pairIKiNS_6vectorINS_12basic_stringIcNS_11char_traitsIcEENS_9allocatorIcEEEENS6_IS8_EEEEEE, 
                       __ZTSNSt3__15tupleIJRKdS2_EEE, __ZTSNSt3__15tupleIJRKdS2_S2_EEE, 
                       __ZTSNSt3__15tupleIJRKdS2_S2_S2_EEE, __ZTSNSt3__15tupleIJRKdS2_S2_S2_S2_EEE, 
                       __ZTSNSt3__15tupleIJRKdS2_S2_S2_S2_S2_EEE, __ZTSNSt3__15tupleIJRKdS2_S2_S2_S2_S2_S2_EEE, 
                       __ZTSNSt3__15tupleIJRKdS2_S2_S2_S2_S2_S2_S2_EEE, __ZTSNSt3__15tupleIJRKdS2_S2_S2_S2_S2_S2_S2_S2_EEE, 
                       __ZTSNSt3__15tupleIJRKdS2_S2_S2_S2_S2_S2_S2_S2_S2_EEE, __ZTSNSt3__16vectorIN3pps8AxisEnumENS_9allocatorIS2_EEEE, 
                       __ZTSNSt3__16vectorIN5boost9histogram4axis7variantIJNS3_7regularIdNS1_11use_defaultES6_S6_EENS3_8variableIdS6_S6_NS_9allocatorIdEEEENS3_7integerIiS6_NS3_6option3bitILj1EEEEEEEENS9_ISH_EEEE, 
                       __ZTSNSt3__16vectorINS_12basic_stringIcNS_11char_traitsIcEENS_9allocatorIcEEEENS4_IS6_EEEE, 
                       __ZTSNSt3__16vectorIdNS_9allocatorIdEEEE, __ZTSNSt3__16vectorIyNS_9allocatorIyEEEE ]
  - targets:         [ x86_64-macos, arm64-macos, arm64e-macos ]
    symbols:         [ _AWDMETRICSBwpStatsReadFrom, _AWDMETRICSCellularDynamicRatSelectionReadFrom, 
                       _AWDMETRICSCellularNrRadioStatsReadFrom, _AWDMETRICSCellularNrSDMActivationReadFrom, 
                       _AWDMETRICSCellularNrSdmEndcReleaseReadFrom, _AWDMETRICSCellularPerClientProfileTriggerCountReadFrom, 
                       _AWDMETRICSCellularPowerLog1xEVDORRCStateChangeReadFrom, _AWDMETRICSCellularPowerLogGSMRRCStateChangeReadFrom, 
                       _AWDMETRICSCellularPowerLogHistogramReadFrom, _AWDMETRICSCellularPowerLogLTECDRXConfigReadFrom, 
                       _AWDMETRICSCellularPowerLogLTECarrierComponentInfoReadFrom, 
                       _AWDMETRICSCellularPowerLogLTERRCStateChangeReadFrom, _AWDMETRICSCellularPowerLogNRCDRXConfigReadFrom, 
                       _AWDMETRICSCellularPowerLogNRCarrierComponentInfoReadFrom, 
                       _AWDMETRICSCellularPowerLogNRDCEventReadFrom, _AWDMETRICSCellularPowerLogNRFRCoverageReadFrom, 
                       _AWDMETRICSCellularPowerLogNRNSAENDCEventReadFrom, _AWDMETRICSCellularPowerLogNRSARRCStateChangeReadFrom, 
                       _AWDMETRICSCellularPowerLogNRSCGRelReadFrom, _AWDMETRICSCellularPowerLogPLMNScanEventReadFrom, 
                       _AWDMETRICSCellularPowerLogPLMNSearchEventReadFrom, _AWDMETRICSCellularPowerLogPagingDRXCycleReadFrom, 
                       _AWDMETRICSCellularPowerLogRATChangeEventReadFrom, _AWDMETRICSCellularPowerLogReadFrom, 
                       _AWDMETRICSCellularPowerLogSFTStateEventReadFrom, _AWDMETRICSCellularPowerLogServiceEventReadFrom, 
                       _AWDMETRICSCellularPowerLogShutdownReadFrom, _AWDMETRICSCellularPowerLogSystemEventReadFrom, 
                       _AWDMETRICSCellularPowerLogWCDMACDRXConfigReadFrom, _AWDMETRICSCellularPowerLogWCDMARRCStateChangeReadFrom, 
                       _AWDMETRICSCellularPowerLogWUSReadFrom, _AWDMETRICSKCellularAcmSleepStatsAcmCaSleepLevelsReadFrom, 
                       _AWDMETRICSKCellularAcmSleepStatsReadFrom, _AWDMETRICSKCellularLteCdrxConfigReadFrom, 
                       _AWDMETRICSKCellularLteDataInactivityBeforeIdleReadFrom, _AWDMETRICSKCellularLtePagingCycleReadFrom, 
                       _AWDMETRICSKCellularNrSDMActivationReadFrom, _AWDMETRICSKCellularNrSdmEndcReleaseReadFrom, 
                       _AWDMETRICSKCellularPerClientProfileTriggerCountReadFrom, 
                       _AWDMETRICSKCellularPlatformApBbSleepStatsPlatformStateReadFrom, 
                       _AWDMETRICSKCellularPlatformApBbSleepStatsReadFrom, _AWDMETRICSKCellularPowerLogAcmPerfLevelsMBinReadFrom, 
                       _AWDMETRICSKCellularPowerLogAcmPerfLevelsReadFrom, _AWDMETRICSKCellularPowerLogAggregatedDLTBSHistMBinReadFrom, 
                       _AWDMETRICSKCellularPowerLogAggregatedDLTBSHistReadFrom, _AWDMETRICSKCellularPowerLogBasebandSleepVetoReadFrom, 
                       _AWDMETRICSKCellularPowerLogBasebandSleepVetoSleepVetoReadFrom, 
                       _AWDMETRICSKCellularPowerLogCpuPerfLevelsMBinReadFrom, _AWDMETRICSKCellularPowerLogCpuPerfLevelsReadFrom, 
                       _AWDMETRICSKCellularPowerLogGPSStatesMBinReadFrom, _AWDMETRICSKCellularPowerLogGPSStatesReadFrom, 
                       _AWDMETRICSKCellularPowerLogGSMRABModeMBinReadFrom, _AWDMETRICSKCellularPowerLogGSMRABModeReadFrom, 
                       _AWDMETRICSKCellularPowerLogGsmRrcStateChangeReadFrom, _AWDMETRICSKCellularPowerLogLteCaConfigActivateStatsMBinReadFrom, 
                       _AWDMETRICSKCellularPowerLogLteCaConfigActivateStatsReadFrom, 
                       _AWDMETRICSKCellularPowerLogLteCarrierComponentInfoMCarrierComponentInfoReadFrom, 
                       _AWDMETRICSKCellularPowerLogLteCarrierComponentInfoReadFrom, 
                       _AWDMETRICSKCellularPowerLogLteNrRxDiversityHistReadFrom, 
                       _AWDMETRICSKCellularPowerLogLteNrRxDiversityHistRxdBinReadFrom, 
                       _AWDMETRICSKCellularPowerLogLteNrRxTxActivityStatsReadFrom, 
                       _AWDMETRICSKCellularPowerLogLteNrRxTxActivityStatsRxTxActivityReadFrom, 
                       _AWDMETRICSKCellularPowerLogLteNrTxPowerHistHistReadFrom, 
                       _AWDMETRICSKCellularPowerLogLteNrTxPowerHistReadFrom, _AWDMETRICSKCellularPowerLogLteRrcStateChangeReadFrom, 
                       _AWDMETRICSKCellularPowerLogNRBWPHistMBinReadFrom, _AWDMETRICSKCellularPowerLogNRBWPHistReadFrom, 
                       _AWDMETRICSKCellularPowerLogNRCarrierComponentInfoMCarrierComponentInfoReadFrom, 
                       _AWDMETRICSKCellularPowerLogNRCarrierComponentInfoReadFrom, 
                       _AWDMETRICSKCellularPowerLogNRCdrxConfigNrCdrxConfigPerCellGroupReadFrom, 
                       _AWDMETRICSKCellularPowerLogNRCdrxConfigNrCdrxSecondaryConfigPerCellGroupReadFrom, 
                       _AWDMETRICSKCellularPowerLogNRCdrxConfigReadFrom, _AWDMETRICSKCellularPowerLogNRNSAENDCEventReadFrom, 
                       _AWDMETRICSKCellularPowerLogNRPagingDRXCycleReadFrom, _AWDMETRICSKCellularPowerLogNRSCGRelReadFrom, 
                       _AWDMETRICSKCellularPowerLogNRSub6RSRPHistMBinReadFrom, _AWDMETRICSKCellularPowerLogNRSub6RSRPHistReadFrom, 
                       _AWDMETRICSKCellularPowerLogNRSub6SINRHistMBinReadFrom, _AWDMETRICSKCellularPowerLogNRSub6SINRHistReadFrom, 
                       _AWDMETRICSKCellularPowerLogNrCaConfigActivateStatsMBinReadFrom, 
                       _AWDMETRICSKCellularPowerLogNrCaConfigActivateStatsReadFrom, 
                       _AWDMETRICSKCellularPowerLogNrSaRrcStateChangeReadFrom, _AWDMETRICSKCellularPowerLogPLMNSearchHistMBinReadFrom, 
                       _AWDMETRICSKCellularPowerLogPLMNSearchHistReadFrom, _AWDMETRICSKCellularPowerLogPlmnSearchEventReadFrom, 
                       _AWDMETRICSKCellularPowerLogPowerEstimatorComponentPowerStatsReadFrom, 
                       _AWDMETRICSKCellularPowerLogPowerEstimatorReadFrom, _AWDMETRICSKCellularPowerLogProtocolStateHistMBinReadFrom, 
                       _AWDMETRICSKCellularPowerLogProtocolStateHistReadFrom, _AWDMETRICSKCellularPowerLogRatChangeEventReadFrom, 
                       _AWDMETRICSKCellularPowerLogServiceStatusEventReadFrom, _AWDMETRICSKCellularPowerLogSleepStatesMBinReadFrom, 
                       _AWDMETRICSKCellularPowerLogSleepStatesReadFrom, _AWDMETRICSKCellularPowerLogSocPerfLevelsMBinReadFrom, 
                       _AWDMETRICSKCellularPowerLogSocPerfLevelsReadFrom, _AWDMETRICSKCellularPowerLogSubsysSleepStatesMBinReadFrom, 
                       _AWDMETRICSKCellularPowerLogSubsysSleepStatesReadFrom, _AWDMETRICSKCellularPowerLogSystemEventReadFrom, 
                       _AWDMETRICSKCellularPowerLogWCDMACDRXConfigReadFrom, _AWDMETRICSKCellularPowerLogWcdmaPagingDRXCycleReadFrom, 
                       _AWDMETRICSKCellularPowerLogWcdmaRrcStateChangeReadFrom, _AWDMETRICSKCellularPowerLogXOShutdownMBinReadFrom, 
                       _AWDMETRICSKCellularPowerLogXOShutdownReadFrom, _AWDMETRICSKCellularPowerlogProtocolStackHistReadFrom, 
                       _AWDMETRICSKCellularPowerlogRFSSVoltageLevelsReadFrom, _AWDMETRICSKCellularPowerlogRFSSVoltageLevelsRfSSReadFrom, 
                       _AWDMETRICSKCellularPowerlogRrcModeHistReadFrom, _AWDMETRICSKCellularWcdmaDataInactivityBeforeIdleReadFrom, 
                       _AWDMETRICSMBinReadFrom, _AWDMETRICSMCarrierComponentInfoReadFrom, 
                       _AWDMETRICSMetricLogPowerReadFrom, _PPSConvertValueWithNSUnit, 
                       _PPSConvertValueWithPPSUnit, _PPSCreateSubsystemCategoryPredicate, 
                       _PPSDataFKIDKey, _PPSDataIDKey, _PPSDataRequestErrorDomain, 
                       _PPSDataRequestPredicateCategoryKey, _PPSDataRequestPredicateSubsystemKey, 
                       _PPSDataSystemTimeOffsetKey, _PPSDataTimeOffsetCategory, _PPSDataTimeOffsetSubsystem, 
                       _PPSDataTimestampEndKey, _PPSDataTimestampKey, _PPSFetchTimeSeries, 
                       _PPSMetricDirectionalityKey, _PPSReaderLog, _PPSSQLiteBindFoundationValueToStatement, 
                       _PPSSQLiteColumnAsFoundationType, _PPSSQLiteColumnIndexWithName, 
                       _PPSSQLiteColumnValueAsBoolean, _PPSSQLiteColumnValueAsBytes, 
                       _PPSSQLiteColumnValueAsData, _PPSSQLiteColumnValueAsDate, 
                       _PPSSQLiteColumnValueAsDouble, _PPSSQLiteColumnValueAsInt, 
                       _PPSSQLiteColumnValueAsNonEmptyString, _PPSSQLiteColumnValueAsNumber, 
                       _PPSSQLiteColumnValueAsString, _PPSSQLiteColumnValueIsNull, 
                       _PPSSQLiteColumnValueWithNameAsBoolean, _PPSSQLiteColumnValueWithNameAsData, 
                       _PPSSQLiteColumnValueWithNameAsDate, _PPSSQLiteColumnValueWithNameAsDouble, 
                       _PPSSQLiteColumnValueWithNameAsFoundationType, _PPSSQLiteColumnValueWithNameAsInt, 
                       _PPSSQLiteColumnValueWithNameAsInt64, _PPSSQLiteColumnValueWithNameAsNonEmptyString, 
                       _PPSSQLiteColumnValueWithNameAsNumber, _PPSSQLiteColumnValueWithNameAsString, 
                       _PPSSQLiteColumnValueWithNameIsNull, _PPSSQLiteColumnValuesAsInt64, 
                       _PPSSQLiteOrderAscending, _PPSSQLiteOrderDescending, _PPSSQLiteQueryNoLimit, 
                       _PerfPowerServicesGetData, _PerfPowerServicesGetLogLines, 
                       __Z41PPSQLiteFoundationValueForStatementColumnP12sqlite3_stmti, 
                       __ZN3pps18Histogram_Internal5resetEv, __ZN3pps18Histogram_Internal6recordERKNSt3__16vectorIdNS1_9allocatorIdEEEE, 
                       __ZN3pps18Histogram_InternalC1ERKNSt3__16vectorINS_19AxisConfig_InternalENS1_9allocatorIS3_EEEE, 
                       __ZN3pps18Histogram_InternalC1ERKS0_, __ZN3pps18Histogram_InternalC1Ejdd, 
                       __ZN3pps18Histogram_InternalC1Ev, __ZN3pps18Histogram_InternalC2ERKNSt3__16vectorINS_19AxisConfig_InternalENS1_9allocatorIS3_EEEE, 
                       __ZN3pps18Histogram_InternalC2ERKS0_, __ZN3pps18Histogram_InternalC2Ejdd, 
                       __ZN3pps18Histogram_InternalC2Ev, __ZN5boost13serialization13typeid_system27extended_type_info_typeid_013type_registerERKSt9type_info, 
                       __ZN5boost13serialization13typeid_system27extended_type_info_typeid_015type_unregisterEv, 
                       __ZN5boost13serialization13typeid_system27extended_type_info_typeid_0C2EPKc, 
                       __ZN5boost13serialization13typeid_system27extended_type_info_typeid_0D0Ev, 
                       __ZN5boost13serialization13typeid_system27extended_type_info_typeid_0D1Ev, 
                       __ZN5boost13serialization13typeid_system27extended_type_info_typeid_0D2Ev, 
                       __ZN5boost13serialization18extended_type_info4findEPKc, __ZN5boost13serialization18extended_type_infoC2EjPKc, 
                       __ZN5boost13serialization18extended_type_infoD0Ev, __ZN5boost13serialization18extended_type_infoD1Ev, 
                       __ZN5boost13serialization18extended_type_infoD2Ev, __ZN5boost7archive17archive_exception6appendEjPKc, 
                       __ZN5boost7archive17archive_exceptionC1ENS1_14exception_codeEPKcS4_, 
                       __ZN5boost7archive17archive_exceptionC1ERKS1_, __ZN5boost7archive17archive_exceptionC1Ev, 
                       __ZN5boost7archive17archive_exceptionC2ENS1_14exception_codeEPKcS4_, 
                       __ZN5boost7archive17archive_exceptionC2ERKS1_, __ZN5boost7archive17archive_exceptionC2Ev, 
                       __ZN5boost7archive17archive_exceptionD0Ev, __ZN5boost7archive17archive_exceptionD1Ev, 
                       __ZN5boost7archive17archive_exceptionD2Ev, __ZN5boost7archive21BOOST_ARCHIVE_VERSIONEv, 
                       __ZN5boost7archive23BOOST_ARCHIVE_SIGNATUREEv, __ZN5boost7archive6detail14basic_iarchive11load_objectEPvRKNS1_17basic_iserializerE, 
                       __ZN5boost7archive6detail14basic_iarchive12load_pointerERPvPKNS1_25basic_pointer_iserializerEPFS7_RKNS_13serialization18extended_type_infoEE, 
                       __ZN5boost7archive6detail14basic_iarchive19next_object_pointerEPv, 
                       __ZN5boost7archive6detail14basic_iarchive19set_library_versionENS_13serialization20library_version_typeE, 
                       __ZN5boost7archive6detail14basic_iarchive20reset_object_addressEPKvS4_, 
                       __ZN5boost7archive6detail14basic_iarchive23delete_created_pointersEv, 
                       __ZN5boost7archive6detail14basic_iarchive25register_basic_serializerERKNS1_17basic_iserializerE, 
                       __ZN5boost7archive6detail14basic_iarchiveC2Ej, __ZN5boost7archive6detail14basic_iarchiveD0Ev, 
                       __ZN5boost7archive6detail14basic_iarchiveD1Ev, __ZN5boost7archive6detail14basic_iarchiveD2Ev, 
                       __ZN5boost7archive6detail14basic_oarchive11save_objectEPKvRKNS1_17basic_oserializerE, 
                       __ZN5boost7archive6detail14basic_oarchive12end_preambleEv, 
                       __ZN5boost7archive6detail14basic_oarchive12save_pointerEPKvPKNS1_25basic_pointer_oserializerE, 
                       __ZN5boost7archive6detail14basic_oarchive21get_helper_collectionEv, 
                       __ZN5boost7archive6detail14basic_oarchive25register_basic_serializerERKNS1_17basic_oserializerE, 
                       __ZN5boost7archive6detail14basic_oarchiveC2Ej, __ZN5boost7archive6detail14basic_oarchiveD0Ev, 
                       __ZN5boost7archive6detail14basic_oarchiveD1Ev, __ZN5boost7archive6detail14basic_oarchiveD2Ev, 
                       __ZN5boost7archive6detail17basic_iserializerC2ERKNS_13serialization18extended_type_infoE, 
                       __ZN5boost7archive6detail17basic_iserializerD0Ev, __ZN5boost7archive6detail17basic_iserializerD1Ev, 
                       __ZN5boost7archive6detail17basic_iserializerD2Ev, __ZN5boost7archive6detail17basic_oserializerC2ERKNS_13serialization18extended_type_infoE, 
                       __ZN5boost7archive6detail17basic_oserializerD0Ev, __ZN5boost7archive6detail17basic_oserializerD1Ev, 
                       __ZN5boost7archive6detail17basic_oserializerD2Ev, __ZN5boost7archive6detail20basic_serializer_map5eraseEPKNS1_16basic_serializerE, 
                       __ZN5boost7archive6detail20basic_serializer_map6insertEPKNS1_16basic_serializerE, 
                       __ZNK3pps18Histogram_Internal11binCategoryEii, __ZNK3pps18Histogram_Internal11meanForAxisEi, 
                       __ZNK3pps18Histogram_Internal11modeForAxisEi, __ZNK3pps18Histogram_Internal13indexOfSampleEdi, 
                       __ZNK3pps18Histogram_Internal13leftEdgeOfBinEii, __ZNK3pps18Histogram_Internal13medianForAxisEi, 
                       __ZNK3pps18Histogram_Internal13midPointOfBinEii, __ZNK3pps18Histogram_Internal14cumulativeDataEb, 
                       __ZNK3pps18Histogram_Internal14isCategoryAxisEi, __ZNK3pps18Histogram_Internal14rightEdgeOfBinEii, 
                       __ZNK3pps18Histogram_Internal15indicesOfSampleERKNSt3__16vectorIdNS1_9allocatorIdEEEE, 
                       __ZNK3pps18Histogram_Internal15maxRangeForAxisEi, __ZNK3pps18Histogram_Internal15minRangeForAxisEi, 
                       __ZNK3pps18Histogram_Internal15varianceForAxisEi, __ZNK3pps18Histogram_Internal16axisRangeOfBinAtEii, 
                       __ZNK3pps18Histogram_Internal16binCountsForAxisEi, __ZNK3pps18Histogram_Internal16maxSampleForAxisEi, 
                       __ZNK3pps18Histogram_Internal16minSampleForAxisEi, __ZNK3pps18Histogram_Internal17categoriesPerAxisEv, 
                       __ZNK3pps18Histogram_Internal24valueForPercentileInAxisEdi, 
                       __ZNK3pps18Histogram_Internal3sumEb, __ZNK3pps18Histogram_Internal4axisEi, 
                       __ZNK3pps18Histogram_Internal4dataEb, __ZNK3pps18Histogram_Internal4hashEv, 
                       __ZNK3pps18Histogram_Internal8binCountEv, __ZNK3pps18Histogram_Internal9axisCountEv, 
                       __ZNK3pps18Histogram_InternaleqERKS0_, __ZNK5boost13serialization13typeid_system27extended_type_info_typeid_012is_less_thanERKNS0_18extended_type_infoE, 
                       __ZNK5boost13serialization13typeid_system27extended_type_info_typeid_022get_extended_type_infoERKSt9type_info, 
                       __ZNK5boost13serialization13typeid_system27extended_type_info_typeid_08is_equalERKNS0_18extended_type_infoE, 
                       __ZNK5boost13serialization18extended_type_info12key_registerEv, 
                       __ZNK5boost13serialization18extended_type_info14key_unregisterEv, 
                       __ZNK5boost13serialization18extended_type_infoeqERKS1_, __ZNK5boost13serialization18extended_type_infoltERKS1_, 
                       __ZNK5boost7archive17archive_exception4whatEv, __ZNK5boost7archive6detail14basic_iarchive19get_library_versionEv, 
                       __ZNK5boost7archive6detail14basic_iarchive9get_flagsEv, __ZNK5boost7archive6detail14basic_oarchive19get_library_versionEv, 
                       __ZNK5boost7archive6detail14basic_oarchive9get_flagsEv, __ZNK5boost7archive6detail20basic_serializer_map25type_info_pointer_compareclEPKNS1_16basic_serializerES6_, 
                       __ZNK5boost7archive6detail20basic_serializer_map4findERKNS_13serialization18extended_type_infoE, 
                       __ZTIN5boost13serialization13typeid_system27extended_type_info_typeid_0E, 
                       __ZTIN5boost13serialization18extended_type_infoE, __ZTIN5boost7archive17archive_exceptionE, 
                       __ZTIN5boost7archive6detail14basic_iarchiveE, __ZTIN5boost7archive6detail14basic_oarchiveE, 
                       __ZTIN5boost7archive6detail17basic_iserializerE, __ZTIN5boost7archive6detail17basic_oserializerE, 
                       __ZTSN5boost13serialization13typeid_system27extended_type_info_typeid_0E, 
                       __ZTSN5boost13serialization18extended_type_infoE, __ZTSN5boost7archive17archive_exceptionE, 
                       __ZTSN5boost7archive6detail14basic_iarchiveE, __ZTSN5boost7archive6detail14basic_oarchiveE, 
                       __ZTSN5boost7archive6detail17basic_iserializerE, __ZTSN5boost7archive6detail17basic_oserializerE, 
                       __ZTTN5boost7archive17archive_exceptionE, __ZTVN5boost13serialization13typeid_system27extended_type_info_typeid_0E, 
                       __ZTVN5boost13serialization18extended_type_infoE, __ZTVN5boost7archive17archive_exceptionE, 
                       __ZTVN5boost7archive6detail14basic_iarchiveE, __ZTVN5boost7archive6detail14basic_oarchiveE, 
                       __ZTVN5boost7archive6detail17basic_iserializerE, __ZTVN5boost7archive6detail17basic_oserializerE, 
                       __ZTv0_n24_N5boost7archive17archive_exceptionD0Ev, __ZTv0_n24_N5boost7archive17archive_exceptionD1Ev, 
                       __ZTv0_n32_NK5boost7archive17archive_exception4whatEv ]
    objc-classes:    [ AWDMETRICSBwpStats, AWDMETRICSCellularDynamicRatSelection, 
                       AWDMETRICSCellularNrRadioStats, AWDMETRICSCellularNrSDMActivation, 
                       AWDMETRICSCellularNrSdmEndcRelease, AWDMETRICSCellularPerClientProfileTriggerCount, 
                       AWDMETRICSCellularPowerLog, AWDMETRICSCellularPowerLog1xEVDORRCStateChange, 
                       AWDMETRICSCellularPowerLogGSMRRCStateChange, AWDMETRICSCellularPowerLogHistogram, 
                       AWDMETRICSCellularPowerLogLTECDRXConfig, AWDMETRICSCellularPowerLogLTECarrierComponentInfo, 
                       AWDMETRICSCellularPowerLogLTERRCStateChange, AWDMETRICSCellularPowerLogNRCDRXConfig, 
                       AWDMETRICSCellularPowerLogNRCarrierComponentInfo, AWDMETRICSCellularPowerLogNRDCEvent, 
                       AWDMETRICSCellularPowerLogNRFRCoverage, AWDMETRICSCellularPowerLogNRNSAENDCEvent, 
                       AWDMETRICSCellularPowerLogNRSARRCStateChange, AWDMETRICSCellularPowerLogNRSCGRel, 
                       AWDMETRICSCellularPowerLogPLMNScanEvent, AWDMETRICSCellularPowerLogPLMNSearchEvent, 
                       AWDMETRICSCellularPowerLogPagingDRXCycle, AWDMETRICSCellularPowerLogRATChangeEvent, 
                       AWDMETRICSCellularPowerLogSFTStateEvent, AWDMETRICSCellularPowerLogServiceEvent, 
                       AWDMETRICSCellularPowerLogShutdown, AWDMETRICSCellularPowerLogSystemEvent, 
                       AWDMETRICSCellularPowerLogWCDMACDRXConfig, AWDMETRICSCellularPowerLogWCDMARRCStateChange, 
                       AWDMETRICSCellularPowerLogWUS, AWDMETRICSKCellularAcmSleepStats, 
                       AWDMETRICSKCellularAcmSleepStatsAcmCaSleepLevels, AWDMETRICSKCellularLteCdrxConfig, 
                       AWDMETRICSKCellularLteDataInactivityBeforeIdle, AWDMETRICSKCellularLtePagingCycle, 
                       AWDMETRICSKCellularNrSDMActivation, AWDMETRICSKCellularNrSdmEndcRelease, 
                       AWDMETRICSKCellularPerClientProfileTriggerCount, AWDMETRICSKCellularPlatformApBbSleepStats, 
                       AWDMETRICSKCellularPlatformApBbSleepStatsPlatformState, AWDMETRICSKCellularPowerLogAcmPerfLevels, 
                       AWDMETRICSKCellularPowerLogAcmPerfLevelsMBin, AWDMETRICSKCellularPowerLogAggregatedDLTBSHist, 
                       AWDMETRICSKCellularPowerLogAggregatedDLTBSHistMBin, AWDMETRICSKCellularPowerLogBasebandSleepVeto, 
                       AWDMETRICSKCellularPowerLogBasebandSleepVetoSleepVeto, AWDMETRICSKCellularPowerLogCpuPerfLevels, 
                       AWDMETRICSKCellularPowerLogCpuPerfLevelsMBin, AWDMETRICSKCellularPowerLogGPSStates, 
                       AWDMETRICSKCellularPowerLogGPSStatesMBin, AWDMETRICSKCellularPowerLogGSMRABMode, 
                       AWDMETRICSKCellularPowerLogGSMRABModeMBin, AWDMETRICSKCellularPowerLogGsmRrcStateChange, 
                       AWDMETRICSKCellularPowerLogLteCaConfigActivateStats, AWDMETRICSKCellularPowerLogLteCaConfigActivateStatsMBin, 
                       AWDMETRICSKCellularPowerLogLteCarrierComponentInfo, AWDMETRICSKCellularPowerLogLteCarrierComponentInfoMCarrierComponentInfo, 
                       AWDMETRICSKCellularPowerLogLteNrRxDiversityHist, AWDMETRICSKCellularPowerLogLteNrRxDiversityHistRxdBin, 
                       AWDMETRICSKCellularPowerLogLteNrRxTxActivityStats, AWDMETRICSKCellularPowerLogLteNrRxTxActivityStatsRxTxActivity, 
                       AWDMETRICSKCellularPowerLogLteNrTxPowerHist, AWDMETRICSKCellularPowerLogLteNrTxPowerHistHist, 
                       AWDMETRICSKCellularPowerLogLteRrcStateChange, AWDMETRICSKCellularPowerLogNRBWPHist, 
                       AWDMETRICSKCellularPowerLogNRBWPHistMBin, AWDMETRICSKCellularPowerLogNRCarrierComponentInfo, 
                       AWDMETRICSKCellularPowerLogNRCarrierComponentInfoMCarrierComponentInfo, 
                       AWDMETRICSKCellularPowerLogNRCdrxConfig, AWDMETRICSKCellularPowerLogNRCdrxConfigNrCdrxConfigPerCellGroup, 
                       AWDMETRICSKCellularPowerLogNRCdrxConfigNrCdrxSecondaryConfigPerCellGroup, 
                       AWDMETRICSKCellularPowerLogNRNSAENDCEvent, AWDMETRICSKCellularPowerLogNRPagingDRXCycle, 
                       AWDMETRICSKCellularPowerLogNRSCGRel, AWDMETRICSKCellularPowerLogNRSub6RSRPHist, 
                       AWDMETRICSKCellularPowerLogNRSub6RSRPHistMBin, AWDMETRICSKCellularPowerLogNRSub6SINRHist, 
                       AWDMETRICSKCellularPowerLogNRSub6SINRHistMBin, AWDMETRICSKCellularPowerLogNrCaConfigActivateStats, 
                       AWDMETRICSKCellularPowerLogNrCaConfigActivateStatsMBin, AWDMETRICSKCellularPowerLogNrSaRrcStateChange, 
                       AWDMETRICSKCellularPowerLogPLMNSearchHist, AWDMETRICSKCellularPowerLogPLMNSearchHistMBin, 
                       AWDMETRICSKCellularPowerLogPlmnSearchEvent, AWDMETRICSKCellularPowerLogPowerEstimator, 
                       AWDMETRICSKCellularPowerLogPowerEstimatorComponentPowerStats, 
                       AWDMETRICSKCellularPowerLogProtocolStateHist, AWDMETRICSKCellularPowerLogProtocolStateHistMBin, 
                       AWDMETRICSKCellularPowerLogRatChangeEvent, AWDMETRICSKCellularPowerLogServiceStatusEvent, 
                       AWDMETRICSKCellularPowerLogSleepStates, AWDMETRICSKCellularPowerLogSleepStatesMBin, 
                       AWDMETRICSKCellularPowerLogSocPerfLevels, AWDMETRICSKCellularPowerLogSocPerfLevelsMBin, 
                       AWDMETRICSKCellularPowerLogSubsysSleepStates, AWDMETRICSKCellularPowerLogSubsysSleepStatesMBin, 
                       AWDMETRICSKCellularPowerLogSystemEvent, AWDMETRICSKCellularPowerLogWCDMACDRXConfig, 
                       AWDMETRICSKCellularPowerLogWcdmaPagingDRXCycle, AWDMETRICSKCellularPowerLogWcdmaRrcStateChange, 
                       AWDMETRICSKCellularPowerLogXOShutdown, AWDMETRICSKCellularPowerLogXOShutdownMBin, 
                       AWDMETRICSKCellularPowerlogProtocolStackHist, AWDMETRICSKCellularPowerlogRFSSVoltageLevels, 
                       AWDMETRICSKCellularPowerlogRFSSVoltageLevelsRfSS, AWDMETRICSKCellularPowerlogRrcModeHist, 
                       AWDMETRICSKCellularWcdmaDataInactivityBeforeIdle, AWDMETRICSMBin, 
                       AWDMETRICSMCarrierComponentInfo, AWDMETRICSMetricLogPower, 
                       PPSBasebandDecoder, PPSBasebandRecipeHandler, PPSCountGenerator, 
                       PPSDataIngesterCommonUtilities, PPSDataIngesterRegistry, PPSDataRequest, 
                       PPSDataResponse, PPSEntitlementChecker, PPSEnumerationDecoder, 
                       PPSEvent, PPSGroupingDimension, PPSHistogram, PPSHistogramDimension, 
                       PPSHistogramRequest, PPSIntervalSetRequest, PPSModelURLDecoder, 
                       PPSModelURLRecipeHandler, PPSOffDeviceIngesterUtilities, PPSOnDeviceIngesterUtilities, 
                       PPSPerformanceProfiler, PPSPredicateUtilities, PPSRecipeEngine, 
                       PPSRecipeHandler, PPSRequestDispatcher, PPSRequestValidator, 
                       PPSSQLiteBooleanPredicate, PPSSQLiteComparisonPredicate, PPSSQLiteCompoundPredicate, 
                       PPSSQLiteContainsPredicate, PPSSQLiteDatabase, PPSSQLiteEntity, 
                       PPSSQLiteHistogramIngester, PPSSQLiteNullPredicate, PPSSQLitePredicate, 
                       PPSSQLitePropertyPredicate, PPSSQLiteQuery, PPSSQLiteQueryDescriptor, 
                       PPSSQLiteTimeIntervalSetIngester, PPSSQLiteTimeSeriesIngester, 
                       PPSTimeInterval, PPSTimeIntervalCoalescePolicy, PPSTimeIntervalSet, 
                       PPSTimeIntervalSetGenerator, PPSTimeSeries, PPSTimeSeriesRequest, 
                       PPSTimestampConverter, PPSTimestampConverterRegistry, PPSValueConverter, 
                       PPSVersioningUtilities, PerfPowerServicesReaderHelper, _PPSSQLiteComparisonPredicateIfNull, 
                       _PPSSQLiteComparisonPredicateLikeWithEscape ]
    objc-ivars:      [ AWDMETRICSBwpStats._bandwidth, AWDMETRICSBwpStats._duration, 
                       AWDMETRICSBwpStats._has, AWDMETRICSBwpStats._scsSpacing, AWDMETRICSCellularDynamicRatSelection._bwObservedAfterSwitch, 
                       AWDMETRICSCellularDynamicRatSelection._bwObservedBeforeSwitch, 
                       AWDMETRICSCellularDynamicRatSelection._destRat, AWDMETRICSCellularDynamicRatSelection._dlTputObservedAfterSwitch, 
                       AWDMETRICSCellularDynamicRatSelection._dlTputObservedBeforeSwitch, 
                       AWDMETRICSCellularDynamicRatSelection._has, AWDMETRICSCellularDynamicRatSelection._sourceRat, 
                       AWDMETRICSCellularDynamicRatSelection._subsId, AWDMETRICSCellularDynamicRatSelection._timestamp, 
                       AWDMETRICSCellularDynamicRatSelection._ulTputObservedAfterSwitch, 
                       AWDMETRICSCellularDynamicRatSelection._ulTputObservedBeforeSwitch, 
                       AWDMETRICSCellularNrRadioStats._bwpInfos, AWDMETRICSCellularNrRadioStats._durationMs, 
                       AWDMETRICSCellularNrRadioStats._has, AWDMETRICSCellularNrRadioStats._subsId, 
                       AWDMETRICSCellularNrRadioStats._timestamp, AWDMETRICSCellularNrSDMActivation._apNrRecomm, 
                       AWDMETRICSCellularNrSDMActivation._apNrRecommConfFactor, AWDMETRICSCellularNrSDMActivation._currentRat, 
                       AWDMETRICSCellularNrSDMActivation._deployment, AWDMETRICSCellularNrSDMActivation._durationInPrevState, 
                       AWDMETRICSCellularNrSDMActivation._fr, AWDMETRICSCellularNrSDMActivation._fr1MeasDisabled, 
                       AWDMETRICSCellularNrSDMActivation._fr2MeasDisabled, AWDMETRICSCellularNrSDMActivation._has, 
                       AWDMETRICSCellularNrSDMActivation._newState, AWDMETRICSCellularNrSDMActivation._prevRat, 
                       AWDMETRICSCellularNrSDMActivation._prevTriggerCause, AWDMETRICSCellularNrSDMActivation._saVerdict, 
                       AWDMETRICSCellularNrSDMActivation._subsId, AWDMETRICSCellularNrSDMActivation._timestamp, 
                       AWDMETRICSCellularNrSDMActivation._triggerCause, AWDMETRICSCellularNrSdmEndcRelease._fr, 
                       AWDMETRICSCellularNrSdmEndcRelease._has, AWDMETRICSCellularNrSdmEndcRelease._subsId, 
                       AWDMETRICSCellularNrSdmEndcRelease._timestamp, AWDMETRICSCellularNrSdmEndcRelease._triggerCause, 
                       AWDMETRICSCellularPerClientProfileTriggerCount._has, AWDMETRICSCellularPerClientProfileTriggerCount._timestamp, 
                       AWDMETRICSCellularPerClientProfileTriggerCount._triggerCount, 
                       AWDMETRICSCellularPowerLog._cellularDynamicRatSelections, 
                       AWDMETRICSCellularPowerLog._cellularNrSDMActivations, AWDMETRICSCellularPowerLog._cellularNrSdmEndcReleases, 
                       AWDMETRICSCellularPowerLog._cellularPerClientProfileTriggerCounts, 
                       AWDMETRICSCellularPowerLog._cellularPowerLogAOPUARTStates, 
                       AWDMETRICSCellularPowerLog._cellularPowerLogAPPSCXOShutdowns, 
                       AWDMETRICSCellularPowerLog._cellularPowerLogAPPSPerfLevels, 
                       AWDMETRICSCellularPowerLog._cellularPowerLogAPPSSleepVetos, 
                       AWDMETRICSCellularPowerLog._cellularPowerLogCDMA1XRABModes, 
                       AWDMETRICSCellularPowerLog._cellularPowerLogCDMA1XRRCStateChanges, 
                       AWDMETRICSCellularPowerLog._cellularPowerLogCDMA1XRxDiversitys, 
                       AWDMETRICSCellularPowerLog._cellularPowerLogCDMA1XRxRSSIs, 
                       AWDMETRICSCellularPowerLog._cellularPowerLogCDMA1XTxPowers, 
                       AWDMETRICSCellularPowerLog._cellularPowerLogEVDORxDiversitys, 
                       AWDMETRICSCellularPowerLog._cellularPowerLogEVDORxRSSIs, AWDMETRICSCellularPowerLog._cellularPowerLogEVDOTxPowers, 
                       AWDMETRICSCellularPowerLog._cellularPowerLogGPSStates, AWDMETRICSCellularPowerLog._cellularPowerLogGSMRABModes, 
                       AWDMETRICSCellularPowerLog._cellularPowerLogGSMRRCStateChanges, 
                       AWDMETRICSCellularPowerLog._cellularPowerLogGSMRxDiversitys, 
                       AWDMETRICSCellularPowerLog._cellularPowerLogGSMRxRSSIs, AWDMETRICSCellularPowerLog._cellularPowerLogGSMTxPowers, 
                       AWDMETRICSCellularPowerLog._cellularPowerLogHybridRABModes, 
                       AWDMETRICSCellularPowerLog._cellularPowerLogHybridRRCStateChanges, 
                       AWDMETRICSCellularPowerLog._cellularPowerLogL1SleepStates, 
                       AWDMETRICSCellularPowerLog._cellularPowerLogLTEActivatedCASCCStates, 
                       AWDMETRICSCellularPowerLog._cellularPowerLogLTEAggregatedDLTBSs, 
                       AWDMETRICSCellularPowerLog._cellularPowerLogLTECDRXConfigs, 
                       AWDMETRICSCellularPowerLog._cellularPowerLogLTECarrierComponentInfos, 
                       AWDMETRICSCellularPowerLog._cellularPowerLogLTEConfiguredCASCCStates, 
                       AWDMETRICSCellularPowerLog._cellularPowerLogLTEPagingDRXCycles, 
                       AWDMETRICSCellularPowerLog._cellularPowerLogLTERRCStateChanges, 
                       AWDMETRICSCellularPowerLog._cellularPowerLogLTERSRPs, AWDMETRICSCellularPowerLog._cellularPowerLogLTERxDiversitys, 
                       AWDMETRICSCellularPowerLog._cellularPowerLogLTERxTxActivityStates, 
                       AWDMETRICSCellularPowerLog._cellularPowerLogLTESINRs, AWDMETRICSCellularPowerLog._cellularPowerLogLTETxPowers, 
                       AWDMETRICSCellularPowerLog._cellularPowerLogLTEULCAStates, 
                       AWDMETRICSCellularPowerLog._cellularPowerLogMCPMSleepVetos, 
                       AWDMETRICSCellularPowerLog._cellularPowerLogMPSSPerfLevels, 
                       AWDMETRICSCellularPowerLog._cellularPowerLogNRCDRXConfigs, 
                       AWDMETRICSCellularPowerLog._cellularPowerLogNRDCEvents, AWDMETRICSCellularPowerLog._cellularPowerLogNRFRCoverages, 
                       AWDMETRICSCellularPowerLog._cellularPowerLogNRMmWaveRSRPs, 
                       AWDMETRICSCellularPowerLog._cellularPowerLogNRMmWaveTxPowers, 
                       AWDMETRICSCellularPowerLog._cellularPowerLogNRMmWaveULCAStates, 
                       AWDMETRICSCellularPowerLog._cellularPowerLogNRNSAENDCEvents, 
                       AWDMETRICSCellularPowerLog._cellularPowerLogNRPagingDRXCycles, 
                       AWDMETRICSCellularPowerLog._cellularPowerLogNRSARRCStateChanges, 
                       AWDMETRICSCellularPowerLog._cellularPowerLogNRSCGRels, AWDMETRICSCellularPowerLog._cellularPowerLogNRmmWaveAntennaPanels, 
                       AWDMETRICSCellularPowerLog._cellularPowerLogNRmmWaveBWPSCCs, 
                       AWDMETRICSCellularPowerLog._cellularPowerLogNRmmWaveBWPs, 
                       AWDMETRICSCellularPowerLog._cellularPowerLogNRmmWaveBeamIDs, 
                       AWDMETRICSCellularPowerLog._cellularPowerLogNRmmWaveCASCCActivateds, 
                       AWDMETRICSCellularPowerLog._cellularPowerLogNRmmWaveCASCCConfigureds, 
                       AWDMETRICSCellularPowerLog._cellularPowerLogNRmmWaveCarrierComponentInfos, 
                       AWDMETRICSCellularPowerLog._cellularPowerLogNRmmWaveDLTBSs, 
                       AWDMETRICSCellularPowerLog._cellularPowerLogNRmmWaveRxTxs, 
                       AWDMETRICSCellularPowerLog._cellularPowerLogNRsub6BWPSAs, 
                       AWDMETRICSCellularPowerLog._cellularPowerLogNRsub6BWPSCCs, 
                       AWDMETRICSCellularPowerLog._cellularPowerLogNRsub6BWPs, AWDMETRICSCellularPowerLog._cellularPowerLogNRsub6CASCCActivateds, 
                       AWDMETRICSCellularPowerLog._cellularPowerLogNRsub6CASCCConfigureds, 
                       AWDMETRICSCellularPowerLog._cellularPowerLogNRsub6CarrierComponentInfos, 
                       AWDMETRICSCellularPowerLog._cellularPowerLogNRsub6DLTBSs, 
                       AWDMETRICSCellularPowerLog._cellularPowerLogNRsub6RSRPs, AWDMETRICSCellularPowerLog._cellularPowerLogNRsub6RxDiversitys, 
                       AWDMETRICSCellularPowerLog._cellularPowerLogNRsub6RxTxs, AWDMETRICSCellularPowerLog._cellularPowerLogNRsub6TxPowers, 
                       AWDMETRICSCellularPowerLog._cellularPowerLogNRsub6ULCAStates, 
                       AWDMETRICSCellularPowerLog._cellularPowerLogPCIeStates, AWDMETRICSCellularPowerLog._cellularPowerLogPLMNScanEvents, 
                       AWDMETRICSCellularPowerLog._cellularPowerLogPLMNSearchEvents, 
                       AWDMETRICSCellularPowerLog._cellularPowerLogPLMNSearchs, AWDMETRICSCellularPowerLog._cellularPowerLogPowerEstimators, 
                       AWDMETRICSCellularPowerLog._cellularPowerLogProtocolStates, 
                       AWDMETRICSCellularPowerLog._cellularPowerLogRATRedirectionEvents, 
                       AWDMETRICSCellularPowerLog._cellularPowerLogRATReselectionEvents, 
                       AWDMETRICSCellularPowerLog._cellularPowerLogRFTunerStatsHists, 
                       AWDMETRICSCellularPowerLog._cellularPowerLogSFTRxTxs, AWDMETRICSCellularPowerLog._cellularPowerLogSFTStates, 
                       AWDMETRICSCellularPowerLog._cellularPowerLogSPMIs, AWDMETRICSCellularPowerLog._cellularPowerLogServiceStateEvents, 
                       AWDMETRICSCellularPowerLog._cellularPowerLogSystemEvents, 
                       AWDMETRICSCellularPowerLog._cellularPowerLogWCDMACDRXConfigs, 
                       AWDMETRICSCellularPowerLog._cellularPowerLogWCDMARABModes, 
                       AWDMETRICSCellularPowerLog._cellularPowerLogWCDMARABTypes, 
                       AWDMETRICSCellularPowerLog._cellularPowerLogWCDMARRCStateChanges, 
                       AWDMETRICSCellularPowerLog._cellularPowerLogWCDMARxDiversitys, 
                       AWDMETRICSCellularPowerLog._cellularPowerLogWCDMARxRSSIs, 
                       AWDMETRICSCellularPowerLog._cellularPowerLogWCDMATxPowers, 
                       AWDMETRICSCellularPowerLog._cellularPowerLogWLANUARTStates, 
                       AWDMETRICSCellularPowerLog._cellularPowerLogWUSs, AWDMETRICSCellularPowerLog._cellularPowerLogXOShutdowns, 
                       AWDMETRICSCellularPowerLog1xEVDORRCStateChange._cause, AWDMETRICSCellularPowerLog1xEVDORRCStateChange._has, 
                       AWDMETRICSCellularPowerLog1xEVDORRCStateChange._prevState, 
                       AWDMETRICSCellularPowerLog1xEVDORRCStateChange._prevStateDurMs, 
                       AWDMETRICSCellularPowerLog1xEVDORRCStateChange._state, AWDMETRICSCellularPowerLog1xEVDORRCStateChange._subsId, 
                       AWDMETRICSCellularPowerLog1xEVDORRCStateChange._timestamp, 
                       AWDMETRICSCellularPowerLogGSMRRCStateChange._cause, AWDMETRICSCellularPowerLogGSMRRCStateChange._has, 
                       AWDMETRICSCellularPowerLogGSMRRCStateChange._prevState, AWDMETRICSCellularPowerLogGSMRRCStateChange._prevStateDurMs, 
                       AWDMETRICSCellularPowerLogGSMRRCStateChange._state, AWDMETRICSCellularPowerLogGSMRRCStateChange._subsId, 
                       AWDMETRICSCellularPowerLogGSMRRCStateChange._timestamp, AWDMETRICSCellularPowerLogHistogram._bins, 
                       AWDMETRICSCellularPowerLogHistogram._durationMs, AWDMETRICSCellularPowerLogHistogram._has, 
                       AWDMETRICSCellularPowerLogHistogram._subsId, AWDMETRICSCellularPowerLogHistogram._timestamp, 
                       AWDMETRICSCellularPowerLogLTECDRXConfig._cdrxEnable, AWDMETRICSCellularPowerLogLTECDRXConfig._cycleStartOffset, 
                       AWDMETRICSCellularPowerLogLTECDRXConfig._drxInactivity, AWDMETRICSCellularPowerLogLTECDRXConfig._drxRetxTimer, 
                       AWDMETRICSCellularPowerLogLTECDRXConfig._drxShortCycleNum, 
                       AWDMETRICSCellularPowerLogLTECDRXConfig._has, AWDMETRICSCellularPowerLogLTECDRXConfig._longDrxCycle, 
                       AWDMETRICSCellularPowerLogLTECDRXConfig._onDuration, AWDMETRICSCellularPowerLogLTECDRXConfig._shortDrxCycle, 
                       AWDMETRICSCellularPowerLogLTECDRXConfig._shortDrxCycleEnable, 
                       AWDMETRICSCellularPowerLogLTECDRXConfig._subsId, AWDMETRICSCellularPowerLogLTECDRXConfig._timestamp, 
                       AWDMETRICSCellularPowerLogLTECarrierComponentInfo._carrierInfos, 
                       AWDMETRICSCellularPowerLogLTECarrierComponentInfo._has, AWDMETRICSCellularPowerLogLTECarrierComponentInfo._subsId, 
                       AWDMETRICSCellularPowerLogLTECarrierComponentInfo._timestamp, 
                       AWDMETRICSCellularPowerLogLTERRCStateChange._cause, AWDMETRICSCellularPowerLogLTERRCStateChange._has, 
                       AWDMETRICSCellularPowerLogLTERRCStateChange._prevState, AWDMETRICSCellularPowerLogLTERRCStateChange._prevStateDurMs, 
                       AWDMETRICSCellularPowerLogLTERRCStateChange._state, AWDMETRICSCellularPowerLogLTERRCStateChange._subsId, 
                       AWDMETRICSCellularPowerLogLTERRCStateChange._timestamp, AWDMETRICSCellularPowerLogNRCDRXConfig._cdrxEnable, 
                       AWDMETRICSCellularPowerLogNRCDRXConfig._drxSlotOffset, AWDMETRICSCellularPowerLogNRCDRXConfig._fr, 
                       AWDMETRICSCellularPowerLogNRCDRXConfig._harqRttTimerDl, AWDMETRICSCellularPowerLogNRCDRXConfig._harqRttTimerUl, 
                       AWDMETRICSCellularPowerLogNRCDRXConfig._has, AWDMETRICSCellularPowerLogNRCDRXConfig._inactivityTimerMs, 
                       AWDMETRICSCellularPowerLogNRCDRXConfig._longCycle, AWDMETRICSCellularPowerLogNRCDRXConfig._longCycleOffset, 
                       AWDMETRICSCellularPowerLogNRCDRXConfig._onDurationTimerFraction, 
                       AWDMETRICSCellularPowerLogNRCDRXConfig._onDurationTimerMs, 
                       AWDMETRICSCellularPowerLogNRCDRXConfig._retransmissionTimerDl, 
                       AWDMETRICSCellularPowerLogNRCDRXConfig._retransmissionTimerUl, 
                       AWDMETRICSCellularPowerLogNRCDRXConfig._shortCycle, AWDMETRICSCellularPowerLogNRCDRXConfig._shortCycleEnable, 
                       AWDMETRICSCellularPowerLogNRCDRXConfig._shortCycleTimer, AWDMETRICSCellularPowerLogNRCDRXConfig._subsId, 
                       AWDMETRICSCellularPowerLogNRCDRXConfig._timestamp, AWDMETRICSCellularPowerLogNRCarrierComponentInfo._carrierInfos, 
                       AWDMETRICSCellularPowerLogNRCarrierComponentInfo._has, AWDMETRICSCellularPowerLogNRCarrierComponentInfo._subsId, 
                       AWDMETRICSCellularPowerLogNRCarrierComponentInfo._timestamp, 
                       AWDMETRICSCellularPowerLogNRDCEvent._event, AWDMETRICSCellularPowerLogNRDCEvent._fr, 
                       AWDMETRICSCellularPowerLogNRDCEvent._has, AWDMETRICSCellularPowerLogNRDCEvent._subsId, 
                       AWDMETRICSCellularPowerLogNRDCEvent._timestamp, AWDMETRICSCellularPowerLogNRFRCoverage._fR1, 
                       AWDMETRICSCellularPowerLogNRFRCoverage._fR2, AWDMETRICSCellularPowerLogNRFRCoverage._has, 
                       AWDMETRICSCellularPowerLogNRFRCoverage._subsId, AWDMETRICSCellularPowerLogNRFRCoverage._timestamp, 
                       AWDMETRICSCellularPowerLogNRNSAENDCEvent._event, AWDMETRICSCellularPowerLogNRNSAENDCEvent._fr, 
                       AWDMETRICSCellularPowerLogNRNSAENDCEvent._has, AWDMETRICSCellularPowerLogNRNSAENDCEvent._subsId, 
                       AWDMETRICSCellularPowerLogNRNSAENDCEvent._timestamp, AWDMETRICSCellularPowerLogNRSARRCStateChange._cause, 
                       AWDMETRICSCellularPowerLogNRSARRCStateChange._fr, AWDMETRICSCellularPowerLogNRSARRCStateChange._has, 
                       AWDMETRICSCellularPowerLogNRSARRCStateChange._prevState, AWDMETRICSCellularPowerLogNRSARRCStateChange._prevStateDurMs, 
                       AWDMETRICSCellularPowerLogNRSARRCStateChange._state, AWDMETRICSCellularPowerLogNRSARRCStateChange._subsId, 
                       AWDMETRICSCellularPowerLogNRSARRCStateChange._timestamp, AWDMETRICSCellularPowerLogNRSCGRel._event, 
                       AWDMETRICSCellularPowerLogNRSCGRel._fr, AWDMETRICSCellularPowerLogNRSCGRel._has, 
                       AWDMETRICSCellularPowerLogNRSCGRel._subsId, AWDMETRICSCellularPowerLogNRSCGRel._timestamp, 
                       AWDMETRICSCellularPowerLogPLMNScanEvent._duration, AWDMETRICSCellularPowerLogPLMNScanEvent._has, 
                       AWDMETRICSCellularPowerLogPLMNScanEvent._reasonForScan, AWDMETRICSCellularPowerLogPLMNScanEvent._scanResult, 
                       AWDMETRICSCellularPowerLogPLMNScanEvent._scanType, AWDMETRICSCellularPowerLogPLMNScanEvent._subsId, 
                       AWDMETRICSCellularPowerLogPLMNScanEvent._timestamp, AWDMETRICSCellularPowerLogPLMNSearchEvent._duration, 
                       AWDMETRICSCellularPowerLogPLMNSearchEvent._has, AWDMETRICSCellularPowerLogPLMNSearchEvent._networkSelectionMode, 
                       AWDMETRICSCellularPowerLogPLMNSearchEvent._rat, AWDMETRICSCellularPowerLogPLMNSearchEvent._searchType, 
                       AWDMETRICSCellularPowerLogPLMNSearchEvent._state, AWDMETRICSCellularPowerLogPLMNSearchEvent._subsId, 
                       AWDMETRICSCellularPowerLogPLMNSearchEvent._timestamp, AWDMETRICSCellularPowerLogPagingDRXCycle._fr, 
                       AWDMETRICSCellularPowerLogPagingDRXCycle._has, AWDMETRICSCellularPowerLogPagingDRXCycle._pagingDrxCycle, 
                       AWDMETRICSCellularPowerLogPagingDRXCycle._subsId, AWDMETRICSCellularPowerLogPagingDRXCycle._timestamp, 
                       AWDMETRICSCellularPowerLogRATChangeEvent._event, AWDMETRICSCellularPowerLogRATChangeEvent._has, 
                       AWDMETRICSCellularPowerLogRATChangeEvent._subsId, AWDMETRICSCellularPowerLogRATChangeEvent._timestamp, 
                       AWDMETRICSCellularPowerLogSFTStateEvent._event, AWDMETRICSCellularPowerLogSFTStateEvent._has, 
                       AWDMETRICSCellularPowerLogSFTStateEvent._subsId, AWDMETRICSCellularPowerLogSFTStateEvent._timestamp, 
                       AWDMETRICSCellularPowerLogServiceEvent._event, AWDMETRICSCellularPowerLogServiceEvent._has, 
                       AWDMETRICSCellularPowerLogServiceEvent._subsId, AWDMETRICSCellularPowerLogServiceEvent._timestamp, 
                       AWDMETRICSCellularPowerLogShutdown._count, AWDMETRICSCellularPowerLogShutdown._duration, 
                       AWDMETRICSCellularPowerLogShutdown._durationMs, AWDMETRICSCellularPowerLogShutdown._has, 
                       AWDMETRICSCellularPowerLogShutdown._timestamp, AWDMETRICSCellularPowerLogSystemEvent._event, 
                       AWDMETRICSCellularPowerLogSystemEvent._has, AWDMETRICSCellularPowerLogSystemEvent._subsId, 
                       AWDMETRICSCellularPowerLogSystemEvent._timestamp, AWDMETRICSCellularPowerLogWCDMACDRXConfig._drxCycleLength, 
                       AWDMETRICSCellularPowerLogWCDMACDRXConfig._has, AWDMETRICSCellularPowerLogWCDMACDRXConfig._subsId, 
                       AWDMETRICSCellularPowerLogWCDMACDRXConfig._timestamp, AWDMETRICSCellularPowerLogWCDMARRCStateChange._cause, 
                       AWDMETRICSCellularPowerLogWCDMARRCStateChange._has, AWDMETRICSCellularPowerLogWCDMARRCStateChange._prevState, 
                       AWDMETRICSCellularPowerLogWCDMARRCStateChange._prevStateDurMs, 
                       AWDMETRICSCellularPowerLogWCDMARRCStateChange._state, AWDMETRICSCellularPowerLogWCDMARRCStateChange._subsId, 
                       AWDMETRICSCellularPowerLogWCDMARRCStateChange._timestamp, 
                       AWDMETRICSCellularPowerLogWUS._event, AWDMETRICSCellularPowerLogWUS._fr, 
                       AWDMETRICSCellularPowerLogWUS._has, AWDMETRICSCellularPowerLogWUS._subsId, 
                       AWDMETRICSCellularPowerLogWUS._timestamp, AWDMETRICSKCellularAcmSleepStats._acms, 
                       AWDMETRICSKCellularAcmSleepStats._durationMs, AWDMETRICSKCellularAcmSleepStats._has, 
                       AWDMETRICSKCellularAcmSleepStats._isDataPreferred, AWDMETRICSKCellularAcmSleepStats._numSubs, 
                       AWDMETRICSKCellularAcmSleepStats._timestamp, AWDMETRICSKCellularAcmSleepStatsAcmCaSleepLevels._axibr, 
                       AWDMETRICSKCellularAcmSleepStatsAcmCaSleepLevels._deployment, 
                       AWDMETRICSKCellularAcmSleepStatsAcmCaSleepLevels._dmdc0, AWDMETRICSKCellularAcmSleepStatsAcmCaSleepLevels._dmdc1, 
                       AWDMETRICSKCellularAcmSleepStatsAcmCaSleepLevels._dmdc2, AWDMETRICSKCellularAcmSleepStatsAcmCaSleepLevels._durationMs, 
                       AWDMETRICSKCellularAcmSleepStatsAcmCaSleepLevels._gala, AWDMETRICSKCellularAcmSleepStatsAcmCaSleepLevels._has, 
                       AWDMETRICSKCellularAcmSleepStatsAcmCaSleepLevels._mcgAggregatedBw, 
                       AWDMETRICSKCellularAcmSleepStatsAcmCaSleepLevels._mcgDlCcActivated, 
                       AWDMETRICSKCellularAcmSleepStatsAcmCaSleepLevels._mcgDlCcConfigured, 
                       AWDMETRICSKCellularAcmSleepStatsAcmCaSleepLevels._mcgUlCcActivated, 
                       AWDMETRICSKCellularAcmSleepStatsAcmCaSleepLevels._mcgUlCcConfigured, 
                       AWDMETRICSKCellularAcmSleepStatsAcmCaSleepLevels._rflc, AWDMETRICSKCellularAcmSleepStatsAcmCaSleepLevels._scgAggregatedBw, 
                       AWDMETRICSKCellularAcmSleepStatsAcmCaSleepLevels._scgDlCcActivated, 
                       AWDMETRICSKCellularAcmSleepStatsAcmCaSleepLevels._scgDlCcConfigured, 
                       AWDMETRICSKCellularAcmSleepStatsAcmCaSleepLevels._scgUlCcActivated, 
                       AWDMETRICSKCellularAcmSleepStatsAcmCaSleepLevels._scgUlCcConfigured, 
                       AWDMETRICSKCellularAcmSleepStatsAcmCaSleepLevels._tdp, AWDMETRICSKCellularAcmSleepStatsAcmCaSleepLevels._uplink, 
                       AWDMETRICSKCellularLteCdrxConfig._cdrxConfigStatus, AWDMETRICSKCellularLteCdrxConfig._cellStatus, 
                       AWDMETRICSKCellularLteCdrxConfig._drxInactivityMs, AWDMETRICSKCellularLteCdrxConfig._drxRetxTimerMs, 
                       AWDMETRICSKCellularLteCdrxConfig._drxShortCycleNum, AWDMETRICSKCellularLteCdrxConfig._has, 
                       AWDMETRICSKCellularLteCdrxConfig._longDrxCycleMs, AWDMETRICSKCellularLteCdrxConfig._longDrxCycleStartOffsetMs, 
                       AWDMETRICSKCellularLteCdrxConfig._onDurationMs, AWDMETRICSKCellularLteCdrxConfig._rrcState, 
                       AWDMETRICSKCellularLteCdrxConfig._shortDrxCycleEnable, AWDMETRICSKCellularLteCdrxConfig._shortDrxCycleMs, 
                       AWDMETRICSKCellularLteCdrxConfig._subsId, AWDMETRICSKCellularLteCdrxConfig._timestamp, 
                       AWDMETRICSKCellularLteCdrxConfig._transmissionMode, AWDMETRICSKCellularLteDataInactivityBeforeIdle._dataInactivityDurMs, 
                       AWDMETRICSKCellularLteDataInactivityBeforeIdle._has, AWDMETRICSKCellularLteDataInactivityBeforeIdle._subsId, 
                       AWDMETRICSKCellularLteDataInactivityBeforeIdle._timestamp, 
                       AWDMETRICSKCellularLtePagingCycle._earfcn, AWDMETRICSKCellularLtePagingCycle._has, 
                       AWDMETRICSKCellularLtePagingCycle._nbMs, AWDMETRICSKCellularLtePagingCycle._pagingCycleMs, 
                       AWDMETRICSKCellularLtePagingCycle._phyCellId, AWDMETRICSKCellularLtePagingCycle._subsId, 
                       AWDMETRICSKCellularLtePagingCycle._timestamp, AWDMETRICSKCellularNrSDMActivation._apNrRecomm, 
                       AWDMETRICSKCellularNrSDMActivation._apNrRecommConfFactor, 
                       AWDMETRICSKCellularNrSDMActivation._cellId, AWDMETRICSKCellularNrSDMActivation._currentRat, 
                       AWDMETRICSKCellularNrSDMActivation._deployment, AWDMETRICSKCellularNrSDMActivation._durationInPrevState, 
                       AWDMETRICSKCellularNrSDMActivation._fr, AWDMETRICSKCellularNrSDMActivation._fr1MeasDisabled, 
                       AWDMETRICSKCellularNrSDMActivation._fr2MeasDisabled, AWDMETRICSKCellularNrSDMActivation._gci, 
                       AWDMETRICSKCellularNrSDMActivation._has, AWDMETRICSKCellularNrSDMActivation._isDataPreferred, 
                       AWDMETRICSKCellularNrSDMActivation._isEndcCallActive, AWDMETRICSKCellularNrSDMActivation._isRrcConnRelRequested, 
                       AWDMETRICSKCellularNrSDMActivation._isRrcConnected, AWDMETRICSKCellularNrSDMActivation._isSaDisabled, 
                       AWDMETRICSKCellularNrSDMActivation._newState, AWDMETRICSKCellularNrSDMActivation._newStateNrsa, 
                       AWDMETRICSKCellularNrSDMActivation._prevFr1MeasDisabled, AWDMETRICSKCellularNrSDMActivation._prevFr2MeasDisabled, 
                       AWDMETRICSKCellularNrSDMActivation._prevIsSaDisabled, AWDMETRICSKCellularNrSDMActivation._prevRat, 
                       AWDMETRICSKCellularNrSDMActivation._prevTriggerCause, AWDMETRICSKCellularNrSDMActivation._ratChangeStatus, 
                       AWDMETRICSKCellularNrSDMActivation._saVerdict, AWDMETRICSKCellularNrSDMActivation._sdmScgReleased, 
                       AWDMETRICSKCellularNrSDMActivation._sib24Configured, AWDMETRICSKCellularNrSDMActivation._state, 
                       AWDMETRICSKCellularNrSDMActivation._stateDurationBinIndex, 
                       AWDMETRICSKCellularNrSDMActivation._stateNrsa, AWDMETRICSKCellularNrSDMActivation._subsId, 
                       AWDMETRICSKCellularNrSDMActivation._timestamp, AWDMETRICSKCellularNrSDMActivation._trackingAreaCode, 
                       AWDMETRICSKCellularNrSDMActivation._triggerCause, AWDMETRICSKCellularNrSdmEndcRelease._fr, 
                       AWDMETRICSKCellularNrSdmEndcRelease._has, AWDMETRICSKCellularNrSdmEndcRelease._subsId, 
                       AWDMETRICSKCellularNrSdmEndcRelease._timestamp, AWDMETRICSKCellularNrSdmEndcRelease._triggerCause, 
                       AWDMETRICSKCellularPerClientProfileTriggerCount._has, AWDMETRICSKCellularPerClientProfileTriggerCount._timestamp, 
                       AWDMETRICSKCellularPerClientProfileTriggerCount._triggerCount, 
                       AWDMETRICSKCellularPlatformApBbSleepStats._durationMs, AWDMETRICSKCellularPlatformApBbSleepStats._has, 
                       AWDMETRICSKCellularPlatformApBbSleepStats._isMsim, AWDMETRICSKCellularPlatformApBbSleepStats._lastSdmState, 
                       AWDMETRICSKCellularPlatformApBbSleepStats._states, AWDMETRICSKCellularPlatformApBbSleepStats._timestamp, 
                       AWDMETRICSKCellularPlatformApBbSleepStatsPlatformState._ap, 
                       AWDMETRICSKCellularPlatformApBbSleepStatsPlatformState._bbChipset, 
                       AWDMETRICSKCellularPlatformApBbSleepStatsPlatformState._durationMs, 
                       AWDMETRICSKCellularPlatformApBbSleepStatsPlatformState._has, 
                       AWDMETRICSKCellularPlatformApBbSleepStatsPlatformState._nonPsPrefSim, 
                       AWDMETRICSKCellularPlatformApBbSleepStatsPlatformState._psPrefSim, 
                       AWDMETRICSKCellularPowerLogAcmPerfLevels._bins, AWDMETRICSKCellularPowerLogAcmPerfLevels._durationMs, 
                       AWDMETRICSKCellularPowerLogAcmPerfLevels._has, AWDMETRICSKCellularPowerLogAcmPerfLevels._lastSdmState, 
                       AWDMETRICSKCellularPowerLogAcmPerfLevels._subsId, AWDMETRICSKCellularPowerLogAcmPerfLevels._timestamp, 
                       AWDMETRICSKCellularPowerLogAcmPerfLevelsMBin._binId, AWDMETRICSKCellularPowerLogAcmPerfLevelsMBin._count, 
                       AWDMETRICSKCellularPowerLogAcmPerfLevelsMBin._duration, AWDMETRICSKCellularPowerLogAcmPerfLevelsMBin._has, 
                       AWDMETRICSKCellularPowerLogAggregatedDLTBSHist._bins, AWDMETRICSKCellularPowerLogAggregatedDLTBSHist._durationMs, 
                       AWDMETRICSKCellularPowerLogAggregatedDLTBSHist._has, AWDMETRICSKCellularPowerLogAggregatedDLTBSHist._isDataPreferred, 
                       AWDMETRICSKCellularPowerLogAggregatedDLTBSHist._numSubs, AWDMETRICSKCellularPowerLogAggregatedDLTBSHist._subsId, 
                       AWDMETRICSKCellularPowerLogAggregatedDLTBSHist._timestamp, 
                       AWDMETRICSKCellularPowerLogAggregatedDLTBSHistMBin._binId, 
                       AWDMETRICSKCellularPowerLogAggregatedDLTBSHistMBin._duration, 
                       AWDMETRICSKCellularPowerLogAggregatedDLTBSHistMBin._has, AWDMETRICSKCellularPowerLogBasebandSleepVeto._durationMs, 
                       AWDMETRICSKCellularPowerLogBasebandSleepVeto._has, AWDMETRICSKCellularPowerLogBasebandSleepVeto._sleepVetos, 
                       AWDMETRICSKCellularPowerLogBasebandSleepVeto._timestamp, AWDMETRICSKCellularPowerLogBasebandSleepVetoSleepVeto._blockerName, 
                       AWDMETRICSKCellularPowerLogBasebandSleepVetoSleepVeto._durationMs, 
                       AWDMETRICSKCellularPowerLogBasebandSleepVetoSleepVeto._has, 
                       AWDMETRICSKCellularPowerLogBasebandSleepVetoSleepVeto._state, 
                       AWDMETRICSKCellularPowerLogBasebandSleepVetoSleepVeto._subsystem, 
                       AWDMETRICSKCellularPowerLogCpuPerfLevels._bins, AWDMETRICSKCellularPowerLogCpuPerfLevels._durationMs, 
                       AWDMETRICSKCellularPowerLogCpuPerfLevels._has, AWDMETRICSKCellularPowerLogCpuPerfLevels._lastSdmState, 
                       AWDMETRICSKCellularPowerLogCpuPerfLevels._subsId, AWDMETRICSKCellularPowerLogCpuPerfLevels._timestamp, 
                       AWDMETRICSKCellularPowerLogCpuPerfLevelsMBin._binId, AWDMETRICSKCellularPowerLogCpuPerfLevelsMBin._count, 
                       AWDMETRICSKCellularPowerLogCpuPerfLevelsMBin._duration, AWDMETRICSKCellularPowerLogCpuPerfLevelsMBin._has, 
                       AWDMETRICSKCellularPowerLogGPSStates._bins, AWDMETRICSKCellularPowerLogGPSStates._durationMs, 
                       AWDMETRICSKCellularPowerLogGPSStates._has, AWDMETRICSKCellularPowerLogGPSStates._lastSdmState, 
                       AWDMETRICSKCellularPowerLogGPSStates._subsId, AWDMETRICSKCellularPowerLogGPSStates._timestamp, 
                       AWDMETRICSKCellularPowerLogGPSStatesMBin._binId, AWDMETRICSKCellularPowerLogGPSStatesMBin._duration, 
                       AWDMETRICSKCellularPowerLogGPSStatesMBin._has, AWDMETRICSKCellularPowerLogGSMRABMode._bins, 
                       AWDMETRICSKCellularPowerLogGSMRABMode._durationMs, AWDMETRICSKCellularPowerLogGSMRABMode._has, 
                       AWDMETRICSKCellularPowerLogGSMRABMode._isDataPreferred, AWDMETRICSKCellularPowerLogGSMRABMode._numSubs, 
                       AWDMETRICSKCellularPowerLogGSMRABMode._plmn, AWDMETRICSKCellularPowerLogGSMRABMode._subsId, 
                       AWDMETRICSKCellularPowerLogGSMRABMode._timestamp, AWDMETRICSKCellularPowerLogGSMRABModeMBin._binId, 
                       AWDMETRICSKCellularPowerLogGSMRABModeMBin._duration, AWDMETRICSKCellularPowerLogGSMRABModeMBin._has, 
                       AWDMETRICSKCellularPowerLogGsmRrcStateChange._cause, AWDMETRICSKCellularPowerLogGsmRrcStateChange._has, 
                       AWDMETRICSKCellularPowerLogGsmRrcStateChange._prevState, AWDMETRICSKCellularPowerLogGsmRrcStateChange._prevStateDurMs, 
                       AWDMETRICSKCellularPowerLogGsmRrcStateChange._state, AWDMETRICSKCellularPowerLogGsmRrcStateChange._subsId, 
                       AWDMETRICSKCellularPowerLogGsmRrcStateChange._timestamp, AWDMETRICSKCellularPowerLogLteCaConfigActivateStats._bins, 
                       AWDMETRICSKCellularPowerLogLteCaConfigActivateStats._durationMs, 
                       AWDMETRICSKCellularPowerLogLteCaConfigActivateStats._has, 
                       AWDMETRICSKCellularPowerLogLteCaConfigActivateStats._isDataPreferred, 
                       AWDMETRICSKCellularPowerLogLteCaConfigActivateStats._lastSdmState, 
                       AWDMETRICSKCellularPowerLogLteCaConfigActivateStats._subsId, 
                       AWDMETRICSKCellularPowerLogLteCaConfigActivateStats._timestamp, 
                       AWDMETRICSKCellularPowerLogLteCaConfigActivateStatsMBin._ccActivated, 
                       AWDMETRICSKCellularPowerLogLteCaConfigActivateStatsMBin._ccConfigured, 
                       AWDMETRICSKCellularPowerLogLteCaConfigActivateStatsMBin._direction, 
                       AWDMETRICSKCellularPowerLogLteCaConfigActivateStatsMBin._duration, 
                       AWDMETRICSKCellularPowerLogLteCaConfigActivateStatsMBin._has, 
                       AWDMETRICSKCellularPowerLogLteCarrierComponentInfo._carrierInfos, 
                       AWDMETRICSKCellularPowerLogLteCarrierComponentInfo._has, AWDMETRICSKCellularPowerLogLteCarrierComponentInfo._isDataPreferred, 
                       AWDMETRICSKCellularPowerLogLteCarrierComponentInfo._subsId, 
                       AWDMETRICSKCellularPowerLogLteCarrierComponentInfo._timestamp, 
                       AWDMETRICSKCellularPowerLogLteCarrierComponentInfoMCarrierComponentInfo._band, 
                       AWDMETRICSKCellularPowerLogLteCarrierComponentInfoMCarrierComponentInfo._bandwidth, 
                       AWDMETRICSKCellularPowerLogLteCarrierComponentInfoMCarrierComponentInfo._duplex, 
                       AWDMETRICSKCellularPowerLogLteCarrierComponentInfoMCarrierComponentInfo._earfcn, 
                       AWDMETRICSKCellularPowerLogLteCarrierComponentInfoMCarrierComponentInfo._has, 
                       AWDMETRICSKCellularPowerLogLteCarrierComponentInfoMCarrierComponentInfo._type, 
                       AWDMETRICSKCellularPowerLogLteNrRxDiversityHist._cells, AWDMETRICSKCellularPowerLogLteNrRxDiversityHist._durationMs, 
                       AWDMETRICSKCellularPowerLogLteNrRxDiversityHist._has, AWDMETRICSKCellularPowerLogLteNrRxDiversityHist._isDataPreferred, 
                       AWDMETRICSKCellularPowerLogLteNrRxDiversityHist._lastSdmState, 
                       AWDMETRICSKCellularPowerLogLteNrRxDiversityHist._numSubs, 
                       AWDMETRICSKCellularPowerLogLteNrRxDiversityHist._subsId, AWDMETRICSKCellularPowerLogLteNrRxDiversityHist._timestamp, 
                       AWDMETRICSKCellularPowerLogLteNrRxDiversityHistRxdBin._caIndex, 
                       AWDMETRICSKCellularPowerLogLteNrRxDiversityHistRxdBin._durationMs, 
                       AWDMETRICSKCellularPowerLogLteNrRxDiversityHistRxdBin._has, 
                       AWDMETRICSKCellularPowerLogLteNrRxDiversityHistRxdBin._isEndc, 
                       AWDMETRICSKCellularPowerLogLteNrRxDiversityHistRxdBin._mcgCcNum, 
                       AWDMETRICSKCellularPowerLogLteNrRxDiversityHistRxdBin._rat, 
                       AWDMETRICSKCellularPowerLogLteNrRxDiversityHistRxdBin._rxDivState, 
                       AWDMETRICSKCellularPowerLogLteNrRxTxActivityStats._durationMs, 
                       AWDMETRICSKCellularPowerLogLteNrRxTxActivityStats._has, AWDMETRICSKCellularPowerLogLteNrRxTxActivityStats._isDataPreferred, 
                       AWDMETRICSKCellularPowerLogLteNrRxTxActivityStats._plmn, AWDMETRICSKCellularPowerLogLteNrRxTxActivityStats._rxTxActs, 
                       AWDMETRICSKCellularPowerLogLteNrRxTxActivityStats._subsId, 
                       AWDMETRICSKCellularPowerLogLteNrRxTxActivityStats._timestamp, 
                       AWDMETRICSKCellularPowerLogLteNrRxTxActivityStatsRxTxActivity._actState, 
                       AWDMETRICSKCellularPowerLogLteNrRxTxActivityStatsRxTxActivity._caState, 
                       AWDMETRICSKCellularPowerLogLteNrRxTxActivityStatsRxTxActivity._count, 
                       AWDMETRICSKCellularPowerLogLteNrRxTxActivityStatsRxTxActivity._has, 
                       AWDMETRICSKCellularPowerLogLteNrRxTxActivityStatsRxTxActivity._ratDpl, 
                       AWDMETRICSKCellularPowerLogLteNrTxPowerHist._durationMs, AWDMETRICSKCellularPowerLogLteNrTxPowerHist._has, 
                       AWDMETRICSKCellularPowerLogLteNrTxPowerHist._hists, AWDMETRICSKCellularPowerLogLteNrTxPowerHist._subsId, 
                       AWDMETRICSKCellularPowerLogLteNrTxPowerHist._timestamp, AWDMETRICSKCellularPowerLogLteNrTxPowerHistHist._chanType, 
                       AWDMETRICSKCellularPowerLogLteNrTxPowerHistHist._counts, AWDMETRICSKCellularPowerLogLteNrTxPowerHistHist._has, 
                       AWDMETRICSKCellularPowerLogLteNrTxPowerHistHist._rat, AWDMETRICSKCellularPowerLogLteRrcStateChange._cause, 
                       AWDMETRICSKCellularPowerLogLteRrcStateChange._has, AWDMETRICSKCellularPowerLogLteRrcStateChange._isDataPreferred, 
                       AWDMETRICSKCellularPowerLogLteRrcStateChange._prevState, AWDMETRICSKCellularPowerLogLteRrcStateChange._prevStateDurMs, 
                       AWDMETRICSKCellularPowerLogLteRrcStateChange._state, AWDMETRICSKCellularPowerLogLteRrcStateChange._subsId, 
                       AWDMETRICSKCellularPowerLogLteRrcStateChange._timestamp, AWDMETRICSKCellularPowerLogNRBWPHist._bins, 
                       AWDMETRICSKCellularPowerLogNRBWPHist._durationMs, AWDMETRICSKCellularPowerLogNRBWPHist._has, 
                       AWDMETRICSKCellularPowerLogNRBWPHist._isDataPreferred, AWDMETRICSKCellularPowerLogNRBWPHist._subsId, 
                       AWDMETRICSKCellularPowerLogNRBWPHist._timestamp, AWDMETRICSKCellularPowerLogNRBWPHistMBin._binId, 
                       AWDMETRICSKCellularPowerLogNRBWPHistMBin._ccIndex, AWDMETRICSKCellularPowerLogNRBWPHistMBin._duration, 
                       AWDMETRICSKCellularPowerLogNRBWPHistMBin._has, AWDMETRICSKCellularPowerLogNRCarrierComponentInfo._carrierInfos, 
                       AWDMETRICSKCellularPowerLogNRCarrierComponentInfo._freqRange, 
                       AWDMETRICSKCellularPowerLogNRCarrierComponentInfo._has, AWDMETRICSKCellularPowerLogNRCarrierComponentInfo._isDataPreferred, 
                       AWDMETRICSKCellularPowerLogNRCarrierComponentInfo._subsId, 
                       AWDMETRICSKCellularPowerLogNRCarrierComponentInfo._timestamp, 
                       AWDMETRICSKCellularPowerLogNRCarrierComponentInfoMCarrierComponentInfo._band, 
                       AWDMETRICSKCellularPowerLogNRCarrierComponentInfoMCarrierComponentInfo._bandwidth, 
                       AWDMETRICSKCellularPowerLogNRCarrierComponentInfoMCarrierComponentInfo._duplex, 
                       AWDMETRICSKCellularPowerLogNRCarrierComponentInfoMCarrierComponentInfo._has, 
                       AWDMETRICSKCellularPowerLogNRCarrierComponentInfoMCarrierComponentInfo._narfcn, 
                       AWDMETRICSKCellularPowerLogNRCarrierComponentInfoMCarrierComponentInfo._type, 
                       AWDMETRICSKCellularPowerLogNRCdrxConfig._endcScgDefaultDrx, 
                       AWDMETRICSKCellularPowerLogNRCdrxConfig._endcScgSecondaryDrx, 
                       AWDMETRICSKCellularPowerLogNRCdrxConfig._has, AWDMETRICSKCellularPowerLogNRCdrxConfig._isEndc, 
                       AWDMETRICSKCellularPowerLogNRCdrxConfig._mcgDefaultDrx, AWDMETRICSKCellularPowerLogNRCdrxConfig._mcgSecondaryDrx, 
                       AWDMETRICSKCellularPowerLogNRCdrxConfig._scgDefaultDrx, AWDMETRICSKCellularPowerLogNRCdrxConfig._scgSecondaryDrx, 
                       AWDMETRICSKCellularPowerLogNRCdrxConfig._subsId, AWDMETRICSKCellularPowerLogNRCdrxConfig._timestamp, 
                       AWDMETRICSKCellularPowerLogNRCdrxConfig._vonrCallOngoing, 
                       AWDMETRICSKCellularPowerLogNRCdrxConfigNrCdrxConfigPerCellGroup._cdrxEnable, 
                       AWDMETRICSKCellularPowerLogNRCdrxConfigNrCdrxConfigPerCellGroup._drxSlotOffset, 
                       AWDMETRICSKCellularPowerLogNRCdrxConfigNrCdrxConfigPerCellGroup._harqRttTimerDl, 
                       AWDMETRICSKCellularPowerLogNRCdrxConfigNrCdrxConfigPerCellGroup._harqRttTimerUl, 
                       AWDMETRICSKCellularPowerLogNRCdrxConfigNrCdrxConfigPerCellGroup._has, 
                       AWDMETRICSKCellularPowerLogNRCdrxConfigNrCdrxConfigPerCellGroup._inactivityTimerMs, 
                       AWDMETRICSKCellularPowerLogNRCdrxConfigNrCdrxConfigPerCellGroup._longCycle, 
                       AWDMETRICSKCellularPowerLogNRCdrxConfigNrCdrxConfigPerCellGroup._longCycleOffset, 
                       AWDMETRICSKCellularPowerLogNRCdrxConfigNrCdrxConfigPerCellGroup._onDurationTimerFraction, 
                       AWDMETRICSKCellularPowerLogNRCdrxConfigNrCdrxConfigPerCellGroup._onDurationTimerMs, 
                       AWDMETRICSKCellularPowerLogNRCdrxConfigNrCdrxConfigPerCellGroup._retransmissionTimerDl, 
                       AWDMETRICSKCellularPowerLogNRCdrxConfigNrCdrxConfigPerCellGroup._retransmissionTimerUl, 
                       AWDMETRICSKCellularPowerLogNRCdrxConfigNrCdrxConfigPerCellGroup._shortCycle, 
                       AWDMETRICSKCellularPowerLogNRCdrxConfigNrCdrxConfigPerCellGroup._shortCycleEnable, 
                       AWDMETRICSKCellularPowerLogNRCdrxConfigNrCdrxConfigPerCellGroup._shortCycleTimer, 
                       AWDMETRICSKCellularPowerLogNRCdrxConfigNrCdrxSecondaryConfigPerCellGroup._has, 
                       AWDMETRICSKCellularPowerLogNRCdrxConfigNrCdrxSecondaryConfigPerCellGroup._inactivityTimerMs, 
                       AWDMETRICSKCellularPowerLogNRCdrxConfigNrCdrxSecondaryConfigPerCellGroup._onDurationTimerFraction, 
                       AWDMETRICSKCellularPowerLogNRCdrxConfigNrCdrxSecondaryConfigPerCellGroup._onDurationTimerMs, 
                       AWDMETRICSKCellularPowerLogNRNSAENDCEvent._event, AWDMETRICSKCellularPowerLogNRNSAENDCEvent._fr, 
                       AWDMETRICSKCellularPowerLogNRNSAENDCEvent._has, AWDMETRICSKCellularPowerLogNRNSAENDCEvent._isDataPreferred, 
                       AWDMETRICSKCellularPowerLogNRNSAENDCEvent._numSubs, AWDMETRICSKCellularPowerLogNRNSAENDCEvent._plmn, 
                       AWDMETRICSKCellularPowerLogNRNSAENDCEvent._subsId, AWDMETRICSKCellularPowerLogNRNSAENDCEvent._timestamp, 
                       AWDMETRICSKCellularPowerLogNRPagingDRXCycle._fr, AWDMETRICSKCellularPowerLogNRPagingDRXCycle._has, 
                       AWDMETRICSKCellularPowerLogNRPagingDRXCycle._isDataPreferred, 
                       AWDMETRICSKCellularPowerLogNRPagingDRXCycle._numSubs, AWDMETRICSKCellularPowerLogNRPagingDRXCycle._pagingDrxCycle, 
                       AWDMETRICSKCellularPowerLogNRPagingDRXCycle._plmn, AWDMETRICSKCellularPowerLogNRPagingDRXCycle._subsId, 
                       AWDMETRICSKCellularPowerLogNRPagingDRXCycle._timestamp, AWDMETRICSKCellularPowerLogNRSCGRel._event, 
                       AWDMETRICSKCellularPowerLogNRSCGRel._fr, AWDMETRICSKCellularPowerLogNRSCGRel._has, 
                       AWDMETRICSKCellularPowerLogNRSCGRel._isDataPreferred, AWDMETRICSKCellularPowerLogNRSCGRel._numSubs, 
                       AWDMETRICSKCellularPowerLogNRSCGRel._plmn, AWDMETRICSKCellularPowerLogNRSCGRel._subsId, 
                       AWDMETRICSKCellularPowerLogNRSCGRel._timestamp, AWDMETRICSKCellularPowerLogNRSub6RSRPHist._bins, 
                       AWDMETRICSKCellularPowerLogNRSub6RSRPHist._durationMs, AWDMETRICSKCellularPowerLogNRSub6RSRPHist._has, 
                       AWDMETRICSKCellularPowerLogNRSub6RSRPHist._isDataPreferred, 
                       AWDMETRICSKCellularPowerLogNRSub6RSRPHist._subsId, AWDMETRICSKCellularPowerLogNRSub6RSRPHist._timestamp, 
                       AWDMETRICSKCellularPowerLogNRSub6RSRPHistMBin._binId, AWDMETRICSKCellularPowerLogNRSub6RSRPHistMBin._duration, 
                       AWDMETRICSKCellularPowerLogNRSub6RSRPHistMBin._has, AWDMETRICSKCellularPowerLogNRSub6SINRHist._bins, 
                       AWDMETRICSKCellularPowerLogNRSub6SINRHist._durationMs, AWDMETRICSKCellularPowerLogNRSub6SINRHist._has, 
                       AWDMETRICSKCellularPowerLogNRSub6SINRHist._isDataPreferred, 
                       AWDMETRICSKCellularPowerLogNRSub6SINRHist._subsId, AWDMETRICSKCellularPowerLogNRSub6SINRHist._timestamp, 
                       AWDMETRICSKCellularPowerLogNRSub6SINRHistMBin._binId, AWDMETRICSKCellularPowerLogNRSub6SINRHistMBin._duration, 
                       AWDMETRICSKCellularPowerLogNRSub6SINRHistMBin._has, AWDMETRICSKCellularPowerLogNrCaConfigActivateStats._bins, 
                       AWDMETRICSKCellularPowerLogNrCaConfigActivateStats._durationMs, 
                       AWDMETRICSKCellularPowerLogNrCaConfigActivateStats._has, AWDMETRICSKCellularPowerLogNrCaConfigActivateStats._isDataPreferred, 
                       AWDMETRICSKCellularPowerLogNrCaConfigActivateStats._lastSdmState, 
                       AWDMETRICSKCellularPowerLogNrCaConfigActivateStats._subsId, 
                       AWDMETRICSKCellularPowerLogNrCaConfigActivateStats._timestamp, 
                       AWDMETRICSKCellularPowerLogNrCaConfigActivateStatsMBin._ccActivated, 
                       AWDMETRICSKCellularPowerLogNrCaConfigActivateStatsMBin._ccConfigured, 
                       AWDMETRICSKCellularPowerLogNrCaConfigActivateStatsMBin._direction, 
                       AWDMETRICSKCellularPowerLogNrCaConfigActivateStatsMBin._duration, 
                       AWDMETRICSKCellularPowerLogNrCaConfigActivateStatsMBin._freqRange, 
                       AWDMETRICSKCellularPowerLogNrCaConfigActivateStatsMBin._has, 
                       AWDMETRICSKCellularPowerLogNrCaConfigActivateStatsMBin._isEndc, 
                       AWDMETRICSKCellularPowerLogNrSaRrcStateChange._band, AWDMETRICSKCellularPowerLogNrSaRrcStateChange._cause, 
                       AWDMETRICSKCellularPowerLogNrSaRrcStateChange._deployment, 
                       AWDMETRICSKCellularPowerLogNrSaRrcStateChange._fr, AWDMETRICSKCellularPowerLogNrSaRrcStateChange._has, 
                       AWDMETRICSKCellularPowerLogNrSaRrcStateChange._prevState, 
                       AWDMETRICSKCellularPowerLogNrSaRrcStateChange._prevStateDurMs, 
                       AWDMETRICSKCellularPowerLogNrSaRrcStateChange._state, AWDMETRICSKCellularPowerLogNrSaRrcStateChange._subsId, 
                       AWDMETRICSKCellularPowerLogNrSaRrcStateChange._timestamp, 
                       AWDMETRICSKCellularPowerLogPLMNSearchHist._bins, AWDMETRICSKCellularPowerLogPLMNSearchHist._durationMs, 
                       AWDMETRICSKCellularPowerLogPLMNSearchHist._has, AWDMETRICSKCellularPowerLogPLMNSearchHist._isDataPreferred, 
                       AWDMETRICSKCellularPowerLogPLMNSearchHist._lastSdmState, AWDMETRICSKCellularPowerLogPLMNSearchHist._subsId, 
                       AWDMETRICSKCellularPowerLogPLMNSearchHist._timestamp, AWDMETRICSKCellularPowerLogPLMNSearchHistMBin._binId, 
                       AWDMETRICSKCellularPowerLogPLMNSearchHistMBin._duration, AWDMETRICSKCellularPowerLogPLMNSearchHistMBin._has, 
                       AWDMETRICSKCellularPowerLogPLMNSearchHistMBin._searchDurationBinIndex, 
                       AWDMETRICSKCellularPowerLogPlmnSearchEvent._duration, AWDMETRICSKCellularPowerLogPlmnSearchEvent._has, 
                       AWDMETRICSKCellularPowerLogPlmnSearchEvent._rat, AWDMETRICSKCellularPowerLogPlmnSearchEvent._result, 
                       AWDMETRICSKCellularPowerLogPlmnSearchEvent._searchReason, 
                       AWDMETRICSKCellularPowerLogPlmnSearchEvent._searchType, AWDMETRICSKCellularPowerLogPlmnSearchEvent._subsId, 
                       AWDMETRICSKCellularPowerLogPlmnSearchEvent._timestamp, AWDMETRICSKCellularPowerLogPowerEstimator._durationMs, 
                       AWDMETRICSKCellularPowerLogPowerEstimator._has, AWDMETRICSKCellularPowerLogPowerEstimator._lastSdmState, 
                       AWDMETRICSKCellularPowerLogPowerEstimator._powerStats, AWDMETRICSKCellularPowerLogPowerEstimator._timestamp, 
                       AWDMETRICSKCellularPowerLogPowerEstimatorComponentPowerStats._activeDurationMs, 
                       AWDMETRICSKCellularPowerLogPowerEstimatorComponentPowerStats._avgActivePowerMw, 
                       AWDMETRICSKCellularPowerLogPowerEstimatorComponentPowerStats._avgPowerMw, 
                       AWDMETRICSKCellularPowerLogPowerEstimatorComponentPowerStats._component, 
                       AWDMETRICSKCellularPowerLogPowerEstimatorComponentPowerStats._cumulatedEnergyMj, 
                       AWDMETRICSKCellularPowerLogPowerEstimatorComponentPowerStats._has, 
                       AWDMETRICSKCellularPowerLogPowerEstimatorComponentPowerStats._peakPowerMw, 
                       AWDMETRICSKCellularPowerLogProtocolStateHist._bins, AWDMETRICSKCellularPowerLogProtocolStateHist._durationMs, 
                       AWDMETRICSKCellularPowerLogProtocolStateHist._has, AWDMETRICSKCellularPowerLogProtocolStateHist._isDataPreferred, 
                       AWDMETRICSKCellularPowerLogProtocolStateHist._lastSdmState, 
                       AWDMETRICSKCellularPowerLogProtocolStateHist._subsId, AWDMETRICSKCellularPowerLogProtocolStateHist._timestamp, 
                       AWDMETRICSKCellularPowerLogProtocolStateHistMBin._binId, AWDMETRICSKCellularPowerLogProtocolStateHistMBin._count, 
                       AWDMETRICSKCellularPowerLogProtocolStateHistMBin._duration, 
                       AWDMETRICSKCellularPowerLogProtocolStateHistMBin._durationBinIndex, 
                       AWDMETRICSKCellularPowerLogProtocolStateHistMBin._has, AWDMETRICSKCellularPowerLogRatChangeEvent._event, 
                       AWDMETRICSKCellularPowerLogRatChangeEvent._has, AWDMETRICSKCellularPowerLogRatChangeEvent._isDataPreferred, 
                       AWDMETRICSKCellularPowerLogRatChangeEvent._subsId, AWDMETRICSKCellularPowerLogRatChangeEvent._timestamp, 
                       AWDMETRICSKCellularPowerLogServiceStatusEvent._has, AWDMETRICSKCellularPowerLogServiceStatusEvent._rat, 
                       AWDMETRICSKCellularPowerLogServiceStatusEvent._status, AWDMETRICSKCellularPowerLogServiceStatusEvent._subsId, 
                       AWDMETRICSKCellularPowerLogServiceStatusEvent._timestamp, 
                       AWDMETRICSKCellularPowerLogSleepStates._bins, AWDMETRICSKCellularPowerLogSleepStates._durationMs, 
                       AWDMETRICSKCellularPowerLogSleepStates._has, AWDMETRICSKCellularPowerLogSleepStates._isDataPreferred, 
                       AWDMETRICSKCellularPowerLogSleepStates._subsId, AWDMETRICSKCellularPowerLogSleepStates._timestamp, 
                       AWDMETRICSKCellularPowerLogSleepStatesMBin._count, AWDMETRICSKCellularPowerLogSleepStatesMBin._deployment, 
                       AWDMETRICSKCellularPowerLogSleepStatesMBin._durationMs, AWDMETRICSKCellularPowerLogSleepStatesMBin._has, 
                       AWDMETRICSKCellularPowerLogSleepStatesMBin._rat, AWDMETRICSKCellularPowerLogSleepStatesMBin._rrcState, 
                       AWDMETRICSKCellularPowerLogSleepStatesMBin._socSleepState, 
                       AWDMETRICSKCellularPowerLogSocPerfLevels._bins, AWDMETRICSKCellularPowerLogSocPerfLevels._durationMs, 
                       AWDMETRICSKCellularPowerLogSocPerfLevels._has, AWDMETRICSKCellularPowerLogSocPerfLevels._lastSdmState, 
                       AWDMETRICSKCellularPowerLogSocPerfLevels._subsId, AWDMETRICSKCellularPowerLogSocPerfLevels._timestamp, 
                       AWDMETRICSKCellularPowerLogSocPerfLevelsMBin._binId, AWDMETRICSKCellularPowerLogSocPerfLevelsMBin._count, 
                       AWDMETRICSKCellularPowerLogSocPerfLevelsMBin._duration, AWDMETRICSKCellularPowerLogSocPerfLevelsMBin._has, 
                       AWDMETRICSKCellularPowerLogSubsysSleepStates._bins, AWDMETRICSKCellularPowerLogSubsysSleepStates._durationMs, 
                       AWDMETRICSKCellularPowerLogSubsysSleepStates._has, AWDMETRICSKCellularPowerLogSubsysSleepStates._lastSdmState, 
                       AWDMETRICSKCellularPowerLogSubsysSleepStates._subsId, AWDMETRICSKCellularPowerLogSubsysSleepStates._timestamp, 
                       AWDMETRICSKCellularPowerLogSubsysSleepStatesMBin._binId, AWDMETRICSKCellularPowerLogSubsysSleepStatesMBin._duration, 
                       AWDMETRICSKCellularPowerLogSubsysSleepStatesMBin._has, AWDMETRICSKCellularPowerLogSystemEvent._has, 
                       AWDMETRICSKCellularPowerLogSystemEvent._mode, AWDMETRICSKCellularPowerLogSystemEvent._oosPlmnSearchTimerActive, 
                       AWDMETRICSKCellularPowerLogSystemEvent._prevMode, AWDMETRICSKCellularPowerLogSystemEvent._prevRat, 
                       AWDMETRICSKCellularPowerLogSystemEvent._prevStateDurationMs, 
                       AWDMETRICSKCellularPowerLogSystemEvent._rat, AWDMETRICSKCellularPowerLogSystemEvent._subsId, 
                       AWDMETRICSKCellularPowerLogSystemEvent._timestamp, AWDMETRICSKCellularPowerLogWCDMACDRXConfig._drxCycleLength, 
                       AWDMETRICSKCellularPowerLogWCDMACDRXConfig._has, AWDMETRICSKCellularPowerLogWCDMACDRXConfig._isDataPreferred, 
                       AWDMETRICSKCellularPowerLogWCDMACDRXConfig._numSubs, AWDMETRICSKCellularPowerLogWCDMACDRXConfig._plmn, 
                       AWDMETRICSKCellularPowerLogWCDMACDRXConfig._subsId, AWDMETRICSKCellularPowerLogWCDMACDRXConfig._timestamp, 
                       AWDMETRICSKCellularPowerLogWCDMACDRXConfig._ueDrxCycleInactivityThreshold, 
                       AWDMETRICSKCellularPowerLogWCDMACDRXConfig._ueDrxGrantMonitoring, 
                       AWDMETRICSKCellularPowerLogWCDMACDRXConfig._ueGrantMonitoringInactivityThreshold, 
                       AWDMETRICSKCellularPowerLogWcdmaPagingDRXCycle._has, AWDMETRICSKCellularPowerLogWcdmaPagingDRXCycle._isDataPreferred, 
                       AWDMETRICSKCellularPowerLogWcdmaPagingDRXCycle._numSubs, AWDMETRICSKCellularPowerLogWcdmaPagingDRXCycle._pagingDrxCycle, 
                       AWDMETRICSKCellularPowerLogWcdmaPagingDRXCycle._plmn, AWDMETRICSKCellularPowerLogWcdmaPagingDRXCycle._subsId, 
                       AWDMETRICSKCellularPowerLogWcdmaPagingDRXCycle._timestamp, 
                       AWDMETRICSKCellularPowerLogWcdmaRrcStateChange._connState, 
                       AWDMETRICSKCellularPowerLogWcdmaRrcStateChange._establishmentCause, 
                       AWDMETRICSKCellularPowerLogWcdmaRrcStateChange._has, AWDMETRICSKCellularPowerLogWcdmaRrcStateChange._isDataPreferred, 
                       AWDMETRICSKCellularPowerLogWcdmaRrcStateChange._prevConnState, 
                       AWDMETRICSKCellularPowerLogWcdmaRrcStateChange._prevDurMs, 
                       AWDMETRICSKCellularPowerLogWcdmaRrcStateChange._releaseCause, 
                       AWDMETRICSKCellularPowerLogWcdmaRrcStateChange._subsId, AWDMETRICSKCellularPowerLogWcdmaRrcStateChange._timestamp, 
                       AWDMETRICSKCellularPowerLogXOShutdown._bins, AWDMETRICSKCellularPowerLogXOShutdown._duration, 
                       AWDMETRICSKCellularPowerLogXOShutdown._durationMs, AWDMETRICSKCellularPowerLogXOShutdown._has, 
                       AWDMETRICSKCellularPowerLogXOShutdown._lastSdmState, AWDMETRICSKCellularPowerLogXOShutdown._shutdownCount, 
                       AWDMETRICSKCellularPowerLogXOShutdown._timestamp, AWDMETRICSKCellularPowerLogXOShutdown._totalNon0States, 
                       AWDMETRICSKCellularPowerLogXOShutdownMBin._binId, AWDMETRICSKCellularPowerLogXOShutdownMBin._count, 
                       AWDMETRICSKCellularPowerLogXOShutdownMBin._durationMs, AWDMETRICSKCellularPowerLogXOShutdownMBin._has, 
                       AWDMETRICSKCellularPowerlogProtocolStackHist._durBin0, AWDMETRICSKCellularPowerlogProtocolStackHist._durBin1, 
                       AWDMETRICSKCellularPowerlogProtocolStackHist._durBin10, AWDMETRICSKCellularPowerlogProtocolStackHist._durBin11, 
                       AWDMETRICSKCellularPowerlogProtocolStackHist._durBin12, AWDMETRICSKCellularPowerlogProtocolStackHist._durBin13, 
                       AWDMETRICSKCellularPowerlogProtocolStackHist._durBin14, AWDMETRICSKCellularPowerlogProtocolStackHist._durBin15, 
                       AWDMETRICSKCellularPowerlogProtocolStackHist._durBin16, AWDMETRICSKCellularPowerlogProtocolStackHist._durBin17, 
                       AWDMETRICSKCellularPowerlogProtocolStackHist._durBin18, AWDMETRICSKCellularPowerlogProtocolStackHist._durBin19, 
                       AWDMETRICSKCellularPowerlogProtocolStackHist._durBin2, AWDMETRICSKCellularPowerlogProtocolStackHist._durBin20, 
                       AWDMETRICSKCellularPowerlogProtocolStackHist._durBin21, AWDMETRICSKCellularPowerlogProtocolStackHist._durBin22, 
                       AWDMETRICSKCellularPowerlogProtocolStackHist._durBin23, AWDMETRICSKCellularPowerlogProtocolStackHist._durBin24, 
                       AWDMETRICSKCellularPowerlogProtocolStackHist._durBin25, AWDMETRICSKCellularPowerlogProtocolStackHist._durBin26, 
                       AWDMETRICSKCellularPowerlogProtocolStackHist._durBin27, AWDMETRICSKCellularPowerlogProtocolStackHist._durBin28, 
                       AWDMETRICSKCellularPowerlogProtocolStackHist._durBin29, AWDMETRICSKCellularPowerlogProtocolStackHist._durBin3, 
                       AWDMETRICSKCellularPowerlogProtocolStackHist._durBin30, AWDMETRICSKCellularPowerlogProtocolStackHist._durBin31, 
                       AWDMETRICSKCellularPowerlogProtocolStackHist._durBin4, AWDMETRICSKCellularPowerlogProtocolStackHist._durBin5, 
                       AWDMETRICSKCellularPowerlogProtocolStackHist._durBin6, AWDMETRICSKCellularPowerlogProtocolStackHist._durBin7, 
                       AWDMETRICSKCellularPowerlogProtocolStackHist._durBin8, AWDMETRICSKCellularPowerlogProtocolStackHist._durBin9, 
                       AWDMETRICSKCellularPowerlogProtocolStackHist._durationMs, 
                       AWDMETRICSKCellularPowerlogProtocolStackHist._has, AWDMETRICSKCellularPowerlogProtocolStackHist._subsId, 
                       AWDMETRICSKCellularPowerlogProtocolStackHist._timestamp, AWDMETRICSKCellularPowerlogProtocolStackHist._version, 
                       AWDMETRICSKCellularPowerlogRFSSVoltageLevels._durationMs, 
                       AWDMETRICSKCellularPowerlogRFSSVoltageLevels._has, AWDMETRICSKCellularPowerlogRFSSVoltageLevels._rfssStates, 
                       AWDMETRICSKCellularPowerlogRFSSVoltageLevels._timestamp, AWDMETRICSKCellularPowerlogRFSSVoltageLevelsRfSS._duration, 
                       AWDMETRICSKCellularPowerlogRFSSVoltageLevelsRfSS._fr, AWDMETRICSKCellularPowerlogRFSSVoltageLevelsRfSS._has, 
                       AWDMETRICSKCellularPowerlogRFSSVoltageLevelsRfSS._sleepStateId, 
                       AWDMETRICSKCellularPowerlogRFSSVoltageLevelsRfSS._vddScenarioId, 
                       AWDMETRICSKCellularPowerlogRrcModeHist._connDurBin0, AWDMETRICSKCellularPowerlogRrcModeHist._connDurBin1, 
                       AWDMETRICSKCellularPowerlogRrcModeHist._connDurBin10, AWDMETRICSKCellularPowerlogRrcModeHist._connDurBin11, 
                       AWDMETRICSKCellularPowerlogRrcModeHist._connDurBin12, AWDMETRICSKCellularPowerlogRrcModeHist._connDurBin2, 
                       AWDMETRICSKCellularPowerlogRrcModeHist._connDurBin3, AWDMETRICSKCellularPowerlogRrcModeHist._connDurBin4, 
                       AWDMETRICSKCellularPowerlogRrcModeHist._connDurBin5, AWDMETRICSKCellularPowerlogRrcModeHist._connDurBin6, 
                       AWDMETRICSKCellularPowerlogRrcModeHist._connDurBin7, AWDMETRICSKCellularPowerlogRrcModeHist._connDurBin8, 
                       AWDMETRICSKCellularPowerlogRrcModeHist._connDurBin9, AWDMETRICSKCellularPowerlogRrcModeHist._durationMs, 
                       AWDMETRICSKCellularPowerlogRrcModeHist._has, AWDMETRICSKCellularPowerlogRrcModeHist._idleDurBin0, 
                       AWDMETRICSKCellularPowerlogRrcModeHist._idleDurBin1, AWDMETRICSKCellularPowerlogRrcModeHist._idleDurBin10, 
                       AWDMETRICSKCellularPowerlogRrcModeHist._idleDurBin11, AWDMETRICSKCellularPowerlogRrcModeHist._idleDurBin12, 
                       AWDMETRICSKCellularPowerlogRrcModeHist._idleDurBin2, AWDMETRICSKCellularPowerlogRrcModeHist._idleDurBin3, 
                       AWDMETRICSKCellularPowerlogRrcModeHist._idleDurBin4, AWDMETRICSKCellularPowerlogRrcModeHist._idleDurBin5, 
                       AWDMETRICSKCellularPowerlogRrcModeHist._idleDurBin6, AWDMETRICSKCellularPowerlogRrcModeHist._idleDurBin7, 
                       AWDMETRICSKCellularPowerlogRrcModeHist._idleDurBin8, AWDMETRICSKCellularPowerlogRrcModeHist._idleDurBin9, 
                       AWDMETRICSKCellularPowerlogRrcModeHist._subsId, AWDMETRICSKCellularPowerlogRrcModeHist._timestamp, 
                       AWDMETRICSKCellularWcdmaDataInactivityBeforeIdle._dataInactivityDurMs, 
                       AWDMETRICSKCellularWcdmaDataInactivityBeforeIdle._has, AWDMETRICSKCellularWcdmaDataInactivityBeforeIdle._subsId, 
                       AWDMETRICSKCellularWcdmaDataInactivityBeforeIdle._timestamp, 
                       AWDMETRICSMBin._binId, AWDMETRICSMBin._duration, AWDMETRICSMBin._has, 
                       AWDMETRICSMCarrierComponentInfo._band, AWDMETRICSMCarrierComponentInfo._bandwidth, 
                       AWDMETRICSMCarrierComponentInfo._duplex, AWDMETRICSMCarrierComponentInfo._earfcn, 
                       AWDMETRICSMCarrierComponentInfo._has, AWDMETRICSMCarrierComponentInfo._type, 
                       AWDMETRICSMetricLogPower._kCellularAcmSleepStats, AWDMETRICSMetricLogPower._kCellularGsmServingCellRssiHists, 
                       AWDMETRICSMetricLogPower._kCellularGsmTxPowerHists, AWDMETRICSMetricLogPower._kCellularLteCdrxConfigs, 
                       AWDMETRICSMetricLogPower._kCellularLteDataInactivityBeforeIdles, 
                       AWDMETRICSMetricLogPower._kCellularLtePagingCycles, AWDMETRICSMetricLogPower._kCellularLteServingCellRsrpHists, 
                       AWDMETRICSMetricLogPower._kCellularLteServingCellSinrHists, 
                       AWDMETRICSMetricLogPower._kCellularNrSDMActivations, AWDMETRICSMetricLogPower._kCellularNrSdmEndcReleases, 
                       AWDMETRICSMetricLogPower._kCellularPerClientProfileTriggerCounts, 
                       AWDMETRICSMetricLogPower._kCellularPlatformApBbSleepStats, 
                       AWDMETRICSMetricLogPower._kCellularPowerLog2g3gSleepStates, 
                       AWDMETRICSMetricLogPower._kCellularPowerLogAcmPerfLevels, 
                       AWDMETRICSMetricLogPower._kCellularPowerLogBasebandSleepVetos, 
                       AWDMETRICSMetricLogPower._kCellularPowerLogCdpDSleepStates, 
                       AWDMETRICSMetricLogPower._kCellularPowerLogCdpHSleepStates, 
                       AWDMETRICSMetricLogPower._kCellularPowerLogCdpUSleepStates, 
                       AWDMETRICSMetricLogPower._kCellularPowerLogCpsSleepStates, 
                       AWDMETRICSMetricLogPower._kCellularPowerLogCpuPerfLevels, 
                       AWDMETRICSMetricLogPower._kCellularPowerLogDcsSleepStates, 
                       AWDMETRICSMetricLogPower._kCellularPowerLogGPSStates, AWDMETRICSMetricLogPower._kCellularPowerLogGSMRABModes, 
                       AWDMETRICSMetricLogPower._kCellularPowerLogGsmRrcStateChanges, 
                       AWDMETRICSMetricLogPower._kCellularPowerLogL1CSleepStates, 
                       AWDMETRICSMetricLogPower._kCellularPowerLogL1SSleepStates, 
                       AWDMETRICSMetricLogPower._kCellularPowerLogLTEAggregatedDLTBSs, 
                       AWDMETRICSMetricLogPower._kCellularPowerLogLteCaConfigActivateStats, 
                       AWDMETRICSMetricLogPower._kCellularPowerLogLteCarrierComponentInfos, 
                       AWDMETRICSMetricLogPower._kCellularPowerLogLteNrRxDiversityHists, 
                       AWDMETRICSMetricLogPower._kCellularPowerLogLteNrRxTxActivityStats, 
                       AWDMETRICSMetricLogPower._kCellularPowerLogLteNrTxPowerHists, 
                       AWDMETRICSMetricLogPower._kCellularPowerLogLteRrcStateChanges, 
                       AWDMETRICSMetricLogPower._kCellularPowerLogNRCarrierComponentInfos, 
                       AWDMETRICSMetricLogPower._kCellularPowerLogNRCdrxConfigs, 
                       AWDMETRICSMetricLogPower._kCellularPowerLogNRNSAENDCEvents, 
                       AWDMETRICSMetricLogPower._kCellularPowerLogNRPagingDRXCycles, 
                       AWDMETRICSMetricLogPower._kCellularPowerLogNRSCGRels, AWDMETRICSMetricLogPower._kCellularPowerLogNRSub6RSRPs, 
                       AWDMETRICSMetricLogPower._kCellularPowerLogNRSub6SINRs, AWDMETRICSMetricLogPower._kCellularPowerLogNRsub6BWPs, 
                       AWDMETRICSMetricLogPower._kCellularPowerLogNRsub6DLTBSs, AWDMETRICSMetricLogPower._kCellularPowerLogNrCaConfigActivateStats, 
                       AWDMETRICSMetricLogPower._kCellularPowerLogNrSaRrcStateChanges, 
                       AWDMETRICSMetricLogPower._kCellularPowerLogPLMNSearchs, AWDMETRICSMetricLogPower._kCellularPowerLogPlmnSearchEvents, 
                       AWDMETRICSMetricLogPower._kCellularPowerLogPowerEstimators, 
                       AWDMETRICSMetricLogPower._kCellularPowerLogProtocolStates, 
                       AWDMETRICSMetricLogPower._kCellularPowerLogRatRedirectionEvents, 
                       AWDMETRICSMetricLogPower._kCellularPowerLogRatReselectionEvents, 
                       AWDMETRICSMetricLogPower._kCellularPowerLogServiceStatusEvents, 
                       AWDMETRICSMetricLogPower._kCellularPowerLogSleepStates, AWDMETRICSMetricLogPower._kCellularPowerLogSocPerfLevels, 
                       AWDMETRICSMetricLogPower._kCellularPowerLogSystemEvents, AWDMETRICSMetricLogPower._kCellularPowerLogWCDMACDRXConfigs, 
                       AWDMETRICSMetricLogPower._kCellularPowerLogWcdmaPagingDRXCycles, 
                       AWDMETRICSMetricLogPower._kCellularPowerLogWcdmaRrcStateChanges, 
                       AWDMETRICSMetricLogPower._kCellularPowerLogXOShutdowns, AWDMETRICSMetricLogPower._kCellularPowerlogRFSSVoltageLevels, 
                       AWDMETRICSMetricLogPower._kCellularWcdmaDataInactivityBeforeIdles, 
                       AWDMETRICSMetricLogPower._kCellularWcdmaPsRabTypeHists, AWDMETRICSMetricLogPower._kCellularWcdmaRabModeHists, 
                       AWDMETRICSMetricLogPower._kCellularWcdmaRxDiversityHists, 
                       AWDMETRICSMetricLogPower._kCellularWcdmaServingCellRx0RssiHists, 
                       AWDMETRICSMetricLogPower._kCellularWcdmaServingCellRx1RssiHists, 
                       AWDMETRICSMetricLogPower._kCellularWcdmaTxPowerHists, PPSSQLitePropertyPredicate._property, 
                       PPSTimeSeries._events, PPSTimeSeries._isSorted, PPSTimeSeries._sortHint ]
    weak-symbols:    [ __ZGVN5boost13serialization9singletonINS0_25extended_type_info_typeidIN3pps18Histogram_InternalEEEE10m_instanceE, 
                       __ZGVN5boost13serialization9singletonINS0_25extended_type_info_typeidINS_7variantINS_9histogram4axis7regularIdNS_11use_defaultES7_S7_EEJNS5_8variableIdS7_S7_NSt3__19allocatorIdEEEENS5_7integerIiS7_NS5_6option3bitILj1EEEEEEEEEEE10m_instanceE, 
                       __ZGVN5boost13serialization9singletonINS0_25extended_type_info_typeidINS_9histogram17unlimited_storageINSt3__19allocatorIcEEEEEEE10m_instanceE, 
                       __ZGVN5boost13serialization9singletonINS0_25extended_type_info_typeidINS_9histogram4axis7integerIiNS_11use_defaultENS4_6option3bitILj1EEEEEEEE10m_instanceE, 
                       __ZGVN5boost13serialization9singletonINS0_25extended_type_info_typeidINS_9histogram4axis7regularIdNS_11use_defaultES6_S6_EEEEE10m_instanceE, 
                       __ZGVN5boost13serialization9singletonINS0_25extended_type_info_typeidINS_9histogram4axis7variantIJNS4_7regularIdNS_11use_defaultES7_S7_EENS4_8variableIdS7_S7_NSt3__19allocatorIdEEEENS4_7integerIiS7_NS4_6option3bitILj1EEEEEEEEEEE10m_instanceE, 
                       __ZGVN5boost13serialization9singletonINS0_25extended_type_info_typeidINS_9histogram4axis8variableIdNS_11use_defaultES6_NSt3__19allocatorIdEEEEEEE10m_instanceE, 
                       __ZGVN5boost13serialization9singletonINS0_25extended_type_info_typeidINS_9histogram4axis9transform2idEEEE10m_instanceE, 
                       __ZGVN5boost13serialization9singletonINS0_25extended_type_info_typeidINS_9histogram6detail6mp_intINSt3__19allocatorIyEEEEEEE10m_instanceE, 
                       __ZGVN5boost13serialization9singletonINS0_25extended_type_info_typeidINS_9histogram9histogramINSt3__16vectorINS3_4axis7variantIJNS7_7regularIdNS_11use_defaultESA_SA_EENS7_8variableIdSA_SA_NS5_9allocatorIdEEEENS7_7integerIiSA_NS7_6option3bitILj1EEEEEEEENSD_ISL_EEEENS3_17unlimited_storageINSD_IcEEEEEEEEE10m_instanceE, 
                       __ZGVN5boost13serialization9singletonINS0_25extended_type_info_typeidINSt3__13mapIiNS3_6vectorINS3_12basic_stringIcNS3_11char_traitsIcEENS3_9allocatorIcEEEENS9_ISB_EEEENS3_4lessIiEENS9_INS3_4pairIKiSD_EEEEEEEEE10m_instanceE, 
                       __ZGVN5boost13serialization9singletonINS0_25extended_type_info_typeidINSt3__14pairIKiNS3_6vectorINS3_12basic_stringIcNS3_11char_traitsIcEENS3_9allocatorIcEEEENSA_ISC_EEEEEEEEE10m_instanceE, 
                       __ZGVN5boost13serialization9singletonINS0_25extended_type_info_typeidINSt3__16vectorIN3pps8AxisEnumENS3_9allocatorIS6_EEEEEEE10m_instanceE, 
                       __ZGVN5boost13serialization9singletonINS0_25extended_type_info_typeidINSt3__16vectorINS3_12basic_stringIcNS3_11char_traitsIcEENS3_9allocatorIcEEEENS8_ISA_EEEEEEE10m_instanceE, 
                       __ZGVN5boost13serialization9singletonINS0_25extended_type_info_typeidINSt3__16vectorINS_9histogram4axis7variantIJNS6_7regularIdNS_11use_defaultES9_S9_EENS6_8variableIdS9_S9_NS3_9allocatorIdEEEENS6_7integerIiS9_NS6_6option3bitILj1EEEEEEEENSC_ISK_EEEEEEE10m_instanceE, 
                       __ZGVN5boost13serialization9singletonINS0_25extended_type_info_typeidINSt3__16vectorIdNS3_9allocatorIdEEEEEEE10m_instanceE, 
                       __ZGVN5boost13serialization9singletonINS0_25extended_type_info_typeidINSt3__16vectorIyNS3_9allocatorIyEEEEEEE10m_instanceE, 
                       __ZGVN5boost13serialization9singletonINS_7archive6detail11iserializerINS2_13text_iarchiveEN3pps18Histogram_InternalEEEE10m_instanceE, 
                       __ZGVN5boost13serialization9singletonINS_7archive6detail11iserializerINS2_13text_iarchiveENS_7variantINS_9histogram4axis7regularIdNS_11use_defaultESA_SA_EEJNS8_8variableIdSA_SA_NSt3__19allocatorIdEEEENS8_7integerIiSA_NS8_6option3bitILj1EEEEEEEEEEE10m_instanceE, 
                       __ZGVN5boost13serialization9singletonINS_7archive6detail11iserializerINS2_13text_iarchiveENS_9histogram17unlimited_storageINSt3__19allocatorIcEEEEEEE10m_instanceE, 
                       __ZGVN5boost13serialization9singletonINS_7archive6detail11iserializerINS2_13text_iarchiveENS_9histogram4axis7integerIiNS_11use_defaultENS7_6option3bitILj1EEEEEEEE10m_instanceE, 
                       __ZGVN5boost13serialization9singletonINS_7archive6detail11iserializerINS2_13text_iarchiveENS_9histogram4axis7regularIdNS_11use_defaultES9_S9_EEEEE10m_instanceE, 
                       __ZGVN5boost13serialization9singletonINS_7archive6detail11iserializerINS2_13text_iarchiveENS_9histogram4axis7variantIJNS7_7regularIdNS_11use_defaultESA_SA_EENS7_8variableIdSA_SA_NSt3__19allocatorIdEEEENS7_7integerIiSA_NS7_6option3bitILj1EEEEEEEEEEE10m_instanceE, 
                       __ZGVN5boost13serialization9singletonINS_7archive6detail11iserializerINS2_13text_iarchiveENS_9histogram4axis8variableIdNS_11use_defaultES9_NSt3__19allocatorIdEEEEEEE10m_instanceE, 
                       __ZGVN5boost13serialization9singletonINS_7archive6detail11iserializerINS2_13text_iarchiveENS_9histogram4axis9transform2idEEEE10m_instanceE, 
                       __ZGVN5boost13serialization9singletonINS_7archive6detail11iserializerINS2_13text_iarchiveENS_9histogram6detail6mp_intINSt3__19allocatorIyEEEEEEE10m_instanceE, 
                       __ZGVN5boost13serialization9singletonINS_7archive6detail11iserializerINS2_13text_iarchiveENS_9histogram9histogramINSt3__16vectorINS6_4axis7variantIJNSA_7regularIdNS_11use_defaultESD_SD_EENSA_8variableIdSD_SD_NS8_9allocatorIdEEEENSA_7integerIiSD_NSA_6option3bitILj1EEEEEEEENSG_ISO_EEEENS6_17unlimited_storageINSG_IcEEEEEEEEE10m_instanceE, 
                       __ZGVN5boost13serialization9singletonINS_7archive6detail11iserializerINS2_13text_iarchiveENSt3__13mapIiNS6_6vectorINS6_12basic_stringIcNS6_11char_traitsIcEENS6_9allocatorIcEEEENSC_ISE_EEEENS6_4lessIiEENSC_INS6_4pairIKiSG_EEEEEEEEE10m_instanceE, 
                       __ZGVN5boost13serialization9singletonINS_7archive6detail11iserializerINS2_13text_iarchiveENSt3__14pairIKiNS6_6vectorINS6_12basic_stringIcNS6_11char_traitsIcEENS6_9allocatorIcEEEENSD_ISF_EEEEEEEEE10m_instanceE, 
                       __ZGVN5boost13serialization9singletonINS_7archive6detail11iserializerINS2_13text_iarchiveENSt3__16vectorIN3pps8AxisEnumENS6_9allocatorIS9_EEEEEEE10m_instanceE, 
                       __ZGVN5boost13serialization9singletonINS_7archive6detail11iserializerINS2_13text_iarchiveENSt3__16vectorINS6_12basic_stringIcNS6_11char_traitsIcEENS6_9allocatorIcEEEENSB_ISD_EEEEEEE10m_instanceE, 
                       __ZGVN5boost13serialization9singletonINS_7archive6detail11iserializerINS2_13text_iarchiveENSt3__16vectorINS_9histogram4axis7variantIJNS9_7regularIdNS_11use_defaultESC_SC_EENS9_8variableIdSC_SC_NS6_9allocatorIdEEEENS9_7integerIiSC_NS9_6option3bitILj1EEEEEEEENSF_ISN_EEEEEEE10m_instanceE, 
                       __ZGVN5boost13serialization9singletonINS_7archive6detail11iserializerINS2_13text_iarchiveENSt3__16vectorIdNS6_9allocatorIdEEEEEEE10m_instanceE, 
                       __ZGVN5boost13serialization9singletonINS_7archive6detail11iserializerINS2_13text_iarchiveENSt3__16vectorIyNS6_9allocatorIyEEEEEEE10m_instanceE, 
                       __ZGVN5boost13serialization9singletonINS_7archive6detail11oserializerINS2_13text_oarchiveEN3pps18Histogram_InternalEEEE10m_instanceE, 
                       __ZGVN5boost13serialization9singletonINS_7archive6detail11oserializerINS2_13text_oarchiveENS_7variantINS_9histogram4axis7regularIdNS_11use_defaultESA_SA_EEJNS8_8variableIdSA_SA_NSt3__19allocatorIdEEEENS8_7integerIiSA_NS8_6option3bitILj1EEEEEEEEEEE10m_instanceE, 
                       __ZGVN5boost13serialization9singletonINS_7archive6detail11oserializerINS2_13text_oarchiveENS_9histogram17unlimited_storageINSt3__19allocatorIcEEEEEEE10m_instanceE, 
                       __ZGVN5boost13serialization9singletonINS_7archive6detail11oserializerINS2_13text_oarchiveENS_9histogram4axis7integerIiNS_11use_defaultENS7_6option3bitILj1EEEEEEEE10m_instanceE, 
                       __ZGVN5boost13serialization9singletonINS_7archive6detail11oserializerINS2_13text_oarchiveENS_9histogram4axis7regularIdNS_11use_defaultES9_S9_EEEEE10m_instanceE, 
                       __ZGVN5boost13serialization9singletonINS_7archive6detail11oserializerINS2_13text_oarchiveENS_9histogram4axis7variantIJNS7_7regularIdNS_11use_defaultESA_SA_EENS7_8variableIdSA_SA_NSt3__19allocatorIdEEEENS7_7integerIiSA_NS7_6option3bitILj1EEEEEEEEEEE10m_instanceE, 
                       __ZGVN5boost13serialization9singletonINS_7archive6detail11oserializerINS2_13text_oarchiveENS_9histogram4axis8variableIdNS_11use_defaultES9_NSt3__19allocatorIdEEEEEEE10m_instanceE, 
                       __ZGVN5boost13serialization9singletonINS_7archive6detail11oserializerINS2_13text_oarchiveENS_9histogram4axis9transform2idEEEE10m_instanceE, 
                       __ZGVN5boost13serialization9singletonINS_7archive6detail11oserializerINS2_13text_oarchiveENS_9histogram6detail6mp_intINSt3__19allocatorIyEEEEEEE10m_instanceE, 
                       __ZGVN5boost13serialization9singletonINS_7archive6detail11oserializerINS2_13text_oarchiveENS_9histogram9histogramINSt3__16vectorINS6_4axis7variantIJNSA_7regularIdNS_11use_defaultESD_SD_EENSA_8variableIdSD_SD_NS8_9allocatorIdEEEENSA_7integerIiSD_NSA_6option3bitILj1EEEEEEEENSG_ISO_EEEENS6_17unlimited_storageINSG_IcEEEEEEEEE10m_instanceE, 
                       __ZGVN5boost13serialization9singletonINS_7archive6detail11oserializerINS2_13text_oarchiveENSt3__13mapIiNS6_6vectorINS6_12basic_stringIcNS6_11char_traitsIcEENS6_9allocatorIcEEEENSC_ISE_EEEENS6_4lessIiEENSC_INS6_4pairIKiSG_EEEEEEEEE10m_instanceE, 
                       __ZGVN5boost13serialization9singletonINS_7archive6detail11oserializerINS2_13text_oarchiveENSt3__14pairIKiNS6_6vectorINS6_12basic_stringIcNS6_11char_traitsIcEENS6_9allocatorIcEEEENSD_ISF_EEEEEEEEE10m_instanceE, 
                       __ZGVN5boost13serialization9singletonINS_7archive6detail11oserializerINS2_13text_oarchiveENSt3__16vectorIN3pps8AxisEnumENS6_9allocatorIS9_EEEEEEE10m_instanceE, 
                       __ZGVN5boost13serialization9singletonINS_7archive6detail11oserializerINS2_13text_oarchiveENSt3__16vectorINS6_12basic_stringIcNS6_11char_traitsIcEENS6_9allocatorIcEEEENSB_ISD_EEEEEEE10m_instanceE, 
                       __ZGVN5boost13serialization9singletonINS_7archive6detail11oserializerINS2_13text_oarchiveENSt3__16vectorINS_9histogram4axis7variantIJNS9_7regularIdNS_11use_defaultESC_SC_EENS9_8variableIdSC_SC_NS6_9allocatorIdEEEENS9_7integerIiSC_NS9_6option3bitILj1EEEEEEEENSF_ISN_EEEEEEE10m_instanceE, 
                       __ZGVN5boost13serialization9singletonINS_7archive6detail11oserializerINS2_13text_oarchiveENSt3__16vectorIdNS6_9allocatorIdEEEEEEE10m_instanceE, 
                       __ZGVN5boost13serialization9singletonINS_7archive6detail11oserializerINS2_13text_oarchiveENSt3__16vectorIyNS6_9allocatorIyEEEEEEE10m_instanceE, 
                       __ZN5boost13serialization9singletonINS0_25extended_type_info_typeidIN3pps18Histogram_InternalEEEE10m_instanceE, 
                       __ZN5boost13serialization9singletonINS0_25extended_type_info_typeidINS_7variantINS_9histogram4axis7regularIdNS_11use_defaultES7_S7_EEJNS5_8variableIdS7_S7_NSt3__19allocatorIdEEEENS5_7integerIiS7_NS5_6option3bitILj1EEEEEEEEEEE10m_instanceE, 
                       __ZN5boost13serialization9singletonINS0_25extended_type_info_typeidINS_9histogram17unlimited_storageINSt3__19allocatorIcEEEEEEE10m_instanceE, 
                       __ZN5boost13serialization9singletonINS0_25extended_type_info_typeidINS_9histogram4axis7integerIiNS_11use_defaultENS4_6option3bitILj1EEEEEEEE10m_instanceE, 
                       __ZN5boost13serialization9singletonINS0_25extended_type_info_typeidINS_9histogram4axis7regularIdNS_11use_defaultES6_S6_EEEEE10m_instanceE, 
                       __ZN5boost13serialization9singletonINS0_25extended_type_info_typeidINS_9histogram4axis7variantIJNS4_7regularIdNS_11use_defaultES7_S7_EENS4_8variableIdS7_S7_NSt3__19allocatorIdEEEENS4_7integerIiS7_NS4_6option3bitILj1EEEEEEEEEEE10m_instanceE, 
                       __ZN5boost13serialization9singletonINS0_25extended_type_info_typeidINS_9histogram4axis8variableIdNS_11use_defaultES6_NSt3__19allocatorIdEEEEEEE10m_instanceE, 
                       __ZN5boost13serialization9singletonINS0_25extended_type_info_typeidINS_9histogram4axis9transform2idEEEE10m_instanceE, 
                       __ZN5boost13serialization9singletonINS0_25extended_type_info_typeidINS_9histogram6detail6mp_intINSt3__19allocatorIyEEEEEEE10m_instanceE, 
                       __ZN5boost13serialization9singletonINS0_25extended_type_info_typeidINS_9histogram9histogramINSt3__16vectorINS3_4axis7variantIJNS7_7regularIdNS_11use_defaultESA_SA_EENS7_8variableIdSA_SA_NS5_9allocatorIdEEEENS7_7integerIiSA_NS7_6option3bitILj1EEEEEEEENSD_ISL_EEEENS3_17unlimited_storageINSD_IcEEEEEEEEE10m_instanceE, 
                       __ZN5boost13serialization9singletonINS0_25extended_type_info_typeidINSt3__13mapIiNS3_6vectorINS3_12basic_stringIcNS3_11char_traitsIcEENS3_9allocatorIcEEEENS9_ISB_EEEENS3_4lessIiEENS9_INS3_4pairIKiSD_EEEEEEEEE10m_instanceE, 
                       __ZN5boost13serialization9singletonINS0_25extended_type_info_typeidINSt3__14pairIKiNS3_6vectorINS3_12basic_stringIcNS3_11char_traitsIcEENS3_9allocatorIcEEEENSA_ISC_EEEEEEEEE10m_instanceE, 
                       __ZN5boost13serialization9singletonINS0_25extended_type_info_typeidINSt3__16vectorIN3pps8AxisEnumENS3_9allocatorIS6_EEEEEEE10m_instanceE, 
                       __ZN5boost13serialization9singletonINS0_25extended_type_info_typeidINSt3__16vectorINS3_12basic_stringIcNS3_11char_traitsIcEENS3_9allocatorIcEEEENS8_ISA_EEEEEEE10m_instanceE, 
                       __ZN5boost13serialization9singletonINS0_25extended_type_info_typeidINSt3__16vectorINS_9histogram4axis7variantIJNS6_7regularIdNS_11use_defaultES9_S9_EENS6_8variableIdS9_S9_NS3_9allocatorIdEEEENS6_7integerIiS9_NS6_6option3bitILj1EEEEEEEENSC_ISK_EEEEEEE10m_instanceE, 
                       __ZN5boost13serialization9singletonINS0_25extended_type_info_typeidINSt3__16vectorIdNS3_9allocatorIdEEEEEEE10m_instanceE, 
                       __ZN5boost13serialization9singletonINS0_25extended_type_info_typeidINSt3__16vectorIyNS3_9allocatorIyEEEEEEE10m_instanceE, 
                       __ZN5boost13serialization9singletonINS_7archive6detail11iserializerINS2_13text_iarchiveEN3pps18Histogram_InternalEEEE10m_instanceE, 
                       __ZN5boost13serialization9singletonINS_7archive6detail11iserializerINS2_13text_iarchiveENS_7variantINS_9histogram4axis7regularIdNS_11use_defaultESA_SA_EEJNS8_8variableIdSA_SA_NSt3__19allocatorIdEEEENS8_7integerIiSA_NS8_6option3bitILj1EEEEEEEEEEE10m_instanceE, 
                       __ZN5boost13serialization9singletonINS_7archive6detail11iserializerINS2_13text_iarchiveENS_9histogram17unlimited_storageINSt3__19allocatorIcEEEEEEE10m_instanceE, 
                       __ZN5boost13serialization9singletonINS_7archive6detail11iserializerINS2_13text_iarchiveENS_9histogram4axis7integerIiNS_11use_defaultENS7_6option3bitILj1EEEEEEEE10m_instanceE, 
                       __ZN5boost13serialization9singletonINS_7archive6detail11iserializerINS2_13text_iarchiveENS_9histogram4axis7regularIdNS_11use_defaultES9_S9_EEEEE10m_instanceE, 
                       __ZN5boost13serialization9singletonINS_7archive6detail11iserializerINS2_13text_iarchiveENS_9histogram4axis7variantIJNS7_7regularIdNS_11use_defaultESA_SA_EENS7_8variableIdSA_SA_NSt3__19allocatorIdEEEENS7_7integerIiSA_NS7_6option3bitILj1EEEEEEEEEEE10m_instanceE, 
                       __ZN5boost13serialization9singletonINS_7archive6detail11iserializerINS2_13text_iarchiveENS_9histogram4axis8variableIdNS_11use_defaultES9_NSt3__19allocatorIdEEEEEEE10m_instanceE, 
                       __ZN5boost13serialization9singletonINS_7archive6detail11iserializerINS2_13text_iarchiveENS_9histogram4axis9transform2idEEEE10m_instanceE, 
                       __ZN5boost13serialization9singletonINS_7archive6detail11iserializerINS2_13text_iarchiveENS_9histogram6detail6mp_intINSt3__19allocatorIyEEEEEEE10m_instanceE, 
                       __ZN5boost13serialization9singletonINS_7archive6detail11iserializerINS2_13text_iarchiveENS_9histogram9histogramINSt3__16vectorINS6_4axis7variantIJNSA_7regularIdNS_11use_defaultESD_SD_EENSA_8variableIdSD_SD_NS8_9allocatorIdEEEENSA_7integerIiSD_NSA_6option3bitILj1EEEEEEEENSG_ISO_EEEENS6_17unlimited_storageINSG_IcEEEEEEEEE10m_instanceE, 
                       __ZN5boost13serialization9singletonINS_7archive6detail11iserializerINS2_13text_iarchiveENSt3__13mapIiNS6_6vectorINS6_12basic_stringIcNS6_11char_traitsIcEENS6_9allocatorIcEEEENSC_ISE_EEEENS6_4lessIiEENSC_INS6_4pairIKiSG_EEEEEEEEE10m_instanceE, 
                       __ZN5boost13serialization9singletonINS_7archive6detail11iserializerINS2_13text_iarchiveENSt3__14pairIKiNS6_6vectorINS6_12basic_stringIcNS6_11char_traitsIcEENS6_9allocatorIcEEEENSD_ISF_EEEEEEEEE10m_instanceE, 
                       __ZN5boost13serialization9singletonINS_7archive6detail11iserializerINS2_13text_iarchiveENSt3__16vectorIN3pps8AxisEnumENS6_9allocatorIS9_EEEEEEE10m_instanceE, 
                       __ZN5boost13serialization9singletonINS_7archive6detail11iserializerINS2_13text_iarchiveENSt3__16vectorINS6_12basic_stringIcNS6_11char_traitsIcEENS6_9allocatorIcEEEENSB_ISD_EEEEEEE10m_instanceE, 
                       __ZN5boost13serialization9singletonINS_7archive6detail11iserializerINS2_13text_iarchiveENSt3__16vectorINS_9histogram4axis7variantIJNS9_7regularIdNS_11use_defaultESC_SC_EENS9_8variableIdSC_SC_NS6_9allocatorIdEEEENS9_7integerIiSC_NS9_6option3bitILj1EEEEEEEENSF_ISN_EEEEEEE10m_instanceE, 
                       __ZN5boost13serialization9singletonINS_7archive6detail11iserializerINS2_13text_iarchiveENSt3__16vectorIdNS6_9allocatorIdEEEEEEE10m_instanceE, 
                       __ZN5boost13serialization9singletonINS_7archive6detail11iserializerINS2_13text_iarchiveENSt3__16vectorIyNS6_9allocatorIyEEEEEEE10m_instanceE, 
                       __ZN5boost13serialization9singletonINS_7archive6detail11oserializerINS2_13text_oarchiveEN3pps18Histogram_InternalEEEE10m_instanceE, 
                       __ZN5boost13serialization9singletonINS_7archive6detail11oserializerINS2_13text_oarchiveENS_7variantINS_9histogram4axis7regularIdNS_11use_defaultESA_SA_EEJNS8_8variableIdSA_SA_NSt3__19allocatorIdEEEENS8_7integerIiSA_NS8_6option3bitILj1EEEEEEEEEEE10m_instanceE, 
                       __ZN5boost13serialization9singletonINS_7archive6detail11oserializerINS2_13text_oarchiveENS_9histogram17unlimited_storageINSt3__19allocatorIcEEEEEEE10m_instanceE, 
                       __ZN5boost13serialization9singletonINS_7archive6detail11oserializerINS2_13text_oarchiveENS_9histogram4axis7integerIiNS_11use_defaultENS7_6option3bitILj1EEEEEEEE10m_instanceE, 
                       __ZN5boost13serialization9singletonINS_7archive6detail11oserializerINS2_13text_oarchiveENS_9histogram4axis7regularIdNS_11use_defaultES9_S9_EEEEE10m_instanceE, 
                       __ZN5boost13serialization9singletonINS_7archive6detail11oserializerINS2_13text_oarchiveENS_9histogram4axis7variantIJNS7_7regularIdNS_11use_defaultESA_SA_EENS7_8variableIdSA_SA_NSt3__19allocatorIdEEEENS7_7integerIiSA_NS7_6option3bitILj1EEEEEEEEEEE10m_instanceE, 
                       __ZN5boost13serialization9singletonINS_7archive6detail11oserializerINS2_13text_oarchiveENS_9histogram4axis8variableIdNS_11use_defaultES9_NSt3__19allocatorIdEEEEEEE10m_instanceE, 
                       __ZN5boost13serialization9singletonINS_7archive6detail11oserializerINS2_13text_oarchiveENS_9histogram4axis9transform2idEEEE10m_instanceE, 
                       __ZN5boost13serialization9singletonINS_7archive6detail11oserializerINS2_13text_oarchiveENS_9histogram6detail6mp_intINSt3__19allocatorIyEEEEEEE10m_instanceE, 
                       __ZN5boost13serialization9singletonINS_7archive6detail11oserializerINS2_13text_oarchiveENS_9histogram9histogramINSt3__16vectorINS6_4axis7variantIJNSA_7regularIdNS_11use_defaultESD_SD_EENSA_8variableIdSD_SD_NS8_9allocatorIdEEEENSA_7integerIiSD_NSA_6option3bitILj1EEEEEEEENSG_ISO_EEEENS6_17unlimited_storageINSG_IcEEEEEEEEE10m_instanceE, 
                       __ZN5boost13serialization9singletonINS_7archive6detail11oserializerINS2_13text_oarchiveENSt3__13mapIiNS6_6vectorINS6_12basic_stringIcNS6_11char_traitsIcEENS6_9allocatorIcEEEENSC_ISE_EEEENS6_4lessIiEENSC_INS6_4pairIKiSG_EEEEEEEEE10m_instanceE, 
                       __ZN5boost13serialization9singletonINS_7archive6detail11oserializerINS2_13text_oarchiveENSt3__14pairIKiNS6_6vectorINS6_12basic_stringIcNS6_11char_traitsIcEENS6_9allocatorIcEEEENSD_ISF_EEEEEEEEE10m_instanceE, 
                       __ZN5boost13serialization9singletonINS_7archive6detail11oserializerINS2_13text_oarchiveENSt3__16vectorIN3pps8AxisEnumENS6_9allocatorIS9_EEEEEEE10m_instanceE, 
                       __ZN5boost13serialization9singletonINS_7archive6detail11oserializerINS2_13text_oarchiveENSt3__16vectorINS6_12basic_stringIcNS6_11char_traitsIcEENS6_9allocatorIcEEEENSB_ISD_EEEEEEE10m_instanceE, 
                       __ZN5boost13serialization9singletonINS_7archive6detail11oserializerINS2_13text_oarchiveENSt3__16vectorINS_9histogram4axis7variantIJNS9_7regularIdNS_11use_defaultESC_SC_EENS9_8variableIdSC_SC_NS6_9allocatorIdEEEENS9_7integerIiSC_NS9_6option3bitILj1EEEEEEEENSF_ISN_EEEEEEE10m_instanceE, 
                       __ZN5boost13serialization9singletonINS_7archive6detail11oserializerINS2_13text_oarchiveENSt3__16vectorIdNS6_9allocatorIdEEEEEEE10m_instanceE, 
                       __ZN5boost13serialization9singletonINS_7archive6detail11oserializerINS2_13text_oarchiveENSt3__16vectorIyNS6_9allocatorIyEEEEEEE10m_instanceE, 
                       __ZN5boost7archive18text_iarchive_implINS0_13text_iarchiveEE13load_overrideERNS0_15class_name_typeE, 
                       __ZN5boost7archive18text_iarchive_implINS0_13text_iarchiveEE4initEv, 
                       __ZN5boost7archive18text_iarchive_implINS0_13text_iarchiveEE4loadEPc, 
                       __ZN5boost7archive18text_iarchive_implINS0_13text_iarchiveEE4loadEPw, 
                       __ZN5boost7archive18text_iarchive_implINS0_13text_iarchiveEE4loadERNS0_12version_typeE, 
                       __ZN5boost7archive18text_iarchive_implINS0_13text_iarchiveEE4loadERNS_13serialization17item_version_typeE, 
                       __ZN5boost7archive18text_iarchive_implINS0_13text_iarchiveEE4loadERNSt3__112basic_stringIcNS4_11char_traitsIcEENS4_9allocatorIcEEEE, 
                       __ZN5boost7archive18text_iarchive_implINS0_13text_iarchiveEE4loadERNSt3__112basic_stringIwNS4_11char_traitsIwEENS4_9allocatorIwEEEE, 
                       __ZN5boost7archive18text_iarchive_implINS0_13text_iarchiveEEC1ERNSt3__113basic_istreamIcNS4_11char_traitsIcEEEEj, 
                       __ZN5boost7archive18text_iarchive_implINS0_13text_iarchiveEEC2ERNSt3__113basic_istreamIcNS4_11char_traitsIcEEEEj, 
                       __ZN5boost7archive18text_iarchive_implINS0_13text_iarchiveEED0Ev, 
                       __ZN5boost7archive18text_iarchive_implINS0_13text_iarchiveEED1Ev, 
                       __ZN5boost7archive18text_iarchive_implINS0_13text_iarchiveEED2Ev, 
                       __ZN5boost7archive18text_oarchive_implINS0_13text_oarchiveEE11save_binaryEPKvm, 
                       __ZN5boost7archive18text_oarchive_implINS0_13text_oarchiveEE4saveEPKc, 
                       __ZN5boost7archive18text_oarchive_implINS0_13text_oarchiveEE4saveEPKw, 
                       __ZN5boost7archive18text_oarchive_implINS0_13text_oarchiveEE4saveERKNS0_12version_typeE, 
                       __ZN5boost7archive18text_oarchive_implINS0_13text_oarchiveEE4saveERKNS_13serialization17item_version_typeE, 
                       __ZN5boost7archive18text_oarchive_implINS0_13text_oarchiveEE4saveERKNSt3__112basic_stringIcNS4_11char_traitsIcEENS4_9allocatorIcEEEE, 
                       __ZN5boost7archive18text_oarchive_implINS0_13text_oarchiveEE4saveERKNSt3__112basic_stringIwNS4_11char_traitsIwEENS4_9allocatorIwEEEE, 
                       __ZN5boost7archive18text_oarchive_implINS0_13text_oarchiveEEC1ERNSt3__113basic_ostreamIcNS4_11char_traitsIcEEEEj, 
                       __ZN5boost7archive18text_oarchive_implINS0_13text_oarchiveEEC2ERNSt3__113basic_ostreamIcNS4_11char_traitsIcEEEEj, 
                       __ZN5boost7archive18text_oarchive_implINS0_13text_oarchiveEED0Ev, 
                       __ZN5boost7archive18text_oarchive_implINS0_13text_oarchiveEED1Ev, 
                       __ZN5boost7archive18text_oarchive_implINS0_13text_oarchiveEED2Ev, 
                       __ZN5boost7archive19basic_text_iarchiveINS0_13text_iarchiveEE13load_overrideERNS0_15class_name_typeE, 
                       __ZN5boost7archive19basic_text_iarchiveINS0_13text_iarchiveEE13load_overrideERNS0_22class_id_optional_typeE, 
                       __ZN5boost7archive19basic_text_iarchiveINS0_13text_iarchiveEE4initEv, 
                       __ZN5boost7archive19basic_text_iarchiveINS0_13text_iarchiveEEC1Ej, 
                       __ZN5boost7archive19basic_text_iarchiveINS0_13text_iarchiveEEC2Ej, 
                       __ZN5boost7archive19basic_text_iarchiveINS0_13text_iarchiveEED0Ev, 
                       __ZN5boost7archive19basic_text_iarchiveINS0_13text_iarchiveEED1Ev, 
                       __ZN5boost7archive19basic_text_iarchiveINS0_13text_iarchiveEED2Ev, 
                       __ZN5boost7archive19basic_text_oarchiveINS0_13text_oarchiveEE13save_overrideERKNS0_14object_id_typeE, 
                       __ZN5boost7archive19basic_text_oarchiveINS0_13text_oarchiveEE13save_overrideERKNS0_15class_name_typeE, 
                       __ZN5boost7archive19basic_text_oarchiveINS0_13text_oarchiveEE13save_overrideERKNS0_22class_id_optional_typeE, 
                       __ZN5boost7archive19basic_text_oarchiveINS0_13text_oarchiveEE4initEv, 
                       __ZN5boost7archive19basic_text_oarchiveINS0_13text_oarchiveEE7newlineEv, 
                       __ZN5boost7archive19basic_text_oarchiveINS0_13text_oarchiveEE8newtokenEv, 
                       __ZN5boost7archive19basic_text_oarchiveINS0_13text_oarchiveEEC1Ej, 
                       __ZN5boost7archive19basic_text_oarchiveINS0_13text_oarchiveEEC2Ej, 
                       __ZN5boost7archive19basic_text_oarchiveINS0_13text_oarchiveEED0Ev, 
                       __ZN5boost7archive19basic_text_oarchiveINS0_13text_oarchiveEED1Ev, 
                       __ZN5boost7archive19basic_text_oarchiveINS0_13text_oarchiveEED2Ev, 
                       __ZN5boost7archive21basic_text_iprimitiveINSt3__113basic_istreamIcNS2_11char_traitsIcEEEEE11load_binaryEPvm, 
                       __ZN5boost7archive21basic_text_iprimitiveINSt3__113basic_istreamIcNS2_11char_traitsIcEEEEE4loadERa, 
                       __ZN5boost7archive21basic_text_iprimitiveINSt3__113basic_istreamIcNS2_11char_traitsIcEEEEE4loadERc, 
                       __ZN5boost7archive21basic_text_iprimitiveINSt3__113basic_istreamIcNS2_11char_traitsIcEEEEE4loadERh, 
                       __ZN5boost7archive21basic_text_iprimitiveINSt3__113basic_istreamIcNS2_11char_traitsIcEEEEE4loadERw, 
                       __ZN5boost7archive21basic_text_iprimitiveINSt3__113basic_istreamIcNS2_11char_traitsIcEEEEEC1ERS6_b, 
                       __ZN5boost7archive21basic_text_iprimitiveINSt3__113basic_istreamIcNS2_11char_traitsIcEEEEEC2ERS6_b, 
                       __ZN5boost7archive21basic_text_iprimitiveINSt3__113basic_istreamIcNS2_11char_traitsIcEEEEED1Ev, 
                       __ZN5boost7archive21basic_text_iprimitiveINSt3__113basic_istreamIcNS2_11char_traitsIcEEEEED2Ev, 
                       __ZN5boost7archive21basic_text_oprimitiveINSt3__113basic_ostreamIcNS2_11char_traitsIcEEEEE11save_binaryEPKvm, 
                       __ZN5boost7archive21basic_text_oprimitiveINSt3__113basic_ostreamIcNS2_11char_traitsIcEEEEE3putEPKc, 
                       __ZN5boost7archive21basic_text_oprimitiveINSt3__113basic_ostreamIcNS2_11char_traitsIcEEEEE3putEc, 
                       __ZN5boost7archive21basic_text_oprimitiveINSt3__113basic_ostreamIcNS2_11char_traitsIcEEEEE4saveEa, 
                       __ZN5boost7archive21basic_text_oprimitiveINSt3__113basic_ostreamIcNS2_11char_traitsIcEEEEE4saveEb, 
                       __ZN5boost7archive21basic_text_oprimitiveINSt3__113basic_ostreamIcNS2_11char_traitsIcEEEEE4saveEc, 
                       __ZN5boost7archive21basic_text_oprimitiveINSt3__113basic_ostreamIcNS2_11char_traitsIcEEEEE4saveEh, 
                       __ZN5boost7archive21basic_text_oprimitiveINSt3__113basic_ostreamIcNS2_11char_traitsIcEEEEE4saveEw, 
                       __ZN5boost7archive21basic_text_oprimitiveINSt3__113basic_ostreamIcNS2_11char_traitsIcEEEEEC1ERS6_b, 
                       __ZN5boost7archive21basic_text_oprimitiveINSt3__113basic_ostreamIcNS2_11char_traitsIcEEEEEC2ERS6_b, 
                       __ZN5boost7archive21basic_text_oprimitiveINSt3__113basic_ostreamIcNS2_11char_traitsIcEEEEED1Ev, 
                       __ZN5boost7archive21basic_text_oprimitiveINSt3__113basic_ostreamIcNS2_11char_traitsIcEEEEED2Ev, 
                       __ZN5boost7archive6detail22archive_serializer_mapINS0_13text_iarchiveEE4findERKNS_13serialization18extended_type_infoE, 
                       __ZN5boost7archive6detail22archive_serializer_mapINS0_13text_iarchiveEE5eraseEPKNS1_16basic_serializerE, 
                       __ZN5boost7archive6detail22archive_serializer_mapINS0_13text_iarchiveEE6insertEPKNS1_16basic_serializerE, 
                       __ZN5boost7archive6detail22archive_serializer_mapINS0_13text_oarchiveEE4findERKNS_13serialization18extended_type_infoE, 
                       __ZN5boost7archive6detail22archive_serializer_mapINS0_13text_oarchiveEE5eraseEPKNS1_16basic_serializerE, 
                       __ZN5boost7archive6detail22archive_serializer_mapINS0_13text_oarchiveEE6insertEPKNS1_16basic_serializerE, 
                       __ZNSt3__119piecewise_constructE, __ZTIN5boost7archive18text_iarchive_implINS0_13text_iarchiveEEE, 
                       __ZTIN5boost7archive18text_oarchive_implINS0_13text_oarchiveEEE, 
                       __ZTIN5boost7archive19basic_text_iarchiveINS0_13text_iarchiveEEE, 
                       __ZTIN5boost7archive19basic_text_oarchiveINS0_13text_oarchiveEEE, 
                       __ZTSN5boost7archive18text_iarchive_implINS0_13text_iarchiveEEE, 
                       __ZTSN5boost7archive18text_oarchive_implINS0_13text_oarchiveEEE, 
                       __ZTSN5boost7archive19basic_text_iarchiveINS0_13text_iarchiveEEE, 
                       __ZTSN5boost7archive19basic_text_oarchiveINS0_13text_oarchiveEEE, 
                       __ZTVN5boost7archive18text_iarchive_implINS0_13text_iarchiveEEE, 
                       __ZTVN5boost7archive18text_oarchive_implINS0_13text_oarchiveEEE, 
                       __ZTVN5boost7archive19basic_text_iarchiveINS0_13text_iarchiveEEE, 
                       __ZTVN5boost7archive19basic_text_oarchiveINS0_13text_oarchiveEEE ]
...
