--- !tapi-tbd
tbd-version:     4
targets:         [ x86_64-macos, arm64-macos, arm64e-macos ]
install-name:    '/System/Library/PrivateFrameworks/SiriTTSTraining.framework/Versions/A/SiriTTSTraining'
swift-abi-version: 7
exports:
  - targets:         [ x86_64-macos ]
    symbols:         [ __ZN15InferenceEngine15StringFormatter6appendEPKcP13__va_list_tag, 
                       __ZN15StringFormatter6appendEPKcP13__va_list_tag ]
    weak-symbols:    [ __ZTI10DataFeeder, __ZTI11PCMByteSwapIiE, __ZTI11PCMByteSwapIsE, 
                       __ZTI12ModelIONames, __ZTI12PCMPackInt24ILb0EE, __ZTI12PCMPackInt24ILb1EE, 
                       __ZTI14PCMScaleSampleIffE, __ZTI14PCMScaleSampleIfiE, __ZTI14PCMScaleSampleIfsE, 
                       __ZTI14PCMScaleSampleIifE, __ZTI14PCMScaleSampleIisE, __ZTI14PCMScaleSampleIsfE, 
                       __ZTI14PCMScaleSampleIsiE, __ZTI15PCMDeinterleaveIiE, __ZTI15PCMDeinterleaveIsE, 
                       __ZTI15PCMExtractInt24IfLb0EE, __ZTI15PCMExtractInt24IfLb1EE, 
                       __ZTI15PCMExtractInt24IiLb0EE, __ZTI15PCMExtractInt24IiLb1EE, 
                       __ZTI15PCMExtractInt24IsLb0EE, __ZTI15PCMExtractInt24IsLb1EE, 
                       __ZTI19EspressoIOContainer, __ZTIN15InferenceEngine5MilIOE, 
                       __ZTIN3fst10ArcSortFstINS_6ArcTplINS_16LatticeWeightTplIfEEEENS_13ILabelCompareIS4_EEEE, 
                       __ZTIN3fst10ComposeFstINS_6ArcTplINS_16LatticeWeightTplIfEEEENS_17DefaultCacheStoreIS4_EEEE, 
                       __ZTIN3fst10ComposeFstINS_6ArcTplINS_17TropicalWeightTplIfEEEENS_17DefaultCacheStoreIS4_EEEE, 
                       __ZTIN3fst10ContextFstINS_6ArcTplINS_17TropicalWeightTplIfEEEEiEE, 
                       __ZTIN3fst10MemoryPoolINS_11ArcIteratorINS_3FstINS_6ArcTplINS_16LatticeWeightTplIfEEEEEEEEEE, 
                       __ZTIN3fst10MemoryPoolINS_11ArcIteratorINS_3FstINS_6ArcTplINS_17TropicalWeightTplIfEEEEEEEEEE, 
                       __ZTIN3fst10MemoryPoolINS_13PoolAllocatorINS_10CacheStateINS_6ArcTplINS_12LogWeightTplIfEEEENS1_IS6_EEEEE2TNILi16EEEEE, 
                       __ZTIN3fst10MemoryPoolINS_13PoolAllocatorINS_10CacheStateINS_6ArcTplINS_12LogWeightTplIfEEEENS1_IS6_EEEEE2TNILi1EEEEE, 
                       __ZTIN3fst10MemoryPoolINS_13PoolAllocatorINS_10CacheStateINS_6ArcTplINS_12LogWeightTplIfEEEENS1_IS6_EEEEE2TNILi2EEEEE, 
                       __ZTIN3fst10MemoryPoolINS_13PoolAllocatorINS_10CacheStateINS_6ArcTplINS_12LogWeightTplIfEEEENS1_IS6_EEEEE2TNILi32EEEEE, 
                       __ZTIN3fst10MemoryPoolINS_13PoolAllocatorINS_10CacheStateINS_6ArcTplINS_12LogWeightTplIfEEEENS1_IS6_EEEEE2TNILi4EEEEE, 
                       __ZTIN3fst10MemoryPoolINS_13PoolAllocatorINS_10CacheStateINS_6ArcTplINS_12LogWeightTplIfEEEENS1_IS6_EEEEE2TNILi64EEEEE, 
                       __ZTIN3fst10MemoryPoolINS_13PoolAllocatorINS_10CacheStateINS_6ArcTplINS_12LogWeightTplIfEEEENS1_IS6_EEEEE2TNILi8EEEEE, 
                       __ZTIN3fst10MemoryPoolINS_13PoolAllocatorINS_10CacheStateINS_6ArcTplINS_16LatticeWeightTplIfEEEENS1_IS6_EEEEE2TNILi16EEEEE, 
                       __ZTIN3fst10MemoryPoolINS_13PoolAllocatorINS_10CacheStateINS_6ArcTplINS_16LatticeWeightTplIfEEEENS1_IS6_EEEEE2TNILi1EEEEE, 
                       __ZTIN3fst10MemoryPoolINS_13PoolAllocatorINS_10CacheStateINS_6ArcTplINS_16LatticeWeightTplIfEEEENS1_IS6_EEEEE2TNILi2EEEEE, 
                       __ZTIN3fst10MemoryPoolINS_13PoolAllocatorINS_10CacheStateINS_6ArcTplINS_16LatticeWeightTplIfEEEENS1_IS6_EEEEE2TNILi32EEEEE, 
                       __ZTIN3fst10MemoryPoolINS_13PoolAllocatorINS_10CacheStateINS_6ArcTplINS_16LatticeWeightTplIfEEEENS1_IS6_EEEEE2TNILi4EEEEE, 
                       __ZTIN3fst10MemoryPoolINS_13PoolAllocatorINS_10CacheStateINS_6ArcTplINS_16LatticeWeightTplIfEEEENS1_IS6_EEEEE2TNILi64EEEEE, 
                       __ZTIN3fst10MemoryPoolINS_13PoolAllocatorINS_10CacheStateINS_6ArcTplINS_16LatticeWeightTplIfEEEENS1_IS6_EEEEE2TNILi8EEEEE, 
                       __ZTIN3fst10MemoryPoolINS_13PoolAllocatorINS_10CacheStateINS_6ArcTplINS_17TropicalWeightTplIfEEEENS1_IS6_EEEEE2TNILi16EEEEE, 
                       __ZTIN3fst10MemoryPoolINS_13PoolAllocatorINS_10CacheStateINS_6ArcTplINS_17TropicalWeightTplIfEEEENS1_IS6_EEEEE2TNILi1EEEEE, 
                       __ZTIN3fst10MemoryPoolINS_13PoolAllocatorINS_10CacheStateINS_6ArcTplINS_17TropicalWeightTplIfEEEENS1_IS6_EEEEE2TNILi2EEEEE, 
                       __ZTIN3fst10MemoryPoolINS_13PoolAllocatorINS_10CacheStateINS_6ArcTplINS_17TropicalWeightTplIfEEEENS1_IS6_EEEEE2TNILi32EEEEE, 
                       __ZTIN3fst10MemoryPoolINS_13PoolAllocatorINS_10CacheStateINS_6ArcTplINS_17TropicalWeightTplIfEEEENS1_IS6_EEEEE2TNILi4EEEEE, 
                       __ZTIN3fst10MemoryPoolINS_13PoolAllocatorINS_10CacheStateINS_6ArcTplINS_17TropicalWeightTplIfEEEENS1_IS6_EEEEE2TNILi64EEEEE, 
                       __ZTIN3fst10MemoryPoolINS_13PoolAllocatorINS_10CacheStateINS_6ArcTplINS_17TropicalWeightTplIfEEEENS1_IS6_EEEEE2TNILi8EEEEE, 
                       __ZTIN3fst10MemoryPoolINS_13PoolAllocatorINS_10CacheStateINS_9GallicArcINS_6ArcTplINS_12LogWeightTplIfEEEELNS_10GallicTypeE0EEENS1_IS9_EEEEE2TNILi16EEEEE, 
                       __ZTIN3fst10MemoryPoolINS_13PoolAllocatorINS_10CacheStateINS_9GallicArcINS_6ArcTplINS_12LogWeightTplIfEEEELNS_10GallicTypeE0EEENS1_IS9_EEEEE2TNILi1EEEEE, 
                       __ZTIN3fst10MemoryPoolINS_13PoolAllocatorINS_10CacheStateINS_9GallicArcINS_6ArcTplINS_12LogWeightTplIfEEEELNS_10GallicTypeE0EEENS1_IS9_EEEEE2TNILi2EEEEE, 
                       __ZTIN3fst10MemoryPoolINS_13PoolAllocatorINS_10CacheStateINS_9GallicArcINS_6ArcTplINS_12LogWeightTplIfEEEELNS_10GallicTypeE0EEENS1_IS9_EEEEE2TNILi32EEEEE, 
                       __ZTIN3fst10MemoryPoolINS_13PoolAllocatorINS_10CacheStateINS_9GallicArcINS_6ArcTplINS_12LogWeightTplIfEEEELNS_10GallicTypeE0EEENS1_IS9_EEEEE2TNILi4EEEEE, 
                       __ZTIN3fst10MemoryPoolINS_13PoolAllocatorINS_10CacheStateINS_9GallicArcINS_6ArcTplINS_12LogWeightTplIfEEEELNS_10GallicTypeE0EEENS1_IS9_EEEEE2TNILi64EEEEE, 
                       __ZTIN3fst10MemoryPoolINS_13PoolAllocatorINS_10CacheStateINS_9GallicArcINS_6ArcTplINS_12LogWeightTplIfEEEELNS_10GallicTypeE0EEENS1_IS9_EEEEE2TNILi8EEEEE, 
                       __ZTIN3fst10MemoryPoolINS_13PoolAllocatorINS_6ArcTplINS_12LogWeightTplIfEEEEE2TNILi16EEEEE, 
                       __ZTIN3fst10MemoryPoolINS_13PoolAllocatorINS_6ArcTplINS_12LogWeightTplIfEEEEE2TNILi1EEEEE, 
                       __ZTIN3fst10MemoryPoolINS_13PoolAllocatorINS_6ArcTplINS_12LogWeightTplIfEEEEE2TNILi2EEEEE, 
                       __ZTIN3fst10MemoryPoolINS_13PoolAllocatorINS_6ArcTplINS_12LogWeightTplIfEEEEE2TNILi32EEEEE, 
                       __ZTIN3fst10MemoryPoolINS_13PoolAllocatorINS_6ArcTplINS_12LogWeightTplIfEEEEE2TNILi4EEEEE, 
                       __ZTIN3fst10MemoryPoolINS_13PoolAllocatorINS_6ArcTplINS_12LogWeightTplIfEEEEE2TNILi64EEEEE, 
                       __ZTIN3fst10MemoryPoolINS_13PoolAllocatorINS_6ArcTplINS_12LogWeightTplIfEEEEE2TNILi8EEEEE, 
                       __ZTIN3fst10MemoryPoolINS_13PoolAllocatorINS_6ArcTplINS_16LatticeWeightTplIfEEEEE2TNILi16EEEEE, 
                       __ZTIN3fst10MemoryPoolINS_13PoolAllocatorINS_6ArcTplINS_16LatticeWeightTplIfEEEEE2TNILi1EEEEE, 
                       __ZTIN3fst10MemoryPoolINS_13PoolAllocatorINS_6ArcTplINS_16LatticeWeightTplIfEEEEE2TNILi2EEEEE, 
                       __ZTIN3fst10MemoryPoolINS_13PoolAllocatorINS_6ArcTplINS_16LatticeWeightTplIfEEEEE2TNILi32EEEEE, 
                       __ZTIN3fst10MemoryPoolINS_13PoolAllocatorINS_6ArcTplINS_16LatticeWeightTplIfEEEEE2TNILi4EEEEE, 
                       __ZTIN3fst10MemoryPoolINS_13PoolAllocatorINS_6ArcTplINS_16LatticeWeightTplIfEEEEE2TNILi64EEEEE, 
                       __ZTIN3fst10MemoryPoolINS_13PoolAllocatorINS_6ArcTplINS_16LatticeWeightTplIfEEEEE2TNILi8EEEEE, 
                       __ZTIN3fst10MemoryPoolINS_13PoolAllocatorINS_6ArcTplINS_17TropicalWeightTplIfEEEEE2TNILi16EEEEE, 
                       __ZTIN3fst10MemoryPoolINS_13PoolAllocatorINS_6ArcTplINS_17TropicalWeightTplIfEEEEE2TNILi1EEEEE, 
                       __ZTIN3fst10MemoryPoolINS_13PoolAllocatorINS_6ArcTplINS_17TropicalWeightTplIfEEEEE2TNILi2EEEEE, 
                       __ZTIN3fst10MemoryPoolINS_13PoolAllocatorINS_6ArcTplINS_17TropicalWeightTplIfEEEEE2TNILi32EEEEE, 
                       __ZTIN3fst10MemoryPoolINS_13PoolAllocatorINS_6ArcTplINS_17TropicalWeightTplIfEEEEE2TNILi4EEEEE, 
                       __ZTIN3fst10MemoryPoolINS_13PoolAllocatorINS_6ArcTplINS_17TropicalWeightTplIfEEEEE2TNILi64EEEEE, 
                       __ZTIN3fst10MemoryPoolINS_13PoolAllocatorINS_6ArcTplINS_17TropicalWeightTplIfEEEEE2TNILi8EEEEE, 
                       __ZTIN3fst10MemoryPoolINS_13PoolAllocatorINS_9GallicArcINS_6ArcTplINS_12LogWeightTplIfEEEELNS_10GallicTypeE0EEEE2TNILi16EEEEE, 
                       __ZTIN3fst10MemoryPoolINS_13PoolAllocatorINS_9GallicArcINS_6ArcTplINS_12LogWeightTplIfEEEELNS_10GallicTypeE0EEEE2TNILi1EEEEE, 
                       __ZTIN3fst10MemoryPoolINS_13PoolAllocatorINS_9GallicArcINS_6ArcTplINS_12LogWeightTplIfEEEELNS_10GallicTypeE0EEEE2TNILi2EEEEE, 
                       __ZTIN3fst10MemoryPoolINS_13PoolAllocatorINS_9GallicArcINS_6ArcTplINS_12LogWeightTplIfEEEELNS_10GallicTypeE0EEEE2TNILi32EEEEE, 
                       __ZTIN3fst10MemoryPoolINS_13PoolAllocatorINS_9GallicArcINS_6ArcTplINS_12LogWeightTplIfEEEELNS_10GallicTypeE0EEEE2TNILi4EEEEE, 
                       __ZTIN3fst10MemoryPoolINS_13PoolAllocatorINS_9GallicArcINS_6ArcTplINS_12LogWeightTplIfEEEELNS_10GallicTypeE0EEEE2TNILi64EEEEE, 
                       __ZTIN3fst10MemoryPoolINS_13PoolAllocatorINS_9GallicArcINS_6ArcTplINS_12LogWeightTplIfEEEELNS_10GallicTypeE0EEEE2TNILi8EEEEE, 
                       __ZTIN3fst10MemoryPoolINS_13PoolAllocatorINSt3__111__hash_nodeIiPvEEE2TNILi16EEEEE, 
                       __ZTIN3fst10MemoryPoolINS_13PoolAllocatorINSt3__111__hash_nodeIiPvEEE2TNILi1EEEEE, 
                       __ZTIN3fst10MemoryPoolINS_13PoolAllocatorINSt3__111__hash_nodeIiPvEEE2TNILi2EEEEE, 
                       __ZTIN3fst10MemoryPoolINS_13PoolAllocatorINSt3__111__hash_nodeIiPvEEE2TNILi32EEEEE, 
                       __ZTIN3fst10MemoryPoolINS_13PoolAllocatorINSt3__111__hash_nodeIiPvEEE2TNILi4EEEEE, 
                       __ZTIN3fst10MemoryPoolINS_13PoolAllocatorINSt3__111__hash_nodeIiPvEEE2TNILi64EEEEE, 
                       __ZTIN3fst10MemoryPoolINS_13PoolAllocatorINSt3__111__hash_nodeIiPvEEE2TNILi8EEEEE, 
                       __ZTIN3fst10MemoryPoolINS_13PoolAllocatorINSt3__111__list_nodeIiPvEEE2TNILi16EEEEE, 
                       __ZTIN3fst10MemoryPoolINS_13PoolAllocatorINSt3__111__list_nodeIiPvEEE2TNILi1EEEEE, 
                       __ZTIN3fst10MemoryPoolINS_13PoolAllocatorINSt3__111__list_nodeIiPvEEE2TNILi2EEEEE, 
                       __ZTIN3fst10MemoryPoolINS_13PoolAllocatorINSt3__111__list_nodeIiPvEEE2TNILi32EEEEE, 
                       __ZTIN3fst10MemoryPoolINS_13PoolAllocatorINSt3__111__list_nodeIiPvEEE2TNILi4EEEEE, 
                       __ZTIN3fst10MemoryPoolINS_13PoolAllocatorINSt3__111__list_nodeIiPvEEE2TNILi64EEEEE, 
                       __ZTIN3fst10MemoryPoolINS_13PoolAllocatorINSt3__111__list_nodeIiPvEEE2TNILi8EEEEE, 
                       __ZTIN3fst10MemoryPoolINS_13PoolAllocatorIPNSt3__116__hash_node_baseIPNS2_11__hash_nodeIiPvEEEEE2TNILi16EEEEE, 
                       __ZTIN3fst10MemoryPoolINS_13PoolAllocatorIPNSt3__116__hash_node_baseIPNS2_11__hash_nodeIiPvEEEEE2TNILi1EEEEE, 
                       __ZTIN3fst10MemoryPoolINS_13PoolAllocatorIPNSt3__116__hash_node_baseIPNS2_11__hash_nodeIiPvEEEEE2TNILi2EEEEE, 
                       __ZTIN3fst10MemoryPoolINS_13PoolAllocatorIPNSt3__116__hash_node_baseIPNS2_11__hash_nodeIiPvEEEEE2TNILi32EEEEE, 
                       __ZTIN3fst10MemoryPoolINS_13PoolAllocatorIPNSt3__116__hash_node_baseIPNS2_11__hash_nodeIiPvEEEEE2TNILi4EEEEE, 
                       __ZTIN3fst10MemoryPoolINS_13PoolAllocatorIPNSt3__116__hash_node_baseIPNS2_11__hash_nodeIiPvEEEEE2TNILi64EEEEE, 
                       __ZTIN3fst10MemoryPoolINS_13PoolAllocatorIPNSt3__116__hash_node_baseIPNS2_11__hash_nodeIiPvEEEEE2TNILi8EEEEE, 
                       __ZTIN3fst10MemoryPoolINS_8DfsStateINS_10ReverseArcINS_6ArcTplINS_12LogWeightTplIfEEEEEEEEEE, 
                       __ZTIN3fst10MemoryPoolINS_8DfsStateINS_10ReverseArcINS_6ArcTplINS_17TropicalWeightTplIfEEEEEEEEEE, 
                       __ZTIN3fst10MemoryPoolINS_8DfsStateINS_10ReverseArcINS_9GallicArcINS_6ArcTplINS_12LogWeightTplIfEEEELNS_10GallicTypeE0EEEEEEEEE, 
                       __ZTIN3fst10MemoryPoolINS_8DfsStateINS_6ArcTplINS_12LogWeightTplIfEEEEEEEE, 
                       __ZTIN3fst10MemoryPoolINS_8DfsStateINS_6ArcTplINS_16LatticeWeightTplIfEEEEEEEE, 
                       __ZTIN3fst10MemoryPoolINS_8DfsStateINS_6ArcTplINS_17TropicalWeightTplIfEEEEEEEE, 
                       __ZTIN3fst10MemoryPoolINS_8DfsStateINS_6ArcTplINS_23CompactLatticeWeightTplINS_16LatticeWeightTplIfEEiEEEEEEEE, 
                       __ZTIN3fst10MemoryPoolINS_8DfsStateINS_9GallicArcINS_6ArcTplINS_12LogWeightTplIfEEEELNS_10GallicTypeE0EEEEEEE, 
                       __ZTIN3fst10MutableFstINS_10ReverseArcINS_6ArcTplINS_12LogWeightTplIfEEEEEEEE, 
                       __ZTIN3fst10MutableFstINS_10ReverseArcINS_6ArcTplINS_17TropicalWeightTplIfEEEEEEEE, 
                       __ZTIN3fst10MutableFstINS_10ReverseArcINS_9GallicArcINS_6ArcTplINS_12LogWeightTplIfEEEELNS_10GallicTypeE0EEEEEEE, 
                       __ZTIN3fst10MutableFstINS_6ArcTplINS_12LogWeightTplIfEEEEEE, 
                       __ZTIN3fst10MutableFstINS_6ArcTplINS_16LatticeWeightTplIfEEEEEE, 
                       __ZTIN3fst10MutableFstINS_6ArcTplINS_17TropicalWeightTplIfEEEEEE, 
                       __ZTIN3fst10MutableFstINS_6ArcTplINS_23CompactLatticeWeightTplINS_16LatticeWeightTplIfEEiEEEEEE, 
                       __ZTIN3fst10MutableFstINS_9GallicArcINS_6ArcTplINS_12LogWeightTplIfEEEELNS_10GallicTypeE0EEEEE, 
                       __ZTIN3fst10ProjectFstINS_6ArcTplINS_16LatticeWeightTplIfEEEEEE, 
                       __ZTIN3fst11ArcIteratorINS_12ArcPosingFstINS_6ArcTplINS_12LogWeightTplIfEEEENS2_INS_17TropicalWeightTplIfEEEEEEEE, 
                       __ZTIN3fst11ArcIteratorINS_12ArcPosingFstINS_6ArcTplINS_17TropicalWeightTplIfEEEENS2_INS_12LogWeightTplIfEEEEEEEE, 
                       __ZTIN3fst11ArcIteratorINS_19MutableArcPosingFstINS_6ArcTplINS_12LogWeightTplIfEEEENS2_INS_17TropicalWeightTplIfEEEEEEEE, 
                       __ZTIN3fst11ExpandedFstINS_10ReverseArcINS_6ArcTplINS_12LogWeightTplIfEEEEEEEE, 
                       __ZTIN3fst11ExpandedFstINS_10ReverseArcINS_6ArcTplINS_17TropicalWeightTplIfEEEEEEEE, 
                       __ZTIN3fst11ExpandedFstINS_10ReverseArcINS_9GallicArcINS_6ArcTplINS_12LogWeightTplIfEEEELNS_10GallicTypeE0EEEEEEE, 
                       __ZTIN3fst11ExpandedFstINS_6ArcTplINS_12LogWeightTplIfEEEEEE, 
                       __ZTIN3fst11ExpandedFstINS_6ArcTplINS_16LatticeWeightTplIfEEEEEE, 
                       __ZTIN3fst11ExpandedFstINS_6ArcTplINS_17TropicalWeightTplIfEEEEEE, 
                       __ZTIN3fst11ExpandedFstINS_6ArcTplINS_23CompactLatticeWeightTplINS_16LatticeWeightTplIfEEiEEEEEE, 
                       __ZTIN3fst11ExpandedFstINS_9GallicArcINS_6ArcTplINS_12LogWeightTplIfEEEELNS_10GallicTypeE0EEEEE, 
                       __ZTIN3fst11MatcherBaseINS_6ArcTplINS_16LatticeWeightTplIfEEEEEE, 
                       __ZTIN3fst11MatcherBaseINS_6ArcTplINS_17TropicalWeightTplIfEEEEEE, 
                       __ZTIN3fst11MemoryArenaINS_10MemoryPoolINS_11ArcIteratorINS_3FstINS_6ArcTplINS_16LatticeWeightTplIfEEEEEEEEE4LinkEEE, 
                       __ZTIN3fst11MemoryArenaINS_10MemoryPoolINS_11ArcIteratorINS_3FstINS_6ArcTplINS_17TropicalWeightTplIfEEEEEEEEE4LinkEEE, 
                       __ZTIN3fst11MemoryArenaINS_10MemoryPoolINS_13PoolAllocatorINS_10CacheStateINS_6ArcTplINS_12LogWeightTplIfEEEENS2_IS7_EEEEE2TNILi16EEEE4LinkEEE, 
                       __ZTIN3fst11MemoryArenaINS_10MemoryPoolINS_13PoolAllocatorINS_10CacheStateINS_6ArcTplINS_12LogWeightTplIfEEEENS2_IS7_EEEEE2TNILi1EEEE4LinkEEE, 
                       __ZTIN3fst11MemoryArenaINS_10MemoryPoolINS_13PoolAllocatorINS_10CacheStateINS_6ArcTplINS_12LogWeightTplIfEEEENS2_IS7_EEEEE2TNILi2EEEE4LinkEEE, 
                       __ZTIN3fst11MemoryArenaINS_10MemoryPoolINS_13PoolAllocatorINS_10CacheStateINS_6ArcTplINS_12LogWeightTplIfEEEENS2_IS7_EEEEE2TNILi32EEEE4LinkEEE, 
                       __ZTIN3fst11MemoryArenaINS_10MemoryPoolINS_13PoolAllocatorINS_10CacheStateINS_6ArcTplINS_12LogWeightTplIfEEEENS2_IS7_EEEEE2TNILi4EEEE4LinkEEE, 
                       __ZTIN3fst11MemoryArenaINS_10MemoryPoolINS_13PoolAllocatorINS_10CacheStateINS_6ArcTplINS_12LogWeightTplIfEEEENS2_IS7_EEEEE2TNILi64EEEE4LinkEEE, 
                       __ZTIN3fst11MemoryArenaINS_10MemoryPoolINS_13PoolAllocatorINS_10CacheStateINS_6ArcTplINS_12LogWeightTplIfEEEENS2_IS7_EEEEE2TNILi8EEEE4LinkEEE, 
                       __ZTIN3fst11MemoryArenaINS_10MemoryPoolINS_13PoolAllocatorINS_10CacheStateINS_6ArcTplINS_16LatticeWeightTplIfEEEENS2_IS7_EEEEE2TNILi16EEEE4LinkEEE, 
                       __ZTIN3fst11MemoryArenaINS_10MemoryPoolINS_13PoolAllocatorINS_10CacheStateINS_6ArcTplINS_16LatticeWeightTplIfEEEENS2_IS7_EEEEE2TNILi1EEEE4LinkEEE, 
                       __ZTIN3fst11MemoryArenaINS_10MemoryPoolINS_13PoolAllocatorINS_10CacheStateINS_6ArcTplINS_16LatticeWeightTplIfEEEENS2_IS7_EEEEE2TNILi2EEEE4LinkEEE, 
                       __ZTIN3fst11MemoryArenaINS_10MemoryPoolINS_13PoolAllocatorINS_10CacheStateINS_6ArcTplINS_16LatticeWeightTplIfEEEENS2_IS7_EEEEE2TNILi32EEEE4LinkEEE, 
                       __ZTIN3fst11MemoryArenaINS_10MemoryPoolINS_13PoolAllocatorINS_10CacheStateINS_6ArcTplINS_16LatticeWeightTplIfEEEENS2_IS7_EEEEE2TNILi4EEEE4LinkEEE, 
                       __ZTIN3fst11MemoryArenaINS_10MemoryPoolINS_13PoolAllocatorINS_10CacheStateINS_6ArcTplINS_16LatticeWeightTplIfEEEENS2_IS7_EEEEE2TNILi64EEEE4LinkEEE, 
                       __ZTIN3fst11MemoryArenaINS_10MemoryPoolINS_13PoolAllocatorINS_10CacheStateINS_6ArcTplINS_16LatticeWeightTplIfEEEENS2_IS7_EEEEE2TNILi8EEEE4LinkEEE, 
                       __ZTIN3fst11MemoryArenaINS_10MemoryPoolINS_13PoolAllocatorINS_10CacheStateINS_6ArcTplINS_17TropicalWeightTplIfEEEENS2_IS7_EEEEE2TNILi16EEEE4LinkEEE, 
                       __ZTIN3fst11MemoryArenaINS_10MemoryPoolINS_13PoolAllocatorINS_10CacheStateINS_6ArcTplINS_17TropicalWeightTplIfEEEENS2_IS7_EEEEE2TNILi1EEEE4LinkEEE, 
                       __ZTIN3fst11MemoryArenaINS_10MemoryPoolINS_13PoolAllocatorINS_10CacheStateINS_6ArcTplINS_17TropicalWeightTplIfEEEENS2_IS7_EEEEE2TNILi2EEEE4LinkEEE, 
                       __ZTIN3fst11MemoryArenaINS_10MemoryPoolINS_13PoolAllocatorINS_10CacheStateINS_6ArcTplINS_17TropicalWeightTplIfEEEENS2_IS7_EEEEE2TNILi32EEEE4LinkEEE, 
                       __ZTIN3fst11MemoryArenaINS_10MemoryPoolINS_13PoolAllocatorINS_10CacheStateINS_6ArcTplINS_17TropicalWeightTplIfEEEENS2_IS7_EEEEE2TNILi4EEEE4LinkEEE, 
                       __ZTIN3fst11MemoryArenaINS_10MemoryPoolINS_13PoolAllocatorINS_10CacheStateINS_6ArcTplINS_17TropicalWeightTplIfEEEENS2_IS7_EEEEE2TNILi64EEEE4LinkEEE, 
                       __ZTIN3fst11MemoryArenaINS_10MemoryPoolINS_13PoolAllocatorINS_10CacheStateINS_6ArcTplINS_17TropicalWeightTplIfEEEENS2_IS7_EEEEE2TNILi8EEEE4LinkEEE, 
                       __ZTIN3fst11MemoryArenaINS_10MemoryPoolINS_13PoolAllocatorINS_10CacheStateINS_9GallicArcINS_6ArcTplINS_12LogWeightTplIfEEEELNS_10GallicTypeE0EEENS2_ISA_EEEEE2TNILi16EEEE4LinkEEE, 
                       __ZTIN3fst11MemoryArenaINS_10MemoryPoolINS_13PoolAllocatorINS_10CacheStateINS_9GallicArcINS_6ArcTplINS_12LogWeightTplIfEEEELNS_10GallicTypeE0EEENS2_ISA_EEEEE2TNILi1EEEE4LinkEEE, 
                       __ZTIN3fst11MemoryArenaINS_10MemoryPoolINS_13PoolAllocatorINS_10CacheStateINS_9GallicArcINS_6ArcTplINS_12LogWeightTplIfEEEELNS_10GallicTypeE0EEENS2_ISA_EEEEE2TNILi2EEEE4LinkEEE, 
                       __ZTIN3fst11MemoryArenaINS_10MemoryPoolINS_13PoolAllocatorINS_10CacheStateINS_9GallicArcINS_6ArcTplINS_12LogWeightTplIfEEEELNS_10GallicTypeE0EEENS2_ISA_EEEEE2TNILi32EEEE4LinkEEE, 
                       __ZTIN3fst11MemoryArenaINS_10MemoryPoolINS_13PoolAllocatorINS_10CacheStateINS_9GallicArcINS_6ArcTplINS_12LogWeightTplIfEEEELNS_10GallicTypeE0EEENS2_ISA_EEEEE2TNILi4EEEE4LinkEEE, 
                       __ZTIN3fst11MemoryArenaINS_10MemoryPoolINS_13PoolAllocatorINS_10CacheStateINS_9GallicArcINS_6ArcTplINS_12LogWeightTplIfEEEELNS_10GallicTypeE0EEENS2_ISA_EEEEE2TNILi64EEEE4LinkEEE, 
                       __ZTIN3fst11MemoryArenaINS_10MemoryPoolINS_13PoolAllocatorINS_10CacheStateINS_9GallicArcINS_6ArcTplINS_12LogWeightTplIfEEEELNS_10GallicTypeE0EEENS2_ISA_EEEEE2TNILi8EEEE4LinkEEE, 
                       __ZTIN3fst11MemoryArenaINS_10MemoryPoolINS_13PoolAllocatorINS_6ArcTplINS_12LogWeightTplIfEEEEE2TNILi16EEEE4LinkEEE, 
                       __ZTIN3fst11MemoryArenaINS_10MemoryPoolINS_13PoolAllocatorINS_6ArcTplINS_12LogWeightTplIfEEEEE2TNILi1EEEE4LinkEEE, 
                       __ZTIN3fst11MemoryArenaINS_10MemoryPoolINS_13PoolAllocatorINS_6ArcTplINS_12LogWeightTplIfEEEEE2TNILi2EEEE4LinkEEE, 
                       __ZTIN3fst11MemoryArenaINS_10MemoryPoolINS_13PoolAllocatorINS_6ArcTplINS_12LogWeightTplIfEEEEE2TNILi32EEEE4LinkEEE, 
                       __ZTIN3fst11MemoryArenaINS_10MemoryPoolINS_13PoolAllocatorINS_6ArcTplINS_12LogWeightTplIfEEEEE2TNILi4EEEE4LinkEEE, 
                       __ZTIN3fst11MemoryArenaINS_10MemoryPoolINS_13PoolAllocatorINS_6ArcTplINS_12LogWeightTplIfEEEEE2TNILi64EEEE4LinkEEE, 
                       __ZTIN3fst11MemoryArenaINS_10MemoryPoolINS_13PoolAllocatorINS_6ArcTplINS_12LogWeightTplIfEEEEE2TNILi8EEEE4LinkEEE, 
                       __ZTIN3fst11MemoryArenaINS_10MemoryPoolINS_13PoolAllocatorINS_6ArcTplINS_16LatticeWeightTplIfEEEEE2TNILi16EEEE4LinkEEE, 
                       __ZTIN3fst11MemoryArenaINS_10MemoryPoolINS_13PoolAllocatorINS_6ArcTplINS_16LatticeWeightTplIfEEEEE2TNILi1EEEE4LinkEEE, 
                       __ZTIN3fst11MemoryArenaINS_10MemoryPoolINS_13PoolAllocatorINS_6ArcTplINS_16LatticeWeightTplIfEEEEE2TNILi2EEEE4LinkEEE, 
                       __ZTIN3fst11MemoryArenaINS_10MemoryPoolINS_13PoolAllocatorINS_6ArcTplINS_16LatticeWeightTplIfEEEEE2TNILi32EEEE4LinkEEE, 
                       __ZTIN3fst11MemoryArenaINS_10MemoryPoolINS_13PoolAllocatorINS_6ArcTplINS_16LatticeWeightTplIfEEEEE2TNILi4EEEE4LinkEEE, 
                       __ZTIN3fst11MemoryArenaINS_10MemoryPoolINS_13PoolAllocatorINS_6ArcTplINS_16LatticeWeightTplIfEEEEE2TNILi64EEEE4LinkEEE, 
                       __ZTIN3fst11MemoryArenaINS_10MemoryPoolINS_13PoolAllocatorINS_6ArcTplINS_16LatticeWeightTplIfEEEEE2TNILi8EEEE4LinkEEE, 
                       __ZTIN3fst11MemoryArenaINS_10MemoryPoolINS_13PoolAllocatorINS_6ArcTplINS_17TropicalWeightTplIfEEEEE2TNILi16EEEE4LinkEEE, 
                       __ZTIN3fst11MemoryArenaINS_10MemoryPoolINS_13PoolAllocatorINS_6ArcTplINS_17TropicalWeightTplIfEEEEE2TNILi1EEEE4LinkEEE, 
                       __ZTIN3fst11MemoryArenaINS_10MemoryPoolINS_13PoolAllocatorINS_6ArcTplINS_17TropicalWeightTplIfEEEEE2TNILi2EEEE4LinkEEE, 
                       __ZTIN3fst11MemoryArenaINS_10MemoryPoolINS_13PoolAllocatorINS_6ArcTplINS_17TropicalWeightTplIfEEEEE2TNILi32EEEE4LinkEEE, 
                       __ZTIN3fst11MemoryArenaINS_10MemoryPoolINS_13PoolAllocatorINS_6ArcTplINS_17TropicalWeightTplIfEEEEE2TNILi4EEEE4LinkEEE, 
                       __ZTIN3fst11MemoryArenaINS_10MemoryPoolINS_13PoolAllocatorINS_6ArcTplINS_17TropicalWeightTplIfEEEEE2TNILi64EEEE4LinkEEE, 
                       __ZTIN3fst11MemoryArenaINS_10MemoryPoolINS_13PoolAllocatorINS_6ArcTplINS_17TropicalWeightTplIfEEEEE2TNILi8EEEE4LinkEEE, 
                       __ZTIN3fst11MemoryArenaINS_10MemoryPoolINS_13PoolAllocatorINS_9GallicArcINS_6ArcTplINS_12LogWeightTplIfEEEELNS_10GallicTypeE0EEEE2TNILi16EEEE4LinkEEE, 
                       __ZTIN3fst11MemoryArenaINS_10MemoryPoolINS_13PoolAllocatorINS_9GallicArcINS_6ArcTplINS_12LogWeightTplIfEEEELNS_10GallicTypeE0EEEE2TNILi1EEEE4LinkEEE, 
                       __ZTIN3fst11MemoryArenaINS_10MemoryPoolINS_13PoolAllocatorINS_9GallicArcINS_6ArcTplINS_12LogWeightTplIfEEEELNS_10GallicTypeE0EEEE2TNILi2EEEE4LinkEEE, 
                       __ZTIN3fst11MemoryArenaINS_10MemoryPoolINS_13PoolAllocatorINS_9GallicArcINS_6ArcTplINS_12LogWeightTplIfEEEELNS_10GallicTypeE0EEEE2TNILi32EEEE4LinkEEE, 
                       __ZTIN3fst11MemoryArenaINS_10MemoryPoolINS_13PoolAllocatorINS_9GallicArcINS_6ArcTplINS_12LogWeightTplIfEEEELNS_10GallicTypeE0EEEE2TNILi4EEEE4LinkEEE, 
                       __ZTIN3fst11MemoryArenaINS_10MemoryPoolINS_13PoolAllocatorINS_9GallicArcINS_6ArcTplINS_12LogWeightTplIfEEEELNS_10GallicTypeE0EEEE2TNILi64EEEE4LinkEEE, 
                       __ZTIN3fst11MemoryArenaINS_10MemoryPoolINS_13PoolAllocatorINS_9GallicArcINS_6ArcTplINS_12LogWeightTplIfEEEELNS_10GallicTypeE0EEEE2TNILi8EEEE4LinkEEE, 
                       __ZTIN3fst11MemoryArenaINS_10MemoryPoolINS_13PoolAllocatorINSt3__111__hash_nodeIiPvEEE2TNILi16EEEE4LinkEEE, 
                       __ZTIN3fst11MemoryArenaINS_10MemoryPoolINS_13PoolAllocatorINSt3__111__hash_nodeIiPvEEE2TNILi1EEEE4LinkEEE, 
                       __ZTIN3fst11MemoryArenaINS_10MemoryPoolINS_13PoolAllocatorINSt3__111__hash_nodeIiPvEEE2TNILi2EEEE4LinkEEE, 
                       __ZTIN3fst11MemoryArenaINS_10MemoryPoolINS_13PoolAllocatorINSt3__111__hash_nodeIiPvEEE2TNILi32EEEE4LinkEEE, 
                       __ZTIN3fst11MemoryArenaINS_10MemoryPoolINS_13PoolAllocatorINSt3__111__hash_nodeIiPvEEE2TNILi4EEEE4LinkEEE, 
                       __ZTIN3fst11MemoryArenaINS_10MemoryPoolINS_13PoolAllocatorINSt3__111__hash_nodeIiPvEEE2TNILi64EEEE4LinkEEE, 
                       __ZTIN3fst11MemoryArenaINS_10MemoryPoolINS_13PoolAllocatorINSt3__111__hash_nodeIiPvEEE2TNILi8EEEE4LinkEEE, 
                       __ZTIN3fst11MemoryArenaINS_10MemoryPoolINS_13PoolAllocatorINSt3__111__list_nodeIiPvEEE2TNILi16EEEE4LinkEEE, 
                       __ZTIN3fst11MemoryArenaINS_10MemoryPoolINS_13PoolAllocatorINSt3__111__list_nodeIiPvEEE2TNILi1EEEE4LinkEEE, 
                       __ZTIN3fst11MemoryArenaINS_10MemoryPoolINS_13PoolAllocatorINSt3__111__list_nodeIiPvEEE2TNILi2EEEE4LinkEEE, 
                       __ZTIN3fst11MemoryArenaINS_10MemoryPoolINS_13PoolAllocatorINSt3__111__list_nodeIiPvEEE2TNILi32EEEE4LinkEEE, 
                       __ZTIN3fst11MemoryArenaINS_10MemoryPoolINS_13PoolAllocatorINSt3__111__list_nodeIiPvEEE2TNILi4EEEE4LinkEEE, 
                       __ZTIN3fst11MemoryArenaINS_10MemoryPoolINS_13PoolAllocatorINSt3__111__list_nodeIiPvEEE2TNILi64EEEE4LinkEEE, 
                       __ZTIN3fst11MemoryArenaINS_10MemoryPoolINS_13PoolAllocatorINSt3__111__list_nodeIiPvEEE2TNILi8EEEE4LinkEEE, 
                       __ZTIN3fst11MemoryArenaINS_10MemoryPoolINS_13PoolAllocatorIPNSt3__116__hash_node_baseIPNS3_11__hash_nodeIiPvEEEEE2TNILi16EEEE4LinkEEE, 
                       __ZTIN3fst11MemoryArenaINS_10MemoryPoolINS_13PoolAllocatorIPNSt3__116__hash_node_baseIPNS3_11__hash_nodeIiPvEEEEE2TNILi1EEEE4LinkEEE, 
                       __ZTIN3fst11MemoryArenaINS_10MemoryPoolINS_13PoolAllocatorIPNSt3__116__hash_node_baseIPNS3_11__hash_nodeIiPvEEEEE2TNILi2EEEE4LinkEEE, 
                       __ZTIN3fst11MemoryArenaINS_10MemoryPoolINS_13PoolAllocatorIPNSt3__116__hash_node_baseIPNS3_11__hash_nodeIiPvEEEEE2TNILi32EEEE4LinkEEE, 
                       __ZTIN3fst11MemoryArenaINS_10MemoryPoolINS_13PoolAllocatorIPNSt3__116__hash_node_baseIPNS3_11__hash_nodeIiPvEEEEE2TNILi4EEEE4LinkEEE, 
                       __ZTIN3fst11MemoryArenaINS_10MemoryPoolINS_13PoolAllocatorIPNSt3__116__hash_node_baseIPNS3_11__hash_nodeIiPvEEEEE2TNILi64EEEE4LinkEEE, 
                       __ZTIN3fst11MemoryArenaINS_10MemoryPoolINS_13PoolAllocatorIPNSt3__116__hash_node_baseIPNS3_11__hash_nodeIiPvEEEEE2TNILi8EEEE4LinkEEE, 
                       __ZTIN3fst11MemoryArenaINS_10MemoryPoolINS_8DfsStateINS_10ReverseArcINS_6ArcTplINS_12LogWeightTplIfEEEEEEEEE4LinkEEE, 
                       __ZTIN3fst11MemoryArenaINS_10MemoryPoolINS_8DfsStateINS_10ReverseArcINS_6ArcTplINS_17TropicalWeightTplIfEEEEEEEEE4LinkEEE, 
                       __ZTIN3fst11MemoryArenaINS_10MemoryPoolINS_8DfsStateINS_10ReverseArcINS_9GallicArcINS_6ArcTplINS_12LogWeightTplIfEEEELNS_10GallicTypeE0EEEEEEEE4LinkEEE, 
                       __ZTIN3fst11MemoryArenaINS_10MemoryPoolINS_8DfsStateINS_6ArcTplINS_12LogWeightTplIfEEEEEEE4LinkEEE, 
                       __ZTIN3fst11MemoryArenaINS_10MemoryPoolINS_8DfsStateINS_6ArcTplINS_16LatticeWeightTplIfEEEEEEE4LinkEEE, 
                       __ZTIN3fst11MemoryArenaINS_10MemoryPoolINS_8DfsStateINS_6ArcTplINS_17TropicalWeightTplIfEEEEEEE4LinkEEE, 
                       __ZTIN3fst11MemoryArenaINS_10MemoryPoolINS_8DfsStateINS_6ArcTplINS_23CompactLatticeWeightTplINS_16LatticeWeightTplIfEEiEEEEEEE4LinkEEE, 
                       __ZTIN3fst11MemoryArenaINS_10MemoryPoolINS_8DfsStateINS_9GallicArcINS_6ArcTplINS_12LogWeightTplIfEEEELNS_10GallicTypeE0EEEEEE4LinkEEE, 
                       __ZTIN3fst11StateMapFstINS_6ArcTplINS_16LatticeWeightTplIfEEEES4_NS_13ArcSortMapperIS4_NS_13ILabelCompareIS4_EEEEEE, 
                       __ZTIN3fst12ArcPosingFstINS_6ArcTplINS_12LogWeightTplIfEEEENS1_INS_17TropicalWeightTplIfEEEEEE, 
                       __ZTIN3fst12ArcPosingFstINS_6ArcTplINS_17TropicalWeightTplIfEEEENS1_INS_12LogWeightTplIfEEEEEE, 
                       __ZTIN3fst12TableMatcherINS_3FstINS_6ArcTplINS_17TropicalWeightTplIfEEEEEENS_13SortedMatcherIS6_EEEE, 
                       __ZTIN3fst13ArcMapFstImplINS_6ArcTplINS_12LogWeightTplIfEEEENS_9GallicArcIS4_LNS_10GallicTypeE0EEENS_14ToGallicMapperIS4_LS6_0EEEEE, 
                       __ZTIN3fst13ArcMapFstImplINS_6ArcTplINS_12LogWeightTplIfEEEES4_NS_14RmWeightMapperIS4_S4_EEEE, 
                       __ZTIN3fst13ArcMapFstImplINS_6ArcTplINS_16LatticeWeightTplIfEEEES4_NS_13ProjectMapperIS4_EEEE, 
                       __ZTIN3fst13ArcMapFstImplINS_6ArcTplINS_16LatticeWeightTplIfEEEES4_NS_14RmWeightMapperIS4_S4_EEEE, 
                       __ZTIN3fst13CacheBaseImplINS_10CacheStateINS_6ArcTplINS_12LogWeightTplIfEEEENS_13PoolAllocatorIS5_EEEENS_17DefaultCacheStoreIS5_EEEE, 
                       __ZTIN3fst13CacheBaseImplINS_10CacheStateINS_6ArcTplINS_16LatticeWeightTplIfEEEENS_13PoolAllocatorIS5_EEEENS_17DefaultCacheStoreIS5_EEEE, 
                       __ZTIN3fst13CacheBaseImplINS_10CacheStateINS_6ArcTplINS_17TropicalWeightTplIfEEEENS_13PoolAllocatorIS5_EEEENS_17DefaultCacheStoreIS5_EEEE, 
                       __ZTIN3fst13CacheBaseImplINS_10CacheStateINS_9GallicArcINS_6ArcTplINS_12LogWeightTplIfEEEELNS_10GallicTypeE0EEENS_13PoolAllocatorIS8_EEEENS_17DefaultCacheStoreIS8_EEEE, 
                       __ZTIN3fst13SortedMatcherINS_3FstINS_6ArcTplINS_16LatticeWeightTplIfEEEEEEEE, 
                       __ZTIN3fst13SortedMatcherINS_3FstINS_6ArcTplINS_17TropicalWeightTplIfEEEEEEEE, 
                       __ZTIN3fst13StateIteratorINS_10ComposeFstINS_6ArcTplINS_16LatticeWeightTplIfEEEENS_17DefaultCacheStoreIS5_EEEEEE, 
                       __ZTIN3fst13StateIteratorINS_10ComposeFstINS_6ArcTplINS_17TropicalWeightTplIfEEEENS_17DefaultCacheStoreIS5_EEEEEE, 
                       __ZTIN3fst13StateIteratorINS_10ContextFstINS_6ArcTplINS_17TropicalWeightTplIfEEEEiEEEE, 
                       __ZTIN3fst13StateIteratorINS_12ArcPosingFstINS_6ArcTplINS_12LogWeightTplIfEEEENS2_INS_17TropicalWeightTplIfEEEEEEEE, 
                       __ZTIN3fst13StateIteratorINS_12ArcPosingFstINS_6ArcTplINS_17TropicalWeightTplIfEEEENS2_INS_12LogWeightTplIfEEEEEEEE, 
                       __ZTIN3fst13StateIteratorINS_15FactorWeightFstINS_9GallicArcINS_6ArcTplINS_12LogWeightTplIfEEEELNS_10GallicTypeE0EEENS_12GallicFactorIiS5_LS7_0EEEEEEE, 
                       __ZTIN3fst13StateIteratorINS_9ArcMapFstINS_6ArcTplINS_12LogWeightTplIfEEEENS_9GallicArcIS5_LNS_10GallicTypeE0EEENS_14ToGallicMapperIS5_LS7_0EEEEEEE, 
                       __ZTIN3fst13StateIteratorINS_9ArcMapFstINS_6ArcTplINS_12LogWeightTplIfEEEES5_NS_14RmWeightMapperIS5_S5_EEEEEE, 
                       __ZTIN3fst13StateIteratorINS_9ArcMapFstINS_6ArcTplINS_16LatticeWeightTplIfEEEES5_NS_13ProjectMapperIS5_EEEEEE, 
                       __ZTIN3fst13StateIteratorINS_9ArcMapFstINS_6ArcTplINS_16LatticeWeightTplIfEEEES5_NS_14RmWeightMapperIS5_S5_EEEEEE, 
                       __ZTIN3fst13TopOrderQueueIiEE, __ZTIN3fst13VectorFstImplINS_11VectorStateINS_10ReverseArcINS_6ArcTplINS_12LogWeightTplIfEEEEEENSt3__19allocatorIS7_EEEEEE, 
                       __ZTIN3fst13VectorFstImplINS_11VectorStateINS_10ReverseArcINS_6ArcTplINS_17TropicalWeightTplIfEEEEEENSt3__19allocatorIS7_EEEEEE, 
                       __ZTIN3fst13VectorFstImplINS_11VectorStateINS_10ReverseArcINS_9GallicArcINS_6ArcTplINS_12LogWeightTplIfEEEELNS_10GallicTypeE0EEEEENSt3__19allocatorISA_EEEEEE, 
                       __ZTIN3fst13VectorFstImplINS_11VectorStateINS_6ArcTplINS_12LogWeightTplIfEEEENSt3__19allocatorIS5_EEEEEE, 
                       __ZTIN3fst13VectorFstImplINS_11VectorStateINS_6ArcTplINS_16LatticeWeightTplIfEEEENSt3__19allocatorIS5_EEEEEE, 
                       __ZTIN3fst13VectorFstImplINS_11VectorStateINS_6ArcTplINS_17TropicalWeightTplIfEEEENSt3__19allocatorIS5_EEEEEE, 
                       __ZTIN3fst13VectorFstImplINS_11VectorStateINS_6ArcTplINS_23CompactLatticeWeightTplINS_16LatticeWeightTplIfEEiEEEENSt3__19allocatorIS7_EEEEEE, 
                       __ZTIN3fst13VectorFstImplINS_11VectorStateINS_9GallicArcINS_6ArcTplINS_12LogWeightTplIfEEEELNS_10GallicTypeE0EEENSt3__19allocatorIS8_EEEEEE, 
                       __ZTIN3fst14ComposeFstImplINS_17DefaultCacheStoreINS_6ArcTplINS_16LatticeWeightTplIfEEEEEENS_17NullComposeFilterINS_7MatcherINS_3FstIS5_EEEESB_EENS_24GenericComposeStateTableIS5_NS_18IntegerFilterStateIaEENS_24DefaultComposeStateTupleIiSF_EENS_21CompactHashStateTableISH_NS_11ComposeHashISH_EEEEEEEE, 
                       __ZTIN3fst14ComposeFstImplINS_17DefaultCacheStoreINS_6ArcTplINS_16LatticeWeightTplIfEEEEEENS_18MatchComposeFilterINS_7MatcherINS_3FstIS5_EEEESB_EENS_24GenericComposeStateTableIS5_NS_18IntegerFilterStateIaEENS_24DefaultComposeStateTupleIiSF_EENS_21CompactHashStateTableISH_NS_11ComposeHashISH_EEEEEEEE, 
                       __ZTIN3fst14ComposeFstImplINS_17DefaultCacheStoreINS_6ArcTplINS_16LatticeWeightTplIfEEEEEENS_21SequenceComposeFilterINS_7MatcherINS_3FstIS5_EEEESB_EENS_24GenericComposeStateTableIS5_NS_18IntegerFilterStateIaEENS_24DefaultComposeStateTupleIiSF_EENS_21CompactHashStateTableISH_NS_11ComposeHashISH_EEEEEEEE, 
                       __ZTIN3fst14ComposeFstImplINS_17DefaultCacheStoreINS_6ArcTplINS_16LatticeWeightTplIfEEEEEENS_22LookAheadComposeFilterINS_21SequenceComposeFilterINS_16LookAheadMatcherINS_3FstIS5_EEEESC_EESC_SC_LNS_9MatchTypeE2EEENS_24GenericComposeStateTableIS5_NS_18IntegerFilterStateIaEENS_24DefaultComposeStateTupleIiSI_EENS_21CompactHashStateTableISK_NS_11ComposeHashISK_EEEEEEEE, 
                       __ZTIN3fst14ComposeFstImplINS_17DefaultCacheStoreINS_6ArcTplINS_16LatticeWeightTplIfEEEEEENS_22LookAheadComposeFilterINS_24AltSequenceComposeFilterINS_16LookAheadMatcherINS_3FstIS5_EEEESC_EESC_SC_LNS_9MatchTypeE2EEENS_24GenericComposeStateTableIS5_NS_18IntegerFilterStateIaEENS_24DefaultComposeStateTupleIiSI_EENS_21CompactHashStateTableISK_NS_11ComposeHashISK_EEEEEEEE, 
                       __ZTIN3fst14ComposeFstImplINS_17DefaultCacheStoreINS_6ArcTplINS_16LatticeWeightTplIfEEEEEENS_24AltSequenceComposeFilterINS_7MatcherINS_3FstIS5_EEEESB_EENS_24GenericComposeStateTableIS5_NS_18IntegerFilterStateIaEENS_24DefaultComposeStateTupleIiSF_EENS_21CompactHashStateTableISH_NS_11ComposeHashISH_EEEEEEEE, 
                       __ZTIN3fst14ComposeFstImplINS_17DefaultCacheStoreINS_6ArcTplINS_17TropicalWeightTplIfEEEEEENS_21SequenceComposeFilterINS_12TableMatcherINS_3FstIS5_EENS_13SortedMatcherISA_EEEESC_EENS_24GenericComposeStateTableIS5_NS_18IntegerFilterStateIaEENS_24DefaultComposeStateTupleIiSH_EENS_21CompactHashStateTableISJ_NS_11ComposeHashISJ_EEEEEEEE, 
                       __ZTIN3fst14ComposeFstImplINS_17DefaultCacheStoreINS_6ArcTplINS_17TropicalWeightTplIfEEEEEENS_21SequenceComposeFilterINS_13SortedMatcherINS_3FstIS5_EEEENS_12TableMatcherISA_SB_EEEENS_24GenericComposeStateTableIS5_NS_18IntegerFilterStateIaEENS_24DefaultComposeStateTupleIiSH_EENS_21CompactHashStateTableISJ_NS_11ComposeHashISJ_EEEEEEEE, 
                       __ZTIN3fst14ComposeFstImplINS_17DefaultCacheStoreINS_6ArcTplINS_17TropicalWeightTplIfEEEEEENS_21SequenceComposeFilterINS_14ContextMatcherIS5_iEES9_EENS_24GenericComposeStateTableIS5_NS_18IntegerFilterStateIaEENS_24DefaultComposeStateTupleIiSD_EENS_21CompactHashStateTableISF_NS_11ComposeHashISF_EEEEEEEE, 
                       __ZTIN3fst14ContextFstImplINS_6ArcTplINS_17TropicalWeightTplIfEEEEiEE, 
                       __ZTIN3fst14ContextMatcherINS_6ArcTplINS_17TropicalWeightTplIfEEEEiEE, 
                       __ZTIN3fst15ArcIteratorBaseINS_10ReverseArcINS_6ArcTplINS_12LogWeightTplIfEEEEEEEE, 
                       __ZTIN3fst15ArcIteratorBaseINS_10ReverseArcINS_6ArcTplINS_17TropicalWeightTplIfEEEEEEEE, 
                       __ZTIN3fst15ArcIteratorBaseINS_10ReverseArcINS_9GallicArcINS_6ArcTplINS_12LogWeightTplIfEEEELNS_10GallicTypeE0EEEEEEE, 
                       __ZTIN3fst15ArcIteratorBaseINS_6ArcTplINS_12LogWeightTplIfEEEEEE, 
                       __ZTIN3fst15ArcIteratorBaseINS_6ArcTplINS_16LatticeWeightTplIfEEEEEE, 
                       __ZTIN3fst15ArcIteratorBaseINS_6ArcTplINS_17TropicalWeightTplIfEEEEEE, 
                       __ZTIN3fst15ArcIteratorBaseINS_6ArcTplINS_23CompactLatticeWeightTplINS_16LatticeWeightTplIfEEiEEEEEE, 
                       __ZTIN3fst15ArcIteratorBaseINS_9GallicArcINS_6ArcTplINS_12LogWeightTplIfEEEELNS_10GallicTypeE0EEEEE, 
                       __ZTIN3fst15FactorWeightFstINS_9GallicArcINS_6ArcTplINS_12LogWeightTplIfEEEELNS_10GallicTypeE0EEENS_12GallicFactorIiS4_LS6_0EEEEE, 
                       __ZTIN3fst15StateMapFstImplINS_6ArcTplINS_16LatticeWeightTplIfEEEES4_NS_13ArcSortMapperIS4_NS_13ILabelCompareIS4_EEEEEE, 
                       __ZTIN3fst15StateOrderQueueIiEE, __ZTIN3fst16ImplToMutableFstINS_13VectorFstImplINS_11VectorStateINS_10ReverseArcINS_6ArcTplINS_12LogWeightTplIfEEEEEENSt3__19allocatorIS8_EEEEEENS_10MutableFstIS8_EEEE, 
                       __ZTIN3fst16ImplToMutableFstINS_13VectorFstImplINS_11VectorStateINS_10ReverseArcINS_6ArcTplINS_17TropicalWeightTplIfEEEEEENSt3__19allocatorIS8_EEEEEENS_10MutableFstIS8_EEEE, 
                       __ZTIN3fst16ImplToMutableFstINS_13VectorFstImplINS_11VectorStateINS_10ReverseArcINS_9GallicArcINS_6ArcTplINS_12LogWeightTplIfEEEELNS_10GallicTypeE0EEEEENSt3__19allocatorISB_EEEEEENS_10MutableFstISB_EEEE, 
                       __ZTIN3fst16ImplToMutableFstINS_13VectorFstImplINS_11VectorStateINS_6ArcTplINS_12LogWeightTplIfEEEENSt3__19allocatorIS6_EEEEEENS_10MutableFstIS6_EEEE, 
                       __ZTIN3fst16ImplToMutableFstINS_13VectorFstImplINS_11VectorStateINS_6ArcTplINS_16LatticeWeightTplIfEEEENSt3__19allocatorIS6_EEEEEENS_10MutableFstIS6_EEEE, 
                       __ZTIN3fst16ImplToMutableFstINS_13VectorFstImplINS_11VectorStateINS_6ArcTplINS_17TropicalWeightTplIfEEEENSt3__19allocatorIS6_EEEEEENS_10MutableFstIS6_EEEE, 
                       __ZTIN3fst16ImplToMutableFstINS_13VectorFstImplINS_11VectorStateINS_6ArcTplINS_23CompactLatticeWeightTplINS_16LatticeWeightTplIfEEiEEEENSt3__19allocatorIS8_EEEEEENS_10MutableFstIS8_EEEE, 
                       __ZTIN3fst16ImplToMutableFstINS_13VectorFstImplINS_11VectorStateINS_9GallicArcINS_6ArcTplINS_12LogWeightTplIfEEEELNS_10GallicTypeE0EEENSt3__19allocatorIS9_EEEEEENS_10MutableFstIS9_EEEE, 
                       __ZTIN3fst16TableMatcherImplINS_3FstINS_6ArcTplINS_17TropicalWeightTplIfEEEEEENS_13SortedMatcherIS6_EEEE, 
                       __ZTIN3fst17ComposeFstMatcherINS_17DefaultCacheStoreINS_6ArcTplINS_16LatticeWeightTplIfEEEEEENS_17NullComposeFilterINS_7MatcherINS_3FstIS5_EEEESB_EENS_24GenericComposeStateTableIS5_NS_18IntegerFilterStateIaEENS_24DefaultComposeStateTupleIiSF_EENS_21CompactHashStateTableISH_NS_11ComposeHashISH_EEEEEEEE, 
                       __ZTIN3fst17ComposeFstMatcherINS_17DefaultCacheStoreINS_6ArcTplINS_16LatticeWeightTplIfEEEEEENS_18MatchComposeFilterINS_7MatcherINS_3FstIS5_EEEESB_EENS_24GenericComposeStateTableIS5_NS_18IntegerFilterStateIaEENS_24DefaultComposeStateTupleIiSF_EENS_21CompactHashStateTableISH_NS_11ComposeHashISH_EEEEEEEE, 
                       __ZTIN3fst17ComposeFstMatcherINS_17DefaultCacheStoreINS_6ArcTplINS_16LatticeWeightTplIfEEEEEENS_21SequenceComposeFilterINS_7MatcherINS_3FstIS5_EEEESB_EENS_24GenericComposeStateTableIS5_NS_18IntegerFilterStateIaEENS_24DefaultComposeStateTupleIiSF_EENS_21CompactHashStateTableISH_NS_11ComposeHashISH_EEEEEEEE, 
                       __ZTIN3fst17ComposeFstMatcherINS_17DefaultCacheStoreINS_6ArcTplINS_16LatticeWeightTplIfEEEEEENS_22LookAheadComposeFilterINS_21SequenceComposeFilterINS_16LookAheadMatcherINS_3FstIS5_EEEESC_EESC_SC_LNS_9MatchTypeE2EEENS_24GenericComposeStateTableIS5_NS_18IntegerFilterStateIaEENS_24DefaultComposeStateTupleIiSI_EENS_21CompactHashStateTableISK_NS_11ComposeHashISK_EEEEEEEE, 
                       __ZTIN3fst17ComposeFstMatcherINS_17DefaultCacheStoreINS_6ArcTplINS_16LatticeWeightTplIfEEEEEENS_22LookAheadComposeFilterINS_24AltSequenceComposeFilterINS_16LookAheadMatcherINS_3FstIS5_EEEESC_EESC_SC_LNS_9MatchTypeE2EEENS_24GenericComposeStateTableIS5_NS_18IntegerFilterStateIaEENS_24DefaultComposeStateTupleIiSI_EENS_21CompactHashStateTableISK_NS_11ComposeHashISK_EEEEEEEE, 
                       __ZTIN3fst17ComposeFstMatcherINS_17DefaultCacheStoreINS_6ArcTplINS_16LatticeWeightTplIfEEEEEENS_24AltSequenceComposeFilterINS_7MatcherINS_3FstIS5_EEEESB_EENS_24GenericComposeStateTableIS5_NS_18IntegerFilterStateIaEENS_24DefaultComposeStateTupleIiSF_EENS_21CompactHashStateTableISH_NS_11ComposeHashISH_EEEEEEEE, 
                       __ZTIN3fst17ComposeFstMatcherINS_17DefaultCacheStoreINS_6ArcTplINS_17TropicalWeightTplIfEEEEEENS_21SequenceComposeFilterINS_12TableMatcherINS_3FstIS5_EENS_13SortedMatcherISA_EEEESC_EENS_24GenericComposeStateTableIS5_NS_18IntegerFilterStateIaEENS_24DefaultComposeStateTupleIiSH_EENS_21CompactHashStateTableISJ_NS_11ComposeHashISJ_EEEEEEEE, 
                       __ZTIN3fst17ComposeFstMatcherINS_17DefaultCacheStoreINS_6ArcTplINS_17TropicalWeightTplIfEEEEEENS_21SequenceComposeFilterINS_13SortedMatcherINS_3FstIS5_EEEENS_12TableMatcherISA_SB_EEEENS_24GenericComposeStateTableIS5_NS_18IntegerFilterStateIaEENS_24DefaultComposeStateTupleIiSH_EENS_21CompactHashStateTableISJ_NS_11ComposeHashISJ_EEEEEEEE, 
                       __ZTIN3fst17ComposeFstMatcherINS_17DefaultCacheStoreINS_6ArcTplINS_17TropicalWeightTplIfEEEEEENS_21SequenceComposeFilterINS_14ContextMatcherIS5_iEES9_EENS_24GenericComposeStateTableIS5_NS_18IntegerFilterStateIaEENS_24DefaultComposeStateTupleIiSD_EENS_21CompactHashStateTableISF_NS_11ComposeHashISF_EEEEEEEE, 
                       __ZTIN3fst17ImplToExpandedFstINS_13VectorFstImplINS_11VectorStateINS_10ReverseArcINS_6ArcTplINS_12LogWeightTplIfEEEEEENSt3__19allocatorIS8_EEEEEENS_10MutableFstIS8_EEEE, 
                       __ZTIN3fst17ImplToExpandedFstINS_13VectorFstImplINS_11VectorStateINS_10ReverseArcINS_6ArcTplINS_17TropicalWeightTplIfEEEEEENSt3__19allocatorIS8_EEEEEENS_10MutableFstIS8_EEEE, 
                       __ZTIN3fst17ImplToExpandedFstINS_13VectorFstImplINS_11VectorStateINS_10ReverseArcINS_9GallicArcINS_6ArcTplINS_12LogWeightTplIfEEEELNS_10GallicTypeE0EEEEENSt3__19allocatorISB_EEEEEENS_10MutableFstISB_EEEE, 
                       __ZTIN3fst17ImplToExpandedFstINS_13VectorFstImplINS_11VectorStateINS_6ArcTplINS_12LogWeightTplIfEEEENSt3__19allocatorIS6_EEEEEENS_10MutableFstIS6_EEEE, 
                       __ZTIN3fst17ImplToExpandedFstINS_13VectorFstImplINS_11VectorStateINS_6ArcTplINS_16LatticeWeightTplIfEEEENSt3__19allocatorIS6_EEEEEENS_10MutableFstIS6_EEEE, 
                       __ZTIN3fst17ImplToExpandedFstINS_13VectorFstImplINS_11VectorStateINS_6ArcTplINS_17TropicalWeightTplIfEEEENSt3__19allocatorIS6_EEEEEENS_10MutableFstIS6_EEEE, 
                       __ZTIN3fst17ImplToExpandedFstINS_13VectorFstImplINS_11VectorStateINS_6ArcTplINS_23CompactLatticeWeightTplINS_16LatticeWeightTplIfEEiEEEENSt3__19allocatorIS8_EEEEEENS_10MutableFstIS8_EEEE, 
                       __ZTIN3fst17ImplToExpandedFstINS_13VectorFstImplINS_11VectorStateINS_9GallicArcINS_6ArcTplINS_12LogWeightTplIfEEEELNS_10GallicTypeE0EEENSt3__19allocatorIS9_EEEEEENS_10MutableFstIS9_EEEE, 
                       __ZTIN3fst17StateIteratorBaseINS_6ArcTplINS_12LogWeightTplIfEEEEEE, 
                       __ZTIN3fst17StateIteratorBaseINS_6ArcTplINS_16LatticeWeightTplIfEEEEEE, 
                       __ZTIN3fst17StateIteratorBaseINS_6ArcTplINS_17TropicalWeightTplIfEEEEEE, 
                       __ZTIN3fst17StateIteratorBaseINS_9GallicArcINS_6ArcTplINS_12LogWeightTplIfEEEELNS_10GallicTypeE0EEEEE, 
                       __ZTIN3fst17VectorFstBaseImplINS_11VectorStateINS_10ReverseArcINS_6ArcTplINS_12LogWeightTplIfEEEEEENSt3__19allocatorIS7_EEEEEE, 
                       __ZTIN3fst17VectorFstBaseImplINS_11VectorStateINS_10ReverseArcINS_6ArcTplINS_17TropicalWeightTplIfEEEEEENSt3__19allocatorIS7_EEEEEE, 
                       __ZTIN3fst17VectorFstBaseImplINS_11VectorStateINS_10ReverseArcINS_9GallicArcINS_6ArcTplINS_12LogWeightTplIfEEEELNS_10GallicTypeE0EEEEENSt3__19allocatorISA_EEEEEE, 
                       __ZTIN3fst17VectorFstBaseImplINS_11VectorStateINS_6ArcTplINS_12LogWeightTplIfEEEENSt3__19allocatorIS5_EEEEEE, 
                       __ZTIN3fst17VectorFstBaseImplINS_11VectorStateINS_6ArcTplINS_16LatticeWeightTplIfEEEENSt3__19allocatorIS5_EEEEEE, 
                       __ZTIN3fst17VectorFstBaseImplINS_11VectorStateINS_6ArcTplINS_17TropicalWeightTplIfEEEENSt3__19allocatorIS5_EEEEEE, 
                       __ZTIN3fst17VectorFstBaseImplINS_11VectorStateINS_6ArcTplINS_23CompactLatticeWeightTplINS_16LatticeWeightTplIfEEiEEEENSt3__19allocatorIS7_EEEEEE, 
                       __ZTIN3fst17VectorFstBaseImplINS_11VectorStateINS_9GallicArcINS_6ArcTplINS_12LogWeightTplIfEEEELNS_10GallicTypeE0EEENSt3__19allocatorIS8_EEEEEE, 
                       __ZTIN3fst18CacheStateIteratorINS_10ComposeFstINS_6ArcTplINS_16LatticeWeightTplIfEEEENS_17DefaultCacheStoreIS5_EEEEEE, 
                       __ZTIN3fst18CacheStateIteratorINS_10ComposeFstINS_6ArcTplINS_17TropicalWeightTplIfEEEENS_17DefaultCacheStoreIS5_EEEEEE, 
                       __ZTIN3fst18CacheStateIteratorINS_10ContextFstINS_6ArcTplINS_17TropicalWeightTplIfEEEEiEEEE, 
                       __ZTIN3fst18CacheStateIteratorINS_15FactorWeightFstINS_9GallicArcINS_6ArcTplINS_12LogWeightTplIfEEEELNS_10GallicTypeE0EEENS_12GallicFactorIiS5_LS7_0EEEEEEE, 
                       __ZTIN3fst18ComposeFstImplBaseINS_6ArcTplINS_16LatticeWeightTplIfEEEENS_17DefaultCacheStoreIS4_EEEE, 
                       __ZTIN3fst18ComposeFstImplBaseINS_6ArcTplINS_17TropicalWeightTplIfEEEENS_17DefaultCacheStoreIS4_EEEE, 
                       __ZTIN3fst18MutableArcIteratorINS_19MutableArcPosingFstINS_6ArcTplINS_12LogWeightTplIfEEEENS2_INS_17TropicalWeightTplIfEEEEEEEE, 
                       __ZTIN3fst18MutableArcIteratorINS_9VectorFstINS_10ReverseArcINS_6ArcTplINS_12LogWeightTplIfEEEEEENS_11VectorStateIS7_NSt3__19allocatorIS7_EEEEEEEE, 
                       __ZTIN3fst18MutableArcIteratorINS_9VectorFstINS_10ReverseArcINS_6ArcTplINS_17TropicalWeightTplIfEEEEEENS_11VectorStateIS7_NSt3__19allocatorIS7_EEEEEEEE, 
                       __ZTIN3fst18MutableArcIteratorINS_9VectorFstINS_10ReverseArcINS_9GallicArcINS_6ArcTplINS_12LogWeightTplIfEEEELNS_10GallicTypeE0EEEEENS_11VectorStateISA_NSt3__19allocatorISA_EEEEEEEE, 
                       __ZTIN3fst18MutableArcIteratorINS_9VectorFstINS_6ArcTplINS_16LatticeWeightTplIfEEEENS_11VectorStateIS5_NSt3__19allocatorIS5_EEEEEEEE, 
                       __ZTIN3fst18MutableArcIteratorINS_9VectorFstINS_6ArcTplINS_23CompactLatticeWeightTplINS_16LatticeWeightTplIfEEiEEEENS_11VectorStateIS7_NSt3__19allocatorIS7_EEEEEEEE, 
                       __ZTIN3fst18MutableArcIteratorINS_9VectorFstINS_9GallicArcINS_6ArcTplINS_12LogWeightTplIfEEEELNS_10GallicTypeE0EEENS_11VectorStateIS8_NSt3__19allocatorIS8_EEEEEEEE, 
                       __ZTIN3fst19FactorWeightFstImplINS_9GallicArcINS_6ArcTplINS_12LogWeightTplIfEEEELNS_10GallicTypeE0EEENS_12GallicFactorIiS4_LS6_0EEEEE, 
                       __ZTIN3fst19MutableArcPosingFstINS_6ArcTplINS_12LogWeightTplIfEEEENS1_INS_17TropicalWeightTplIfEEEEEE, 
                       __ZTIN3fst22MutableArcIteratorBaseINS_10ReverseArcINS_6ArcTplINS_12LogWeightTplIfEEEEEEEE, 
                       __ZTIN3fst22MutableArcIteratorBaseINS_10ReverseArcINS_6ArcTplINS_17TropicalWeightTplIfEEEEEEEE, 
                       __ZTIN3fst22MutableArcIteratorBaseINS_10ReverseArcINS_9GallicArcINS_6ArcTplINS_12LogWeightTplIfEEEELNS_10GallicTypeE0EEEEEEE, 
                       __ZTIN3fst22MutableArcIteratorBaseINS_6ArcTplINS_12LogWeightTplIfEEEEEE, 
                       __ZTIN3fst22MutableArcIteratorBaseINS_6ArcTplINS_16LatticeWeightTplIfEEEEEE, 
                       __ZTIN3fst22MutableArcIteratorBaseINS_6ArcTplINS_17TropicalWeightTplIfEEEEEE, 
                       __ZTIN3fst22MutableArcIteratorBaseINS_6ArcTplINS_23CompactLatticeWeightTplINS_16LatticeWeightTplIfEEiEEEEEE, 
                       __ZTIN3fst22MutableArcIteratorBaseINS_9GallicArcINS_6ArcTplINS_12LogWeightTplIfEEEELNS_10GallicTypeE0EEEEE, 
                       __ZTIN3fst3FstINS_10ReverseArcINS_6ArcTplINS_12LogWeightTplIfEEEEEEEE, 
                       __ZTIN3fst3FstINS_10ReverseArcINS_6ArcTplINS_17TropicalWeightTplIfEEEEEEEE, 
                       __ZTIN3fst3FstINS_10ReverseArcINS_9GallicArcINS_6ArcTplINS_12LogWeightTplIfEEEELNS_10GallicTypeE0EEEEEEE, 
                       __ZTIN3fst3FstINS_6ArcTplINS_12LogWeightTplIfEEEEEE, __ZTIN3fst3FstINS_6ArcTplINS_16LatticeWeightTplIfEEEEEE, 
                       __ZTIN3fst3FstINS_6ArcTplINS_17TropicalWeightTplIfEEEEEE, 
                       __ZTIN3fst3FstINS_6ArcTplINS_23CompactLatticeWeightTplINS_16LatticeWeightTplIfEEiEEEEEE, 
                       __ZTIN3fst3FstINS_9GallicArcINS_6ArcTplINS_12LogWeightTplIfEEEELNS_10GallicTypeE0EEEEE, 
                       __ZTIN3fst7FstImplINS_10ReverseArcINS_6ArcTplINS_12LogWeightTplIfEEEEEEEE, 
                       __ZTIN3fst7FstImplINS_10ReverseArcINS_6ArcTplINS_17TropicalWeightTplIfEEEEEEEE, 
                       __ZTIN3fst7FstImplINS_10ReverseArcINS_9GallicArcINS_6ArcTplINS_12LogWeightTplIfEEEELNS_10GallicTypeE0EEEEEEE, 
                       __ZTIN3fst7FstImplINS_6ArcTplINS_12LogWeightTplIfEEEEEE, __ZTIN3fst7FstImplINS_6ArcTplINS_16LatticeWeightTplIfEEEEEE, 
                       __ZTIN3fst7FstImplINS_6ArcTplINS_17TropicalWeightTplIfEEEEEE, 
                       __ZTIN3fst7FstImplINS_6ArcTplINS_23CompactLatticeWeightTplINS_16LatticeWeightTplIfEEiEEEEEE, 
                       __ZTIN3fst7FstImplINS_9GallicArcINS_6ArcTplINS_12LogWeightTplIfEEEELNS_10GallicTypeE0EEEEE, 
                       __ZTIN3fst8SccQueueIiNS_9QueueBaseIiEEEE, __ZTIN3fst9ArcMapFstINS_6ArcTplINS_12LogWeightTplIfEEEENS_9GallicArcIS4_LNS_10GallicTypeE0EEENS_14ToGallicMapperIS4_LS6_0EEEEE, 
                       __ZTIN3fst9ArcMapFstINS_6ArcTplINS_12LogWeightTplIfEEEES4_NS_14RmWeightMapperIS4_S4_EEEE, 
                       __ZTIN3fst9ArcMapFstINS_6ArcTplINS_16LatticeWeightTplIfEEEES4_NS_13ProjectMapperIS4_EEEE, 
                       __ZTIN3fst9ArcMapFstINS_6ArcTplINS_16LatticeWeightTplIfEEEES4_NS_14RmWeightMapperIS4_S4_EEEE, 
                       __ZTIN3fst9AutoQueueIiEE, __ZTIN3fst9CacheImplINS_6ArcTplINS_12LogWeightTplIfEEEEEE, 
                       __ZTIN3fst9CacheImplINS_6ArcTplINS_16LatticeWeightTplIfEEEEEE, 
                       __ZTIN3fst9CacheImplINS_6ArcTplINS_17TropicalWeightTplIfEEEEEE, 
                       __ZTIN3fst9CacheImplINS_9GallicArcINS_6ArcTplINS_12LogWeightTplIfEEEELNS_10GallicTypeE0EEEEE, 
                       __ZTIN3fst9FifoQueueIiEE, __ZTIN3fst9ImplToFstINS_13ArcMapFstImplINS_6ArcTplINS_12LogWeightTplIfEEEENS_9GallicArcIS5_LNS_10GallicTypeE0EEENS_14ToGallicMapperIS5_LS7_0EEEEENS_3FstIS8_EEEE, 
                       __ZTIN3fst9ImplToFstINS_13ArcMapFstImplINS_6ArcTplINS_12LogWeightTplIfEEEES5_NS_14RmWeightMapperIS5_S5_EEEENS_3FstIS5_EEEE, 
                       __ZTIN3fst9ImplToFstINS_13ArcMapFstImplINS_6ArcTplINS_16LatticeWeightTplIfEEEES5_NS_13ProjectMapperIS5_EEEENS_3FstIS5_EEEE, 
                       __ZTIN3fst9ImplToFstINS_13ArcMapFstImplINS_6ArcTplINS_16LatticeWeightTplIfEEEES5_NS_14RmWeightMapperIS5_S5_EEEENS_3FstIS5_EEEE, 
                       __ZTIN3fst9ImplToFstINS_13VectorFstImplINS_11VectorStateINS_10ReverseArcINS_6ArcTplINS_12LogWeightTplIfEEEEEENSt3__19allocatorIS8_EEEEEENS_10MutableFstIS8_EEEE, 
                       __ZTIN3fst9ImplToFstINS_13VectorFstImplINS_11VectorStateINS_10ReverseArcINS_6ArcTplINS_17TropicalWeightTplIfEEEEEENSt3__19allocatorIS8_EEEEEENS_10MutableFstIS8_EEEE, 
                       __ZTIN3fst9ImplToFstINS_13VectorFstImplINS_11VectorStateINS_10ReverseArcINS_9GallicArcINS_6ArcTplINS_12LogWeightTplIfEEEELNS_10GallicTypeE0EEEEENSt3__19allocatorISB_EEEEEENS_10MutableFstISB_EEEE, 
                       __ZTIN3fst9ImplToFstINS_13VectorFstImplINS_11VectorStateINS_6ArcTplINS_12LogWeightTplIfEEEENSt3__19allocatorIS6_EEEEEENS_10MutableFstIS6_EEEE, 
                       __ZTIN3fst9ImplToFstINS_13VectorFstImplINS_11VectorStateINS_6ArcTplINS_16LatticeWeightTplIfEEEENSt3__19allocatorIS6_EEEEEENS_10MutableFstIS6_EEEE, 
                       __ZTIN3fst9ImplToFstINS_13VectorFstImplINS_11VectorStateINS_6ArcTplINS_17TropicalWeightTplIfEEEENSt3__19allocatorIS6_EEEEEENS_10MutableFstIS6_EEEE, 
                       __ZTIN3fst9ImplToFstINS_13VectorFstImplINS_11VectorStateINS_6ArcTplINS_23CompactLatticeWeightTplINS_16LatticeWeightTplIfEEiEEEENSt3__19allocatorIS8_EEEEEENS_10MutableFstIS8_EEEE, 
                       __ZTIN3fst9ImplToFstINS_13VectorFstImplINS_11VectorStateINS_9GallicArcINS_6ArcTplINS_12LogWeightTplIfEEEELNS_10GallicTypeE0EEENSt3__19allocatorIS9_EEEEEENS_10MutableFstIS9_EEEE, 
                       __ZTIN3fst9ImplToFstINS_15StateMapFstImplINS_6ArcTplINS_16LatticeWeightTplIfEEEES5_NS_13ArcSortMapperIS5_NS_13ILabelCompareIS5_EEEEEENS_3FstIS5_EEEE, 
                       __ZTIN3fst9ImplToFstINS_18ComposeFstImplBaseINS_6ArcTplINS_16LatticeWeightTplIfEEEENS_17DefaultCacheStoreIS5_EEEENS_3FstIS5_EEEE, 
                       __ZTIN3fst9ImplToFstINS_18ComposeFstImplBaseINS_6ArcTplINS_17TropicalWeightTplIfEEEENS_17DefaultCacheStoreIS5_EEEENS_3FstIS5_EEEE, 
                       __ZTIN3fst9ImplToFstINS_19FactorWeightFstImplINS_9GallicArcINS_6ArcTplINS_12LogWeightTplIfEEEELNS_10GallicTypeE0EEENS_12GallicFactorIiS5_LS7_0EEEEENS_3FstIS8_EEEE, 
                       __ZTIN3fst9LifoQueueIiEE, __ZTIN3fst9QueueBaseIiEE, __ZTIN3fst9VectorFstINS_10ReverseArcINS_6ArcTplINS_12LogWeightTplIfEEEEEENS_11VectorStateIS6_NSt3__19allocatorIS6_EEEEEE, 
                       __ZTIN3fst9VectorFstINS_10ReverseArcINS_6ArcTplINS_17TropicalWeightTplIfEEEEEENS_11VectorStateIS6_NSt3__19allocatorIS6_EEEEEE, 
                       __ZTIN3fst9VectorFstINS_10ReverseArcINS_9GallicArcINS_6ArcTplINS_12LogWeightTplIfEEEELNS_10GallicTypeE0EEEEENS_11VectorStateIS9_NSt3__19allocatorIS9_EEEEEE, 
                       __ZTIN3fst9VectorFstINS_6ArcTplINS_16LatticeWeightTplIfEEEENS_11VectorStateIS4_NSt3__19allocatorIS4_EEEEEE, 
                       __ZTIN3fst9VectorFstINS_6ArcTplINS_23CompactLatticeWeightTplINS_16LatticeWeightTplIfEEiEEEENS_11VectorStateIS6_NSt3__19allocatorIS6_EEEEEE, 
                       __ZTIN3fst9VectorFstINS_9GallicArcINS_6ArcTplINS_12LogWeightTplIfEEEELNS_10GallicTypeE0EEENS_11VectorStateIS7_NSt3__19allocatorIS7_EEEEEE, 
                       __ZTIN5boost10wrapexceptINS_17bad_function_callEEE, __ZTIN5boost16exception_detail10clone_baseE, 
                       __ZTIN5boost17bad_function_callE, __ZTIN5boost9algorithm6detail13token_finderFINS1_10is_any_ofFIcEEEE, 
                       __ZTIN5boost9exceptionE, __ZTIN5kaldi11CuSubMatrixIdEE, __ZTIN5kaldi11CuSubMatrixIfEE, 
                       __ZTIN5kaldi11CuSubVectorIdEE, __ZTIN5kaldi11CuSubVectorIfEE, 
                       __ZTIN5kaldi13basic_pipebufIcEE, __ZTIN5kaldi19TableWriterBothImplINS_17KaldiObjectHolderINS_6VectorIfEEEEEE, 
                       __ZTIN5kaldi19TableWriterImplBaseINS_17KaldiObjectHolderINS_6VectorIfEEEEEE, 
                       __ZTIN5kaldi21TableWriterScriptImplINS_17KaldiObjectHolderINS_6VectorIfEEEEEE, 
                       __ZTIN5kaldi22TableWriterArchiveImplINS_17KaldiObjectHolderINS_6VectorIfEEEEEE, 
                       __ZTIN5kaldi29SequentialTableReaderImplBaseINS_17KaldiObjectHolderINS_6VectorIfEEEEEE, 
                       __ZTIN5kaldi31SequentialTableReaderScriptImplINS_17KaldiObjectHolderINS_6VectorIfEEEEEE, 
                       __ZTIN5kaldi32SequentialTableReaderArchiveImplINS_17KaldiObjectHolderINS_6VectorIfEEEEEE, 
                       __ZTIN5kaldi5nnet124QuantizedAffineTransformIaEE, __ZTIN5kaldi5nnet124QuantizedAffineTransformIsEE, 
                       __ZTIN5kaldi5nnet134VectorwiseQuantizedAffineTransformIaEE, 
                       __ZTIN5kaldi5nnet134VectorwiseQuantizedAffineTransformIsEE, 
                       __ZTIN8nlohmann6detail10type_errorE, __ZTIN8nlohmann6detail11other_errorE, 
                       __ZTIN8nlohmann6detail11parse_errorE, __ZTIN8nlohmann6detail12out_of_rangeE, 
                       __ZTIN8nlohmann6detail16invalid_iteratorE, __ZTIN8nlohmann6detail21output_stream_adapterIcEE, 
                       __ZTIN8nlohmann6detail23output_adapter_protocolIcEE, __ZTIN8nlohmann6detail9exceptionE, 
                       __ZTINSt3__110__function6__baseIFNS_12basic_stringIcNS_11char_traitsIcEENS_9allocatorIcEEEERKS7_EEE, 
                       __ZTINSt3__110__function6__baseIFPK17espresso_buffer_tS4_RKNS_12basic_stringIcNS_11char_traitsIcEENS_9allocatorIcEEEESC_EEE, 
                       __ZTINSt3__110__function6__baseIFiN7SiriTTS10TTSTrainer15CallbackMessageEEEE, 
                       __ZTINSt3__110__function6__baseIFmmPfEEE, __ZTINSt3__110__function6__funcIU8__strongU13block_pointerFiN7SiriTTS10TTSTrainer15CallbackMessageEENS_9allocatorIS7_EES5_EE, 
                       __ZTINSt3__117bad_function_callE, __ZTINSt3__120__shared_ptr_emplaceI12SpeechEnergyNS_9allocatorIS1_EEEE, 
                       __ZTINSt3__120__shared_ptr_emplaceI13PreprocessingNS_9allocatorIS1_EEEE, 
                       __ZTINSt3__120__shared_ptr_emplaceI14CheckpointableNS_9allocatorIS1_EEEE, 
                       __ZTINSt3__120__shared_ptr_emplaceI14TrainingEngineNS_9allocatorIS1_EEEE, 
                       __ZTINSt3__120__shared_ptr_emplaceI15InferenceModuleNS_9allocatorIS1_EEEE, 
                       __ZTINSt3__120__shared_ptr_emplaceI16TrainingEngineV2NS_9allocatorIS1_EEEE, 
                       __ZTINSt3__120__shared_ptr_emplaceI17WaveRNNDataFeederNS_9allocatorIS1_EEEE, 
                       __ZTINSt3__120__shared_ptr_emplaceI17WaveRNNEspressoIONS_9allocatorIS1_EEEE, 
                       __ZTINSt3__120__shared_ptr_emplaceI18NeuralFEDataFeederNS_9allocatorIS1_EEEE, 
                       __ZTINSt3__120__shared_ptr_emplaceI18NeuralFEEspressoIONS_9allocatorIS1_EEEE, 
                       __ZTINSt3__120__shared_ptr_emplaceI19WaveRNNDataFeederV2NS_9allocatorIS1_EEEE, 
                       __ZTINSt3__120__shared_ptr_emplaceI19WaveRNNModelIONamesNS_9allocatorIS1_EEEE, 
                       __ZTINSt3__120__shared_ptr_emplaceI21BNNSNDArrayDescriptorNS_9allocatorIS1_EEEE, 
                       __ZTINSt3__120__shared_ptr_emplaceI25SpeakerNeuralFEEspressoIONS_9allocatorIS1_EEEE, 
                       __ZTINSt3__120__shared_ptr_emplaceI30WaveRNNDecoupledInferenceModelNS_9allocatorIS1_EEEE, 
                       __ZTINSt3__120__shared_ptr_emplaceI33ParallelAMDecoupledInferenceModelNS_9allocatorIS1_EEEE, 
                       __ZTINSt3__120__shared_ptr_emplaceI3MelNS_9allocatorIS1_EEEE, 
                       __ZTINSt3__120__shared_ptr_emplaceIN15InferenceEngine10DataTensorENS_9allocatorIS2_EEEE, 
                       __ZTINSt3__120__shared_ptr_emplaceIN15InferenceEngine13Mil2BnnsMilIOENS_9allocatorIS2_EEEE, 
                       __ZTINSt3__120__shared_ptr_emplaceIN15InferenceEngine25Mil2BnnsMilInferenceModelENS_9allocatorIS2_EEEE, 
                       __ZTINSt3__120__shared_ptr_emplaceIN15InferenceEngine5MilIOENS_9allocatorIS2_EEEE, 
                       __ZTINSt3__120__shared_ptr_emplaceIN17WaveRNNDataFeeder14OneBatchReaderENS_9allocatorIS2_EEEE, 
                       __ZTINSt3__120__shared_ptr_emplaceIN19WaveRNNDataFeederV214OneBatchReaderENS_9allocatorIS2_EEEE, 
                       __ZTINSt3__120__shared_ptr_emplaceIN3fst11SymbolTableENS_9allocatorIS2_EEEE, 
                       __ZTINSt3__120__shared_ptr_emplaceIN3fst7ArcInfoENS_9allocatorIS2_EEEE, 
                       __ZTINSt3__120__shared_ptr_emplaceIN3fst9VectorFstINS1_6ArcTplINS1_17TropicalWeightTplIfEEEENS1_11VectorStateIS6_NS_9allocatorIS6_EEEEEENS8_ISB_EEEE, 
                       __ZTINSt3__120__shared_ptr_emplaceIN5kaldi10SnrTrackerENS_9allocatorIS2_EEEE, 
                       __ZTINSt3__120__shared_ptr_emplaceIN5kaldi15TransitionModelENS_9allocatorIS2_EEEE, 
                       __ZTINSt3__120__shared_ptr_emplaceIN5kaldi17ContextDependencyENS_9allocatorIS2_EEEE, 
                       __ZTINSt3__120__shared_ptr_emplaceIN5kaldi21TrainingGraphCompilerENS_9allocatorIS2_EEEE, 
                       __ZTINSt3__120__shared_ptr_emplaceIN5kaldi5nnet117Nnet1InferenceNetENS_9allocatorIS3_EEEE, 
                       __ZTINSt3__120__shared_ptr_emplaceIN7SiriTTS13SpeechFeature22SpeechFeatureExtractorENS_9allocatorIS3_EEEE, 
                       __ZTINSt3__120__shared_ptr_emplaceIN7SiriTTS15ForcedAlignment13AcousticModelENS_9allocatorIS3_EEEE, 
                       __ZTINSt3__120__shared_ptr_emplaceIN7SiriTTS15ForcedAlignment15EspressoSessionENS_9allocatorIS3_EEEE, 
                       __ZTINSt3__120__shared_ptr_emplaceIN7SiriTTS15ForcedAlignment15ForcedAlignmentENS_9allocatorIS3_EEEE, 
                       __ZTINSt3__120__shared_ptr_emplaceIN7SiriTTS15ForcedAlignment16FeatureTransformENS_9allocatorIS3_EEEE, 
                       __ZTINSt3__120__shared_ptr_emplaceIN7SiriTTS15ForcedAlignment8PdfPriorENS_9allocatorIS3_EEEE, 
                       __ZTINSt3__120__shared_ptr_emplaceIN8nlohmann6detail21output_stream_adapterIcEENS_9allocatorIS4_EEEE, 
                       __ZTINSt3__120__shared_ptr_pointerIPN5kaldi15TransitionModelENS_10shared_ptrIS2_E27__shared_ptr_default_deleteIS2_S2_EENS_9allocatorIS2_EEEE, 
                       __ZTINSt3__120__shared_ptr_pointerIPN5kaldi5nnet114XentSmoothVarsENS_10shared_ptrIS3_E27__shared_ptr_default_deleteIS3_S3_EENS_9allocatorIS3_EEEE, 
                       __ZTINSt3__120__shared_ptr_pointerIPN5kaldi5nnet18PdfPriorENS_10shared_ptrIS3_E27__shared_ptr_default_deleteIS3_S3_EENS_9allocatorIS3_EEEE, 
                       __ZTINSt3__120__shared_ptr_pointerIPN7SiriTTS10TTSTrainerENS_14default_deleteIS2_EENS_9allocatorIS2_EEEE, 
                       __ZTINSt3__15dequeIiNS_9allocatorIiEEEE, __ZTIU13block_pointerFiN7SiriTTS10TTSTrainer15CallbackMessageEE, 
                       __ZTS10DataFeeder, __ZTS11PCMByteSwapIiE, __ZTS11PCMByteSwapIsE, 
                       __ZTS12ModelIONames, __ZTS12PCMPackInt24ILb0EE, __ZTS12PCMPackInt24ILb1EE, 
                       __ZTS14PCMScaleSampleIffE, __ZTS14PCMScaleSampleIfiE, __ZTS14PCMScaleSampleIfsE, 
                       __ZTS14PCMScaleSampleIifE, __ZTS14PCMScaleSampleIisE, __ZTS14PCMScaleSampleIsfE, 
                       __ZTS14PCMScaleSampleIsiE, __ZTS15PCMDeinterleaveIiE, __ZTS15PCMDeinterleaveIsE, 
                       __ZTS15PCMExtractInt24IfLb0EE, __ZTS15PCMExtractInt24IfLb1EE, 
                       __ZTS15PCMExtractInt24IiLb0EE, __ZTS15PCMExtractInt24IiLb1EE, 
                       __ZTS15PCMExtractInt24IsLb0EE, __ZTS15PCMExtractInt24IsLb1EE, 
                       __ZTS19EspressoIOContainer, __ZTSN15InferenceEngine5MilIOE, 
                       __ZTSN3fst10ArcSortFstINS_6ArcTplINS_16LatticeWeightTplIfEEEENS_13ILabelCompareIS4_EEEE, 
                       __ZTSN3fst10ComposeFstINS_6ArcTplINS_16LatticeWeightTplIfEEEENS_17DefaultCacheStoreIS4_EEEE, 
                       __ZTSN3fst10ComposeFstINS_6ArcTplINS_17TropicalWeightTplIfEEEENS_17DefaultCacheStoreIS4_EEEE, 
                       __ZTSN3fst10ContextFstINS_6ArcTplINS_17TropicalWeightTplIfEEEEiEE, 
                       __ZTSN3fst10MemoryPoolINS_11ArcIteratorINS_3FstINS_6ArcTplINS_16LatticeWeightTplIfEEEEEEEEEE, 
                       __ZTSN3fst10MemoryPoolINS_11ArcIteratorINS_3FstINS_6ArcTplINS_17TropicalWeightTplIfEEEEEEEEEE, 
                       __ZTSN3fst10MemoryPoolINS_13PoolAllocatorINS_10CacheStateINS_6ArcTplINS_12LogWeightTplIfEEEENS1_IS6_EEEEE2TNILi16EEEEE, 
                       __ZTSN3fst10MemoryPoolINS_13PoolAllocatorINS_10CacheStateINS_6ArcTplINS_12LogWeightTplIfEEEENS1_IS6_EEEEE2TNILi1EEEEE, 
                       __ZTSN3fst10MemoryPoolINS_13PoolAllocatorINS_10CacheStateINS_6ArcTplINS_12LogWeightTplIfEEEENS1_IS6_EEEEE2TNILi2EEEEE, 
                       __ZTSN3fst10MemoryPoolINS_13PoolAllocatorINS_10CacheStateINS_6ArcTplINS_12LogWeightTplIfEEEENS1_IS6_EEEEE2TNILi32EEEEE, 
                       __ZTSN3fst10MemoryPoolINS_13PoolAllocatorINS_10CacheStateINS_6ArcTplINS_12LogWeightTplIfEEEENS1_IS6_EEEEE2TNILi4EEEEE, 
                       __ZTSN3fst10MemoryPoolINS_13PoolAllocatorINS_10CacheStateINS_6ArcTplINS_12LogWeightTplIfEEEENS1_IS6_EEEEE2TNILi64EEEEE, 
                       __ZTSN3fst10MemoryPoolINS_13PoolAllocatorINS_10CacheStateINS_6ArcTplINS_12LogWeightTplIfEEEENS1_IS6_EEEEE2TNILi8EEEEE, 
                       __ZTSN3fst10MemoryPoolINS_13PoolAllocatorINS_10CacheStateINS_6ArcTplINS_16LatticeWeightTplIfEEEENS1_IS6_EEEEE2TNILi16EEEEE, 
                       __ZTSN3fst10MemoryPoolINS_13PoolAllocatorINS_10CacheStateINS_6ArcTplINS_16LatticeWeightTplIfEEEENS1_IS6_EEEEE2TNILi1EEEEE, 
                       __ZTSN3fst10MemoryPoolINS_13PoolAllocatorINS_10CacheStateINS_6ArcTplINS_16LatticeWeightTplIfEEEENS1_IS6_EEEEE2TNILi2EEEEE, 
                       __ZTSN3fst10MemoryPoolINS_13PoolAllocatorINS_10CacheStateINS_6ArcTplINS_16LatticeWeightTplIfEEEENS1_IS6_EEEEE2TNILi32EEEEE, 
                       __ZTSN3fst10MemoryPoolINS_13PoolAllocatorINS_10CacheStateINS_6ArcTplINS_16LatticeWeightTplIfEEEENS1_IS6_EEEEE2TNILi4EEEEE, 
                       __ZTSN3fst10MemoryPoolINS_13PoolAllocatorINS_10CacheStateINS_6ArcTplINS_16LatticeWeightTplIfEEEENS1_IS6_EEEEE2TNILi64EEEEE, 
                       __ZTSN3fst10MemoryPoolINS_13PoolAllocatorINS_10CacheStateINS_6ArcTplINS_16LatticeWeightTplIfEEEENS1_IS6_EEEEE2TNILi8EEEEE, 
                       __ZTSN3fst10MemoryPoolINS_13PoolAllocatorINS_10CacheStateINS_6ArcTplINS_17TropicalWeightTplIfEEEENS1_IS6_EEEEE2TNILi16EEEEE, 
                       __ZTSN3fst10MemoryPoolINS_13PoolAllocatorINS_10CacheStateINS_6ArcTplINS_17TropicalWeightTplIfEEEENS1_IS6_EEEEE2TNILi1EEEEE, 
                       __ZTSN3fst10MemoryPoolINS_13PoolAllocatorINS_10CacheStateINS_6ArcTplINS_17TropicalWeightTplIfEEEENS1_IS6_EEEEE2TNILi2EEEEE, 
                       __ZTSN3fst10MemoryPoolINS_13PoolAllocatorINS_10CacheStateINS_6ArcTplINS_17TropicalWeightTplIfEEEENS1_IS6_EEEEE2TNILi32EEEEE, 
                       __ZTSN3fst10MemoryPoolINS_13PoolAllocatorINS_10CacheStateINS_6ArcTplINS_17TropicalWeightTplIfEEEENS1_IS6_EEEEE2TNILi4EEEEE, 
                       __ZTSN3fst10MemoryPoolINS_13PoolAllocatorINS_10CacheStateINS_6ArcTplINS_17TropicalWeightTplIfEEEENS1_IS6_EEEEE2TNILi64EEEEE, 
                       __ZTSN3fst10MemoryPoolINS_13PoolAllocatorINS_10CacheStateINS_6ArcTplINS_17TropicalWeightTplIfEEEENS1_IS6_EEEEE2TNILi8EEEEE, 
                       __ZTSN3fst10MemoryPoolINS_13PoolAllocatorINS_10CacheStateINS_9GallicArcINS_6ArcTplINS_12LogWeightTplIfEEEELNS_10GallicTypeE0EEENS1_IS9_EEEEE2TNILi16EEEEE, 
                       __ZTSN3fst10MemoryPoolINS_13PoolAllocatorINS_10CacheStateINS_9GallicArcINS_6ArcTplINS_12LogWeightTplIfEEEELNS_10GallicTypeE0EEENS1_IS9_EEEEE2TNILi1EEEEE, 
                       __ZTSN3fst10MemoryPoolINS_13PoolAllocatorINS_10CacheStateINS_9GallicArcINS_6ArcTplINS_12LogWeightTplIfEEEELNS_10GallicTypeE0EEENS1_IS9_EEEEE2TNILi2EEEEE, 
                       __ZTSN3fst10MemoryPoolINS_13PoolAllocatorINS_10CacheStateINS_9GallicArcINS_6ArcTplINS_12LogWeightTplIfEEEELNS_10GallicTypeE0EEENS1_IS9_EEEEE2TNILi32EEEEE, 
                       __ZTSN3fst10MemoryPoolINS_13PoolAllocatorINS_10CacheStateINS_9GallicArcINS_6ArcTplINS_12LogWeightTplIfEEEELNS_10GallicTypeE0EEENS1_IS9_EEEEE2TNILi4EEEEE, 
                       __ZTSN3fst10MemoryPoolINS_13PoolAllocatorINS_10CacheStateINS_9GallicArcINS_6ArcTplINS_12LogWeightTplIfEEEELNS_10GallicTypeE0EEENS1_IS9_EEEEE2TNILi64EEEEE, 
                       __ZTSN3fst10MemoryPoolINS_13PoolAllocatorINS_10CacheStateINS_9GallicArcINS_6ArcTplINS_12LogWeightTplIfEEEELNS_10GallicTypeE0EEENS1_IS9_EEEEE2TNILi8EEEEE, 
                       __ZTSN3fst10MemoryPoolINS_13PoolAllocatorINS_6ArcTplINS_12LogWeightTplIfEEEEE2TNILi16EEEEE, 
                       __ZTSN3fst10MemoryPoolINS_13PoolAllocatorINS_6ArcTplINS_12LogWeightTplIfEEEEE2TNILi1EEEEE, 
                       __ZTSN3fst10MemoryPoolINS_13PoolAllocatorINS_6ArcTplINS_12LogWeightTplIfEEEEE2TNILi2EEEEE, 
                       __ZTSN3fst10MemoryPoolINS_13PoolAllocatorINS_6ArcTplINS_12LogWeightTplIfEEEEE2TNILi32EEEEE, 
                       __ZTSN3fst10MemoryPoolINS_13PoolAllocatorINS_6ArcTplINS_12LogWeightTplIfEEEEE2TNILi4EEEEE, 
                       __ZTSN3fst10MemoryPoolINS_13PoolAllocatorINS_6ArcTplINS_12LogWeightTplIfEEEEE2TNILi64EEEEE, 
                       __ZTSN3fst10MemoryPoolINS_13PoolAllocatorINS_6ArcTplINS_12LogWeightTplIfEEEEE2TNILi8EEEEE, 
                       __ZTSN3fst10MemoryPoolINS_13PoolAllocatorINS_6ArcTplINS_16LatticeWeightTplIfEEEEE2TNILi16EEEEE, 
                       __ZTSN3fst10MemoryPoolINS_13PoolAllocatorINS_6ArcTplINS_16LatticeWeightTplIfEEEEE2TNILi1EEEEE, 
                       __ZTSN3fst10MemoryPoolINS_13PoolAllocatorINS_6ArcTplINS_16LatticeWeightTplIfEEEEE2TNILi2EEEEE, 
                       __ZTSN3fst10MemoryPoolINS_13PoolAllocatorINS_6ArcTplINS_16LatticeWeightTplIfEEEEE2TNILi32EEEEE, 
                       __ZTSN3fst10MemoryPoolINS_13PoolAllocatorINS_6ArcTplINS_16LatticeWeightTplIfEEEEE2TNILi4EEEEE, 
                       __ZTSN3fst10MemoryPoolINS_13PoolAllocatorINS_6ArcTplINS_16LatticeWeightTplIfEEEEE2TNILi64EEEEE, 
                       __ZTSN3fst10MemoryPoolINS_13PoolAllocatorINS_6ArcTplINS_16LatticeWeightTplIfEEEEE2TNILi8EEEEE, 
                       __ZTSN3fst10MemoryPoolINS_13PoolAllocatorINS_6ArcTplINS_17TropicalWeightTplIfEEEEE2TNILi16EEEEE, 
                       __ZTSN3fst10MemoryPoolINS_13PoolAllocatorINS_6ArcTplINS_17TropicalWeightTplIfEEEEE2TNILi1EEEEE, 
                       __ZTSN3fst10MemoryPoolINS_13PoolAllocatorINS_6ArcTplINS_17TropicalWeightTplIfEEEEE2TNILi2EEEEE, 
                       __ZTSN3fst10MemoryPoolINS_13PoolAllocatorINS_6ArcTplINS_17TropicalWeightTplIfEEEEE2TNILi32EEEEE, 
                       __ZTSN3fst10MemoryPoolINS_13PoolAllocatorINS_6ArcTplINS_17TropicalWeightTplIfEEEEE2TNILi4EEEEE, 
                       __ZTSN3fst10MemoryPoolINS_13PoolAllocatorINS_6ArcTplINS_17TropicalWeightTplIfEEEEE2TNILi64EEEEE, 
                       __ZTSN3fst10MemoryPoolINS_13PoolAllocatorINS_6ArcTplINS_17TropicalWeightTplIfEEEEE2TNILi8EEEEE, 
                       __ZTSN3fst10MemoryPoolINS_13PoolAllocatorINS_9GallicArcINS_6ArcTplINS_12LogWeightTplIfEEEELNS_10GallicTypeE0EEEE2TNILi16EEEEE, 
                       __ZTSN3fst10MemoryPoolINS_13PoolAllocatorINS_9GallicArcINS_6ArcTplINS_12LogWeightTplIfEEEELNS_10GallicTypeE0EEEE2TNILi1EEEEE, 
                       __ZTSN3fst10MemoryPoolINS_13PoolAllocatorINS_9GallicArcINS_6ArcTplINS_12LogWeightTplIfEEEELNS_10GallicTypeE0EEEE2TNILi2EEEEE, 
                       __ZTSN3fst10MemoryPoolINS_13PoolAllocatorINS_9GallicArcINS_6ArcTplINS_12LogWeightTplIfEEEELNS_10GallicTypeE0EEEE2TNILi32EEEEE, 
                       __ZTSN3fst10MemoryPoolINS_13PoolAllocatorINS_9GallicArcINS_6ArcTplINS_12LogWeightTplIfEEEELNS_10GallicTypeE0EEEE2TNILi4EEEEE, 
                       __ZTSN3fst10MemoryPoolINS_13PoolAllocatorINS_9GallicArcINS_6ArcTplINS_12LogWeightTplIfEEEELNS_10GallicTypeE0EEEE2TNILi64EEEEE, 
                       __ZTSN3fst10MemoryPoolINS_13PoolAllocatorINS_9GallicArcINS_6ArcTplINS_12LogWeightTplIfEEEELNS_10GallicTypeE0EEEE2TNILi8EEEEE, 
                       __ZTSN3fst10MemoryPoolINS_13PoolAllocatorINSt3__111__hash_nodeIiPvEEE2TNILi16EEEEE, 
                       __ZTSN3fst10MemoryPoolINS_13PoolAllocatorINSt3__111__hash_nodeIiPvEEE2TNILi1EEEEE, 
                       __ZTSN3fst10MemoryPoolINS_13PoolAllocatorINSt3__111__hash_nodeIiPvEEE2TNILi2EEEEE, 
                       __ZTSN3fst10MemoryPoolINS_13PoolAllocatorINSt3__111__hash_nodeIiPvEEE2TNILi32EEEEE, 
                       __ZTSN3fst10MemoryPoolINS_13PoolAllocatorINSt3__111__hash_nodeIiPvEEE2TNILi4EEEEE, 
                       __ZTSN3fst10MemoryPoolINS_13PoolAllocatorINSt3__111__hash_nodeIiPvEEE2TNILi64EEEEE, 
                       __ZTSN3fst10MemoryPoolINS_13PoolAllocatorINSt3__111__hash_nodeIiPvEEE2TNILi8EEEEE, 
                       __ZTSN3fst10MemoryPoolINS_13PoolAllocatorINSt3__111__list_nodeIiPvEEE2TNILi16EEEEE, 
                       __ZTSN3fst10MemoryPoolINS_13PoolAllocatorINSt3__111__list_nodeIiPvEEE2TNILi1EEEEE, 
                       __ZTSN3fst10MemoryPoolINS_13PoolAllocatorINSt3__111__list_nodeIiPvEEE2TNILi2EEEEE, 
                       __ZTSN3fst10MemoryPoolINS_13PoolAllocatorINSt3__111__list_nodeIiPvEEE2TNILi32EEEEE, 
                       __ZTSN3fst10MemoryPoolINS_13PoolAllocatorINSt3__111__list_nodeIiPvEEE2TNILi4EEEEE, 
                       __ZTSN3fst10MemoryPoolINS_13PoolAllocatorINSt3__111__list_nodeIiPvEEE2TNILi64EEEEE, 
                       __ZTSN3fst10MemoryPoolINS_13PoolAllocatorINSt3__111__list_nodeIiPvEEE2TNILi8EEEEE, 
                       __ZTSN3fst10MemoryPoolINS_13PoolAllocatorIPNSt3__116__hash_node_baseIPNS2_11__hash_nodeIiPvEEEEE2TNILi16EEEEE, 
                       __ZTSN3fst10MemoryPoolINS_13PoolAllocatorIPNSt3__116__hash_node_baseIPNS2_11__hash_nodeIiPvEEEEE2TNILi1EEEEE, 
                       __ZTSN3fst10MemoryPoolINS_13PoolAllocatorIPNSt3__116__hash_node_baseIPNS2_11__hash_nodeIiPvEEEEE2TNILi2EEEEE, 
                       __ZTSN3fst10MemoryPoolINS_13PoolAllocatorIPNSt3__116__hash_node_baseIPNS2_11__hash_nodeIiPvEEEEE2TNILi32EEEEE, 
                       __ZTSN3fst10MemoryPoolINS_13PoolAllocatorIPNSt3__116__hash_node_baseIPNS2_11__hash_nodeIiPvEEEEE2TNILi4EEEEE, 
                       __ZTSN3fst10MemoryPoolINS_13PoolAllocatorIPNSt3__116__hash_node_baseIPNS2_11__hash_nodeIiPvEEEEE2TNILi64EEEEE, 
                       __ZTSN3fst10MemoryPoolINS_13PoolAllocatorIPNSt3__116__hash_node_baseIPNS2_11__hash_nodeIiPvEEEEE2TNILi8EEEEE, 
                       __ZTSN3fst10MemoryPoolINS_8DfsStateINS_10ReverseArcINS_6ArcTplINS_12LogWeightTplIfEEEEEEEEEE, 
                       __ZTSN3fst10MemoryPoolINS_8DfsStateINS_10ReverseArcINS_6ArcTplINS_17TropicalWeightTplIfEEEEEEEEEE, 
                       __ZTSN3fst10MemoryPoolINS_8DfsStateINS_10ReverseArcINS_9GallicArcINS_6ArcTplINS_12LogWeightTplIfEEEELNS_10GallicTypeE0EEEEEEEEE, 
                       __ZTSN3fst10MemoryPoolINS_8DfsStateINS_6ArcTplINS_12LogWeightTplIfEEEEEEEE, 
                       __ZTSN3fst10MemoryPoolINS_8DfsStateINS_6ArcTplINS_16LatticeWeightTplIfEEEEEEEE, 
                       __ZTSN3fst10MemoryPoolINS_8DfsStateINS_6ArcTplINS_17TropicalWeightTplIfEEEEEEEE, 
                       __ZTSN3fst10MemoryPoolINS_8DfsStateINS_6ArcTplINS_23CompactLatticeWeightTplINS_16LatticeWeightTplIfEEiEEEEEEEE, 
                       __ZTSN3fst10MemoryPoolINS_8DfsStateINS_9GallicArcINS_6ArcTplINS_12LogWeightTplIfEEEELNS_10GallicTypeE0EEEEEEE, 
                       __ZTSN3fst10MutableFstINS_10ReverseArcINS_6ArcTplINS_12LogWeightTplIfEEEEEEEE, 
                       __ZTSN3fst10MutableFstINS_10ReverseArcINS_6ArcTplINS_17TropicalWeightTplIfEEEEEEEE, 
                       __ZTSN3fst10MutableFstINS_10ReverseArcINS_9GallicArcINS_6ArcTplINS_12LogWeightTplIfEEEELNS_10GallicTypeE0EEEEEEE, 
                       __ZTSN3fst10MutableFstINS_6ArcTplINS_12LogWeightTplIfEEEEEE, 
                       __ZTSN3fst10MutableFstINS_6ArcTplINS_16LatticeWeightTplIfEEEEEE, 
                       __ZTSN3fst10MutableFstINS_6ArcTplINS_17TropicalWeightTplIfEEEEEE, 
                       __ZTSN3fst10MutableFstINS_6ArcTplINS_23CompactLatticeWeightTplINS_16LatticeWeightTplIfEEiEEEEEE, 
                       __ZTSN3fst10MutableFstINS_9GallicArcINS_6ArcTplINS_12LogWeightTplIfEEEELNS_10GallicTypeE0EEEEE, 
                       __ZTSN3fst10ProjectFstINS_6ArcTplINS_16LatticeWeightTplIfEEEEEE, 
                       __ZTSN3fst11ArcIteratorINS_12ArcPosingFstINS_6ArcTplINS_12LogWeightTplIfEEEENS2_INS_17TropicalWeightTplIfEEEEEEEE, 
                       __ZTSN3fst11ArcIteratorINS_12ArcPosingFstINS_6ArcTplINS_17TropicalWeightTplIfEEEENS2_INS_12LogWeightTplIfEEEEEEEE, 
                       __ZTSN3fst11ArcIteratorINS_19MutableArcPosingFstINS_6ArcTplINS_12LogWeightTplIfEEEENS2_INS_17TropicalWeightTplIfEEEEEEEE, 
                       __ZTSN3fst11ExpandedFstINS_10ReverseArcINS_6ArcTplINS_12LogWeightTplIfEEEEEEEE, 
                       __ZTSN3fst11ExpandedFstINS_10ReverseArcINS_6ArcTplINS_17TropicalWeightTplIfEEEEEEEE, 
                       __ZTSN3fst11ExpandedFstINS_10ReverseArcINS_9GallicArcINS_6ArcTplINS_12LogWeightTplIfEEEELNS_10GallicTypeE0EEEEEEE, 
                       __ZTSN3fst11ExpandedFstINS_6ArcTplINS_12LogWeightTplIfEEEEEE, 
                       __ZTSN3fst11ExpandedFstINS_6ArcTplINS_16LatticeWeightTplIfEEEEEE, 
                       __ZTSN3fst11ExpandedFstINS_6ArcTplINS_17TropicalWeightTplIfEEEEEE, 
                       __ZTSN3fst11ExpandedFstINS_6ArcTplINS_23CompactLatticeWeightTplINS_16LatticeWeightTplIfEEiEEEEEE, 
                       __ZTSN3fst11ExpandedFstINS_9GallicArcINS_6ArcTplINS_12LogWeightTplIfEEEELNS_10GallicTypeE0EEEEE, 
                       __ZTSN3fst11MatcherBaseINS_6ArcTplINS_16LatticeWeightTplIfEEEEEE, 
                       __ZTSN3fst11MatcherBaseINS_6ArcTplINS_17TropicalWeightTplIfEEEEEE, 
                       __ZTSN3fst11MemoryArenaINS_10MemoryPoolINS_11ArcIteratorINS_3FstINS_6ArcTplINS_16LatticeWeightTplIfEEEEEEEEE4LinkEEE, 
                       __ZTSN3fst11MemoryArenaINS_10MemoryPoolINS_11ArcIteratorINS_3FstINS_6ArcTplINS_17TropicalWeightTplIfEEEEEEEEE4LinkEEE, 
                       __ZTSN3fst11MemoryArenaINS_10MemoryPoolINS_13PoolAllocatorINS_10CacheStateINS_6ArcTplINS_12LogWeightTplIfEEEENS2_IS7_EEEEE2TNILi16EEEE4LinkEEE, 
                       __ZTSN3fst11MemoryArenaINS_10MemoryPoolINS_13PoolAllocatorINS_10CacheStateINS_6ArcTplINS_12LogWeightTplIfEEEENS2_IS7_EEEEE2TNILi1EEEE4LinkEEE, 
                       __ZTSN3fst11MemoryArenaINS_10MemoryPoolINS_13PoolAllocatorINS_10CacheStateINS_6ArcTplINS_12LogWeightTplIfEEEENS2_IS7_EEEEE2TNILi2EEEE4LinkEEE, 
                       __ZTSN3fst11MemoryArenaINS_10MemoryPoolINS_13PoolAllocatorINS_10CacheStateINS_6ArcTplINS_12LogWeightTplIfEEEENS2_IS7_EEEEE2TNILi32EEEE4LinkEEE, 
                       __ZTSN3fst11MemoryArenaINS_10MemoryPoolINS_13PoolAllocatorINS_10CacheStateINS_6ArcTplINS_12LogWeightTplIfEEEENS2_IS7_EEEEE2TNILi4EEEE4LinkEEE, 
                       __ZTSN3fst11MemoryArenaINS_10MemoryPoolINS_13PoolAllocatorINS_10CacheStateINS_6ArcTplINS_12LogWeightTplIfEEEENS2_IS7_EEEEE2TNILi64EEEE4LinkEEE, 
                       __ZTSN3fst11MemoryArenaINS_10MemoryPoolINS_13PoolAllocatorINS_10CacheStateINS_6ArcTplINS_12LogWeightTplIfEEEENS2_IS7_EEEEE2TNILi8EEEE4LinkEEE, 
                       __ZTSN3fst11MemoryArenaINS_10MemoryPoolINS_13PoolAllocatorINS_10CacheStateINS_6ArcTplINS_16LatticeWeightTplIfEEEENS2_IS7_EEEEE2TNILi16EEEE4LinkEEE, 
                       __ZTSN3fst11MemoryArenaINS_10MemoryPoolINS_13PoolAllocatorINS_10CacheStateINS_6ArcTplINS_16LatticeWeightTplIfEEEENS2_IS7_EEEEE2TNILi1EEEE4LinkEEE, 
                       __ZTSN3fst11MemoryArenaINS_10MemoryPoolINS_13PoolAllocatorINS_10CacheStateINS_6ArcTplINS_16LatticeWeightTplIfEEEENS2_IS7_EEEEE2TNILi2EEEE4LinkEEE, 
                       __ZTSN3fst11MemoryArenaINS_10MemoryPoolINS_13PoolAllocatorINS_10CacheStateINS_6ArcTplINS_16LatticeWeightTplIfEEEENS2_IS7_EEEEE2TNILi32EEEE4LinkEEE, 
                       __ZTSN3fst11MemoryArenaINS_10MemoryPoolINS_13PoolAllocatorINS_10CacheStateINS_6ArcTplINS_16LatticeWeightTplIfEEEENS2_IS7_EEEEE2TNILi4EEEE4LinkEEE, 
                       __ZTSN3fst11MemoryArenaINS_10MemoryPoolINS_13PoolAllocatorINS_10CacheStateINS_6ArcTplINS_16LatticeWeightTplIfEEEENS2_IS7_EEEEE2TNILi64EEEE4LinkEEE, 
                       __ZTSN3fst11MemoryArenaINS_10MemoryPoolINS_13PoolAllocatorINS_10CacheStateINS_6ArcTplINS_16LatticeWeightTplIfEEEENS2_IS7_EEEEE2TNILi8EEEE4LinkEEE, 
                       __ZTSN3fst11MemoryArenaINS_10MemoryPoolINS_13PoolAllocatorINS_10CacheStateINS_6ArcTplINS_17TropicalWeightTplIfEEEENS2_IS7_EEEEE2TNILi16EEEE4LinkEEE, 
                       __ZTSN3fst11MemoryArenaINS_10MemoryPoolINS_13PoolAllocatorINS_10CacheStateINS_6ArcTplINS_17TropicalWeightTplIfEEEENS2_IS7_EEEEE2TNILi1EEEE4LinkEEE, 
                       __ZTSN3fst11MemoryArenaINS_10MemoryPoolINS_13PoolAllocatorINS_10CacheStateINS_6ArcTplINS_17TropicalWeightTplIfEEEENS2_IS7_EEEEE2TNILi2EEEE4LinkEEE, 
                       __ZTSN3fst11MemoryArenaINS_10MemoryPoolINS_13PoolAllocatorINS_10CacheStateINS_6ArcTplINS_17TropicalWeightTplIfEEEENS2_IS7_EEEEE2TNILi32EEEE4LinkEEE, 
                       __ZTSN3fst11MemoryArenaINS_10MemoryPoolINS_13PoolAllocatorINS_10CacheStateINS_6ArcTplINS_17TropicalWeightTplIfEEEENS2_IS7_EEEEE2TNILi4EEEE4LinkEEE, 
                       __ZTSN3fst11MemoryArenaINS_10MemoryPoolINS_13PoolAllocatorINS_10CacheStateINS_6ArcTplINS_17TropicalWeightTplIfEEEENS2_IS7_EEEEE2TNILi64EEEE4LinkEEE, 
                       __ZTSN3fst11MemoryArenaINS_10MemoryPoolINS_13PoolAllocatorINS_10CacheStateINS_6ArcTplINS_17TropicalWeightTplIfEEEENS2_IS7_EEEEE2TNILi8EEEE4LinkEEE, 
                       __ZTSN3fst11MemoryArenaINS_10MemoryPoolINS_13PoolAllocatorINS_10CacheStateINS_9GallicArcINS_6ArcTplINS_12LogWeightTplIfEEEELNS_10GallicTypeE0EEENS2_ISA_EEEEE2TNILi16EEEE4LinkEEE, 
                       __ZTSN3fst11MemoryArenaINS_10MemoryPoolINS_13PoolAllocatorINS_10CacheStateINS_9GallicArcINS_6ArcTplINS_12LogWeightTplIfEEEELNS_10GallicTypeE0EEENS2_ISA_EEEEE2TNILi1EEEE4LinkEEE, 
                       __ZTSN3fst11MemoryArenaINS_10MemoryPoolINS_13PoolAllocatorINS_10CacheStateINS_9GallicArcINS_6ArcTplINS_12LogWeightTplIfEEEELNS_10GallicTypeE0EEENS2_ISA_EEEEE2TNILi2EEEE4LinkEEE, 
                       __ZTSN3fst11MemoryArenaINS_10MemoryPoolINS_13PoolAllocatorINS_10CacheStateINS_9GallicArcINS_6ArcTplINS_12LogWeightTplIfEEEELNS_10GallicTypeE0EEENS2_ISA_EEEEE2TNILi32EEEE4LinkEEE, 
                       __ZTSN3fst11MemoryArenaINS_10MemoryPoolINS_13PoolAllocatorINS_10CacheStateINS_9GallicArcINS_6ArcTplINS_12LogWeightTplIfEEEELNS_10GallicTypeE0EEENS2_ISA_EEEEE2TNILi4EEEE4LinkEEE, 
                       __ZTSN3fst11MemoryArenaINS_10MemoryPoolINS_13PoolAllocatorINS_10CacheStateINS_9GallicArcINS_6ArcTplINS_12LogWeightTplIfEEEELNS_10GallicTypeE0EEENS2_ISA_EEEEE2TNILi64EEEE4LinkEEE, 
                       __ZTSN3fst11MemoryArenaINS_10MemoryPoolINS_13PoolAllocatorINS_10CacheStateINS_9GallicArcINS_6ArcTplINS_12LogWeightTplIfEEEELNS_10GallicTypeE0EEENS2_ISA_EEEEE2TNILi8EEEE4LinkEEE, 
                       __ZTSN3fst11MemoryArenaINS_10MemoryPoolINS_13PoolAllocatorINS_6ArcTplINS_12LogWeightTplIfEEEEE2TNILi16EEEE4LinkEEE, 
                       __ZTSN3fst11MemoryArenaINS_10MemoryPoolINS_13PoolAllocatorINS_6ArcTplINS_12LogWeightTplIfEEEEE2TNILi1EEEE4LinkEEE, 
                       __ZTSN3fst11MemoryArenaINS_10MemoryPoolINS_13PoolAllocatorINS_6ArcTplINS_12LogWeightTplIfEEEEE2TNILi2EEEE4LinkEEE, 
                       __ZTSN3fst11MemoryArenaINS_10MemoryPoolINS_13PoolAllocatorINS_6ArcTplINS_12LogWeightTplIfEEEEE2TNILi32EEEE4LinkEEE, 
                       __ZTSN3fst11MemoryArenaINS_10MemoryPoolINS_13PoolAllocatorINS_6ArcTplINS_12LogWeightTplIfEEEEE2TNILi4EEEE4LinkEEE, 
                       __ZTSN3fst11MemoryArenaINS_10MemoryPoolINS_13PoolAllocatorINS_6ArcTplINS_12LogWeightTplIfEEEEE2TNILi64EEEE4LinkEEE, 
                       __ZTSN3fst11MemoryArenaINS_10MemoryPoolINS_13PoolAllocatorINS_6ArcTplINS_12LogWeightTplIfEEEEE2TNILi8EEEE4LinkEEE, 
                       __ZTSN3fst11MemoryArenaINS_10MemoryPoolINS_13PoolAllocatorINS_6ArcTplINS_16LatticeWeightTplIfEEEEE2TNILi16EEEE4LinkEEE, 
                       __ZTSN3fst11MemoryArenaINS_10MemoryPoolINS_13PoolAllocatorINS_6ArcTplINS_16LatticeWeightTplIfEEEEE2TNILi1EEEE4LinkEEE, 
                       __ZTSN3fst11MemoryArenaINS_10MemoryPoolINS_13PoolAllocatorINS_6ArcTplINS_16LatticeWeightTplIfEEEEE2TNILi2EEEE4LinkEEE, 
                       __ZTSN3fst11MemoryArenaINS_10MemoryPoolINS_13PoolAllocatorINS_6ArcTplINS_16LatticeWeightTplIfEEEEE2TNILi32EEEE4LinkEEE, 
                       __ZTSN3fst11MemoryArenaINS_10MemoryPoolINS_13PoolAllocatorINS_6ArcTplINS_16LatticeWeightTplIfEEEEE2TNILi4EEEE4LinkEEE, 
                       __ZTSN3fst11MemoryArenaINS_10MemoryPoolINS_13PoolAllocatorINS_6ArcTplINS_16LatticeWeightTplIfEEEEE2TNILi64EEEE4LinkEEE, 
                       __ZTSN3fst11MemoryArenaINS_10MemoryPoolINS_13PoolAllocatorINS_6ArcTplINS_16LatticeWeightTplIfEEEEE2TNILi8EEEE4LinkEEE, 
                       __ZTSN3fst11MemoryArenaINS_10MemoryPoolINS_13PoolAllocatorINS_6ArcTplINS_17TropicalWeightTplIfEEEEE2TNILi16EEEE4LinkEEE, 
                       __ZTSN3fst11MemoryArenaINS_10MemoryPoolINS_13PoolAllocatorINS_6ArcTplINS_17TropicalWeightTplIfEEEEE2TNILi1EEEE4LinkEEE, 
                       __ZTSN3fst11MemoryArenaINS_10MemoryPoolINS_13PoolAllocatorINS_6ArcTplINS_17TropicalWeightTplIfEEEEE2TNILi2EEEE4LinkEEE, 
                       __ZTSN3fst11MemoryArenaINS_10MemoryPoolINS_13PoolAllocatorINS_6ArcTplINS_17TropicalWeightTplIfEEEEE2TNILi32EEEE4LinkEEE, 
                       __ZTSN3fst11MemoryArenaINS_10MemoryPoolINS_13PoolAllocatorINS_6ArcTplINS_17TropicalWeightTplIfEEEEE2TNILi4EEEE4LinkEEE, 
                       __ZTSN3fst11MemoryArenaINS_10MemoryPoolINS_13PoolAllocatorINS_6ArcTplINS_17TropicalWeightTplIfEEEEE2TNILi64EEEE4LinkEEE, 
                       __ZTSN3fst11MemoryArenaINS_10MemoryPoolINS_13PoolAllocatorINS_6ArcTplINS_17TropicalWeightTplIfEEEEE2TNILi8EEEE4LinkEEE, 
                       __ZTSN3fst11MemoryArenaINS_10MemoryPoolINS_13PoolAllocatorINS_9GallicArcINS_6ArcTplINS_12LogWeightTplIfEEEELNS_10GallicTypeE0EEEE2TNILi16EEEE4LinkEEE, 
                       __ZTSN3fst11MemoryArenaINS_10MemoryPoolINS_13PoolAllocatorINS_9GallicArcINS_6ArcTplINS_12LogWeightTplIfEEEELNS_10GallicTypeE0EEEE2TNILi1EEEE4LinkEEE, 
                       __ZTSN3fst11MemoryArenaINS_10MemoryPoolINS_13PoolAllocatorINS_9GallicArcINS_6ArcTplINS_12LogWeightTplIfEEEELNS_10GallicTypeE0EEEE2TNILi2EEEE4LinkEEE, 
                       __ZTSN3fst11MemoryArenaINS_10MemoryPoolINS_13PoolAllocatorINS_9GallicArcINS_6ArcTplINS_12LogWeightTplIfEEEELNS_10GallicTypeE0EEEE2TNILi32EEEE4LinkEEE, 
                       __ZTSN3fst11MemoryArenaINS_10MemoryPoolINS_13PoolAllocatorINS_9GallicArcINS_6ArcTplINS_12LogWeightTplIfEEEELNS_10GallicTypeE0EEEE2TNILi4EEEE4LinkEEE, 
                       __ZTSN3fst11MemoryArenaINS_10MemoryPoolINS_13PoolAllocatorINS_9GallicArcINS_6ArcTplINS_12LogWeightTplIfEEEELNS_10GallicTypeE0EEEE2TNILi64EEEE4LinkEEE, 
                       __ZTSN3fst11MemoryArenaINS_10MemoryPoolINS_13PoolAllocatorINS_9GallicArcINS_6ArcTplINS_12LogWeightTplIfEEEELNS_10GallicTypeE0EEEE2TNILi8EEEE4LinkEEE, 
                       __ZTSN3fst11MemoryArenaINS_10MemoryPoolINS_13PoolAllocatorINSt3__111__hash_nodeIiPvEEE2TNILi16EEEE4LinkEEE, 
                       __ZTSN3fst11MemoryArenaINS_10MemoryPoolINS_13PoolAllocatorINSt3__111__hash_nodeIiPvEEE2TNILi1EEEE4LinkEEE, 
                       __ZTSN3fst11MemoryArenaINS_10MemoryPoolINS_13PoolAllocatorINSt3__111__hash_nodeIiPvEEE2TNILi2EEEE4LinkEEE, 
                       __ZTSN3fst11MemoryArenaINS_10MemoryPoolINS_13PoolAllocatorINSt3__111__hash_nodeIiPvEEE2TNILi32EEEE4LinkEEE, 
                       __ZTSN3fst11MemoryArenaINS_10MemoryPoolINS_13PoolAllocatorINSt3__111__hash_nodeIiPvEEE2TNILi4EEEE4LinkEEE, 
                       __ZTSN3fst11MemoryArenaINS_10MemoryPoolINS_13PoolAllocatorINSt3__111__hash_nodeIiPvEEE2TNILi64EEEE4LinkEEE, 
                       __ZTSN3fst11MemoryArenaINS_10MemoryPoolINS_13PoolAllocatorINSt3__111__hash_nodeIiPvEEE2TNILi8EEEE4LinkEEE, 
                       __ZTSN3fst11MemoryArenaINS_10MemoryPoolINS_13PoolAllocatorINSt3__111__list_nodeIiPvEEE2TNILi16EEEE4LinkEEE, 
                       __ZTSN3fst11MemoryArenaINS_10MemoryPoolINS_13PoolAllocatorINSt3__111__list_nodeIiPvEEE2TNILi1EEEE4LinkEEE, 
                       __ZTSN3fst11MemoryArenaINS_10MemoryPoolINS_13PoolAllocatorINSt3__111__list_nodeIiPvEEE2TNILi2EEEE4LinkEEE, 
                       __ZTSN3fst11MemoryArenaINS_10MemoryPoolINS_13PoolAllocatorINSt3__111__list_nodeIiPvEEE2TNILi32EEEE4LinkEEE, 
                       __ZTSN3fst11MemoryArenaINS_10MemoryPoolINS_13PoolAllocatorINSt3__111__list_nodeIiPvEEE2TNILi4EEEE4LinkEEE, 
                       __ZTSN3fst11MemoryArenaINS_10MemoryPoolINS_13PoolAllocatorINSt3__111__list_nodeIiPvEEE2TNILi64EEEE4LinkEEE, 
                       __ZTSN3fst11MemoryArenaINS_10MemoryPoolINS_13PoolAllocatorINSt3__111__list_nodeIiPvEEE2TNILi8EEEE4LinkEEE, 
                       __ZTSN3fst11MemoryArenaINS_10MemoryPoolINS_13PoolAllocatorIPNSt3__116__hash_node_baseIPNS3_11__hash_nodeIiPvEEEEE2TNILi16EEEE4LinkEEE, 
                       __ZTSN3fst11MemoryArenaINS_10MemoryPoolINS_13PoolAllocatorIPNSt3__116__hash_node_baseIPNS3_11__hash_nodeIiPvEEEEE2TNILi1EEEE4LinkEEE, 
                       __ZTSN3fst11MemoryArenaINS_10MemoryPoolINS_13PoolAllocatorIPNSt3__116__hash_node_baseIPNS3_11__hash_nodeIiPvEEEEE2TNILi2EEEE4LinkEEE, 
                       __ZTSN3fst11MemoryArenaINS_10MemoryPoolINS_13PoolAllocatorIPNSt3__116__hash_node_baseIPNS3_11__hash_nodeIiPvEEEEE2TNILi32EEEE4LinkEEE, 
                       __ZTSN3fst11MemoryArenaINS_10MemoryPoolINS_13PoolAllocatorIPNSt3__116__hash_node_baseIPNS3_11__hash_nodeIiPvEEEEE2TNILi4EEEE4LinkEEE, 
                       __ZTSN3fst11MemoryArenaINS_10MemoryPoolINS_13PoolAllocatorIPNSt3__116__hash_node_baseIPNS3_11__hash_nodeIiPvEEEEE2TNILi64EEEE4LinkEEE, 
                       __ZTSN3fst11MemoryArenaINS_10MemoryPoolINS_13PoolAllocatorIPNSt3__116__hash_node_baseIPNS3_11__hash_nodeIiPvEEEEE2TNILi8EEEE4LinkEEE, 
                       __ZTSN3fst11MemoryArenaINS_10MemoryPoolINS_8DfsStateINS_10ReverseArcINS_6ArcTplINS_12LogWeightTplIfEEEEEEEEE4LinkEEE, 
                       __ZTSN3fst11MemoryArenaINS_10MemoryPoolINS_8DfsStateINS_10ReverseArcINS_6ArcTplINS_17TropicalWeightTplIfEEEEEEEEE4LinkEEE, 
                       __ZTSN3fst11MemoryArenaINS_10MemoryPoolINS_8DfsStateINS_10ReverseArcINS_9GallicArcINS_6ArcTplINS_12LogWeightTplIfEEEELNS_10GallicTypeE0EEEEEEEE4LinkEEE, 
                       __ZTSN3fst11MemoryArenaINS_10MemoryPoolINS_8DfsStateINS_6ArcTplINS_12LogWeightTplIfEEEEEEE4LinkEEE, 
                       __ZTSN3fst11MemoryArenaINS_10MemoryPoolINS_8DfsStateINS_6ArcTplINS_16LatticeWeightTplIfEEEEEEE4LinkEEE, 
                       __ZTSN3fst11MemoryArenaINS_10MemoryPoolINS_8DfsStateINS_6ArcTplINS_17TropicalWeightTplIfEEEEEEE4LinkEEE, 
                       __ZTSN3fst11MemoryArenaINS_10MemoryPoolINS_8DfsStateINS_6ArcTplINS_23CompactLatticeWeightTplINS_16LatticeWeightTplIfEEiEEEEEEE4LinkEEE, 
                       __ZTSN3fst11MemoryArenaINS_10MemoryPoolINS_8DfsStateINS_9GallicArcINS_6ArcTplINS_12LogWeightTplIfEEEELNS_10GallicTypeE0EEEEEE4LinkEEE, 
                       __ZTSN3fst11StateMapFstINS_6ArcTplINS_16LatticeWeightTplIfEEEES4_NS_13ArcSortMapperIS4_NS_13ILabelCompareIS4_EEEEEE, 
                       __ZTSN3fst12ArcPosingFstINS_6ArcTplINS_12LogWeightTplIfEEEENS1_INS_17TropicalWeightTplIfEEEEEE, 
                       __ZTSN3fst12ArcPosingFstINS_6ArcTplINS_17TropicalWeightTplIfEEEENS1_INS_12LogWeightTplIfEEEEEE, 
                       __ZTSN3fst12TableMatcherINS_3FstINS_6ArcTplINS_17TropicalWeightTplIfEEEEEENS_13SortedMatcherIS6_EEEE, 
                       __ZTSN3fst13ArcMapFstImplINS_6ArcTplINS_12LogWeightTplIfEEEENS_9GallicArcIS4_LNS_10GallicTypeE0EEENS_14ToGallicMapperIS4_LS6_0EEEEE, 
                       __ZTSN3fst13ArcMapFstImplINS_6ArcTplINS_12LogWeightTplIfEEEES4_NS_14RmWeightMapperIS4_S4_EEEE, 
                       __ZTSN3fst13ArcMapFstImplINS_6ArcTplINS_16LatticeWeightTplIfEEEES4_NS_13ProjectMapperIS4_EEEE, 
                       __ZTSN3fst13ArcMapFstImplINS_6ArcTplINS_16LatticeWeightTplIfEEEES4_NS_14RmWeightMapperIS4_S4_EEEE, 
                       __ZTSN3fst13CacheBaseImplINS_10CacheStateINS_6ArcTplINS_12LogWeightTplIfEEEENS_13PoolAllocatorIS5_EEEENS_17DefaultCacheStoreIS5_EEEE, 
                       __ZTSN3fst13CacheBaseImplINS_10CacheStateINS_6ArcTplINS_16LatticeWeightTplIfEEEENS_13PoolAllocatorIS5_EEEENS_17DefaultCacheStoreIS5_EEEE, 
                       __ZTSN3fst13CacheBaseImplINS_10CacheStateINS_6ArcTplINS_17TropicalWeightTplIfEEEENS_13PoolAllocatorIS5_EEEENS_17DefaultCacheStoreIS5_EEEE, 
                       __ZTSN3fst13CacheBaseImplINS_10CacheStateINS_9GallicArcINS_6ArcTplINS_12LogWeightTplIfEEEELNS_10GallicTypeE0EEENS_13PoolAllocatorIS8_EEEENS_17DefaultCacheStoreIS8_EEEE, 
                       __ZTSN3fst13SortedMatcherINS_3FstINS_6ArcTplINS_16LatticeWeightTplIfEEEEEEEE, 
                       __ZTSN3fst13SortedMatcherINS_3FstINS_6ArcTplINS_17TropicalWeightTplIfEEEEEEEE, 
                       __ZTSN3fst13StateIteratorINS_10ComposeFstINS_6ArcTplINS_16LatticeWeightTplIfEEEENS_17DefaultCacheStoreIS5_EEEEEE, 
                       __ZTSN3fst13StateIteratorINS_10ComposeFstINS_6ArcTplINS_17TropicalWeightTplIfEEEENS_17DefaultCacheStoreIS5_EEEEEE, 
                       __ZTSN3fst13StateIteratorINS_10ContextFstINS_6ArcTplINS_17TropicalWeightTplIfEEEEiEEEE, 
                       __ZTSN3fst13StateIteratorINS_12ArcPosingFstINS_6ArcTplINS_12LogWeightTplIfEEEENS2_INS_17TropicalWeightTplIfEEEEEEEE, 
                       __ZTSN3fst13StateIteratorINS_12ArcPosingFstINS_6ArcTplINS_17TropicalWeightTplIfEEEENS2_INS_12LogWeightTplIfEEEEEEEE, 
                       __ZTSN3fst13StateIteratorINS_15FactorWeightFstINS_9GallicArcINS_6ArcTplINS_12LogWeightTplIfEEEELNS_10GallicTypeE0EEENS_12GallicFactorIiS5_LS7_0EEEEEEE, 
                       __ZTSN3fst13StateIteratorINS_9ArcMapFstINS_6ArcTplINS_12LogWeightTplIfEEEENS_9GallicArcIS5_LNS_10GallicTypeE0EEENS_14ToGallicMapperIS5_LS7_0EEEEEEE, 
                       __ZTSN3fst13StateIteratorINS_9ArcMapFstINS_6ArcTplINS_12LogWeightTplIfEEEES5_NS_14RmWeightMapperIS5_S5_EEEEEE, 
                       __ZTSN3fst13StateIteratorINS_9ArcMapFstINS_6ArcTplINS_16LatticeWeightTplIfEEEES5_NS_13ProjectMapperIS5_EEEEEE, 
                       __ZTSN3fst13StateIteratorINS_9ArcMapFstINS_6ArcTplINS_16LatticeWeightTplIfEEEES5_NS_14RmWeightMapperIS5_S5_EEEEEE, 
                       __ZTSN3fst13TopOrderQueueIiEE, __ZTSN3fst13VectorFstImplINS_11VectorStateINS_10ReverseArcINS_6ArcTplINS_12LogWeightTplIfEEEEEENSt3__19allocatorIS7_EEEEEE, 
                       __ZTSN3fst13VectorFstImplINS_11VectorStateINS_10ReverseArcINS_6ArcTplINS_17TropicalWeightTplIfEEEEEENSt3__19allocatorIS7_EEEEEE, 
                       __ZTSN3fst13VectorFstImplINS_11VectorStateINS_10ReverseArcINS_9GallicArcINS_6ArcTplINS_12LogWeightTplIfEEEELNS_10GallicTypeE0EEEEENSt3__19allocatorISA_EEEEEE, 
                       __ZTSN3fst13VectorFstImplINS_11VectorStateINS_6ArcTplINS_12LogWeightTplIfEEEENSt3__19allocatorIS5_EEEEEE, 
                       __ZTSN3fst13VectorFstImplINS_11VectorStateINS_6ArcTplINS_16LatticeWeightTplIfEEEENSt3__19allocatorIS5_EEEEEE, 
                       __ZTSN3fst13VectorFstImplINS_11VectorStateINS_6ArcTplINS_17TropicalWeightTplIfEEEENSt3__19allocatorIS5_EEEEEE, 
                       __ZTSN3fst13VectorFstImplINS_11VectorStateINS_6ArcTplINS_23CompactLatticeWeightTplINS_16LatticeWeightTplIfEEiEEEENSt3__19allocatorIS7_EEEEEE, 
                       __ZTSN3fst13VectorFstImplINS_11VectorStateINS_9GallicArcINS_6ArcTplINS_12LogWeightTplIfEEEELNS_10GallicTypeE0EEENSt3__19allocatorIS8_EEEEEE, 
                       __ZTSN3fst14ComposeFstImplINS_17DefaultCacheStoreINS_6ArcTplINS_16LatticeWeightTplIfEEEEEENS_17NullComposeFilterINS_7MatcherINS_3FstIS5_EEEESB_EENS_24GenericComposeStateTableIS5_NS_18IntegerFilterStateIaEENS_24DefaultComposeStateTupleIiSF_EENS_21CompactHashStateTableISH_NS_11ComposeHashISH_EEEEEEEE, 
                       __ZTSN3fst14ComposeFstImplINS_17DefaultCacheStoreINS_6ArcTplINS_16LatticeWeightTplIfEEEEEENS_18MatchComposeFilterINS_7MatcherINS_3FstIS5_EEEESB_EENS_24GenericComposeStateTableIS5_NS_18IntegerFilterStateIaEENS_24DefaultComposeStateTupleIiSF_EENS_21CompactHashStateTableISH_NS_11ComposeHashISH_EEEEEEEE, 
                       __ZTSN3fst14ComposeFstImplINS_17DefaultCacheStoreINS_6ArcTplINS_16LatticeWeightTplIfEEEEEENS_21SequenceComposeFilterINS_7MatcherINS_3FstIS5_EEEESB_EENS_24GenericComposeStateTableIS5_NS_18IntegerFilterStateIaEENS_24DefaultComposeStateTupleIiSF_EENS_21CompactHashStateTableISH_NS_11ComposeHashISH_EEEEEEEE, 
                       __ZTSN3fst14ComposeFstImplINS_17DefaultCacheStoreINS_6ArcTplINS_16LatticeWeightTplIfEEEEEENS_22LookAheadComposeFilterINS_21SequenceComposeFilterINS_16LookAheadMatcherINS_3FstIS5_EEEESC_EESC_SC_LNS_9MatchTypeE2EEENS_24GenericComposeStateTableIS5_NS_18IntegerFilterStateIaEENS_24DefaultComposeStateTupleIiSI_EENS_21CompactHashStateTableISK_NS_11ComposeHashISK_EEEEEEEE, 
                       __ZTSN3fst14ComposeFstImplINS_17DefaultCacheStoreINS_6ArcTplINS_16LatticeWeightTplIfEEEEEENS_22LookAheadComposeFilterINS_24AltSequenceComposeFilterINS_16LookAheadMatcherINS_3FstIS5_EEEESC_EESC_SC_LNS_9MatchTypeE2EEENS_24GenericComposeStateTableIS5_NS_18IntegerFilterStateIaEENS_24DefaultComposeStateTupleIiSI_EENS_21CompactHashStateTableISK_NS_11ComposeHashISK_EEEEEEEE, 
                       __ZTSN3fst14ComposeFstImplINS_17DefaultCacheStoreINS_6ArcTplINS_16LatticeWeightTplIfEEEEEENS_24AltSequenceComposeFilterINS_7MatcherINS_3FstIS5_EEEESB_EENS_24GenericComposeStateTableIS5_NS_18IntegerFilterStateIaEENS_24DefaultComposeStateTupleIiSF_EENS_21CompactHashStateTableISH_NS_11ComposeHashISH_EEEEEEEE, 
                       __ZTSN3fst14ComposeFstImplINS_17DefaultCacheStoreINS_6ArcTplINS_17TropicalWeightTplIfEEEEEENS_21SequenceComposeFilterINS_12TableMatcherINS_3FstIS5_EENS_13SortedMatcherISA_EEEESC_EENS_24GenericComposeStateTableIS5_NS_18IntegerFilterStateIaEENS_24DefaultComposeStateTupleIiSH_EENS_21CompactHashStateTableISJ_NS_11ComposeHashISJ_EEEEEEEE, 
                       __ZTSN3fst14ComposeFstImplINS_17DefaultCacheStoreINS_6ArcTplINS_17TropicalWeightTplIfEEEEEENS_21SequenceComposeFilterINS_13SortedMatcherINS_3FstIS5_EEEENS_12TableMatcherISA_SB_EEEENS_24GenericComposeStateTableIS5_NS_18IntegerFilterStateIaEENS_24DefaultComposeStateTupleIiSH_EENS_21CompactHashStateTableISJ_NS_11ComposeHashISJ_EEEEEEEE, 
                       __ZTSN3fst14ComposeFstImplINS_17DefaultCacheStoreINS_6ArcTplINS_17TropicalWeightTplIfEEEEEENS_21SequenceComposeFilterINS_14ContextMatcherIS5_iEES9_EENS_24GenericComposeStateTableIS5_NS_18IntegerFilterStateIaEENS_24DefaultComposeStateTupleIiSD_EENS_21CompactHashStateTableISF_NS_11ComposeHashISF_EEEEEEEE, 
                       __ZTSN3fst14ContextFstImplINS_6ArcTplINS_17TropicalWeightTplIfEEEEiEE, 
                       __ZTSN3fst14ContextMatcherINS_6ArcTplINS_17TropicalWeightTplIfEEEEiEE, 
                       __ZTSN3fst15ArcIteratorBaseINS_10ReverseArcINS_6ArcTplINS_12LogWeightTplIfEEEEEEEE, 
                       __ZTSN3fst15ArcIteratorBaseINS_10ReverseArcINS_6ArcTplINS_17TropicalWeightTplIfEEEEEEEE, 
                       __ZTSN3fst15ArcIteratorBaseINS_10ReverseArcINS_9GallicArcINS_6ArcTplINS_12LogWeightTplIfEEEELNS_10GallicTypeE0EEEEEEE, 
                       __ZTSN3fst15ArcIteratorBaseINS_6ArcTplINS_12LogWeightTplIfEEEEEE, 
                       __ZTSN3fst15ArcIteratorBaseINS_6ArcTplINS_16LatticeWeightTplIfEEEEEE, 
                       __ZTSN3fst15ArcIteratorBaseINS_6ArcTplINS_17TropicalWeightTplIfEEEEEE, 
                       __ZTSN3fst15ArcIteratorBaseINS_6ArcTplINS_23CompactLatticeWeightTplINS_16LatticeWeightTplIfEEiEEEEEE, 
                       __ZTSN3fst15ArcIteratorBaseINS_9GallicArcINS_6ArcTplINS_12LogWeightTplIfEEEELNS_10GallicTypeE0EEEEE, 
                       __ZTSN3fst15FactorWeightFstINS_9GallicArcINS_6ArcTplINS_12LogWeightTplIfEEEELNS_10GallicTypeE0EEENS_12GallicFactorIiS4_LS6_0EEEEE, 
                       __ZTSN3fst15StateMapFstImplINS_6ArcTplINS_16LatticeWeightTplIfEEEES4_NS_13ArcSortMapperIS4_NS_13ILabelCompareIS4_EEEEEE, 
                       __ZTSN3fst15StateOrderQueueIiEE, __ZTSN3fst16ImplToMutableFstINS_13VectorFstImplINS_11VectorStateINS_10ReverseArcINS_6ArcTplINS_12LogWeightTplIfEEEEEENSt3__19allocatorIS8_EEEEEENS_10MutableFstIS8_EEEE, 
                       __ZTSN3fst16ImplToMutableFstINS_13VectorFstImplINS_11VectorStateINS_10ReverseArcINS_6ArcTplINS_17TropicalWeightTplIfEEEEEENSt3__19allocatorIS8_EEEEEENS_10MutableFstIS8_EEEE, 
                       __ZTSN3fst16ImplToMutableFstINS_13VectorFstImplINS_11VectorStateINS_10ReverseArcINS_9GallicArcINS_6ArcTplINS_12LogWeightTplIfEEEELNS_10GallicTypeE0EEEEENSt3__19allocatorISB_EEEEEENS_10MutableFstISB_EEEE, 
                       __ZTSN3fst16ImplToMutableFstINS_13VectorFstImplINS_11VectorStateINS_6ArcTplINS_12LogWeightTplIfEEEENSt3__19allocatorIS6_EEEEEENS_10MutableFstIS6_EEEE, 
                       __ZTSN3fst16ImplToMutableFstINS_13VectorFstImplINS_11VectorStateINS_6ArcTplINS_16LatticeWeightTplIfEEEENSt3__19allocatorIS6_EEEEEENS_10MutableFstIS6_EEEE, 
                       __ZTSN3fst16ImplToMutableFstINS_13VectorFstImplINS_11VectorStateINS_6ArcTplINS_17TropicalWeightTplIfEEEENSt3__19allocatorIS6_EEEEEENS_10MutableFstIS6_EEEE, 
                       __ZTSN3fst16ImplToMutableFstINS_13VectorFstImplINS_11VectorStateINS_6ArcTplINS_23CompactLatticeWeightTplINS_16LatticeWeightTplIfEEiEEEENSt3__19allocatorIS8_EEEEEENS_10MutableFstIS8_EEEE, 
                       __ZTSN3fst16ImplToMutableFstINS_13VectorFstImplINS_11VectorStateINS_9GallicArcINS_6ArcTplINS_12LogWeightTplIfEEEELNS_10GallicTypeE0EEENSt3__19allocatorIS9_EEEEEENS_10MutableFstIS9_EEEE, 
                       __ZTSN3fst16TableMatcherImplINS_3FstINS_6ArcTplINS_17TropicalWeightTplIfEEEEEENS_13SortedMatcherIS6_EEEE, 
                       __ZTSN3fst17ComposeFstMatcherINS_17DefaultCacheStoreINS_6ArcTplINS_16LatticeWeightTplIfEEEEEENS_17NullComposeFilterINS_7MatcherINS_3FstIS5_EEEESB_EENS_24GenericComposeStateTableIS5_NS_18IntegerFilterStateIaEENS_24DefaultComposeStateTupleIiSF_EENS_21CompactHashStateTableISH_NS_11ComposeHashISH_EEEEEEEE, 
                       __ZTSN3fst17ComposeFstMatcherINS_17DefaultCacheStoreINS_6ArcTplINS_16LatticeWeightTplIfEEEEEENS_18MatchComposeFilterINS_7MatcherINS_3FstIS5_EEEESB_EENS_24GenericComposeStateTableIS5_NS_18IntegerFilterStateIaEENS_24DefaultComposeStateTupleIiSF_EENS_21CompactHashStateTableISH_NS_11ComposeHashISH_EEEEEEEE, 
                       __ZTSN3fst17ComposeFstMatcherINS_17DefaultCacheStoreINS_6ArcTplINS_16LatticeWeightTplIfEEEEEENS_21SequenceComposeFilterINS_7MatcherINS_3FstIS5_EEEESB_EENS_24GenericComposeStateTableIS5_NS_18IntegerFilterStateIaEENS_24DefaultComposeStateTupleIiSF_EENS_21CompactHashStateTableISH_NS_11ComposeHashISH_EEEEEEEE, 
                       __ZTSN3fst17ComposeFstMatcherINS_17DefaultCacheStoreINS_6ArcTplINS_16LatticeWeightTplIfEEEEEENS_22LookAheadComposeFilterINS_21SequenceComposeFilterINS_16LookAheadMatcherINS_3FstIS5_EEEESC_EESC_SC_LNS_9MatchTypeE2EEENS_24GenericComposeStateTableIS5_NS_18IntegerFilterStateIaEENS_24DefaultComposeStateTupleIiSI_EENS_21CompactHashStateTableISK_NS_11ComposeHashISK_EEEEEEEE, 
                       __ZTSN3fst17ComposeFstMatcherINS_17DefaultCacheStoreINS_6ArcTplINS_16LatticeWeightTplIfEEEEEENS_22LookAheadComposeFilterINS_24AltSequenceComposeFilterINS_16LookAheadMatcherINS_3FstIS5_EEEESC_EESC_SC_LNS_9MatchTypeE2EEENS_24GenericComposeStateTableIS5_NS_18IntegerFilterStateIaEENS_24DefaultComposeStateTupleIiSI_EENS_21CompactHashStateTableISK_NS_11ComposeHashISK_EEEEEEEE, 
                       __ZTSN3fst17ComposeFstMatcherINS_17DefaultCacheStoreINS_6ArcTplINS_16LatticeWeightTplIfEEEEEENS_24AltSequenceComposeFilterINS_7MatcherINS_3FstIS5_EEEESB_EENS_24GenericComposeStateTableIS5_NS_18IntegerFilterStateIaEENS_24DefaultComposeStateTupleIiSF_EENS_21CompactHashStateTableISH_NS_11ComposeHashISH_EEEEEEEE, 
                       __ZTSN3fst17ComposeFstMatcherINS_17DefaultCacheStoreINS_6ArcTplINS_17TropicalWeightTplIfEEEEEENS_21SequenceComposeFilterINS_12TableMatcherINS_3FstIS5_EENS_13SortedMatcherISA_EEEESC_EENS_24GenericComposeStateTableIS5_NS_18IntegerFilterStateIaEENS_24DefaultComposeStateTupleIiSH_EENS_21CompactHashStateTableISJ_NS_11ComposeHashISJ_EEEEEEEE, 
                       __ZTSN3fst17ComposeFstMatcherINS_17DefaultCacheStoreINS_6ArcTplINS_17TropicalWeightTplIfEEEEEENS_21SequenceComposeFilterINS_13SortedMatcherINS_3FstIS5_EEEENS_12TableMatcherISA_SB_EEEENS_24GenericComposeStateTableIS5_NS_18IntegerFilterStateIaEENS_24DefaultComposeStateTupleIiSH_EENS_21CompactHashStateTableISJ_NS_11ComposeHashISJ_EEEEEEEE, 
                       __ZTSN3fst17ComposeFstMatcherINS_17DefaultCacheStoreINS_6ArcTplINS_17TropicalWeightTplIfEEEEEENS_21SequenceComposeFilterINS_14ContextMatcherIS5_iEES9_EENS_24GenericComposeStateTableIS5_NS_18IntegerFilterStateIaEENS_24DefaultComposeStateTupleIiSD_EENS_21CompactHashStateTableISF_NS_11ComposeHashISF_EEEEEEEE, 
                       __ZTSN3fst17ImplToExpandedFstINS_13VectorFstImplINS_11VectorStateINS_10ReverseArcINS_6ArcTplINS_12LogWeightTplIfEEEEEENSt3__19allocatorIS8_EEEEEENS_10MutableFstIS8_EEEE, 
                       __ZTSN3fst17ImplToExpandedFstINS_13VectorFstImplINS_11VectorStateINS_10ReverseArcINS_6ArcTplINS_17TropicalWeightTplIfEEEEEENSt3__19allocatorIS8_EEEEEENS_10MutableFstIS8_EEEE, 
                       __ZTSN3fst17ImplToExpandedFstINS_13VectorFstImplINS_11VectorStateINS_10ReverseArcINS_9GallicArcINS_6ArcTplINS_12LogWeightTplIfEEEELNS_10GallicTypeE0EEEEENSt3__19allocatorISB_EEEEEENS_10MutableFstISB_EEEE, 
                       __ZTSN3fst17ImplToExpandedFstINS_13VectorFstImplINS_11VectorStateINS_6ArcTplINS_12LogWeightTplIfEEEENSt3__19allocatorIS6_EEEEEENS_10MutableFstIS6_EEEE, 
                       __ZTSN3fst17ImplToExpandedFstINS_13VectorFstImplINS_11VectorStateINS_6ArcTplINS_16LatticeWeightTplIfEEEENSt3__19allocatorIS6_EEEEEENS_10MutableFstIS6_EEEE, 
                       __ZTSN3fst17ImplToExpandedFstINS_13VectorFstImplINS_11VectorStateINS_6ArcTplINS_17TropicalWeightTplIfEEEENSt3__19allocatorIS6_EEEEEENS_10MutableFstIS6_EEEE, 
                       __ZTSN3fst17ImplToExpandedFstINS_13VectorFstImplINS_11VectorStateINS_6ArcTplINS_23CompactLatticeWeightTplINS_16LatticeWeightTplIfEEiEEEENSt3__19allocatorIS8_EEEEEENS_10MutableFstIS8_EEEE, 
                       __ZTSN3fst17ImplToExpandedFstINS_13VectorFstImplINS_11VectorStateINS_9GallicArcINS_6ArcTplINS_12LogWeightTplIfEEEELNS_10GallicTypeE0EEENSt3__19allocatorIS9_EEEEEENS_10MutableFstIS9_EEEE, 
                       __ZTSN3fst17StateIteratorBaseINS_6ArcTplINS_12LogWeightTplIfEEEEEE, 
                       __ZTSN3fst17StateIteratorBaseINS_6ArcTplINS_16LatticeWeightTplIfEEEEEE, 
                       __ZTSN3fst17StateIteratorBaseINS_6ArcTplINS_17TropicalWeightTplIfEEEEEE, 
                       __ZTSN3fst17StateIteratorBaseINS_9GallicArcINS_6ArcTplINS_12LogWeightTplIfEEEELNS_10GallicTypeE0EEEEE, 
                       __ZTSN3fst17VectorFstBaseImplINS_11VectorStateINS_10ReverseArcINS_6ArcTplINS_12LogWeightTplIfEEEEEENSt3__19allocatorIS7_EEEEEE, 
                       __ZTSN3fst17VectorFstBaseImplINS_11VectorStateINS_10ReverseArcINS_6ArcTplINS_17TropicalWeightTplIfEEEEEENSt3__19allocatorIS7_EEEEEE, 
                       __ZTSN3fst17VectorFstBaseImplINS_11VectorStateINS_10ReverseArcINS_9GallicArcINS_6ArcTplINS_12LogWeightTplIfEEEELNS_10GallicTypeE0EEEEENSt3__19allocatorISA_EEEEEE, 
                       __ZTSN3fst17VectorFstBaseImplINS_11VectorStateINS_6ArcTplINS_12LogWeightTplIfEEEENSt3__19allocatorIS5_EEEEEE, 
                       __ZTSN3fst17VectorFstBaseImplINS_11VectorStateINS_6ArcTplINS_16LatticeWeightTplIfEEEENSt3__19allocatorIS5_EEEEEE, 
                       __ZTSN3fst17VectorFstBaseImplINS_11VectorStateINS_6ArcTplINS_17TropicalWeightTplIfEEEENSt3__19allocatorIS5_EEEEEE, 
                       __ZTSN3fst17VectorFstBaseImplINS_11VectorStateINS_6ArcTplINS_23CompactLatticeWeightTplINS_16LatticeWeightTplIfEEiEEEENSt3__19allocatorIS7_EEEEEE, 
                       __ZTSN3fst17VectorFstBaseImplINS_11VectorStateINS_9GallicArcINS_6ArcTplINS_12LogWeightTplIfEEEELNS_10GallicTypeE0EEENSt3__19allocatorIS8_EEEEEE, 
                       __ZTSN3fst18CacheStateIteratorINS_10ComposeFstINS_6ArcTplINS_16LatticeWeightTplIfEEEENS_17DefaultCacheStoreIS5_EEEEEE, 
                       __ZTSN3fst18CacheStateIteratorINS_10ComposeFstINS_6ArcTplINS_17TropicalWeightTplIfEEEENS_17DefaultCacheStoreIS5_EEEEEE, 
                       __ZTSN3fst18CacheStateIteratorINS_10ContextFstINS_6ArcTplINS_17TropicalWeightTplIfEEEEiEEEE, 
                       __ZTSN3fst18CacheStateIteratorINS_15FactorWeightFstINS_9GallicArcINS_6ArcTplINS_12LogWeightTplIfEEEELNS_10GallicTypeE0EEENS_12GallicFactorIiS5_LS7_0EEEEEEE, 
                       __ZTSN3fst18ComposeFstImplBaseINS_6ArcTplINS_16LatticeWeightTplIfEEEENS_17DefaultCacheStoreIS4_EEEE, 
                       __ZTSN3fst18ComposeFstImplBaseINS_6ArcTplINS_17TropicalWeightTplIfEEEENS_17DefaultCacheStoreIS4_EEEE, 
                       __ZTSN3fst18MutableArcIteratorINS_19MutableArcPosingFstINS_6ArcTplINS_12LogWeightTplIfEEEENS2_INS_17TropicalWeightTplIfEEEEEEEE, 
                       __ZTSN3fst18MutableArcIteratorINS_9VectorFstINS_10ReverseArcINS_6ArcTplINS_12LogWeightTplIfEEEEEENS_11VectorStateIS7_NSt3__19allocatorIS7_EEEEEEEE, 
                       __ZTSN3fst18MutableArcIteratorINS_9VectorFstINS_10ReverseArcINS_6ArcTplINS_17TropicalWeightTplIfEEEEEENS_11VectorStateIS7_NSt3__19allocatorIS7_EEEEEEEE, 
                       __ZTSN3fst18MutableArcIteratorINS_9VectorFstINS_10ReverseArcINS_9GallicArcINS_6ArcTplINS_12LogWeightTplIfEEEELNS_10GallicTypeE0EEEEENS_11VectorStateISA_NSt3__19allocatorISA_EEEEEEEE, 
                       __ZTSN3fst18MutableArcIteratorINS_9VectorFstINS_6ArcTplINS_16LatticeWeightTplIfEEEENS_11VectorStateIS5_NSt3__19allocatorIS5_EEEEEEEE, 
                       __ZTSN3fst18MutableArcIteratorINS_9VectorFstINS_6ArcTplINS_23CompactLatticeWeightTplINS_16LatticeWeightTplIfEEiEEEENS_11VectorStateIS7_NSt3__19allocatorIS7_EEEEEEEE, 
                       __ZTSN3fst18MutableArcIteratorINS_9VectorFstINS_9GallicArcINS_6ArcTplINS_12LogWeightTplIfEEEELNS_10GallicTypeE0EEENS_11VectorStateIS8_NSt3__19allocatorIS8_EEEEEEEE, 
                       __ZTSN3fst19FactorWeightFstImplINS_9GallicArcINS_6ArcTplINS_12LogWeightTplIfEEEELNS_10GallicTypeE0EEENS_12GallicFactorIiS4_LS6_0EEEEE, 
                       __ZTSN3fst19MutableArcPosingFstINS_6ArcTplINS_12LogWeightTplIfEEEENS1_INS_17TropicalWeightTplIfEEEEEE, 
                       __ZTSN3fst22MutableArcIteratorBaseINS_10ReverseArcINS_6ArcTplINS_12LogWeightTplIfEEEEEEEE, 
                       __ZTSN3fst22MutableArcIteratorBaseINS_10ReverseArcINS_6ArcTplINS_17TropicalWeightTplIfEEEEEEEE, 
                       __ZTSN3fst22MutableArcIteratorBaseINS_10ReverseArcINS_9GallicArcINS_6ArcTplINS_12LogWeightTplIfEEEELNS_10GallicTypeE0EEEEEEE, 
                       __ZTSN3fst22MutableArcIteratorBaseINS_6ArcTplINS_12LogWeightTplIfEEEEEE, 
                       __ZTSN3fst22MutableArcIteratorBaseINS_6ArcTplINS_16LatticeWeightTplIfEEEEEE, 
                       __ZTSN3fst22MutableArcIteratorBaseINS_6ArcTplINS_17TropicalWeightTplIfEEEEEE, 
                       __ZTSN3fst22MutableArcIteratorBaseINS_6ArcTplINS_23CompactLatticeWeightTplINS_16LatticeWeightTplIfEEiEEEEEE, 
                       __ZTSN3fst22MutableArcIteratorBaseINS_9GallicArcINS_6ArcTplINS_12LogWeightTplIfEEEELNS_10GallicTypeE0EEEEE, 
                       __ZTSN3fst3FstINS_10ReverseArcINS_6ArcTplINS_12LogWeightTplIfEEEEEEEE, 
                       __ZTSN3fst3FstINS_10ReverseArcINS_6ArcTplINS_17TropicalWeightTplIfEEEEEEEE, 
                       __ZTSN3fst3FstINS_10ReverseArcINS_9GallicArcINS_6ArcTplINS_12LogWeightTplIfEEEELNS_10GallicTypeE0EEEEEEE, 
                       __ZTSN3fst3FstINS_6ArcTplINS_12LogWeightTplIfEEEEEE, __ZTSN3fst3FstINS_6ArcTplINS_16LatticeWeightTplIfEEEEEE, 
                       __ZTSN3fst3FstINS_6ArcTplINS_17TropicalWeightTplIfEEEEEE, 
                       __ZTSN3fst3FstINS_6ArcTplINS_23CompactLatticeWeightTplINS_16LatticeWeightTplIfEEiEEEEEE, 
                       __ZTSN3fst3FstINS_9GallicArcINS_6ArcTplINS_12LogWeightTplIfEEEELNS_10GallicTypeE0EEEEE, 
                       __ZTSN3fst7FstImplINS_10ReverseArcINS_6ArcTplINS_12LogWeightTplIfEEEEEEEE, 
                       __ZTSN3fst7FstImplINS_10ReverseArcINS_6ArcTplINS_17TropicalWeightTplIfEEEEEEEE, 
                       __ZTSN3fst7FstImplINS_10ReverseArcINS_9GallicArcINS_6ArcTplINS_12LogWeightTplIfEEEELNS_10GallicTypeE0EEEEEEE, 
                       __ZTSN3fst7FstImplINS_6ArcTplINS_12LogWeightTplIfEEEEEE, __ZTSN3fst7FstImplINS_6ArcTplINS_16LatticeWeightTplIfEEEEEE, 
                       __ZTSN3fst7FstImplINS_6ArcTplINS_17TropicalWeightTplIfEEEEEE, 
                       __ZTSN3fst7FstImplINS_6ArcTplINS_23CompactLatticeWeightTplINS_16LatticeWeightTplIfEEiEEEEEE, 
                       __ZTSN3fst7FstImplINS_9GallicArcINS_6ArcTplINS_12LogWeightTplIfEEEELNS_10GallicTypeE0EEEEE, 
                       __ZTSN3fst8SccQueueIiNS_9QueueBaseIiEEEE, __ZTSN3fst9ArcMapFstINS_6ArcTplINS_12LogWeightTplIfEEEENS_9GallicArcIS4_LNS_10GallicTypeE0EEENS_14ToGallicMapperIS4_LS6_0EEEEE, 
                       __ZTSN3fst9ArcMapFstINS_6ArcTplINS_12LogWeightTplIfEEEES4_NS_14RmWeightMapperIS4_S4_EEEE, 
                       __ZTSN3fst9ArcMapFstINS_6ArcTplINS_16LatticeWeightTplIfEEEES4_NS_13ProjectMapperIS4_EEEE, 
                       __ZTSN3fst9ArcMapFstINS_6ArcTplINS_16LatticeWeightTplIfEEEES4_NS_14RmWeightMapperIS4_S4_EEEE, 
                       __ZTSN3fst9AutoQueueIiEE, __ZTSN3fst9CacheImplINS_6ArcTplINS_12LogWeightTplIfEEEEEE, 
                       __ZTSN3fst9CacheImplINS_6ArcTplINS_16LatticeWeightTplIfEEEEEE, 
                       __ZTSN3fst9CacheImplINS_6ArcTplINS_17TropicalWeightTplIfEEEEEE, 
                       __ZTSN3fst9CacheImplINS_9GallicArcINS_6ArcTplINS_12LogWeightTplIfEEEELNS_10GallicTypeE0EEEEE, 
                       __ZTSN3fst9FifoQueueIiEE, __ZTSN3fst9ImplToFstINS_13ArcMapFstImplINS_6ArcTplINS_12LogWeightTplIfEEEENS_9GallicArcIS5_LNS_10GallicTypeE0EEENS_14ToGallicMapperIS5_LS7_0EEEEENS_3FstIS8_EEEE, 
                       __ZTSN3fst9ImplToFstINS_13ArcMapFstImplINS_6ArcTplINS_12LogWeightTplIfEEEES5_NS_14RmWeightMapperIS5_S5_EEEENS_3FstIS5_EEEE, 
                       __ZTSN3fst9ImplToFstINS_13ArcMapFstImplINS_6ArcTplINS_16LatticeWeightTplIfEEEES5_NS_13ProjectMapperIS5_EEEENS_3FstIS5_EEEE, 
                       __ZTSN3fst9ImplToFstINS_13ArcMapFstImplINS_6ArcTplINS_16LatticeWeightTplIfEEEES5_NS_14RmWeightMapperIS5_S5_EEEENS_3FstIS5_EEEE, 
                       __ZTSN3fst9ImplToFstINS_13VectorFstImplINS_11VectorStateINS_10ReverseArcINS_6ArcTplINS_12LogWeightTplIfEEEEEENSt3__19allocatorIS8_EEEEEENS_10MutableFstIS8_EEEE, 
                       __ZTSN3fst9ImplToFstINS_13VectorFstImplINS_11VectorStateINS_10ReverseArcINS_6ArcTplINS_17TropicalWeightTplIfEEEEEENSt3__19allocatorIS8_EEEEEENS_10MutableFstIS8_EEEE, 
                       __ZTSN3fst9ImplToFstINS_13VectorFstImplINS_11VectorStateINS_10ReverseArcINS_9GallicArcINS_6ArcTplINS_12LogWeightTplIfEEEELNS_10GallicTypeE0EEEEENSt3__19allocatorISB_EEEEEENS_10MutableFstISB_EEEE, 
                       __ZTSN3fst9ImplToFstINS_13VectorFstImplINS_11VectorStateINS_6ArcTplINS_12LogWeightTplIfEEEENSt3__19allocatorIS6_EEEEEENS_10MutableFstIS6_EEEE, 
                       __ZTSN3fst9ImplToFstINS_13VectorFstImplINS_11VectorStateINS_6ArcTplINS_16LatticeWeightTplIfEEEENSt3__19allocatorIS6_EEEEEENS_10MutableFstIS6_EEEE, 
                       __ZTSN3fst9ImplToFstINS_13VectorFstImplINS_11VectorStateINS_6ArcTplINS_17TropicalWeightTplIfEEEENSt3__19allocatorIS6_EEEEEENS_10MutableFstIS6_EEEE, 
                       __ZTSN3fst9ImplToFstINS_13VectorFstImplINS_11VectorStateINS_6ArcTplINS_23CompactLatticeWeightTplINS_16LatticeWeightTplIfEEiEEEENSt3__19allocatorIS8_EEEEEENS_10MutableFstIS8_EEEE, 
                       __ZTSN3fst9ImplToFstINS_13VectorFstImplINS_11VectorStateINS_9GallicArcINS_6ArcTplINS_12LogWeightTplIfEEEELNS_10GallicTypeE0EEENSt3__19allocatorIS9_EEEEEENS_10MutableFstIS9_EEEE, 
                       __ZTSN3fst9ImplToFstINS_15StateMapFstImplINS_6ArcTplINS_16LatticeWeightTplIfEEEES5_NS_13ArcSortMapperIS5_NS_13ILabelCompareIS5_EEEEEENS_3FstIS5_EEEE, 
                       __ZTSN3fst9ImplToFstINS_18ComposeFstImplBaseINS_6ArcTplINS_16LatticeWeightTplIfEEEENS_17DefaultCacheStoreIS5_EEEENS_3FstIS5_EEEE, 
                       __ZTSN3fst9ImplToFstINS_18ComposeFstImplBaseINS_6ArcTplINS_17TropicalWeightTplIfEEEENS_17DefaultCacheStoreIS5_EEEENS_3FstIS5_EEEE, 
                       __ZTSN3fst9ImplToFstINS_19FactorWeightFstImplINS_9GallicArcINS_6ArcTplINS_12LogWeightTplIfEEEELNS_10GallicTypeE0EEENS_12GallicFactorIiS5_LS7_0EEEEENS_3FstIS8_EEEE, 
                       __ZTSN3fst9LifoQueueIiEE, __ZTSN3fst9QueueBaseIiEE, __ZTSN3fst9VectorFstINS_10ReverseArcINS_6ArcTplINS_12LogWeightTplIfEEEEEENS_11VectorStateIS6_NSt3__19allocatorIS6_EEEEEE, 
                       __ZTSN3fst9VectorFstINS_10ReverseArcINS_6ArcTplINS_17TropicalWeightTplIfEEEEEENS_11VectorStateIS6_NSt3__19allocatorIS6_EEEEEE, 
                       __ZTSN3fst9VectorFstINS_10ReverseArcINS_9GallicArcINS_6ArcTplINS_12LogWeightTplIfEEEELNS_10GallicTypeE0EEEEENS_11VectorStateIS9_NSt3__19allocatorIS9_EEEEEE, 
                       __ZTSN3fst9VectorFstINS_6ArcTplINS_16LatticeWeightTplIfEEEENS_11VectorStateIS4_NSt3__19allocatorIS4_EEEEEE, 
                       __ZTSN3fst9VectorFstINS_6ArcTplINS_23CompactLatticeWeightTplINS_16LatticeWeightTplIfEEiEEEENS_11VectorStateIS6_NSt3__19allocatorIS6_EEEEEE, 
                       __ZTSN3fst9VectorFstINS_9GallicArcINS_6ArcTplINS_12LogWeightTplIfEEEELNS_10GallicTypeE0EEENS_11VectorStateIS7_NSt3__19allocatorIS7_EEEEEE, 
                       __ZTSN5boost10wrapexceptINS_17bad_function_callEEE, __ZTSN5boost16exception_detail10clone_baseE, 
                       __ZTSN5boost17bad_function_callE, __ZTSN5boost9algorithm6detail13token_finderFINS1_10is_any_ofFIcEEEE, 
                       __ZTSN5boost9exceptionE, __ZTSN5kaldi11CuSubMatrixIdEE, __ZTSN5kaldi11CuSubMatrixIfEE, 
                       __ZTSN5kaldi11CuSubVectorIdEE, __ZTSN5kaldi11CuSubVectorIfEE, 
                       __ZTSN5kaldi13basic_pipebufIcEE, __ZTSN5kaldi19TableWriterBothImplINS_17KaldiObjectHolderINS_6VectorIfEEEEEE, 
                       __ZTSN5kaldi19TableWriterImplBaseINS_17KaldiObjectHolderINS_6VectorIfEEEEEE, 
                       __ZTSN5kaldi21TableWriterScriptImplINS_17KaldiObjectHolderINS_6VectorIfEEEEEE, 
                       __ZTSN5kaldi22TableWriterArchiveImplINS_17KaldiObjectHolderINS_6VectorIfEEEEEE, 
                       __ZTSN5kaldi29SequentialTableReaderImplBaseINS_17KaldiObjectHolderINS_6VectorIfEEEEEE, 
                       __ZTSN5kaldi31SequentialTableReaderScriptImplINS_17KaldiObjectHolderINS_6VectorIfEEEEEE, 
                       __ZTSN5kaldi32SequentialTableReaderArchiveImplINS_17KaldiObjectHolderINS_6VectorIfEEEEEE, 
                       __ZTSN5kaldi5nnet124QuantizedAffineTransformIaEE, __ZTSN5kaldi5nnet124QuantizedAffineTransformIsEE, 
                       __ZTSN5kaldi5nnet134VectorwiseQuantizedAffineTransformIaEE, 
                       __ZTSN5kaldi5nnet134VectorwiseQuantizedAffineTransformIsEE, 
                       __ZTSN8nlohmann6detail10type_errorE, __ZTSN8nlohmann6detail11other_errorE, 
                       __ZTSN8nlohmann6detail11parse_errorE, __ZTSN8nlohmann6detail12out_of_rangeE, 
                       __ZTSN8nlohmann6detail16invalid_iteratorE, __ZTSN8nlohmann6detail21output_stream_adapterIcEE, 
                       __ZTSN8nlohmann6detail23output_adapter_protocolIcEE, __ZTSN8nlohmann6detail9exceptionE, 
                       __ZTSNSt3__110__function6__baseIFNS_12basic_stringIcNS_11char_traitsIcEENS_9allocatorIcEEEERKS7_EEE, 
                       __ZTSNSt3__110__function6__baseIFPK17espresso_buffer_tS4_RKNS_12basic_stringIcNS_11char_traitsIcEENS_9allocatorIcEEEESC_EEE, 
                       __ZTSNSt3__110__function6__baseIFiN7SiriTTS10TTSTrainer15CallbackMessageEEEE, 
                       __ZTSNSt3__110__function6__baseIFmmPfEEE, __ZTSNSt3__110__function6__funcIU8__strongU13block_pointerFiN7SiriTTS10TTSTrainer15CallbackMessageEENS_9allocatorIS7_EES5_EE, 
                       __ZTSNSt3__110shared_ptrIN5kaldi15TransitionModelEE27__shared_ptr_default_deleteIS2_S2_EE, 
                       __ZTSNSt3__110shared_ptrIN5kaldi5nnet114XentSmoothVarsEE27__shared_ptr_default_deleteIS3_S3_EE, 
                       __ZTSNSt3__110shared_ptrIN5kaldi5nnet18PdfPriorEE27__shared_ptr_default_deleteIS3_S3_EE, 
                       __ZTSNSt3__114default_deleteIN7SiriTTS10TTSTrainerEEE, __ZTSNSt3__117bad_function_callE, 
                       __ZTSNSt3__120__shared_ptr_emplaceI12SpeechEnergyNS_9allocatorIS1_EEEE, 
                       __ZTSNSt3__120__shared_ptr_emplaceI13PreprocessingNS_9allocatorIS1_EEEE, 
                       __ZTSNSt3__120__shared_ptr_emplaceI14CheckpointableNS_9allocatorIS1_EEEE, 
                       __ZTSNSt3__120__shared_ptr_emplaceI14TrainingEngineNS_9allocatorIS1_EEEE, 
                       __ZTSNSt3__120__shared_ptr_emplaceI15InferenceModuleNS_9allocatorIS1_EEEE, 
                       __ZTSNSt3__120__shared_ptr_emplaceI16TrainingEngineV2NS_9allocatorIS1_EEEE, 
                       __ZTSNSt3__120__shared_ptr_emplaceI17WaveRNNDataFeederNS_9allocatorIS1_EEEE, 
                       __ZTSNSt3__120__shared_ptr_emplaceI17WaveRNNEspressoIONS_9allocatorIS1_EEEE, 
                       __ZTSNSt3__120__shared_ptr_emplaceI18NeuralFEDataFeederNS_9allocatorIS1_EEEE, 
                       __ZTSNSt3__120__shared_ptr_emplaceI18NeuralFEEspressoIONS_9allocatorIS1_EEEE, 
                       __ZTSNSt3__120__shared_ptr_emplaceI19WaveRNNDataFeederV2NS_9allocatorIS1_EEEE, 
                       __ZTSNSt3__120__shared_ptr_emplaceI19WaveRNNModelIONamesNS_9allocatorIS1_EEEE, 
                       __ZTSNSt3__120__shared_ptr_emplaceI21BNNSNDArrayDescriptorNS_9allocatorIS1_EEEE, 
                       __ZTSNSt3__120__shared_ptr_emplaceI25SpeakerNeuralFEEspressoIONS_9allocatorIS1_EEEE, 
                       __ZTSNSt3__120__shared_ptr_emplaceI30WaveRNNDecoupledInferenceModelNS_9allocatorIS1_EEEE, 
                       __ZTSNSt3__120__shared_ptr_emplaceI33ParallelAMDecoupledInferenceModelNS_9allocatorIS1_EEEE, 
                       __ZTSNSt3__120__shared_ptr_emplaceI3MelNS_9allocatorIS1_EEEE, 
                       __ZTSNSt3__120__shared_ptr_emplaceIN15InferenceEngine10DataTensorENS_9allocatorIS2_EEEE, 
                       __ZTSNSt3__120__shared_ptr_emplaceIN15InferenceEngine13Mil2BnnsMilIOENS_9allocatorIS2_EEEE, 
                       __ZTSNSt3__120__shared_ptr_emplaceIN15InferenceEngine25Mil2BnnsMilInferenceModelENS_9allocatorIS2_EEEE, 
                       __ZTSNSt3__120__shared_ptr_emplaceIN15InferenceEngine5MilIOENS_9allocatorIS2_EEEE, 
                       __ZTSNSt3__120__shared_ptr_emplaceIN17WaveRNNDataFeeder14OneBatchReaderENS_9allocatorIS2_EEEE, 
                       __ZTSNSt3__120__shared_ptr_emplaceIN19WaveRNNDataFeederV214OneBatchReaderENS_9allocatorIS2_EEEE, 
                       __ZTSNSt3__120__shared_ptr_emplaceIN3fst11SymbolTableENS_9allocatorIS2_EEEE, 
                       __ZTSNSt3__120__shared_ptr_emplaceIN3fst7ArcInfoENS_9allocatorIS2_EEEE, 
                       __ZTSNSt3__120__shared_ptr_emplaceIN3fst9VectorFstINS1_6ArcTplINS1_17TropicalWeightTplIfEEEENS1_11VectorStateIS6_NS_9allocatorIS6_EEEEEENS8_ISB_EEEE, 
                       __ZTSNSt3__120__shared_ptr_emplaceIN5kaldi10SnrTrackerENS_9allocatorIS2_EEEE, 
                       __ZTSNSt3__120__shared_ptr_emplaceIN5kaldi15TransitionModelENS_9allocatorIS2_EEEE, 
                       __ZTSNSt3__120__shared_ptr_emplaceIN5kaldi17ContextDependencyENS_9allocatorIS2_EEEE, 
                       __ZTSNSt3__120__shared_ptr_emplaceIN5kaldi21TrainingGraphCompilerENS_9allocatorIS2_EEEE, 
                       __ZTSNSt3__120__shared_ptr_emplaceIN5kaldi5nnet117Nnet1InferenceNetENS_9allocatorIS3_EEEE, 
                       __ZTSNSt3__120__shared_ptr_emplaceIN7SiriTTS13SpeechFeature22SpeechFeatureExtractorENS_9allocatorIS3_EEEE, 
                       __ZTSNSt3__120__shared_ptr_emplaceIN7SiriTTS15ForcedAlignment13AcousticModelENS_9allocatorIS3_EEEE, 
                       __ZTSNSt3__120__shared_ptr_emplaceIN7SiriTTS15ForcedAlignment15EspressoSessionENS_9allocatorIS3_EEEE, 
                       __ZTSNSt3__120__shared_ptr_emplaceIN7SiriTTS15ForcedAlignment15ForcedAlignmentENS_9allocatorIS3_EEEE, 
                       __ZTSNSt3__120__shared_ptr_emplaceIN7SiriTTS15ForcedAlignment16FeatureTransformENS_9allocatorIS3_EEEE, 
                       __ZTSNSt3__120__shared_ptr_emplaceIN7SiriTTS15ForcedAlignment8PdfPriorENS_9allocatorIS3_EEEE, 
                       __ZTSNSt3__120__shared_ptr_emplaceIN8nlohmann6detail21output_stream_adapterIcEENS_9allocatorIS4_EEEE, 
                       __ZTSNSt3__120__shared_ptr_pointerIPN5kaldi15TransitionModelENS_10shared_ptrIS2_E27__shared_ptr_default_deleteIS2_S2_EENS_9allocatorIS2_EEEE, 
                       __ZTSNSt3__120__shared_ptr_pointerIPN5kaldi5nnet114XentSmoothVarsENS_10shared_ptrIS3_E27__shared_ptr_default_deleteIS3_S3_EENS_9allocatorIS3_EEEE, 
                       __ZTSNSt3__120__shared_ptr_pointerIPN5kaldi5nnet18PdfPriorENS_10shared_ptrIS3_E27__shared_ptr_default_deleteIS3_S3_EENS_9allocatorIS3_EEEE, 
                       __ZTSNSt3__120__shared_ptr_pointerIPN7SiriTTS10TTSTrainerENS_14default_deleteIS2_EENS_9allocatorIS2_EEEE, 
                       __ZTSNSt3__15dequeIiNS_9allocatorIiEEEE, __ZTSU13block_pointerFiN7SiriTTS10TTSTrainer15CallbackMessageEE ]
  - targets:         [ x86_64-macos, arm64-macos, arm64e-macos ]
    symbols:         [ '_$s15SiriTTSTraining13MobileGestaltV15isInternalBuildSbvgZ', 
                       '_$s15SiriTTSTraining13MobileGestaltVMa', '_$s15SiriTTSTraining13MobileGestaltVMn', 
                       '_$s15SiriTTSTraining13MobileGestaltVN', '_$s15SiriTTSTraining16InternalSettingsC34defaultToNonDiscretionaryDownloadsSbvMTj', 
                       '_$s15SiriTTSTraining16InternalSettingsC34defaultToNonDiscretionaryDownloadsSbvMTq', 
                       '_$s15SiriTTSTraining16InternalSettingsC34defaultToNonDiscretionaryDownloadsSbvgTj', 
                       '_$s15SiriTTSTraining16InternalSettingsC34defaultToNonDiscretionaryDownloadsSbvgTq', 
                       '_$s15SiriTTSTraining16InternalSettingsC34defaultToNonDiscretionaryDownloadsSbvpMV', 
                       '_$s15SiriTTSTraining16InternalSettingsC34defaultToNonDiscretionaryDownloadsSbvsTj', 
                       '_$s15SiriTTSTraining16InternalSettingsC34defaultToNonDiscretionaryDownloadsSbvsTq', 
                       '_$s15SiriTTSTraining16InternalSettingsC6sharedACvgZ', '_$s15SiriTTSTraining16InternalSettingsC7DefaultV12wrappedValuexvM', 
                       '_$s15SiriTTSTraining16InternalSettingsC7DefaultV12wrappedValuexvg', 
                       '_$s15SiriTTSTraining16InternalSettingsC7DefaultV12wrappedValuexvpMV', 
                       '_$s15SiriTTSTraining16InternalSettingsC7DefaultV12wrappedValuexvs', 
                       '_$s15SiriTTSTraining16InternalSettingsC7DefaultVMa', '_$s15SiriTTSTraining16InternalSettingsC7DefaultVMn', 
                       '_$s15SiriTTSTraining16InternalSettingsCMa', '_$s15SiriTTSTraining16InternalSettingsCMm', 
                       '_$s15SiriTTSTraining16InternalSettingsCMn', '_$s15SiriTTSTraining16InternalSettingsCMo', 
                       '_$s15SiriTTSTraining16InternalSettingsCMu', '_$s15SiriTTSTraining16InternalSettingsCN', 
                       '_$s15SiriTTSTraining16InternalSettingsCfD', '_$s15SiriTTSTraining16InternalSettingsCfd', 
                       '_$sSo20SiriTTSTrainingAssetC0aB0E17languageComponentSSvg', 
                       '_$sSo20SiriTTSTrainingAssetC0aB0E17languageComponentSSvpMV', 
                       '_$sSo20SiriTTSTrainingAssetC0aB0E20supportsSecureCodingSbvMZ', 
                       '_$sSo20SiriTTSTrainingAssetC0aB0E20supportsSecureCodingSbvgZ', 
                       '_$sSo20SiriTTSTrainingAssetC0aB0E20supportsSecureCodingSbvsZ', 
                       '_$sSo20SiriTTSTrainingAssetC0aB0E4hashSivg', '_$sSo20SiriTTSTrainingAssetC0aB0E4nameSSvg', 
                       '_$sSo20SiriTTSTrainingAssetC0aB0E4nameSSvpMV', '_$sSo20SiriTTSTrainingAssetC0aB0E5coderABSgSo7NSCoderC_tcfC', 
                       '_$sSo20SiriTTSTrainingAssetC0aB0E5coderABSgSo7NSCoderC_tcfc', 
                       '_$sSo20SiriTTSTrainingAssetC0aB0E6encode4withySo7NSCoderC_tF', 
                       '_$sSo20SiriTTSTrainingAssetC0aB0E7isEqualySbypSgF', '_$sSo20SiriTTSTrainingAssetC0aB0E8diskSizeSivg', 
                       '_$sSo20SiriTTSTrainingAssetC0aB0E8diskSizeSivpMV', '_$sSo20SiriTTSTrainingAssetC0aB0E8languageSSvg', 
                       '_$sSo20SiriTTSTrainingAssetC0aB0E8languageSSvpMV', '_$sSo21SiriTTSTrainerSessionC0A11TTSTrainingE26getInstallingProgressBlock3forySfcSgSo0aD5AssetC_tFZ', 
                       '_$sSo21SiriTTSTrainerSessionC0A11TTSTrainingE3set23installingProgressBlock3foryySfcSg_So0aD5AssetCtFZ', 
                       _FLAGS_fst_align, _FLAGS_fst_compat_symbols, _FLAGS_fst_default_cache_gc, 
                       _FLAGS_fst_default_cache_gc_limit, _FLAGS_fst_error_fatal, 
                       _FLAGS_fst_field_separator, _FLAGS_fst_read_mode, _FLAGS_fst_verify_properties, 
                       _FLAGS_fst_weight_parentheses, _FLAGS_fst_weight_separator, 
                       _FLAGS_help, _FLAGS_helpshort, _FLAGS_save_relabel_ipairs, 
                       _FLAGS_save_relabel_opairs, _FLAGS_tmpdir, _FLAGS_v, _SiriTTSTrainerAgentMachName, 
                       _SiriTTSTrainerGetLog, _SiriTTSTrainerTaskEventCancelledEvent, 
                       _SiriTTSTrainerTaskEventDoneEvent, _SiriTTSTrainerTaskEventFailedEvent, 
                       _SiriTTSTrainerTaskEventPausedEvent, _SiriTTSTrainerTaskEventRunningEvent, 
                       _SiriTTSTrainerTaskEventSubmittedEvent, _SiriTTSTrainerTaskEventUndefinedEvent, 
                       __STTSignpostCreate, __Z12calc_snr_srrddd, __Z12print_manualv, 
                       __Z13convolve_sameRKNSt3__16vectorIdNS_9allocatorIdEEEES5_, 
                       __Z13isolate_voicedmPKd, __Z13list_f0_filesPKcS0_, __Z13vote_f0_filesRNSt3__16vectorINS0_INS0_IdNS_9allocatorIdEEEENS1_IS3_EEEENS1_IS5_EEEERS3_S9_S9_, 
                       __Z14hanning_windowi, __Z15A_filter_coeffsd, __Z16FailedNewHandlerv, 
                       __Z16directory_existsPKc, __Z16vote_f0_externalRNSt3__16vectorINS_5tupleIJNS0_IfNS_9allocatorIfEEEES4_S4_S4_EEENS2_IS5_EEEEi, 
                       __Z20assess_audio_qualityRKNSt3__112basic_stringIcNS_11char_traitsIcEENS_9allocatorIcEEEERK18NormalizationParam, 
                       __Z20assess_audio_qualityRKNSt3__16vectorINS_5tupleIJmPKfEEENS_9allocatorIS4_EEEERK18NormalizationParamb, 
                       __Z23estimate_and_vote_pitchRNSt3__16vectorIsNS_9allocatorIsEEEEiii, 
                       __Z24Diagnostics_GetLogObjectv, __Z26normalize_recording_volumemPKfRK18NormalizationParam, 
                       __Z27assess_audio_quality_onewayRKNSt3__16vectorINS_5tupleIJmPKfEEENS_9allocatorIS4_EEEERK18NormalizationParamb, 
                       __Z7lfilterRKNSt3__16vectorIdNS_9allocatorIdEEEES5_S5_, __Z8bilinearRKNSt3__16vectorIdNS_9allocatorIdEEEES5_d, 
                       __Z8find_vadRKNSt3__16vectorIdNS_9allocatorIdEEEEd, __ZN10DataFeederC2ERKNSt3__112basic_stringIcNS0_11char_traitsIcEENS0_9allocatorIcEEEES8_RKNS_6ConfigE, 
                       __ZN11SignalUtils12mulaw_encodeEff, __ZN11SignalUtils12preemphasizeERKNSt3__16vectorIfNS0_9allocatorIfEEEE, 
                       __ZN11SignalUtils12preemphasizeEff, __ZN11SignalUtils12quantizationEfi, 
                       __ZN11SignalUtils14dequantizationEii, __ZN12DataFeederV213get_loss_nameEv, 
                       __ZN12DataFeederV216get_output_namesEv, __ZN12DataFeederV2C2ERKNSt3__112basic_stringIcNS0_11char_traitsIcEENS0_9allocatorIcEEEES8_RKNS_6ConfigE, 
                       __ZN12PCMPackInt24ILb0EE7processEPvPKvm, __ZN12PCMPackInt24ILb1EE7processEPvPKvm, 
                       __ZN12PCMProcessorD0Ev, __ZN12PCMProcessorD1Ev, __ZN12PCMProcessorD2Ev, 
                       __ZN12SpeechEnergy11parse_inputEiPPc, __ZN12SpeechEnergy12print_manualEv, 
                       __ZN12SpeechEnergy22estimate_speech_energyERNSt3__16vectorIsNS0_9allocatorIsEEEEi, 
                       __ZN12SpeechEnergyC1Ev, __ZN12SpeechEnergyC2Ev, __ZN12TrainingData28copy_espresso_buffer_to_dataEP17espresso_buffer_tRNSt3__16vectorIfNS2_9allocatorIfEEEE, 
                       __ZN13PCMReader_CAFC1ERKNSt3__112basic_stringIcNS0_11char_traitsIcEENS0_9allocatorIcEEEE, 
                       __ZN13PCMReader_CAFC2ERKNSt3__112basic_stringIcNS0_11char_traitsIcEENS0_9allocatorIcEEEE, 
                       __ZN13PCMReader_CAFD0Ev, __ZN13PCMReader_CAFD1Ev, __ZN13PCMReader_CAFD2Ev, 
                       __ZN13PCMReader_WAVC1ERKNSt3__112basic_stringIcNS0_11char_traitsIcEENS0_9allocatorIcEEEE, 
                       __ZN13PCMReader_WAVC2ERKNSt3__112basic_stringIcNS0_11char_traitsIcEENS0_9allocatorIcEEEE, 
                       __ZN13PCMReader_WAVD0Ev, __ZN13PCMReader_WAVD1Ev, __ZN13PCMReader_WAVD2Ev, 
                       __ZN13PCMWriter_CAFC1ERKNSt3__112basic_stringIcNS0_11char_traitsIcEENS0_9allocatorIcEEEERKN7PCMFile4InfoE, 
                       __ZN13PCMWriter_CAFC2ERKNSt3__112basic_stringIcNS0_11char_traitsIcEENS0_9allocatorIcEEEERKN7PCMFile4InfoE, 
                       __ZN13PCMWriter_CAFD0Ev, __ZN13PCMWriter_CAFD1Ev, __ZN13PCMWriter_CAFD2Ev, 
                       __ZN13PCMWriter_WAVC1ERKNSt3__112basic_stringIcNS0_11char_traitsIcEENS0_9allocatorIcEEEERKN7PCMFile4InfoE, 
                       __ZN13PCMWriter_WAVC2ERKNSt3__112basic_stringIcNS0_11char_traitsIcEENS0_9allocatorIcEEEERKN7PCMFile4InfoE, 
                       __ZN13PCMWriter_WAVD0Ev, __ZN13PCMWriter_WAVD1Ev, __ZN13PCMWriter_WAVD2Ev, 
                       __ZN13Preprocessing12extract_melsENSt3__18functionIFiN7SiriTTS10TTSTrainer15CallbackMessageEEEE, 
                       __ZN13Preprocessing13validate_dataEv, __ZN13Preprocessing17realign_durationsERKNSt3__16vectorIfNS0_9allocatorIfEEEEf, 
                       __ZN13Preprocessing18run_unet_inferenceENSt3__110shared_ptrIN15InferenceEngine17MilInferenceModelEEERNS0_6vectorINS5_IfNS0_9allocatorIfEEEENS6_IS8_EEEE, 
                       __ZN13Preprocessing20run_cargan_inferenceENSt3__110shared_ptrIN15InferenceEngine17MilInferenceModelEEERNS0_6vectorINS5_IfNS0_9allocatorIfEEEENS6_IS8_EEEE, 
                       __ZN13Preprocessing20validate_input_audioEv, __ZN13Preprocessing21align_speech_featuresERKNSt3__16vectorIN7SiriTTS13SpeechFeature17SpeechFeatureDataENS0_9allocatorIS4_EEEERKNS1_INS0_12basic_stringIcNS0_11char_traitsIcEENS5_IcEEEENS5_ISE_EEEEfff, 
                       __ZN13Preprocessing21apply_noise_reductionENSt3__18functionIFiN7SiriTTS10TTSTrainer15CallbackMessageEEEE, 
                       __ZN13Preprocessing22extract_speech_featureENSt3__18functionIFiN7SiriTTS10TTSTrainer15CallbackMessageEEEE, 
                       __ZN13Preprocessing22snr_spl_data_filteringEv, __ZN13Preprocessing28compute_audioquality_metricsEv, 
                       __ZN13Preprocessing34remove_silence_from_speechfeaturesERKNSt3__16vectorIN7SiriTTS13SpeechFeature17SpeechFeatureDataENS0_9allocatorIS4_EEEERKNS0_12basic_stringIcNS0_11char_traitsIcEENS5_IcEEEE, 
                       __ZN13Preprocessing37trim_silence_and_adjust_speechfeatureERNSt3__16vectorIN7SiriTTS13SpeechFeature17SpeechFeatureDataENS0_9allocatorIS4_EEEERKNS1_IsNS5_IsEEEEif, 
                       __ZN13Preprocessing4stopEv, __ZN13PreprocessingC1ERKNSt3__112basic_stringIcNS0_11char_traitsIcEENS0_9allocatorIcEEEES8_S8_S8_, 
                       __ZN13PreprocessingC2ERKNSt3__112basic_stringIcNS0_11char_traitsIcEENS0_9allocatorIcEEEES8_S8_S8_, 
                       __ZN13TrainingUtils18write_json_to_fileERKNSt3__112basic_stringIcNS0_11char_traitsIcEENS0_9allocatorIcEEEERKN8nlohmann10basic_jsonINS0_3mapENS0_6vectorES6_bxydS4_NS9_14adl_serializerENSC_IhNS4_IhEEEEEE, 
                       __ZN13TrainingUtils19read_json_from_fileERKNSt3__112basic_stringIcNS0_11char_traitsIcEENS0_9allocatorIcEEEE, 
                       __ZN13TrainingUtils19write_bytes_to_fileERKNSt3__112basic_stringIcNS0_11char_traitsIcEENS0_9allocatorIcEEEEPvm, 
                       __ZN13TrainingUtils22write_metadata_to_fileERKNSt3__112basic_stringIcNS0_11char_traitsIcEENS0_9allocatorIcEEEERKNS0_6vectorIN8nlohmann10basic_jsonINS0_3mapES9_S6_bxydS4_NSA_14adl_serializerENS9_IhNS4_IhEEEEEENS4_ISG_EEEE, 
                       __ZN13TrainingUtils23read_metadata_from_fileERKNSt3__112basic_stringIcNS0_11char_traitsIcEENS0_9allocatorIcEEEE, 
                       __ZN13TrainingUtils25copy_espresso_buffer_dataERK17espresso_buffer_tRS0_, 
                       __ZN13TrainingUtils26scale_espresso_buffer_dataERK17espresso_buffer_tf, 
                       __ZN13TrainingUtils31accumulate_espresso_buffer_dataERK17espresso_buffer_tRS0_f, 
                       __ZN14Checkpointable15load_checkpointEv, __ZN14Checkpointable16write_checkpointERKNSt3__112basic_stringIcNS0_11char_traitsIcEENS0_9allocatorIcEEEEi, 
                       __ZN14Checkpointable17remove_checkpointEv, __ZN14Checkpointable17should_skip_stageERKNSt3__112basic_stringIcNS0_11char_traitsIcEENS0_9allocatorIcEEEE, 
                       __ZN14Checkpointable19has_checkpoint_syncEv, __ZN14Checkpointable25get_checkpoint_stage_stepERKNSt3__112basic_stringIcNS0_11char_traitsIcEENS0_9allocatorIcEEEE, 
                       __ZN14CheckpointableC1ERKNSt3__112basic_stringIcNS0_11char_traitsIcEENS0_9allocatorIcEEEE, 
                       __ZN14CheckpointableC2ERKNSt3__112basic_stringIcNS0_11char_traitsIcEENS0_9allocatorIcEEEE, 
                       __ZN14InferenceModel15set_mil_weightsERKNSt3__112basic_stringIcNS0_11char_traitsIcEENS0_9allocatorIcEEEES8_S8_RKNS0_6vectorIS6_NS4_IS6_EEEERKNS0_13unordered_mapIS6_17espresso_buffer_tNS0_4hashIS6_EENS0_8equal_toIS6_EENS4_INS0_4pairIS7_SF_EEEEEERKNS0_3mapIS6_S6_NS0_4lessIS6_EENS4_INSK_IS7_S6_EEEEEENS0_8functionIFPKSF_S10_S8_S8_EEE, 
                       __ZN14InferenceModel26get_model_weight_precisionEv, __ZN14InferenceModel38get_saved_model_checkpoint_config_pathERKNSt3__112basic_stringIcNS0_11char_traitsIcEENS0_9allocatorIcEEEES8_, 
                       __ZN14InferenceModelC2ERKNSt3__112basic_stringIcNS0_11char_traitsIcEENS0_9allocatorIcEEEES8_, 
                       __ZN14TrainingEngine12copy_weightsERNSt3__113unordered_mapINS0_12basic_stringIcNS0_11char_traitsIcEENS0_9allocatorIcEEEE17espresso_buffer_tNS0_4hashIS7_EENS0_8equal_toIS7_EENS5_INS0_4pairIKS7_S8_EEEEEESI_, 
                       __ZN14TrainingEngine13scale_weightsERNSt3__113unordered_mapINS0_12basic_stringIcNS0_11char_traitsIcEENS0_9allocatorIcEEEE17espresso_buffer_tNS0_4hashIS7_EENS0_8equal_toIS7_EENS5_INS0_4pairIKS7_S8_EEEEEEf, 
                       __ZN14TrainingEngine14update_ma_lossEfi, __ZN14TrainingEngine15save_checkpointEiRKNSt3__112basic_stringIcNS0_11char_traitsIcEENS0_9allocatorIcEEEE, 
                       __ZN14TrainingEngine15setup_optimizerEv, __ZN14TrainingEngine17get_learning_rateEfifii, 
                       __ZN14TrainingEngine18accumulate_weightsERNSt3__113unordered_mapINS0_12basic_stringIcNS0_11char_traitsIcEENS0_9allocatorIcEEEE17espresso_buffer_tNS0_4hashIS7_EENS0_8equal_toIS7_EENS5_INS0_4pairIKS7_S8_EEEEEESI_f, 
                       __ZN14TrainingEngine18populate_desc_ptrsERNSt3__16vectorI21BNNSNDArrayDescriptorNS0_9allocatorIS2_EEEERNS1_IPKS2_NS3_IS8_EEEE, 
                       __ZN14TrainingEngine18populate_desc_ptrsERNSt3__16vectorI21BNNSNDArrayDescriptorNS0_9allocatorIS2_EEEERNS1_IPS2_NS3_IS7_EEEE, 
                       __ZN14TrainingEngine19emit_training_eventENSt3__18functionIFiN7SiriTTS10TTSTrainer15CallbackMessageEEEEmm, 
                       __ZN14TrainingEngine23save_to_inference_modelEv, __ZN14TrainingEngine29get_stair_decay_learning_rateEfifi, 
                       __ZN14TrainingEngine33populate_descs_from_espresso_bufsERNSt3__16vectorI21BNNSNDArrayDescriptorNS0_9allocatorIS2_EEEERKNS0_13unordered_mapINS0_12basic_stringIcNS0_11char_traitsIcEENS3_IcEEEE17espresso_buffer_tNS0_4hashISC_EENS0_8equal_toISC_EENS3_INS0_4pairIKSC_SD_EEEEEENS0_8functionIFSC_RSJ_EEE, 
                       __ZN14TrainingEngine39bnns_array_descriptor_from_espresso_bufER21BNNSNDArrayDescriptorRK17espresso_buffer_t, 
                       __ZN14TrainingEngine4stopEv, __ZN14TrainingEngine5trainENSt3__18functionIFiN7SiriTTS10TTSTrainer15CallbackMessageEEEE, 
                       __ZN14TrainingEngineC1ERKNSt3__112basic_stringIcNS0_11char_traitsIcEENS0_9allocatorIcEEEES8_S8_S8_, 
                       __ZN14TrainingEngineC2ERKNSt3__112basic_stringIcNS0_11char_traitsIcEENS0_9allocatorIcEEEES8_S8_S8_, 
                       __ZN14TrainingEngineD1Ev, __ZN14TrainingEngineD2Ev, __ZN15EffectAudioUnit6createEdjjj, 
                       __ZN15EffectAudioUnitD0Ev, __ZN15EffectAudioUnitD1Ev, __ZN15EffectAudioUnitD2Ev, 
                       __ZN15InferenceEngine10DataTensor11valid_shapeERKNSt3__16vectorImNS1_9allocatorImEEEES7_bb, 
                       __ZN15InferenceEngine10DataTensor13get_data_sizeEv, __ZN15InferenceEngine10DataTensor14init_data_sizeEv, 
                       __ZN15InferenceEngine10DataTensor15allocate_memoryEv, __ZN15InferenceEngine10DataTensor16is_dynamic_shapeEv, 
                       __ZN15InferenceEngine10DataTensor26cast_data_to_target_tensorENSt3__110shared_ptrIS0_EE, 
                       __ZN15InferenceEngine10DataTensor6resizeENSt3__16vectorImNS1_9allocatorImEEEE, 
                       __ZN15InferenceEngine10DataTensor8get_nameEv, __ZN15InferenceEngine10DataTensor8get_rankEv, 
                       __ZN15InferenceEngine10DataTensor8get_sizeEv, __ZN15InferenceEngine10DataTensor8set_rankEm, 
                       __ZN15InferenceEngine10DataTensor9get_dtypeEv, __ZN15InferenceEngine10DataTensor9get_shapeEb, 
                       __ZN15InferenceEngine10DataTensor9set_shapeENSt3__16vectorImNS1_9allocatorImEEEE, 
                       __ZN15InferenceEngine10DataTensorC1ERKNSt3__112basic_stringIcNS1_11char_traitsIcEENS1_9allocatorIcEEEES9_, 
                       __ZN15InferenceEngine10DataTensorC1ERKNSt3__112basic_stringIcNS1_11char_traitsIcEENS1_9allocatorIcEEEES9_RKNS1_6vectorImNS5_ImEEEE, 
                       __ZN15InferenceEngine10DataTensorC2ERKNSt3__112basic_stringIcNS1_11char_traitsIcEENS1_9allocatorIcEEEES9_, 
                       __ZN15InferenceEngine10DataTensorC2ERKNSt3__112basic_stringIcNS1_11char_traitsIcEENS1_9allocatorIcEEEES9_RKNS1_6vectorImNS5_ImEEEE, 
                       __ZN15InferenceEngine10DataTensorD0Ev, __ZN15InferenceEngine10DataTensorD1Ev, 
                       __ZN15InferenceEngine10DataTensorD2Ev, __ZN15InferenceEngine13Mil2BnnsMilIO29set_framework_specific_bufferEv, 
                       __ZN15InferenceEngine13Mil2BnnsMilIO30read_framework_specific_bufferEv, 
                       __ZN15InferenceEngine13Mil2BnnsMilIOC1ERKNSt3__112basic_stringIcNS1_11char_traitsIcEENS1_9allocatorIcEEEES9_S9_RKNS1_6vectorImNS5_ImEEEEb, 
                       __ZN15InferenceEngine13Mil2BnnsMilIOC2ERKNSt3__112basic_stringIcNS1_11char_traitsIcEENS1_9allocatorIcEEEES9_S9_RKNS1_6vectorImNS5_ImEEEEb, 
                       __ZN15InferenceEngine15StringFormatter6appendEPKcz, __ZN15InferenceEngine15StringFormatterC1EPKcz, 
                       __ZN15InferenceEngine15StringFormatterC2EPKcz, __ZN15InferenceEngine17MilInferenceModel10get_outputERKNSt3__112basic_stringIcNS1_11char_traitsIcEENS1_9allocatorIcEEEE, 
                       __ZN15InferenceEngine17MilInferenceModel13add_model_iosERKNSt3__16vectorIN8nlohmann10basic_jsonINS1_3mapES2_NS1_12basic_stringIcNS1_11char_traitsIcEENS1_9allocatorIcEEEEbxydS9_NS3_14adl_serializerENS2_IhNS9_IhEEEEEENS9_ISF_EEEERNS1_13unordered_mapISB_NS1_10shared_ptrINS_5MilIOEEENS1_4hashISB_EENS1_8equal_toISB_EENS9_INS1_4pairIKSB_SN_EEEEEE, 
                       __ZN15InferenceEngine17MilInferenceModel13get_output_ioERKNSt3__112basic_stringIcNS1_11char_traitsIcEENS1_9allocatorIcEEEE, 
                       __ZN15InferenceEngine17MilInferenceModel5cleanEv, __ZN15InferenceEngine17MilInferenceModel7prepareEv, 
                       __ZN15InferenceEngine17MilInferenceModel8build_ioERKNSt3__112basic_stringIcNS1_11char_traitsIcEENS1_9allocatorIcEEEES9_S9_RKNS1_6vectorImNS5_ImEEEE, 
                       __ZN15InferenceEngine17MilInferenceModel9set_inputENSt3__110shared_ptrINS_10DataTensorEEE, 
                       __ZN15InferenceEngine17MilInferenceModelC2ERKNSt3__112basic_stringIcNS1_11char_traitsIcEENS1_9allocatorIcEEEE, 
                       __ZN15InferenceEngine17MilInferenceModelD1Ev, __ZN15InferenceEngine17MilInferenceModelD2Ev, 
                       __ZN15InferenceEngine24Diagnostics_GetLogObjectEv, __ZN15InferenceEngine25Mil2BnnsMilInferenceModel5cleanEv, 
                       __ZN15InferenceEngine25Mil2BnnsMilInferenceModel7executeEv, 
                       __ZN15InferenceEngine25Mil2BnnsMilInferenceModel7prepareEv, 
                       __ZN15InferenceEngine25Mil2BnnsMilInferenceModel8build_ioERKNSt3__112basic_stringIcNS1_11char_traitsIcEENS1_9allocatorIcEEEES9_S9_RKNS1_6vectorImNS5_ImEEEE, 
                       __ZN15InferenceEngine25Mil2BnnsMilInferenceModelC1ERKNSt3__112basic_stringIcNS1_11char_traitsIcEENS1_9allocatorIcEEEE, 
                       __ZN15InferenceEngine25Mil2BnnsMilInferenceModelC2ERKNSt3__112basic_stringIcNS1_11char_traitsIcEENS1_9allocatorIcEEEE, 
                       __ZN15InferenceEngine25Mil2BnnsMilInferenceModelD1Ev, __ZN15InferenceEngine25Mil2BnnsMilInferenceModelD2Ev, 
                       __ZN15InferenceEngine5MilIO11get_io_nameEv, __ZN15InferenceEngine5MilIOC1ERKNSt3__112basic_stringIcNS1_11char_traitsIcEENS1_9allocatorIcEEEES9_S9_, 
                       __ZN15InferenceEngine5MilIOC1ERKNSt3__112basic_stringIcNS1_11char_traitsIcEENS1_9allocatorIcEEEES9_S9_RKNS1_6vectorImNS5_ImEEEE, 
                       __ZN15InferenceEngine5MilIOC2ERKNSt3__112basic_stringIcNS1_11char_traitsIcEENS1_9allocatorIcEEEES9_S9_, 
                       __ZN15InferenceEngine5MilIOC2ERKNSt3__112basic_stringIcNS1_11char_traitsIcEENS1_9allocatorIcEEEES9_S9_RKNS1_6vectorImNS5_ImEEEE, 
                       __ZN15InferenceEngine5Utils18write_json_to_fileERKNSt3__112basic_stringIcNS1_11char_traitsIcEENS1_9allocatorIcEEEERKN8nlohmann10basic_jsonINS1_3mapENS1_6vectorES7_bxydS5_NSA_14adl_serializerENSD_IhNS5_IhEEEEEE, 
                       __ZN15InferenceEngine5Utils19read_json_from_fileERKNSt3__112basic_stringIcNS1_11char_traitsIcEENS1_9allocatorIcEEEE, 
                       __ZN15InferenceEngine5Utils22write_metadata_to_fileERKNSt3__112basic_stringIcNS1_11char_traitsIcEENS1_9allocatorIcEEEERKNS1_6vectorIN8nlohmann10basic_jsonINS1_3mapESA_S7_bxydS5_NSB_14adl_serializerENSA_IhNS5_IhEEEEEENS5_ISH_EEEE, 
                       __ZN15InferenceEngine5Utils23read_metadata_from_fileERKNSt3__112basic_stringIcNS1_11char_traitsIcEENS1_9allocatorIcEEEE, 
                       __ZN15InferenceEngine9DataUtils10copy_shapeERKNSt3__16vectorImNS1_9allocatorImEEEERS5_b, 
                       __ZN15InferenceEngine9DataUtils25write_binary_data_to_fileERKNSt3__112basic_stringIcNS1_11char_traitsIcEENS1_9allocatorIcEEEEPvm, 
                       __ZN15InferenceEngine9DataUtils8get_sizeERKNSt3__16vectorImNS1_9allocatorImEEEE, 
                       __ZN15InferenceModuleC1ERKNSt3__112basic_stringIcNS0_11char_traitsIcEENS0_9allocatorIcEEEES8_, 
                       __ZN15InferenceModuleC2ERKNSt3__112basic_stringIcNS0_11char_traitsIcEENS0_9allocatorIcEEEES8_, 
                       __ZN15PCMExtractInt24IfLb0EE7processEPvPKvm, __ZN15PCMExtractInt24IfLb1EE7processEPvPKvm, 
                       __ZN15PCMExtractInt24IiLb0EE7processEPvPKvm, __ZN15PCMExtractInt24IiLb1EE7processEPvPKvm, 
                       __ZN15PCMExtractInt24IsLb0EE7processEPvPKvm, __ZN15PCMExtractInt24IsLb1EE7processEPvPKvm, 
                       __ZN15StringFormatter6appendEPKcz, __ZN15StringFormatterC1EPKcz, 
                       __ZN15StringFormatterC2EPKcz, __ZN16TrainingEngineV212copy_weightsERNSt3__113unordered_mapINS0_12basic_stringIcNS0_11char_traitsIcEENS0_9allocatorIcEEEENS0_10shared_ptrIN15InferenceEngine10DataTensorEEENS0_4hashIS7_EENS0_8equal_toIS7_EENS5_INS0_4pairIKS7_SB_EEEEEESL_, 
                       __ZN16TrainingEngineV213scale_weightsERNSt3__113unordered_mapINS0_12basic_stringIcNS0_11char_traitsIcEENS0_9allocatorIcEEEENS0_10shared_ptrIN15InferenceEngine5MilIOEEENS0_4hashIS7_EENS0_8equal_toIS7_EENS5_INS0_4pairIKS7_SB_EEEEEEf, 
                       __ZN16TrainingEngineV214update_ma_lossEfi, __ZN16TrainingEngineV215save_checkpointEi, 
                       __ZN16TrainingEngineV215setup_optimizerEv, __ZN16TrainingEngineV217get_learning_rateEfifii, 
                       __ZN16TrainingEngineV218accumulate_weightsERNSt3__113unordered_mapINS0_12basic_stringIcNS0_11char_traitsIcEENS0_9allocatorIcEEEENS0_10shared_ptrIN15InferenceEngine5MilIOEEENS0_4hashIS7_EENS0_8equal_toIS7_EENS5_INS0_4pairIKS7_SB_EEEEEESL_f, 
                       __ZN16TrainingEngineV218populate_desc_ptrsERNSt3__16vectorI21BNNSNDArrayDescriptorNS0_9allocatorIS2_EEEERNS1_IPKS2_NS3_IS8_EEEE, 
                       __ZN16TrainingEngineV218populate_desc_ptrsERNSt3__16vectorI21BNNSNDArrayDescriptorNS0_9allocatorIS2_EEEERNS1_IPS2_NS3_IS7_EEEE, 
                       __ZN16TrainingEngineV219emit_training_eventENSt3__18functionIFiN7SiriTTS10TTSTrainer15CallbackMessageEEEEmm, 
                       __ZN16TrainingEngineV223is_checkpoint_supportedEv, __ZN16TrainingEngineV223save_to_inference_modelEv, 
                       __ZN16TrainingEngineV224populate_descs_from_bufsERNSt3__16vectorI21BNNSNDArrayDescriptorNS0_9allocatorIS2_EEEERNS0_13unordered_mapINS0_12basic_stringIcNS0_11char_traitsIcEENS3_IcEEEENS0_10shared_ptrIN15InferenceEngine5MilIOEEENS0_4hashISC_EENS0_8equal_toISC_EENS3_INS0_4pairIKSC_SG_EEEEEE, 
                       __ZN16TrainingEngineV229get_stair_decay_learning_rateEfifi, 
                       __ZN16TrainingEngineV230bnns_array_descriptor_from_bufER21BNNSNDArrayDescriptorNSt3__110shared_ptrIN15InferenceEngine5MilIOEEE, 
                       __ZN16TrainingEngineV24stopEv, __ZN16TrainingEngineV25trainENSt3__18functionIFiN7SiriTTS10TTSTrainer15CallbackMessageEEEE, 
                       __ZN16TrainingEngineV2C1ERKNSt3__112basic_stringIcNS0_11char_traitsIcEENS0_9allocatorIcEEEES8_S8_S8_, 
                       __ZN16TrainingEngineV2C2ERKNSt3__112basic_stringIcNS0_11char_traitsIcEENS0_9allocatorIcEEEES8_S8_S8_, 
                       __ZN16TrainingEngineV2D1Ev, __ZN16TrainingEngineV2D2Ev, __ZN17WaveRNNDataFeeder12fetch_outputEi, 
                       __ZN17WaveRNNDataFeeder13batching_dataERNSt3__16vectorI16WaveRNNTrainDataNS0_9allocatorIS2_EEEE, 
                       __ZN17WaveRNNDataFeeder14OneBatchReader10fetch_dataEv, __ZN17WaveRNNDataFeeder14OneBatchReader5resetEv, 
                       __ZN17WaveRNNDataFeeder14OneBatchReader9read_dataERKN8nlohmann10basic_jsonINSt3__13mapENS3_6vectorENS3_12basic_stringIcNS3_11char_traitsIcEENS3_9allocatorIcEEEEbxydS9_NS1_14adl_serializerENS5_IhNS9_IhEEEEEE, 
                       __ZN17WaveRNNDataFeeder14OneBatchReaderC1ERN5boost10filesystem4pathERKNSt3__16vectorIN8nlohmann10basic_jsonINS5_3mapES6_NS5_12basic_stringIcNS5_11char_traitsIcEENS5_9allocatorIcEEEEbxydSD_NS7_14adl_serializerENS6_IhNSD_IhEEEEEENSD_ISJ_EEEERNS5_26linear_congruential_engineIjLj48271ELj0ELj2147483647EEERKNS_6ConfigE, 
                       __ZN17WaveRNNDataFeeder14OneBatchReaderC2ERN5boost10filesystem4pathERKNSt3__16vectorIN8nlohmann10basic_jsonINS5_3mapES6_NS5_12basic_stringIcNS5_11char_traitsIcEENS5_9allocatorIcEEEEbxydSD_NS7_14adl_serializerENS6_IhNSD_IhEEEEEENSD_ISJ_EEEERNS5_26linear_congruential_engineIjLj48271ELj0ELj2147483647EEERKNS_6ConfigE, 
                       __ZN17WaveRNNDataFeeder24convert_to_espresso_dataEiRKNSt3__16vectorI16WaveRNNTrainDataNS0_9allocatorIS2_EEEENS0_10shared_ptrI17WaveRNNEspressoIOEE, 
                       __ZN17WaveRNNDataFeeder5resetEv, __ZN17WaveRNNDataFeeder7getDataEii, 
                       __ZN17WaveRNNDataFeederC1ERKNSt3__112basic_stringIcNS0_11char_traitsIcEENS0_9allocatorIcEEEES8_RKNS_6ConfigE, 
                       __ZN17WaveRNNDataFeederC2ERKNSt3__112basic_stringIcNS0_11char_traitsIcEENS0_9allocatorIcEEEES8_RKNS_6ConfigE, 
                       __ZN17WaveRNNEspressoIO14declare_outputEP18espresso_network_t, 
                       __ZN17WaveRNNEspressoIO15reshape_networkEP18espresso_network_t, 
                       __ZN17WaveRNNEspressoIO7bindIOsEP18espresso_network_t, __ZN17WaveRNNEspressoIO8get_lossEv, 
                       __ZN17WaveRNNEspressoIOC1Ev, __ZN17WaveRNNEspressoIOC2Ev, 
                       __ZN18NeuralFEDataFeeder10fetch_dataERKN8nlohmann10basic_jsonINSt3__13mapENS2_6vectorENS2_12basic_stringIcNS2_11char_traitsIcEENS2_9allocatorIcEEEEbxydS8_NS0_14adl_serializerENS4_IhNS8_IhEEEEEE, 
                       __ZN18NeuralFEDataFeeder13batching_dataERNSt3__16vectorI17NeuralFETrainDataNS0_9allocatorIS2_EEEE, 
                       __ZN18NeuralFEDataFeeder13preset_bufferEv, __ZN18NeuralFEDataFeeder13token_mappingERKNSt3__16vectorINS0_12basic_stringIcNS0_11char_traitsIcEENS0_9allocatorIcEEEENS5_IS7_EEEERNS0_3mapIS7_iNS0_4lessIS7_EENS5_INS0_4pairIKS7_iEEEEEE, 
                       __ZN18NeuralFEDataFeeder24convert_to_espresso_dataEiRKNSt3__16vectorI17NeuralFETrainDataNS0_9allocatorIS2_EEEENS0_10shared_ptrI18NeuralFEEspressoIOEE, 
                       __ZN18NeuralFEDataFeeder24split_tokens_from_stringERKNSt3__112basic_stringIcNS0_11char_traitsIcEENS0_9allocatorIcEEEES8_, 
                       __ZN18NeuralFEDataFeeder5resetEv, __ZN18NeuralFEDataFeeder7getDataEii, 
                       __ZN18NeuralFEDataFeederC1ERKNSt3__112basic_stringIcNS0_11char_traitsIcEENS0_9allocatorIcEEEES8_RKNS_6ConfigE, 
                       __ZN18NeuralFEDataFeederC2ERKNSt3__112basic_stringIcNS0_11char_traitsIcEENS0_9allocatorIcEEEES8_RKNS_6ConfigE, 
                       __ZN18NeuralFEEspressoIO14declare_outputEP18espresso_network_t, 
                       __ZN18NeuralFEEspressoIO15reshape_networkEP18espresso_network_t, 
                       __ZN18NeuralFEEspressoIO7bindIOsEP18espresso_network_t, __ZN18NeuralFEEspressoIO8get_lossEv, 
                       __ZN18NeuralFEEspressoIOC1Ev, __ZN18NeuralFEEspressoIOC2Ev, 
                       __ZN19EffectAudioUnitImpl15render_callbackEPjPK14AudioTimeStampjjP15AudioBufferList, 
                       __ZN19EffectAudioUnitImpl6renderEmPfNSt3__18functionIFmmS0_EEE, 
                       __ZN19EffectAudioUnitImplC1Edjjj, __ZN19EffectAudioUnitImplC2Edjjj, 
                       __ZN19EffectAudioUnitImplD0Ev, __ZN19EffectAudioUnitImplD1Ev, 
                       __ZN19EffectAudioUnitImplD2Ev, __ZN19WaveRNNDataFeederV211save_outputEiRKNSt3__16vectorINS0_10shared_ptrIN15InferenceEngine10DataTensorEEENS0_9allocatorIS5_EEEE, 
                       __ZN19WaveRNNDataFeederV214OneBatchReader10fetch_dataEv, __ZN19WaveRNNDataFeederV214OneBatchReader5resetEv, 
                       __ZN19WaveRNNDataFeederV214OneBatchReader9read_dataERKN8nlohmann10basic_jsonINSt3__13mapENS3_6vectorENS3_12basic_stringIcNS3_11char_traitsIcEENS3_9allocatorIcEEEEbxydS9_NS1_14adl_serializerENS5_IhNS9_IhEEEEEE, 
                       __ZN19WaveRNNDataFeederV214OneBatchReaderC1ERN5boost10filesystem4pathERKNSt3__16vectorIN8nlohmann10basic_jsonINS5_3mapES6_NS5_12basic_stringIcNS5_11char_traitsIcEENS5_9allocatorIcEEEEbxydSD_NS7_14adl_serializerENS6_IhNSD_IhEEEEEENSD_ISJ_EEEERNS5_26linear_congruential_engineIjLj48271ELj0ELj2147483647EEERKNS_6ConfigE, 
                       __ZN19WaveRNNDataFeederV214OneBatchReaderC2ERN5boost10filesystem4pathERKNSt3__16vectorIN8nlohmann10basic_jsonINS5_3mapES6_NS5_12basic_stringIcNS5_11char_traitsIcEENS5_9allocatorIcEEEEbxydSD_NS7_14adl_serializerENS6_IhNSD_IhEEEEEENSD_ISJ_EEEERNS5_26linear_congruential_engineIjLj48271ELj0ELj2147483647EEERKNS_6ConfigE, 
                       __ZN19WaveRNNDataFeederV222convert_to_tensor_dataEiRKNSt3__16vectorI18WaveRNNTrainDataV2NS0_9allocatorIS2_EEEE, 
                       __ZN19WaveRNNDataFeederV25resetEv, __ZN19WaveRNNDataFeederV27getDataEii, 
                       __ZN19WaveRNNDataFeederV2C1ERKNSt3__112basic_stringIcNS0_11char_traitsIcEENS0_9allocatorIcEEEES8_RKNS_6ConfigE, 
                       __ZN19WaveRNNDataFeederV2C2ERKNSt3__112basic_stringIcNS0_11char_traitsIcEENS0_9allocatorIcEEEES8_RKNS_6ConfigE, 
                       __ZN19WaveRNNModelIONames13get_loss_nameEv, __ZN19WaveRNNModelIONames16get_output_namesEv, 
                       __ZN19WaveRNNModelIONamesC1Ev, __ZN19WaveRNNModelIONamesC2Ev, 
                       __ZN21BatchWaveRNNTrainDataC1ERKNSt3__16vectorI16WaveRNNTrainDataNS0_9allocatorIS2_EEEE, 
                       __ZN21BatchWaveRNNTrainDataC2ERKNSt3__16vectorI16WaveRNNTrainDataNS0_9allocatorIS2_EEEE, 
                       __ZN22BatchNeuralFETrainDataC1ERKNSt3__16vectorI17NeuralFETrainDataNS0_9allocatorIS2_EEEE, 
                       __ZN22BatchNeuralFETrainDataC2ERKNSt3__16vectorI17NeuralFETrainDataNS0_9allocatorIS2_EEEE, 
                       __ZN23BatchWaveRNNTrainDataV2C1ERKNSt3__16vectorI18WaveRNNTrainDataV2NS0_9allocatorIS2_EEEE, 
                       __ZN23BatchWaveRNNTrainDataV2C2ERKNSt3__16vectorI18WaveRNNTrainDataV2NS0_9allocatorIS2_EEEE, 
                       __ZN25SpeakerNeuralFEEspressoIO13preset_bufferEv, __ZN25SpeakerNeuralFEEspressoIO7bindIOsEP18espresso_network_t, 
                       __ZN25SpeakerNeuralFEEspressoIOC1Eii, __ZN25SpeakerNeuralFEEspressoIOC2Eii, 
                       __ZN30WaveRNNDecoupledInferenceModel34copy_training_net_to_inference_netERKNSt3__113unordered_mapINS0_12basic_stringIcNS0_11char_traitsIcEENS0_9allocatorIcEEEE17espresso_buffer_tNS0_4hashIS7_EENS0_8equal_toIS7_EENS5_INS0_4pairIKS7_S8_EEEEEE, 
                       __ZN30WaveRNNDecoupledInferenceModelC1ERKNSt3__112basic_stringIcNS0_11char_traitsIcEENS0_9allocatorIcEEEES8_, 
                       __ZN30WaveRNNDecoupledInferenceModelC2ERKNSt3__112basic_stringIcNS0_11char_traitsIcEENS0_9allocatorIcEEEES8_, 
                       __ZN30WaveRNNDecoupledInferenceModelD1Ev, __ZN30WaveRNNDecoupledInferenceModelD2Ev, 
                       __ZN33ParallelAMDecoupledInferenceModel34copy_training_net_to_inference_netERKNSt3__113unordered_mapINS0_12basic_stringIcNS0_11char_traitsIcEENS0_9allocatorIcEEEE17espresso_buffer_tNS0_4hashIS7_EENS0_8equal_toIS7_EENS5_INS0_4pairIKS7_S8_EEEEEE, 
                       __ZN33ParallelAMDecoupledInferenceModelC1ERKNSt3__112basic_stringIcNS0_11char_traitsIcEENS0_9allocatorIcEEEES8_, 
                       __ZN33ParallelAMDecoupledInferenceModelC2ERKNSt3__112basic_stringIcNS0_11char_traitsIcEENS0_9allocatorIcEEEES8_, 
                       __ZN3DSP10wiirfilterERNSt3__16vectorIdNS0_9allocatorIdEEEES5_S5_d, 
                       __ZN3DSP10wiirfilterERNSt3__16vectorIfNS0_9allocatorIfEEEES5_S5_d, 
                       __ZN3DSP11fft_warpingERNSt3__16vectorIfNS0_9allocatorIfEEEERNS1_IS4_NS2_IS4_EEEE, 
                       __ZN3DSP11interpolateERNSt3__16vectorIfNS0_9allocatorIfEEEES5_f, 
                       __ZN3DSP11remove_meanERNSt3__16vectorIdNS0_9allocatorIdEEEE, 
                       __ZN3DSP11samples2wavERNSt3__16vectorIsNS0_9allocatorIsEEEEiNS0_12basic_stringIcNS0_11char_traitsIcEENS2_IcEEEE, 
                       __ZN3DSP11wav2samplesENSt3__112basic_stringIcNS0_11char_traitsIcEENS0_9allocatorIcEEEERi, 
                       __ZN3DSP11window_hannEi, __ZN3DSP12hard_limiterEd, __ZN3DSP13alphas2sigmasENSt3__16vectorIdNS0_9allocatorIdEEEERS4_id, 
                       __ZN3DSP13alphas2sigmasENSt3__16vectorIfNS0_9allocatorIfEEEERNS1_IdNS2_IdEEEEid, 
                       __ZN3DSP13conv_bit_sizeEji, __ZN3DSP13poly2spectrumERNSt3__16vectorIfNS0_9allocatorIfEEEEif, 
                       __ZN3DSP13read_wav_dataEPNSt3__16vectorIiNS0_9allocatorIiEEEEjmP7__sFILE, 
                       __ZN3DSP13spectrum2polyERNSt3__16vectorIfNS0_9allocatorIfEEEEiRf, 
                       __ZN3DSP14all_pass_delayERNSt3__16vectorIfNS0_9allocatorIfEEEEd, 
                       __ZN3DSP14complex2signalERNSt3__16vectorIfNS0_9allocatorIfEEEEiiiS5_S5_S5_RP14OpaqueFFTSetup, 
                       __ZN3DSP14gradient_indexERNSt3__16vectorIdNS0_9allocatorIdEEEE, 
                       __ZN3DSP14signal2complexENSt3__16vectorIfNS0_9allocatorIfEEEEiiRS4_S5_S5_RP14OpaqueFFTSetup, 
                       __ZN3DSP14window_hammingEi, __ZN3DSP15levinson_durbinERNSt3__16vectorIdNS0_9allocatorIdEEEE, 
                       __ZN3DSP15read_wav_headerEPjS0_PmP7__sFILE, __ZN3DSP15wav2samples_rawENSt3__112basic_stringIcNS0_11char_traitsIcEENS0_9allocatorIcEEEERiRj, 
                       __ZN3DSP15window_blackmanEi, __ZN3DSP16LittleEndianBlob9push_backEPKc, 
                       __ZN3DSP16LittleEndianBlob9push_backEh, __ZN3DSP16LittleEndianBlob9push_backEj, 
                       __ZN3DSP16LittleEndianBlob9push_backEt, __ZN3DSP16create_directoryENSt3__112basic_stringIcNS0_11char_traitsIcEENS0_9allocatorIcEEEE, 
                       __ZN3DSP16fft_sanity_checkEiib, __ZN3DSP16fft_vDSP_inverseER15DSPSplitComplexRNSt3__16vectorIfNS2_9allocatorIfEEEEiRP14OpaqueFFTSetup, 
                       __ZN3DSP16high_pass_filterENSt3__16vectorIdNS0_9allocatorIdEEEENS1_IsNS2_IsEEEE, 
                       __ZN3DSP16high_pass_filterENSt3__16vectorIdNS0_9allocatorIdEEEES4_, 
                       __ZN3DSP16high_pass_filterENSt3__16vectorIfNS0_9allocatorIfEEEES4_, 
                       __ZN3DSP16leaky_integratorERNSt3__16vectorIdNS0_9allocatorIdEEEEd, 
                       __ZN3DSP17interpolate_valueEfffff, __ZN3DSP17window_hann_floatEi, 
                       __ZN3DSP18zero_crossing_rateERNSt3__16vectorIdNS0_9allocatorIdEEEE, 
                       __ZN3DSP19bandwidth_extensionENSt3__16vectorIsNS0_9allocatorIsEEEEiii, 
                       __ZN3DSP19chebyshev_transformERNSt3__16vectorIdNS0_9allocatorIdEEEE, 
                       __ZN3DSP20window_blackman_normEi, __ZN3DSP21create_warping_matrixEifff, 
                       __ZN3DSP21resample_linear_phaseENSt3__16vectorIsNS0_9allocatorIsEEEEii, 
                       __ZN3DSP22window_hann_asymmetricEii, __ZN3DSP22window_hann_norm_floatEi, 
                       __ZN3DSP23find_real_roots_cacm283ERNSt3__16vectorIdNS0_9allocatorIdEEEE, 
                       __ZN3DSP23window_hann_norm_doubleEi, __ZN3DSP24binary_search_closest_ixEdRNSt3__16vectorIdNS0_9allocatorIdEEEE, 
                       __ZN3DSP24binary_search_closest_ixEdRNSt3__16vectorIiNS0_9allocatorIiEEEE, 
                       __ZN3DSP27smooth_voiced_pitch_contourERNSt3__16vectorIdNS0_9allocatorIdEEEEi, 
                       __ZN3DSP27smooth_voiced_pitch_contourERNSt3__16vectorIfNS0_9allocatorIfEEEEi, 
                       __ZN3DSP28zero_crossing_rate_plus_zeroERNSt3__16vectorIdNS0_9allocatorIdEEEE, 
                       __ZN3DSP29make_pitch_contour_continuousERNSt3__16vectorIdNS0_9allocatorIdEEEE, 
                       __ZN3DSP29make_pitch_contour_continuousERNSt3__16vectorIfNS0_9allocatorIfEEEE, 
                       __ZN3DSP2LPERNSt3__16vectorIdNS0_9allocatorIdEEEEi, __ZN3DSP2LPERNSt3__16vectorIfNS0_9allocatorIfEEEEi, 
                       __ZN3DSP30get_highpass_70hz_coefficientsEi, __ZN3DSP3WLPERNSt3__16vectorIfNS0_9allocatorIfEEEEid, 
                       __ZN3DSP3fftEPdmi, __ZN3DSP3fftEPfmi, __ZN3DSP47get_resampling_highpass_fir_filter_coefficientsEii, 
                       __ZN3DSP47get_resampling_highpass_iir_filter_coefficientsEiiRNSt3__16vectorIdNS0_9allocatorIdEEEES5_, 
                       __ZN3DSP4IAIFERNSt3__16vectorIdNS0_9allocatorIdEEEES5_S5_id, 
                       __ZN3DSP6smoothERNSt3__16vectorIdNS0_9allocatorIdEEEEi, __ZN3DSP6smoothERNSt3__16vectorIfNS0_9allocatorIfEEEEi, 
                       __ZN3DSP7medfiltERNSt3__16vectorIdNS0_9allocatorIdEEEEi, __ZN3DSP7medfiltERNSt3__16vectorIfNS0_9allocatorIfEEEEi, 
                       __ZN3DSP7sigmoidEd, __ZN3DSP8convolveERNSt3__16vectorIdNS0_9allocatorIdEEEES5_, 
                       __ZN3DSP8fft_vDSPEPfiRP14OpaqueFFTSetup, __ZN3DSP8lsf2polyERNSt3__16vectorIdNS0_9allocatorIdEEEE, 
                       __ZN3DSP8lsf2polyERNSt3__16vectorIfNS0_9allocatorIfEEEE, __ZN3DSP8poly2lsfERNSt3__16vectorIdNS0_9allocatorIdEEEE, 
                       __ZN3DSP8poly2lsfERNSt3__16vectorIfNS0_9allocatorIfEEEE, __ZN3DSP8resampleENSt3__16vectorIsNS0_9allocatorIsEEEEii, 
                       __ZN3DSP9firfilterENSt3__16vectorIdNS0_9allocatorIdEEEERS4_, 
                       __ZN3DSP9firfilterENSt3__16vectorIfNS0_9allocatorIfEEEERS4_, 
                       __ZN3DSP9iirfilterENSt3__16vectorIdNS0_9allocatorIdEEEES4_RS4_, 
                       __ZN3DSP9iirfilterENSt3__16vectorIfNS0_9allocatorIfEEEES4_RS4_, 
                       __ZN3Mel11applyWindowERNSt3__16vectorIdNS0_9allocatorIdEEEEiS5_, 
                       __ZN3Mel11compute_melERKNSt3__16vectorIfNS0_9allocatorIfEEEE, 
                       __ZN3Mel11compute_melERKNSt3__16vectorIsNS0_9allocatorIsEEEE, 
                       __ZN3Mel11preemphasisERNSt3__16vectorIdNS0_9allocatorIdEEEE, 
                       __ZN3Mel12formatOutputERNSt3__16vectorIdNS0_9allocatorIdEEEES5_, 
                       __ZN3Mel14computeMagSpecERNSt3__16vectorIdNS0_9allocatorIdEEEES5_, 
                       __ZN3Mel15applyFilterBankERNSt3__16vectorIdNS0_9allocatorIdEEEES5_, 
                       __ZN3Mel21buildNonSymHannWindowEi, __ZN3Mel9padSignalERNSt3__16vectorIdNS0_9allocatorIdEEEENS0_12basic_stringIcNS0_11char_traitsIcEENS2_IcEEEE, 
                       __ZN3MelC1EfiiiiibbbbbiNSt3__112basic_stringIcNS0_11char_traitsIcEENS0_9allocatorIcEEEE, 
                       __ZN3MelC1Ei, __ZN3MelC1Ev, __ZN3MelC2EfiiiiibbbbbiNSt3__112basic_stringIcNS0_11char_traitsIcEENS0_9allocatorIcEEEE, 
                       __ZN3MelC2Ei, __ZN3MelC2Ev, __ZN3MelD1Ev, __ZN3MelD2Ev, __ZN3SRH11parse_inputEiPPc, 
                       __ZN3SRH12print_manualEv, __ZN3SRH14estimate_pitchERNSt3__16vectorIsNS0_9allocatorIsEEEEi, 
                       __ZN3SRHC1Ev, __ZN3SRHC2Ev, __ZN3fst10AlignInputERNSt3__113basic_istreamIcNS0_11char_traitsIcEEEE, 
                       __ZN3fst10Int64ToStrExPNSt3__112basic_stringIcNS0_11char_traitsIcEENS0_9allocatorIcEEEE, 
                       __ZN3fst10MappedFile14kArchAlignmentE, __ZN3fst10MappedFile3MapEPNSt3__113basic_istreamIcNS1_11char_traitsIcEEEERKNS_14FstReadOptionsEm, 
                       __ZN3fst10MappedFile6BorrowEPv, __ZN3fst10MappedFile8AllocateEmi, 
                       __ZN3fst10MappedFile9SetLockedEbb, __ZN3fst10MappedFileC1ERKNS_12MemoryRegionE, 
                       __ZN3fst10MappedFileC2ERKNS_12MemoryRegionE, __ZN3fst10MappedFileD0Ev, 
                       __ZN3fst10MappedFileD1Ev, __ZN3fst10MappedFileD2Ev, __ZN3fst10StrToInt64ERKNSt3__112basic_stringIcNS0_11char_traitsIcEENS0_9allocatorIcEEEES8_mbPb, 
                       __ZN3fst11AlignOutputERNSt3__113basic_ostreamIcNS0_11char_traitsIcEEEE, 
                       __ZN3fst11IsFstHeaderERNSt3__113basic_istreamIcNS0_11char_traitsIcEEEERKNS0_12basic_stringIcS3_NS0_9allocatorIcEEEE, 
                       __ZN3fst11SymbolTable8AddTableERKS0_, __ZN3fst11SymbolTable9kNoSymbolE, 
                       __ZN3fst13InterpArcInfoC1Ev, __ZN3fst13InterpArcInfoC2Ev, 
                       __ZN3fst13InterpArcInfoD0Ev, __ZN3fst13InterpArcInfoD1Ev, 
                       __ZN3fst13InterpArcInfoD2Ev, __ZN3fst13PropertyNamesE, __ZN3fst13SplitToVectorEPcPKcPNSt3__16vectorIS0_NS3_9allocatorIS0_EEEEb, 
                       __ZN3fst14BackoffArcInfoC1Ev, __ZN3fst14BackoffArcInfoC2Ev, 
                       __ZN3fst14BackoffArcInfoD0Ev, __ZN3fst14BackoffArcInfoD1Ev, 
                       __ZN3fst14BackoffArcInfoD2Ev, __ZN3fst14FstReadOptions8ReadModeERKNSt3__112basic_stringIcNS1_11char_traitsIcEENS1_9allocatorIcEEEE, 
                       __ZN3fst14FstReadOptionsC1ERKNSt3__112basic_stringIcNS1_11char_traitsIcEENS1_9allocatorIcEEEEPKNS_11SymbolTableESC_, 
                       __ZN3fst14FstReadOptionsC1ERKNSt3__112basic_stringIcNS1_11char_traitsIcEENS1_9allocatorIcEEEEPKNS_9FstHeaderEPKNS_11SymbolTableESF_, 
                       __ZN3fst14FstReadOptionsC2ERKNSt3__112basic_stringIcNS1_11char_traitsIcEENS1_9allocatorIcEEEEPKNS_11SymbolTableESC_, 
                       __ZN3fst14FstReadOptionsC2ERKNSt3__112basic_stringIcNS1_11char_traitsIcEENS1_9allocatorIcEEEEPKNS_9FstHeaderEPKNS_11SymbolTableESF_, 
                       __ZN3fst14FstReadSymbolsERKNSt3__112basic_stringIcNS0_11char_traitsIcEENS0_9allocatorIcEEEEb, 
                       __ZN3fst14MemoryPoolBaseD0Ev, __ZN3fst14MemoryPoolBaseD1Ev, 
                       __ZN3fst14MemoryPoolBaseD2Ev, __ZN3fst15MemoryArenaBaseD0Ev, 
                       __ZN3fst15MemoryArenaBaseD1Ev, __ZN3fst15MemoryArenaBaseD2Ev, 
                       __ZN3fst15SymbolTableImpl4ReadERNSt3__113basic_istreamIcNS1_11char_traitsIcEEEERKNS_22SymbolTableReadOptionsE, 
                       __ZN3fst15SymbolTableImpl8ReadTextERNSt3__113basic_istreamIcNS1_11char_traitsIcEEEERKNS1_12basic_stringIcS4_NS1_9allocatorIcEEEERKNS_22SymbolTableTextOptionsE, 
                       __ZN3fst15SymbolTableImpl9AddSymbolERKNSt3__112basic_stringIcNS1_11char_traitsIcEENS1_9allocatorIcEEEEx, 
                       __ZN3fst15UnionPropertiesEyyb, __ZN3fst16ConcatPropertiesEyyb, 
                       __ZN3fst16InvertPropertiesEy, __ZN3fst16MergeSymbolTableERKNS_11SymbolTableES2_Pb, 
                       __ZN3fst17ClosurePropertiesEybb, __ZN3fst17ComposePropertiesEyy, 
                       __ZN3fst17ProjectPropertiesEyb, __ZN3fst17RandGenPropertiesEyb, 
                       __ZN3fst17RelabelPropertiesEy, __ZN3fst17ReplacePropertiesERKNSt3__16vectorIyNS0_9allocatorIyEEEElbbbb, 
                       __ZN3fst17ReversePropertiesEyb, __ZN3fst18CompactSymbolTableERKNS_11SymbolTableE, 
                       __ZN3fst18ReweightPropertiesEy, __ZN3fst19RmEpsilonPropertiesEyb, 
                       __ZN3fst20ComplementPropertiesEy, __ZN3fst21ConvertToLegalCSymbolEPNSt3__112basic_stringIcNS0_11char_traitsIcEENS0_9allocatorIcEEEE, 
                       __ZN3fst21DeterminizePropertiesEybb, __ZN3fst21SynchronizePropertiesEy, 
                       __ZN3fst22FactorWeightPropertiesEy, __ZN3fst22ShortestPathPropertiesEyb, 
                       __ZN3fst22SymbolTableTextOptionsC1Ev, __ZN3fst22SymbolTableTextOptionsC2Ev, 
                       __ZN3fst3cinEv, __ZN3fst4cerrEv, __ZN3fst4coutEv, __ZN3fst7ArcInfoC1Ev, 
                       __ZN3fst7ArcInfoC2Ev, __ZN3fst7ArcInfoD0Ev, __ZN3fst7ArcInfoD1Ev, 
                       __ZN3fst7ArcInfoD2Ev, __ZN3fst8internal14DenseSymbolMap12InsertOrFindERKNSt3__112basic_stringIcNS2_11char_traitsIcEENS2_9allocatorIcEEEE, 
                       __ZN3fst8internal14DenseSymbolMap6RehashEv, __ZN3fst8internal14DenseSymbolMap9NewSymbolERKNSt3__112basic_stringIcNS2_11char_traitsIcEENS2_9allocatorIcEEEE, 
                       __ZN3fst8internal14DenseSymbolMapC1ERKS1_, __ZN3fst8internal14DenseSymbolMapC1Ev, 
                       __ZN3fst8internal14DenseSymbolMapC2ERKS1_, __ZN3fst8internal14DenseSymbolMapC2Ev, 
                       __ZN3fst8internal14DenseSymbolMapD1Ev, __ZN3fst8internal14DenseSymbolMapD2Ev, 
                       __ZN3fst9FstHeader4ReadERNSt3__113basic_istreamIcNS1_11char_traitsIcEEEERKNS1_12basic_stringIcS4_NS1_9allocatorIcEEEEb, 
                       __ZN5boost10filesystem6detail18utf8_codecvt_facet15get_octet_countEh, 
                       __ZN5boost10filesystem6detail18utf8_codecvt_facet24get_cont_octet_out_countEw, 
                       __ZN5boost10filesystem6detail18utf8_codecvt_facetC1Em, __ZN5boost10filesystem6detail18utf8_codecvt_facetC2Em, 
                       __ZN5boost10filesystem6detail18utf8_codecvt_facetD0Ev, __ZN5boost10filesystem6detail18utf8_codecvt_facetD1Ev, 
                       __ZN5boost10filesystem6detail18utf8_codecvt_facetD2Ev, __ZN5kaldi10CheckTokenEPKc, 
                       __ZN5kaldi10ComputeLpcERKNS_10VectorBaseIfEEPNS_6VectorIfEE, 
                       __ZN5kaldi10GetStubMapEiRKNSt3__16vectorINS1_IiNS0_9allocatorIiEEEENS2_IS4_EEEERKS4_RKNS1_IbNS2_IbEEEEPi, 
                       __ZN5kaldi10MatrixBaseIdE10CopyFromSpIdEEvRKNS_8SpMatrixIT_EE, 
                       __ZN5kaldi10MatrixBaseIdE9AddVecVecIdEEvdRKNS_10VectorBaseIT_EES7_, 
                       __ZN5kaldi10MatrixBaseIfE10CopyFromSpIfEEvRKNS_8SpMatrixIT_EE, 
                       __ZN5kaldi10MatrixBaseIfE9AddVecVecIfEEvfRKNS_10VectorBaseIT_EES7_, 
                       __ZN5kaldi10OptionsItfD0Ev, __ZN5kaldi10OptionsItfD1Ev, __ZN5kaldi10OptionsItfD2Ev, 
                       __ZN5kaldi10RandGauss2EPdS0_PNS_11RandomStateE, __ZN5kaldi10RandGauss2EPfS0_PNS_11RandomStateE, 
                       __ZN5kaldi10ReadStringERNSt3__113basic_istreamIcNS0_11char_traitsIcEEEEbPNS0_12basic_stringIcS3_NS0_9allocatorIcEEEE, 
                       __ZN5kaldi10SnrTracker16add_frame_energyERKNSt3__16vectorIfNS1_9allocatorIfEEEE, 
                       __ZN5kaldi10SnrTracker16add_frame_energyEf, __ZN5kaldi10SnrTracker24label_noise_or_speech_msEllib, 
                       __ZN5kaldi10SnrTracker28label_noise_or_speech_framesEllb, 
                       __ZN5kaldi10SnrTracker7get_snrEii, __ZN5kaldi10VectorBaseIdE15ApplyLogAndCopyERKS1_, 
                       __ZN5kaldi10VectorBaseIdE4TanhERKS1_, __ZN5kaldi10VectorBaseIdE6AddVecIdEEvdRKNS0_IT_EE, 
                       __ZN5kaldi10VectorBaseIdE8ApplyAbsEv, __ZN5kaldi10VectorBaseIdE8ApplyExpEv, 
                       __ZN5kaldi10VectorBaseIdE8ApplyLogEv, __ZN5kaldi10VectorBaseIdE8ApplyPowEd, 
                       __ZN5kaldi10VectorBaseIdE9ApplyTanhEv, __ZN5kaldi10VectorBaseIfE15ApplyLogAndCopyERKS1_, 
                       __ZN5kaldi10VectorBaseIfE4TanhERKS1_, __ZN5kaldi10VectorBaseIfE6AddVecIfEEvfRKNS0_IT_EE, 
                       __ZN5kaldi10VectorBaseIfE8ApplyAbsEv, __ZN5kaldi10VectorBaseIfE8ApplyExpEv, 
                       __ZN5kaldi10VectorBaseIfE8ApplyLogEv, __ZN5kaldi10VectorBaseIfE8ApplyPowEf, 
                       __ZN5kaldi10VectorBaseIfE9ApplyTanhEv, __ZN5kaldi10WriteTokenERNSt3__113basic_ostreamIcNS0_11char_traitsIcEEEEbPKc, 
                       __ZN5kaldi10WriteTokenERNSt3__113basic_ostreamIcNS0_11char_traitsIcEEEEbRKNS0_12basic_stringIcS3_NS0_9allocatorIcEEEE, 
                       __ZN5kaldi11ClusterableD0Ev, __ZN5kaldi11ClusterableD1Ev, 
                       __ZN5kaldi11ClusterableD2Ev, __ZN5kaldi11CuWorkspace13ReleaseMemoryEPv, 
                       __ZN5kaldi11CuWorkspace17GetChildWorkspaceEx, __ZN5kaldi11CuWorkspace7DestroyEv, 
                       __ZN5kaldi11CuWorkspace8AllocateEx, __ZN5kaldi11CuWorkspace9GetMemoryEx, 
                       __ZN5kaldi11CuWorkspaceC1Ex, __ZN5kaldi11CuWorkspaceC2Ex, 
                       __ZN5kaldi11CuWorkspaceD1Ev, __ZN5kaldi11CuWorkspaceD2Ev, 
                       __ZN5kaldi11ExpectTokenERNSt3__113basic_istreamIcNS0_11char_traitsIcEEEEbPKc, 
                       __ZN5kaldi11ExpectTokenERNSt3__113basic_istreamIcNS0_11char_traitsIcEEEEbRKNS0_12basic_stringIcS3_NS0_9allocatorIcEEEE, 
                       __ZN5kaldi11FindAllKeysERKNSt3__16vectorINS0_4pairINS1_INS2_IiiEENS0_9allocatorIS3_EEEEPNS_11ClusterableEEENS4_IS9_EEEENS_11AllKeysTypeEPNS1_IiNS4_IiEEEE, 
                       __ZN5kaldi11GetHmmAsFstENSt3__16vectorIiNS0_9allocatorIiEEEERKNS_26ContextDependencyInterfaceERKNS_15TransitionModelERKNS_17HTransducerConfigEPNS0_13unordered_mapINS0_4pairIiS4_EEPN3fst9VectorFstINSH_6ArcTplINSH_17TropicalWeightTplIfEEEENSH_11VectorStateISM_NS2_ISM_EEEEEENS_12HmmCacheHashENS0_8equal_toISG_EENS2_INSF_IKSG_SR_EEEEEE, 
                       __ZN5kaldi11HmmTopology4ReadERNSt3__113basic_istreamIcNS1_11char_traitsIcEEEEb, 
                       __ZN5kaldi11HmmTopology5CheckEv, __ZN5kaldi11RandPoissonEfPNS_11RandomStateE, 
                       __ZN5kaldi11SumStatsVecERKNSt3__16vectorINS1_INS0_4pairINS1_INS2_IiiEENS0_9allocatorIS3_EEEEPNS_11ClusterableEEENS4_IS9_EEEENS4_ISB_EEEEPNS1_IS8_NS4_IS8_EEEE, 
                       __ZN5kaldi11TreeClusterERKNSt3__16vectorIPNS_11ClusterableENS0_9allocatorIS3_EEEEiPS6_PNS1_IiNS4_IiEEEESC_PiNS_18TreeClusterOptionsE, 
                       __ZN5kaldi11WriteStringERNSt3__113basic_ostreamIcNS0_11char_traitsIcEEEEbRKNS0_12basic_stringIcS3_NS0_9allocatorIcEEEE, 
                       __ZN5kaldi12AddSelfLoopsERKNS_15TransitionModelERKNSt3__16vectorIiNS3_9allocatorIiEEEEfbPN3fst9VectorFstINSA_6ArcTplINSA_17TropicalWeightTplIfEEEENSA_11VectorStateISF_NS5_ISF_EEEEEE, 
                       __ZN5kaldi12CharToStringERKc, __ZN5kaldi12ConvertStatsEiiiiPNSt3__16vectorINS0_4pairINS1_INS2_IiiEENS0_9allocatorIS3_EEEEPNS_11ClusterableEEENS4_IS9_EEEE, 
                       __ZN5kaldi12CuVectorBaseIdE11CopyFromVecIfEEvRKNS0_IT_EE, 
                       __ZN5kaldi12CuVectorBaseIdE14CopyColFromMatIfEEvRKNS_12CuMatrixBaseIT_EEi, 
                       __ZN5kaldi12CuVectorBaseIfE11CopyFromVecIdEEvRKNS0_IT_EE, 
                       __ZN5kaldi12CuVectorBaseIfE14CopyColFromMatIdEEvRKNS_12CuMatrixBaseIT_EEi, 
                       __ZN5kaldi12DoTableSplitERKNS_8EventMapEiRKNSt3__16vectorINS3_4pairINS4_INS5_IiiEENS3_9allocatorIS6_EEEEPNS_11ClusterableEEENS7_ISC_EEEEPi, 
                       __ZN5kaldi12GenRandStatsEiiiiRKNSt3__16vectorIiNS0_9allocatorIiEEEES6_RKNS1_IbNS2_IbEEEEbPNS1_INS0_4pairINS1_INSB_IiiEENS2_ISC_EEEEPNS_11ClusterableEEENS2_ISH_EEEE, 
                       __ZN5kaldi12LatticeBoostERKNS_15TransitionModelERKNSt3__16vectorIiNS3_9allocatorIiEEEERKNS_15SilencePhoneSetEffbPN3fst9VectorFstINSD_6ArcTplINSD_16LatticeWeightTplIfEEEENSD_11VectorStateISI_NS5_ISI_EEEEEE, 
                       __ZN5kaldi12Lpc2CepstrumEiPKfPf, __ZN5kaldi12ObjfGivenMapERKNSt3__16vectorINS0_4pairINS1_INS2_IiiEENS0_9allocatorIS3_EEEEPNS_11ClusterableEEENS4_IS9_EEEERKNS_8EventMapE, 
                       __ZN5kaldi12ParseOptions10PrintUsageEb, __ZN5kaldi12ParseOptions11PrintConfigERNSt3__113basic_ostreamIcNS1_11char_traitsIcEEEE, 
                       __ZN5kaldi12ParseOptions12SplitLongArgENSt3__112basic_stringIcNS1_11char_traitsIcEENS1_9allocatorIcEEEEPS7_S8_Pb, 
                       __ZN5kaldi12ParseOptions13DisableOptionERKNSt3__112basic_stringIcNS1_11char_traitsIcEENS1_9allocatorIcEEEE, 
                       __ZN5kaldi12ParseOptions14ReadConfigFileERKNSt3__112basic_stringIcNS1_11char_traitsIcEENS1_9allocatorIcEEEE, 
                       __ZN5kaldi12ParseOptions16NormalizeArgNameEPNSt3__112basic_stringIcNS1_11char_traitsIcEENS1_9allocatorIcEEEE, 
                       __ZN5kaldi12ParseOptions16RegisterSpecificERKNSt3__112basic_stringIcNS1_11char_traitsIcEENS1_9allocatorIcEEEES9_PS7_S9_b, 
                       __ZN5kaldi12ParseOptions16RegisterSpecificERKNSt3__112basic_stringIcNS1_11char_traitsIcEENS1_9allocatorIcEEEES9_PbS9_b, 
                       __ZN5kaldi12ParseOptions16RegisterSpecificERKNSt3__112basic_stringIcNS1_11char_traitsIcEENS1_9allocatorIcEEEES9_PdS9_b, 
                       __ZN5kaldi12ParseOptions16RegisterSpecificERKNSt3__112basic_stringIcNS1_11char_traitsIcEENS1_9allocatorIcEEEES9_PfS9_b, 
                       __ZN5kaldi12ParseOptions16RegisterSpecificERKNSt3__112basic_stringIcNS1_11char_traitsIcEENS1_9allocatorIcEEEES9_PiS9_b, 
                       __ZN5kaldi12ParseOptions16RegisterSpecificERKNSt3__112basic_stringIcNS1_11char_traitsIcEENS1_9allocatorIcEEEES9_PjS9_b, 
                       __ZN5kaldi12ParseOptions4ReadEiPKPKc, __ZN5kaldi12ParseOptions5ToIntENSt3__112basic_stringIcNS1_11char_traitsIcEENS1_9allocatorIcEEEE, 
                       __ZN5kaldi12ParseOptions6EscapeERKNSt3__112basic_stringIcNS1_11char_traitsIcEENS1_9allocatorIcEEEE, 
                       __ZN5kaldi12ParseOptions6ToBoolENSt3__112basic_stringIcNS1_11char_traitsIcEENS1_9allocatorIcEEEE, 
                       __ZN5kaldi12ParseOptions6ToUIntENSt3__112basic_stringIcNS1_11char_traitsIcEENS1_9allocatorIcEEEE, 
                       __ZN5kaldi12ParseOptions7ToFloatENSt3__112basic_stringIcNS1_11char_traitsIcEENS1_9allocatorIcEEEE, 
                       __ZN5kaldi12ParseOptions8RegisterERKNSt3__112basic_stringIcNS1_11char_traitsIcEENS1_9allocatorIcEEEEPS7_S9_, 
                       __ZN5kaldi12ParseOptions8RegisterERKNSt3__112basic_stringIcNS1_11char_traitsIcEENS1_9allocatorIcEEEEPbS9_, 
                       __ZN5kaldi12ParseOptions8RegisterERKNSt3__112basic_stringIcNS1_11char_traitsIcEENS1_9allocatorIcEEEEPdS9_, 
                       __ZN5kaldi12ParseOptions8RegisterERKNSt3__112basic_stringIcNS1_11char_traitsIcEENS1_9allocatorIcEEEEPfS9_, 
                       __ZN5kaldi12ParseOptions8RegisterERKNSt3__112basic_stringIcNS1_11char_traitsIcEENS1_9allocatorIcEEEEPiS9_, 
                       __ZN5kaldi12ParseOptions8RegisterERKNSt3__112basic_stringIcNS1_11char_traitsIcEENS1_9allocatorIcEEEEPjS9_, 
                       __ZN5kaldi12ParseOptions8ToDoubleENSt3__112basic_stringIcNS1_11char_traitsIcEENS1_9allocatorIcEEEE, 
                       __ZN5kaldi12ParseOptions9SetOptionERKNSt3__112basic_stringIcNS1_11char_traitsIcEENS1_9allocatorIcEEEES9_b, 
                       __ZN5kaldi12ParseOptionsC1ERKNSt3__112basic_stringIcNS1_11char_traitsIcEENS1_9allocatorIcEEEEPNS_10OptionsItfE, 
                       __ZN5kaldi12ParseOptionsC2ERKNSt3__112basic_stringIcNS1_11char_traitsIcEENS1_9allocatorIcEEEEPNS_10OptionsItfE, 
                       __ZN5kaldi12ParseOptionsD0Ev, __ZN5kaldi12ParseOptionsD1Ev, 
                       __ZN5kaldi12ParseOptionsD2Ev, __ZN5kaldi12PreemphasizeEPNS_10VectorBaseIfEEf, 
                       __ZN5kaldi12SpliceFramesERKNS_10MatrixBaseIfEEiiPNS_6MatrixIfEE, 
                       __ZN5kaldi13AddToClustersERKNSt3__16vectorIPNS_11ClusterableENS0_9allocatorIS3_EEEERKNS1_IiNS4_IiEEEEPS6_, 
                       __ZN5kaldi13ClusterKMeansERKNSt3__16vectorIPNS_11ClusterableENS0_9allocatorIS3_EEEEiPS6_PNS1_IiNS4_IiEEEENS_20ClusterKMeansOptionsE, 
                       __ZN5kaldi13ComputeDeltasERKNS_20DeltaFeaturesOptionsERKNS_10MatrixBaseIfEEPNS_6MatrixIfEE, 
                       __ZN5kaldi13DeltaFeaturesC1ERKNS_20DeltaFeaturesOptionsE, 
                       __ZN5kaldi13DeltaFeaturesC2ERKNS_20DeltaFeaturesOptionsE, 
                       __ZN5kaldi13ExtractWindowERKNS_10VectorBaseIfEEiRKNS_22FrameExtractionOptionsERKNS_21FeatureWindowFunctionEPNS_6VectorIfEEPf, 
                       __ZN5kaldi13FasterDecoder11GetBestPathEPN3fst10MutableFstINS1_6ArcTplINS1_16LatticeWeightTplIfEEEEEEb, 
                       __ZN5kaldi13FasterDecoder12InitDecodingEv, __ZN5kaldi13FasterDecoder12ReachedFinalEv, 
                       __ZN5kaldi13FasterDecoder15AdvanceDecodingEPNS_18DecodableInterfaceEi, 
                       __ZN5kaldi13FasterDecoder15ProcessEmittingEPNS_18DecodableInterfaceE, 
                       __ZN5kaldi13FasterDecoder18PossiblyResizeHashEm, __ZN5kaldi13FasterDecoder18ProcessNonemittingEd, 
                       __ZN5kaldi13FasterDecoder6DecodeEPNS_18DecodableInterfaceE, 
                       __ZN5kaldi13FasterDecoder9ClearToksEPNS_8HashListIiPNS0_5TokenEE4ElemE, 
                       __ZN5kaldi13FasterDecoder9GetCutoffEPNS_8HashListIiPNS0_5TokenEE4ElemEPmPfPS6_, 
                       __ZN5kaldi13FasterDecoderC1ERKN3fst3FstINS1_6ArcTplINS1_17TropicalWeightTplIfEEEEEERKNS_20FasterDecoderOptionsE, 
                       __ZN5kaldi13FasterDecoderC2ERKN3fst3FstINS1_6ArcTplINS1_17TropicalWeightTplIfEEEEEERKNS_20FasterDecoderOptionsE, 
                       __ZN5kaldi13FileInputImplD0Ev, __ZN5kaldi13FileInputImplD1Ev, 
                       __ZN5kaldi13FileInputImplD2Ev, __ZN5kaldi13InitIdftBasesEiiPNS_6MatrixIfEE, 
                       __ZN5kaldi13InputImplBaseD0Ev, __ZN5kaldi13InputImplBaseD1Ev, 
                       __ZN5kaldi13InputImplBaseD2Ev, __ZN5kaldi13PipeInputImplD0Ev, 
                       __ZN5kaldi13PipeInputImplD1Ev, __ZN5kaldi13PipeInputImplD2Ev, 
                       __ZN5kaldi13ReadBasicTypeIbEEvRNSt3__113basic_istreamIcNS1_11char_traitsIcEEEEbPT_, 
                       __ZN5kaldi13ReadBasicTypeIdEEvRNSt3__113basic_istreamIcNS1_11char_traitsIcEEEEbPT_, 
                       __ZN5kaldi13ReadBasicTypeIfEEvRNSt3__113basic_istreamIcNS1_11char_traitsIcEEEEbPT_, 
                       __ZN5kaldi13ReadEventTypeERNSt3__113basic_istreamIcNS0_11char_traitsIcEEEEbPNS0_6vectorINS0_4pairIiiEENS0_9allocatorIS8_EEEE, 
                       __ZN5kaldi13ReadRootsFileERNSt3__113basic_istreamIcNS0_11char_traitsIcEEEEPNS0_6vectorINS6_IiNS0_9allocatorIiEEEENS7_IS9_EEEEPNS6_IbNS7_IbEEEESF_, 
                       __ZN5kaldi13ReverseFramesERKNS_10MatrixBaseIfEEPNS_6MatrixIfEE, 
                       __ZN5kaldi13SplitEventMap4ReadERNSt3__113basic_istreamIcNS1_11char_traitsIcEEEEb, 
                       __ZN5kaldi13SplitEventMap5WriteERNSt3__113basic_ostreamIcNS1_11char_traitsIcEEEEb, 
                       __ZN5kaldi13SplitToPhonesERKNS_15TransitionModelERKNSt3__16vectorIiNS3_9allocatorIiEEEEPNS4_IS7_NS5_IS7_EEEE, 
                       __ZN5kaldi13SumNormalizerERKNSt3__16vectorINS0_4pairINS1_INS2_IiiEENS0_9allocatorIS3_EEEEPNS_11ClusterableEEENS4_IS9_EEEE, 
                       __ZN5kaldi13TableEventMap4ReadERNSt3__113basic_istreamIcNS1_11char_traitsIcEEEEb, 
                       __ZN5kaldi13TableEventMap5WriteERNSt3__113basic_ostreamIcNS1_11char_traitsIcEEEEb, 
                       __ZN5kaldi13TableEventMapC1EiRKNSt3__13mapIiPNS_8EventMapENS1_4lessIiEENS1_9allocatorINS1_4pairIKiS4_EEEEEE, 
                       __ZN5kaldi13TableEventMapC1EiRKNSt3__13mapIiiNS1_4lessIiEENS1_9allocatorINS1_4pairIKiiEEEEEE, 
                       __ZN5kaldi13TableEventMapC2EiRKNSt3__13mapIiPNS_8EventMapENS1_4lessIiEENS1_9allocatorINS1_4pairIKiS4_EEEEEE, 
                       __ZN5kaldi13TableEventMapC2EiRKNSt3__13mapIiiNS1_4lessIiEENS1_9allocatorINS1_4pairIKiiEEEEEE, 
                       __ZN5kaldi14ClusterTopDownERKNSt3__16vectorIPNS_11ClusterableENS0_9allocatorIS3_EEEEiPS6_PNS1_IiNS4_IiEEEENS_18TreeClusterOptionsE, 
                       __ZN5kaldi14FileOutputImplD0Ev, __ZN5kaldi14FileOutputImplD1Ev, 
                       __ZN5kaldi14FileOutputImplD2Ev, __ZN5kaldi14GetHTransducerERKNSt3__16vectorINS1_IiNS0_9allocatorIiEEEENS2_IS4_EEEERKNS_26ContextDependencyInterfaceERKNS_15TransitionModelERKNS_17HTransducerConfigEPS4_, 
                       __ZN5kaldi14GetProgramNameEv, __ZN5kaldi14GetToLengthMapERKNSt3__16vectorINS0_4pairINS1_INS2_IiiEENS0_9allocatorIS3_EEEEPNS_11ClusterableEEENS4_IS9_EEEEiPKNS1_IiNS4_IiEEEEi, 
                       __ZN5kaldi14OutputImplBaseD0Ev, __ZN5kaldi14OutputImplBaseD1Ev, 
                       __ZN5kaldi14OutputImplBaseD2Ev, __ZN5kaldi14PipeOutputImplD0Ev, 
                       __ZN5kaldi14PipeOutputImplD1Ev, __ZN5kaldi14PipeOutputImplD2Ev, 
                       __ZN5kaldi14PossibleValuesEiRKNSt3__16vectorINS0_4pairINS1_INS2_IiiEENS0_9allocatorIS3_EEEEPNS_11ClusterableEEENS4_IS9_EEEEPNS1_IiNS4_IiEEEE, 
                       __ZN5kaldi14ReadScriptFileERKNSt3__112basic_stringIcNS0_11char_traitsIcEENS0_9allocatorIcEEEEbPNS0_6vectorINS0_4pairIS6_S6_EENS4_ISB_EEEE, 
                       __ZN5kaldi14ReadScriptFileERNSt3__113basic_istreamIcNS0_11char_traitsIcEEEEbPNS0_6vectorINS0_4pairINS0_12basic_stringIcS3_NS0_9allocatorIcEEEESB_EENS9_ISC_EEEE, 
                       __ZN5kaldi14RefineClustersERKNSt3__16vectorIPNS_11ClusterableENS0_9allocatorIS3_EEEEPS6_PNS1_IiNS4_IiEEEENS_21RefineClustersOptionsE, 
                       __ZN5kaldi14RescoreLatticeEPNS_18DecodableInterfaceEPN3fst9VectorFstINS2_6ArcTplINS2_16LatticeWeightTplIfEEEENS2_11VectorStateIS7_NSt3__19allocatorIS7_EEEEEE, 
                       __ZN5kaldi14RescoreLatticeERKNS_10MatrixBaseIfEERKNS_15TransitionModelERKNSt3__16vectorIiNS7_9allocatorIiEEEEPN3fst9VectorFstINSE_6ArcTplINSE_16LatticeWeightTplIfEEEENSE_11VectorStateISJ_NS9_ISJ_EEEEEE, 
                       __ZN5kaldi14ScalePosteriorEfPNSt3__16vectorINS1_INS0_4pairIifEENS0_9allocatorIS3_EEEENS4_IS6_EEEE, 
                       __ZN5kaldi14SumClusterableERKNSt3__16vectorIPNS_11ClusterableENS0_9allocatorIS3_EEEE, 
                       __ZN5kaldi14TotalPosteriorERKNSt3__16vectorINS1_INS0_4pairIifEENS0_9allocatorIS3_EEEENS4_IS6_EEEE, 
                       __ZN5kaldi14WriteBasicTypeIbEEvRNSt3__113basic_ostreamIcNS1_11char_traitsIcEEEEbT_, 
                       __ZN5kaldi14WriteBasicTypeIdEEvRNSt3__113basic_ostreamIcNS1_11char_traitsIcEEEEbT_, 
                       __ZN5kaldi14WriteBasicTypeIfEEvRNSt3__113basic_ostreamIcNS1_11char_traitsIcEEEEbT_, 
                       __ZN5kaldi14WriteEventTypeERNSt3__113basic_ostreamIcNS0_11char_traitsIcEEEEbRKNS0_6vectorINS0_4pairIiiEENS0_9allocatorIS8_EEEE, 
                       __ZN5kaldi14g_program_nameE, __ZN5kaldi15ClusterBottomUpERKNSt3__16vectorIPNS_11ClusterableENS0_9allocatorIS3_EEEEfiPS6_PNS1_IiNS4_IiEEEE, 
                       __ZN5kaldi15ClusterEventMapERKNS_8EventMapERKNSt3__16vectorINS3_4pairINS4_INS5_IiiEENS3_9allocatorIS6_EEEEPNS_11ClusterableEEENS7_ISC_EEEEfPi, 
                       __ZN5kaldi15GaussPostHolder4ReadERNSt3__113basic_istreamIcNS1_11char_traitsIcEEEE, 
                       __ZN5kaldi15GaussPostHolder5WriteERNSt3__113basic_ostreamIcNS1_11char_traitsIcEEEEbRKNS1_6vectorINS7_INS1_4pairIiNS_6VectorIfEEEENS1_9allocatorISB_EEEENSC_ISE_EEEE, 
                       __ZN5kaldi15InferenceNetItfD0Ev, __ZN5kaldi15InferenceNetItfD1Ev, 
                       __ZN5kaldi15InferenceNetItfD2Ev, __ZN5kaldi15KaldiLogMessage8g_loggerE, 
                       __ZN5kaldi15KaldiLogMessageC1EPKcS2_i, __ZN5kaldi15KaldiLogMessageC1Ev, 
                       __ZN5kaldi15KaldiLogMessageC2EPKcS2_i, __ZN5kaldi15KaldiLogMessageC2Ev, 
                       __ZN5kaldi15MergePosteriorsERKNSt3__16vectorINS1_INS0_4pairIifEENS0_9allocatorIS3_EEEENS4_IS6_EEEESA_bbPS8_, 
                       __ZN5kaldi15PartitionNumberEiiPNSt3__16vectorINS1_IiNS0_9allocatorIiEEEENS2_IS4_EEEE, 
                       __ZN5kaldi15PosteriorHolder4ReadERNSt3__113basic_istreamIcNS1_11char_traitsIcEEEE, 
                       __ZN5kaldi15PosteriorHolder5WriteERNSt3__113basic_ostreamIcNS1_11char_traitsIcEEEEbRKNS1_6vectorINS7_INS1_4pairIifEENS1_9allocatorIS9_EEEENSA_ISC_EEEE, 
                       __ZN5kaldi15QuestionsForKey4ReadERNSt3__113basic_istreamIcNS1_11char_traitsIcEEEEb, 
                       __ZN5kaldi15SilencePhoneSet14initFromVectorERKNSt3__16vectorIiNS1_9allocatorIiEEEE, 
                       __ZN5kaldi15SilencePhoneSetC1ERKNSt3__112basic_stringIcNS1_11char_traitsIcEENS1_9allocatorIcEEEE, 
                       __ZN5kaldi15SilencePhoneSetC1ERKNSt3__16vectorIiNS1_9allocatorIiEEEE, 
                       __ZN5kaldi15SilencePhoneSetC1Ei, __ZN5kaldi15SilencePhoneSetC1Ev, 
                       __ZN5kaldi15SilencePhoneSetC2ERKNSt3__112basic_stringIcNS1_11char_traitsIcEENS1_9allocatorIcEEEE, 
                       __ZN5kaldi15SilencePhoneSetC2ERKNSt3__16vectorIiNS1_9allocatorIiEEEE, 
                       __ZN5kaldi15SilencePhoneSetC2Ei, __ZN5kaldi15SilencePhoneSetC2Ev, 
                       __ZN5kaldi15SplitStatsByKeyERKNSt3__16vectorINS0_4pairINS1_INS2_IiiEENS0_9allocatorIS3_EEEEPNS_11ClusterableEEENS4_IS9_EEEEiPNS1_ISB_NS4_ISB_EEEE, 
                       __ZN5kaldi15SplitStatsByMapERKNSt3__16vectorINS0_4pairINS1_INS2_IiiEENS0_9allocatorIS3_EEEEPNS_11ClusterableEEENS4_IS9_EEEERKNS_8EventMapEPNS1_ISB_NS4_ISB_EEEE, 
                       __ZN5kaldi15TransitionModel13ComputeTuplesERKNS_26ContextDependencyInterfaceE, 
                       __ZN5kaldi15TransitionModel14ComputeDerivedEv, __ZN5kaldi15TransitionModel15InitializeProbsEv, 
                       __ZN5kaldi15TransitionModel15MapUpdateSharedERKNS_6VectorIdEERKNS_25MapTransitionUpdateConfigEPfS8_, 
                       __ZN5kaldi15TransitionModel15MleUpdateSharedERKNS_6VectorIdEERKNS_25MleTransitionUpdateConfigEPfS8_, 
                       __ZN5kaldi15TransitionModel18ComputeTuplesIsHmmERKNS_26ContextDependencyInterfaceE, 
                       __ZN5kaldi15TransitionModel19ComputeTuplesNotHmmERKNS_26ContextDependencyInterfaceE, 
                       __ZN5kaldi15TransitionModel21ComputeDerivedOfProbsEv, __ZN5kaldi15TransitionModel4ReadERNSt3__113basic_istreamIcNS1_11char_traitsIcEEEEbb, 
                       __ZN5kaldi15TransitionModel5PrintERNSt3__113basic_ostreamIcNS1_11char_traitsIcEEEERKNS1_6vectorINS1_12basic_stringIcS4_NS1_9allocatorIcEEEENS9_ISB_EEEEPKNS_6VectorIdEE, 
                       __ZN5kaldi15TransitionModel9MapUpdateERKNS_6VectorIdEERKNS_25MapTransitionUpdateConfigEPfS8_, 
                       __ZN5kaldi15TransitionModel9MleUpdateERKNS_6VectorIdEERKNS_25MleTransitionUpdateConfigEPfS8_, 
                       __ZN5kaldi15TransitionModelC1ERKNS_17ContextDependencyERKNS_11HmmTopologyE, 
                       __ZN5kaldi15TransitionModelC2ERKNS_17ContextDependencyERKNS_11HmmTopologyE, 
                       __ZN5kaldi15WriteScriptFileERKNSt3__112basic_stringIcNS0_11char_traitsIcEENS0_9allocatorIcEEEERKNS0_6vectorINS0_4pairIS6_S6_EENS4_ISB_EEEE, 
                       __ZN5kaldi15WriteScriptFileERNSt3__113basic_ostreamIcNS0_11char_traitsIcEEEERKNS0_6vectorINS0_4pairINS0_12basic_stringIcS3_NS0_9allocatorIcEEEESB_EENS9_ISC_EEEE, 
                       __ZN5kaldi16CompressedMatrix12AllocateDataEi, __ZN5kaldi16CompressedMatrix4ReadERNSt3__113basic_istreamIcNS1_11char_traitsIcEEEEbPKv, 
                       __ZN5kaldi16CompressedMatrix7DestroyEv, __ZN5kaldi16CompressedMatrixC1ERKS0_, 
                       __ZN5kaldi16CompressedMatrixC2ERKS0_, __ZN5kaldi16CompressedMatrixaSERKS0_, 
                       __ZN5kaldi16ConstantEventMap4ReadERNSt3__113basic_istreamIcNS1_11char_traitsIcEEEEb, 
                       __ZN5kaldi16ConstantEventMap5WriteERNSt3__113basic_ostreamIcNS1_11char_traitsIcEEEEb, 
                       __ZN5kaldi16ConvertAlignmentERKNS_15TransitionModelES2_RKNS_26ContextDependencyInterfaceERKNSt3__16vectorIiNS6_9allocatorIiEEEEPSB_PSA_ib, 
                       __ZN5kaldi16FilterStatsByKeyERKNSt3__16vectorINS0_4pairINS1_INS2_IiiEENS0_9allocatorIS3_EEEEPNS_11ClusterableEEENS4_IS9_EEEEiRNS1_IiNS4_IiEEEEbPSB_, 
                       __ZN5kaldi16GaussClusterable3AddERKNS_11ClusterableE, __ZN5kaldi16GaussClusterable3SubERKNS_11ClusterableE, 
                       __ZN5kaldi16GaussClusterable4ReadERNSt3__113basic_istreamIcNS1_11char_traitsIcEEEEb, 
                       __ZN5kaldi16GaussClusterable5ScaleEf, __ZN5kaldi16GaussClusterable8AddStatsERKNS_10VectorBaseIfEEf, 
                       __ZN5kaldi16GetIlabelMappingERKNSt3__16vectorINS1_IiNS0_9allocatorIiEEEENS2_IS4_EEEERKNS_26ContextDependencyInterfaceERKNS_15TransitionModelEPS4_, 
                       __ZN5kaldi16GetPdfsForPhonesERKNS_15TransitionModelERKNSt3__16vectorIiNS3_9allocatorIiEEEEPS7_, 
                       __ZN5kaldi16GetPhonesForPdfsERKNS_15TransitionModelERKNSt3__16vectorIiNS3_9allocatorIiEEEEPS7_, 
                       __ZN5kaldi16GetShortFileNameEPKc, __ZN5kaldi16GetTreeStructureERKNS_8EventMapEPiPNSt3__16vectorIiNS4_9allocatorIiEEEE, 
                       __ZN5kaldi16KaldiVlogMessage8g_loggerE, __ZN5kaldi16KaldiVlogMessageC1EPKcS2_ii, 
                       __ZN5kaldi16KaldiVlogMessageC1Ei, __ZN5kaldi16KaldiVlogMessageC2EPKcS2_ii, 
                       __ZN5kaldi16KaldiVlogMessageC2Ei, __ZN5kaldi16KaldiWarnMessage8g_loggerE, 
                       __ZN5kaldi16KaldiWarnMessageC1EPKcS2_i, __ZN5kaldi16KaldiWarnMessageC1Ev, 
                       __ZN5kaldi16KaldiWarnMessageC2EPKcS2_i, __ZN5kaldi16KaldiWarnMessageC2Ev, 
                       __ZN5kaldi16KaldiWarnMessageD1Ev, __ZN5kaldi16KaldiWarnMessageD2Ev, 
                       __ZN5kaldi16RenumberEventMapERKNS_8EventMapEPi, __ZN5kaldi16SlidingWindowCmnERKNS_23SlidingWindowCmnOptionsERKNS_10MatrixBaseIfEEPS4_, 
                       __ZN5kaldi17BottomUpClusterer11SetDistanceEii, __ZN5kaldi17BottomUpClusterer13MergeClustersEii, 
                       __ZN5kaldi17BottomUpClusterer16ReconstructQueueEv, __ZN5kaldi17BottomUpClusterer19SetInitialDistancesEv, 
                       __ZN5kaldi17BottomUpClusterer21InitializeAssignmentsEv, __ZN5kaldi17BottomUpClusterer7ClusterEv, 
                       __ZN5kaldi17BottomUpClusterer8CanMergeEiif, __ZN5kaldi17BottomUpClusterer8RenumberEv, 
                       __ZN5kaldi17BuildTreeTwoLevelERNS_9QuestionsERKNSt3__16vectorINS3_IiNS2_9allocatorIiEEEENS4_IS6_EEEERKS6_RKNS3_IbNS4_IbEEEESG_RKNS3_INS2_4pairINS3_INSH_IiiEENS4_ISI_EEEEPNS_11ClusterableEEENS4_ISN_EEEEiibiPS6_, 
                       __ZN5kaldi17ClusterKMeansOnceERKNSt3__16vectorIPNS_11ClusterableENS0_9allocatorIS3_EEEEiPS6_PNS1_IiNS4_IiEEEERNS_20ClusterKMeansOptionsE, 
                       __ZN5kaldi17ContextDependency4ReadERNSt3__113basic_istreamIcNS1_11char_traitsIcEEEEb, 
                       __ZN5kaldi17EventTypeToStringERKNSt3__16vectorINS0_4pairIiiEENS0_9allocatorIS3_EEEE, 
                       __ZN5kaldi17FeedForwardNetItf4LoadERKNSt3__112basic_stringIcNS1_11char_traitsIcEENS1_9allocatorIcEEEEbb, 
                       __ZN5kaldi17FeedForwardNetItfD0Ev, __ZN5kaldi17FeedForwardNetItfD1Ev, 
                       __ZN5kaldi17FeedForwardNetItfD2Ev, __ZN5kaldi17GaussRandomNumberC1ERKNS_19UniformRandomNumberE, 
                       __ZN5kaldi17GaussRandomNumberC2ERKNS_19UniformRandomNumberE, 
                       __ZN5kaldi17GetHmmAsFstSimpleENSt3__16vectorIiNS0_9allocatorIiEEEERKNS_26ContextDependencyInterfaceERKNS_15TransitionModelEf, 
                       __ZN5kaldi17KaldiErrorMessage8g_loggerE, __ZN5kaldi17KaldiErrorMessageC1EPKcS2_i, 
                       __ZN5kaldi17KaldiErrorMessageC1Ev, __ZN5kaldi17KaldiErrorMessageC2EPKcS2_i, 
                       __ZN5kaldi17KaldiErrorMessageC2Ev, __ZN5kaldi17KaldiErrorMessageD1Ev, 
                       __ZN5kaldi17KaldiErrorMessageD2Ev, __ZN5kaldi17LatticeStateTimesERKN3fst9VectorFstINS0_6ArcTplINS0_16LatticeWeightTplIfEEEENS0_11VectorStateIS5_NSt3__19allocatorIS5_EEEEEEPNS7_6vectorIiNS8_IiEEEE, 
                       __ZN5kaldi17MapEventMapLeavesERKNS_8EventMapERKNSt3__16vectorIiNS3_9allocatorIiEEEE, 
                       __ZN5kaldi17OnlineBaseFeatureD0Ev, __ZN5kaldi17OnlineBaseFeatureD1Ev, 
                       __ZN5kaldi17OnlineBaseFeatureD2Ev, __ZN5kaldi17ScalarClusterable3AddERKNS_11ClusterableE, 
                       __ZN5kaldi17ScalarClusterable3SubERKNS_11ClusterableE, __ZN5kaldi17ScalarClusterable4InfoEv, 
                       __ZN5kaldi17ScalarClusterable4ReadERNSt3__113basic_istreamIcNS1_11char_traitsIcEEEEb, 
                       __ZN5kaldi17SplitDecisionTreeERKNS_8EventMapERKNSt3__16vectorINS3_4pairINS4_INS5_IiiEENS3_9allocatorIS6_EEEEPNS_11ClusterableEEENS7_ISC_EEEERNS_9QuestionsEfiPiPfSK_, 
                       __ZN5kaldi17StandardInputImplD0Ev, __ZN5kaldi17StandardInputImplD1Ev, 
                       __ZN5kaldi17StandardInputImplD2Ev, __ZN5kaldi17VectorClusterable3AddERKNS_11ClusterableE, 
                       __ZN5kaldi17VectorClusterable3SubERKNS_11ClusterableE, __ZN5kaldi17VectorClusterable4ReadERNSt3__113basic_istreamIcNS1_11char_traitsIcEEEEb, 
                       __ZN5kaldi17VectorClusterable5ScaleEf, __ZN5kaldi17VectorClusterableC1ERKNS_6VectorIfEEf, 
                       __ZN5kaldi17VectorClusterableC2ERKNS_6VectorIfEEf, __ZN5kaldi17WeightSilencePostERKNS_15TransitionModelERKNS_15SilencePhoneSetEfPNSt3__16vectorINS7_INS6_4pairIifEENS6_9allocatorIS9_EEEENSA_ISC_EEEE, 
                       __ZN5kaldi18AddTransitionProbsERKNS_15TransitionModelERKNSt3__16vectorIiNS3_9allocatorIiEEEEffPN3fst9VectorFstINSA_6ArcTplINSA_17TropicalWeightTplIfEEEENSA_11VectorStateISF_NS5_ISF_EEEEEE, 
                       __ZN5kaldi18AddTransitionProbsERKNS_15TransitionModelEffPN3fst9VectorFstINS3_6ArcTplINS3_16LatticeWeightTplIfEEEENS3_11VectorStateIS8_NSt3__19allocatorIS8_EEEEEE, 
                       __ZN5kaldi18AddTransitionProbsERKNS_15TransitionModelEffPN3fst9VectorFstINS3_6ArcTplINS3_23CompactLatticeWeightTplINS3_16LatticeWeightTplIfEEiEEEENS3_11VectorStateISA_NSt3__19allocatorISA_EEEEEE, 
                       __ZN5kaldi18AssignmentClustersERKNSt3__16vectorIPNS_11ClusterableENS0_9allocatorIS3_EEEEPS6_PNS1_IiNS4_IiEEEENS_21RefineClustersOptionsE, 
                       __ZN5kaldi18ClassifyRspecifierERKNSt3__112basic_stringIcNS0_11char_traitsIcEENS0_9allocatorIcEEEEPS6_PNS_17RspecifierOptionsE, 
                       __ZN5kaldi18ClassifyRxfilenameERKNSt3__112basic_stringIcNS0_11char_traitsIcEENS0_9allocatorIcEEEE, 
                       __ZN5kaldi18ClassifyWspecifierERKNSt3__112basic_stringIcNS0_11char_traitsIcEENS0_9allocatorIcEEEEPS6_S9_PNS_17WspecifierOptionsE, 
                       __ZN5kaldi18ClassifyWxfilenameERKNSt3__112basic_stringIcNS0_11char_traitsIcEENS0_9allocatorIcEEEE, 
                       __ZN5kaldi18ComputeTreeMappingERKNS_8EventMapES2_RKNSt3__16vectorINS3_4pairINS4_INS5_IiiEENS3_9allocatorIS6_EEEEPNS_11ClusterableEEENS7_ISC_EEEEPNS4_IiNS7_IiEEEE, 
                       __ZN5kaldi18ConvertPhnxToPronsERKNSt3__16vectorIiNS0_9allocatorIiEEEES6_iiPNS1_IS4_NS2_IS4_EEEE, 
                       __ZN5kaldi18DecodableInterfaceD0Ev, __ZN5kaldi18DecodableInterfaceD1Ev, 
                       __ZN5kaldi18DecodableInterfaceD2Ev, __ZN5kaldi18EventMapVectorHashclERKNSt3__16vectorINS1_4pairIiiEENS1_9allocatorIS4_EEEE, 
                       __ZN5kaldi18GetDefaultTopologyERKNSt3__16vectorIiNS0_9allocatorIiEEEEi, 
                       __ZN5kaldi18JoinVectorToStringERKNSt3__16vectorINS0_12basic_stringIcNS0_11char_traitsIcEENS0_9allocatorIcEEEENS5_IS7_EEEEPKcbPS7_, 
                       __ZN5kaldi18KaldiGetStackTraceEv, __ZN5kaldi18PartitionNumberSubEiiiRNSt3__16vectorIiNS0_9allocatorIiEEEERNS1_IS4_NS2_IS4_EEEE, 
                       __ZN5kaldi18ReadBuildTreeStatsERNSt3__113basic_istreamIcNS0_11char_traitsIcEEEEbRKNS_11ClusterableEPNS0_6vectorINS0_4pairINS9_INSA_IiiEENS0_9allocatorISB_EEEEPS6_EENSC_ISG_EEEE, 
                       __ZN5kaldi18ReadCoreMLModelNetERKNSt3__112basic_stringIcNS0_11char_traitsIcEENS0_9allocatorIcEEEE, 
                       __ZN5kaldi18ReadCoreMLModelNetERKNSt3__112basic_stringIcNS0_11char_traitsIcEENS0_9allocatorIcEEEEb, 
                       __ZN5kaldi18StandardOutputImplD0Ev, __ZN5kaldi18StandardOutputImplD1Ev, 
                       __ZN5kaldi18StandardOutputImplD2Ev, __ZN5kaldi18SumClusterableObjfERKNSt3__16vectorIPNS_11ClusterableENS0_9allocatorIS3_EEEE, 
                       __ZN5kaldi19CompactLatticeDepthERKN3fst9VectorFstINS0_6ArcTplINS0_23CompactLatticeWeightTplINS0_16LatticeWeightTplIfEEiEEEENS0_11VectorStateIS7_NSt3__19allocatorIS7_EEEEEEPi, 
                       __ZN5kaldi19ComputeInitialSplitERKNSt3__16vectorIPNS_11ClusterableENS0_9allocatorIS3_EEEERKNS_9QuestionsEiPNS1_IiNS4_IiEEEE, 
                       __ZN5kaldi19ComputeLifterCoeffsEfPNS_10VectorBaseIfEE, __ZN5kaldi19ConvertStringToRealERKNSt3__112basic_stringIcNS0_11char_traitsIcEENS0_9allocatorIcEEEEPd, 
                       __ZN5kaldi19ConvertStringToRealERKNSt3__112basic_stringIcNS0_11char_traitsIcEENS0_9allocatorIcEEEEPf, 
                       __ZN5kaldi19CopyTidsFromLatticeERKN3fst9VectorFstINS0_6ArcTplINS0_16LatticeWeightTplIfEEEENS0_11VectorStateIS5_NSt3__19allocatorIS5_EEEEEESD_, 
                       __ZN5kaldi19FindBestSplitForKeyERKNSt3__16vectorINS0_4pairINS1_INS2_IiiEENS0_9allocatorIS3_EEEEPNS_11ClusterableEEENS4_IS9_EEEERKNS_9QuestionsEiPNS1_IiNS4_IiEEEE, 
                       __ZN5kaldi19KMeansClusterPhonesERNSt3__16vectorINS0_4pairINS1_INS2_IiiEENS0_9allocatorIS3_EEEEPNS_11ClusterableEEENS4_IS9_EEEERKNS1_INS1_IiNS4_IiEEEENS4_ISE_EEEERKSE_iiPSG_, 
                       __ZN5kaldi19KaldiAssertFailure_EPKcS1_iS1_, __ZN5kaldi19LatticeActivePhonesERKN3fst9VectorFstINS0_6ArcTplINS0_16LatticeWeightTplIfEEEENS0_11VectorStateIS5_NSt3__19allocatorIS5_EEEEEERKNS_15TransitionModelERKNS_15SilencePhoneSetEPNS7_6vectorINS7_3setIiNS7_4lessIiEENS8_IiEEEENS8_ISP_EEEE, 
                       __ZN5kaldi19OffsetFileInputImplD0Ev, __ZN5kaldi19OffsetFileInputImplD1Ev, 
                       __ZN5kaldi19OffsetFileInputImplD2Ev, __ZN5kaldi19PrintableRxfilenameENSt3__112basic_stringIcNS0_11char_traitsIcEENS0_9allocatorIcEEEE, 
                       __ZN5kaldi19PrintableWxfilenameENSt3__112basic_stringIcNS0_11char_traitsIcEENS0_9allocatorIcEEEE, 
                       __ZN5kaldi19ShareEventMapLeavesERKNS_8EventMapEiRNSt3__16vectorINS4_IiNS3_9allocatorIiEEEENS5_IS7_EEEEPi, 
                       __ZN5kaldi19SortPosteriorByPdfsERKNS_15TransitionModelEPNSt3__16vectorINS4_INS3_4pairIifEENS3_9allocatorIS6_EEEENS7_IS9_EEEE, 
                       __ZN5kaldi19SplitStringOnStringERKNSt3__112basic_stringIcNS0_11char_traitsIcEENS0_9allocatorIcEEEES8_PNS0_6vectorIS6_NS4_IS6_EEEE, 
                       __ZN5kaldi19SplitStringToVectorERKNSt3__112basic_stringIcNS0_11char_traitsIcEENS0_9allocatorIcEEEEPKcbPNS0_6vectorIS6_NS4_IS6_EEEE, 
                       __ZN5kaldi19StandardErrorLoggerERKNSt3__112basic_stringIcNS0_11char_traitsIcEENS0_9allocatorIcEEEEPv, 
                       __ZN5kaldi19UniformRandomNumber14SetRandomSeedsERKNSt3__16vectorIjNS1_9allocatorIjEEEE, 
                       __ZN5kaldi19UniformRandomNumber14SetRandomSeedsEj, __ZN5kaldi19UniformRandomNumber16SetMaxRandNumberEi, 
                       __ZN5kaldi19UniformRandomNumber16SetNumGeneratorsEm, __ZN5kaldi19UniformRandomNumberC1Eimm, 
                       __ZN5kaldi19UniformRandomNumberC2Eimm, __ZN5kaldi19UniformRandomNumberD1Ev, 
                       __ZN5kaldi19UniformRandomNumberD2Ev, __ZN5kaldi19WriteBuildTreeStatsERNSt3__113basic_ostreamIcNS0_11char_traitsIcEEEEbRKNS0_6vectorINS0_4pairINS6_INS7_IiiEENS0_9allocatorIS8_EEEEPNS_11ClusterableEEENS9_ISE_EEEE, 
                       __ZN5kaldi19kaldi_memalign_freeEPv, __ZN5kaldi20AlignmentToPosteriorERKNSt3__16vectorIiNS0_9allocatorIiEEEEPNS1_INS1_INS0_4pairIifEENS2_IS8_EEEENS2_ISA_EEEE, 
                       __ZN5kaldi20ComputePowerSpectrumEPNS_10VectorBaseIfEE, __ZN5kaldi20ComputeShiftedDeltasERKNS_27ShiftedDeltaFeaturesOptionsERKNS_10MatrixBaseIfEEPNS_6MatrixIfEE, 
                       __ZN5kaldi20DeleteBuildTreeStatsEPNSt3__16vectorINS0_4pairINS1_INS2_IiiEENS0_9allocatorIS3_EEEEPNS_11ClusterableEEENS4_IS9_EEEE, 
                       __ZN5kaldi20DoTableSplitMultipleERKNS_8EventMapERKNSt3__16vectorIiNS3_9allocatorIiEEEERKNS4_INS3_4pairINS4_INSA_IiiEENS5_ISB_EEEEPNS_11ClusterableEEENS5_ISG_EEEEPi, 
                       __ZN5kaldi20EncoderDecoderNetItfD0Ev, __ZN5kaldi20EncoderDecoderNetItfD1Ev, 
                       __ZN5kaldi20EncoderDecoderNetItfD2Ev, __ZN5kaldi20OptimizableInterfaceIdED0Ev, 
                       __ZN5kaldi20OptimizableInterfaceIdED1Ev, __ZN5kaldi20OptimizableInterfaceIdED2Ev, 
                       __ZN5kaldi20OptimizableInterfaceIfED0Ev, __ZN5kaldi20OptimizableInterfaceIfED1Ev, 
                       __ZN5kaldi20OptimizableInterfaceIfED2Ev, __ZN5kaldi20ShiftedDeltaFeaturesC1ERKNS_27ShiftedDeltaFeaturesOptionsE, 
                       __ZN5kaldi20ShiftedDeltaFeaturesC2ERKNS_27ShiftedDeltaFeaturesOptionsE, 
                       __ZN5kaldi20StandardErrorVLoggerERKNSt3__112basic_stringIcNS0_11char_traitsIcEENS0_9allocatorIcEEEEiPv, 
                       __ZN5kaldi21DecodableMatrixScaled13LogLikelihoodEii, __ZN5kaldi21DecodableMatrixScaledC1ERKNS_6MatrixIfEEfPKNSt3__16vectorIiNS5_9allocatorIiEEEE, 
                       __ZN5kaldi21DecodableMatrixScaledC2ERKNS_6MatrixIfEEfPKNSt3__16vectorIiNS5_9allocatorIiEEEE, 
                       __ZN5kaldi21E2EDecodableInterfaceD0Ev, __ZN5kaldi21E2EDecodableInterfaceD1Ev, 
                       __ZN5kaldi21E2EDecodableInterfaceD2Ev, __ZN5kaldi21FeatureWindowFunctionC1ERKNS_22FrameExtractionOptionsE, 
                       __ZN5kaldi21FeatureWindowFunctionC2ERKNS_22FrameExtractionOptionsE, 
                       __ZN5kaldi21LongestSentenceLengthERKN3fst9VectorFstINS0_6ArcTplINS0_16LatticeWeightTplIfEEEENS0_11VectorStateIS5_NSt3__19allocatorIS5_EEEEEE, 
                       __ZN5kaldi21LongestSentenceLengthERKN3fst9VectorFstINS0_6ArcTplINS0_23CompactLatticeWeightTplINS0_16LatticeWeightTplIfEEiEEEENS0_11VectorStateIS7_NSt3__19allocatorIS7_EEEEEE, 
                       __ZN5kaldi21RefineClustersOptions4ReadERNSt3__113basic_istreamIcNS1_11char_traitsIcEEEEb, 
                       __ZN5kaldi21RescoreCompactLatticeEPNS_18DecodableInterfaceEPN3fst9VectorFstINS2_6ArcTplINS2_23CompactLatticeWeightTplINS2_16LatticeWeightTplIfEEiEEEENS2_11VectorStateIS9_NSt3__19allocatorIS9_EEEEEE, 
                       __ZN5kaldi21SolveQuadraticProblemIdEET_RKNS_8SpMatrixIS1_EERKNS_10VectorBaseIS1_EERKNS_13SolverOptionsEPS7_, 
                       __ZN5kaldi21SolveQuadraticProblemIfEET_RKNS_8SpMatrixIS1_EERKNS_10VectorBaseIS1_EERKNS_13SolverOptionsEPS7_, 
                       __ZN5kaldi21TrainingGraphCompiler12CompileGraphERKN3fst9VectorFstINS1_6ArcTplINS1_17TropicalWeightTplIfEEEENS1_11VectorStateIS6_NSt3__19allocatorIS6_EEEEEEPSC_, 
                       __ZN5kaldi21TrainingGraphCompiler13CompileGraphsERKNSt3__16vectorIPKN3fst9VectorFstINS3_6ArcTplINS3_17TropicalWeightTplIfEEEENS3_11VectorStateIS8_NS1_9allocatorIS8_EEEEEENSA_ISF_EEEEPNS2_IPSD_NSA_ISK_EEEE, 
                       __ZN5kaldi21TrainingGraphCompiler20CompileGraphFromTextERKNSt3__16vectorIiNS1_9allocatorIiEEEEPN3fst9VectorFstINS8_6ArcTplINS8_17TropicalWeightTplIfEEEENS8_11VectorStateISD_NS3_ISD_EEEEEE, 
                       __ZN5kaldi21TrainingGraphCompiler21CompileGraphsFromTextERKNSt3__16vectorINS2_IiNS1_9allocatorIiEEEENS3_IS5_EEEEPNS2_IPN3fst9VectorFstINSA_6ArcTplINSA_17TropicalWeightTplIfEEEENSA_11VectorStateISF_NS3_ISF_EEEEEENS3_ISK_EEEE, 
                       __ZN5kaldi21TrainingGraphCompilerC1ERKNS_15TransitionModelERKNS_17ContextDependencyEPN3fst9VectorFstINS7_6ArcTplINS7_17TropicalWeightTplIfEEEENS7_11VectorStateISC_NSt3__19allocatorISC_EEEEEERKNSE_6vectorIiNSF_IiEEEERKNS_28TrainingGraphCompilerOptionsE, 
                       __ZN5kaldi21TrainingGraphCompilerC2ERKNS_15TransitionModelERKNS_17ContextDependencyEPN3fst9VectorFstINS7_6ArcTplINS7_17TropicalWeightTplIfEEEENS7_11VectorStateISC_NSt3__19allocatorISC_EEEEEERKNSE_6vectorIiNSF_IiEEEERKNS_28TrainingGraphCompilerOptionsE, 
                       __ZN5kaldi21g_kaldi_verbose_levelE, __ZN5kaldi22AddToClustersOptimizedERKNSt3__16vectorIPNS_11ClusterableENS0_9allocatorIS3_EEEERKNS1_IiNS4_IiEEEERKS2_PS6_, 
                       __ZN5kaldi22ConvertLatticeToPhonesERKNS_15TransitionModelEPN3fst9VectorFstINS3_6ArcTplINS3_16LatticeWeightTplIfEEEENS3_11VectorStateIS8_NSt3__19allocatorIS8_EEEEEE, 
                       __ZN5kaldi22ConvertPosteriorToPdfsERKNS_15TransitionModelERKNSt3__16vectorINS4_INS3_4pairIifEENS3_9allocatorIS6_EEEENS7_IS9_EEEEPSB_, 
                       __ZN5kaldi22GetEqualLoudnessVectorERKNS_8MelBanksEPNS_6VectorIfEE, 
                       __ZN5kaldi22LatticeForwardBackwardERKN3fst9VectorFstINS0_6ArcTplINS0_16LatticeWeightTplIfEEEENS0_11VectorStateIS5_NSt3__19allocatorIS5_EEEEEEPNS7_6vectorINSE_INS7_4pairIifEENS8_ISG_EEEENS8_ISI_EEEEPd, 
                       __ZN5kaldi22OnlineFeatureInterfaceD0Ev, __ZN5kaldi22OnlineFeatureInterfaceD1Ev, 
                       __ZN5kaldi22OnlineFeatureInterfaceD2Ev, __ZN5kaldi22TopSortLatticeIfNeededEPN3fst9VectorFstINS0_6ArcTplINS0_16LatticeWeightTplIfEEEENS0_11VectorStateIS5_NSt3__19allocatorIS5_EEEEEE, 
                       __ZN5kaldi22VectorToPosteriorEntryERKNS_10VectorBaseIfEEifPNSt3__16vectorINS4_4pairIifEENS4_9allocatorIS7_EEEE, 
                       __ZN5kaldi23SplitStringOnFirstSpaceERKNSt3__112basic_stringIcNS0_11char_traitsIcEENS0_9allocatorIcEEEEPS6_S9_, 
                       __ZN5kaldi24CompactLatticeLimitDepthEiPN3fst9VectorFstINS0_6ArcTplINS0_23CompactLatticeWeightTplINS0_16LatticeWeightTplIfEEiEEEENS0_11VectorStateIS7_NSt3__19allocatorIS7_EEEEEE, 
                       __ZN5kaldi24CompactLatticeStateTimesERKN3fst9VectorFstINS0_6ArcTplINS0_23CompactLatticeWeightTplINS0_16LatticeWeightTplIfEEiEEEENS0_11VectorStateIS7_NSt3__19allocatorIS7_EEEEEEPNS9_6vectorIiNSA_IiEEEE, 
                       __ZN5kaldi24ConvertPosteriorToPhonesERKNS_15TransitionModelERKNSt3__16vectorINS4_INS3_4pairIifEENS3_9allocatorIS6_EEEENS7_IS9_EEEEPSB_, 
                       __ZN5kaldi24ExtractWaveformRemainderERKNS_10VectorBaseIfEERKNS_22FrameExtractionOptionsEPNS_6VectorIfEE, 
                       __ZN5kaldi24GenRandContextDependencyERKNSt3__16vectorIiNS0_9allocatorIiEEEEbPS4_, 
                       __ZN5kaldi24SlidingWindowCmnInternalERKNS_23SlidingWindowCmnOptionsERKNS_10MatrixBaseIdEEPS4_, 
                       __ZN5kaldi24SumClusterableNormalizerERKNSt3__16vectorIPNS_11ClusterableENS0_9allocatorIS3_EEEE, 
                       __ZN5kaldi25ClusterEventMapGetMappingERKNS_8EventMapERKNSt3__16vectorINS3_4pairINS4_INS5_IiiEENS3_9allocatorIS6_EEEEPNS_11ClusterableEEENS7_ISC_EEEEfPNS4_IPS0_NS7_ISH_EEEE, 
                       __ZN5kaldi25DecodableMatrixSkipFrames13LogLikelihoodEii, __ZN5kaldi25DecodableMatrixSkipFrames22LinearInterpolateLikesERKNS_10VectorBaseIfEES4_fPS2_, 
                       __ZN5kaldi25DecodableMatrixSkipFrames4InitEv, __ZN5kaldi25DecodableMatrixSkipFramesC1ERKNS_15TransitionModelERKNS_6MatrixIfEEfib, 
                       __ZN5kaldi25DecodableMatrixSkipFramesC2ERKNS_15TransitionModelERKNS_6MatrixIfEEfib, 
                       __ZN5kaldi25DecodableMatrixSkipFramesD0Ev, __ZN5kaldi25DecodableMatrixSkipFramesD1Ev, 
                       __ZN5kaldi25DecodableMatrixSkipFramesD2Ev, __ZN5kaldi25LatticeForwardBackwardMmiERKNS_15TransitionModelERKN3fst9VectorFstINS3_6ArcTplINS3_16LatticeWeightTplIfEEEENS3_11VectorStateIS8_NSt3__19allocatorIS8_EEEEEERKNSA_6vectorIiNSB_IiEEEEbbbPNSH_INSH_INSA_4pairIifEENSB_ISN_EEEENSB_ISP_EEEE, 
                       __ZN5kaldi25ReadSymbolTableAsIntegersENSt3__112basic_stringIcNS0_11char_traitsIcEENS0_9allocatorIcEEEEbPNS0_6vectorIiNS4_IiEEEE, 
                       __ZN5kaldi26CompactLatticeShortestPathERKN3fst9VectorFstINS0_6ArcTplINS0_23CompactLatticeWeightTplINS0_16LatticeWeightTplIfEEiEEEENS0_11VectorStateIS7_NSt3__19allocatorIS7_EEEEEERSD_PNS9_6vectorINS_9ChosenArcENSA_ISI_EEEE, 
                       __ZN5kaldi26CompactLatticeShortestPathERKN3fst9VectorFstINS0_6ArcTplINS0_23CompactLatticeWeightTplINS0_16LatticeWeightTplIfEEiEEEENS0_11VectorStateIS7_NSt3__19allocatorIS7_EEEEEERSD_PNS9_6vectorINS_9ChosenArcENSA_ISI_EEEERd, 
                       __ZN5kaldi26ContextDependencyInterfaceD0Ev, __ZN5kaldi26ContextDependencyInterfaceD1Ev, 
                       __ZN5kaldi26ContextDependencyInterfaceD2Ev, __ZN5kaldi26GenerateCombinationIndicesERKNSt3__16vectorIjNS0_9allocatorIjEEEElb, 
                       __ZN5kaldi26MonophoneContextDependencyENSt3__16vectorIiNS0_9allocatorIiEEEES4_, 
                       __ZN5kaldi26RoundUpToNearestPowerOfTwoEi, __ZN5kaldi27CompactLatticeDepthPerFrameERKN3fst9VectorFstINS0_6ArcTplINS0_23CompactLatticeWeightTplINS0_16LatticeWeightTplIfEEiEEEENS0_11VectorStateIS7_NSt3__19allocatorIS7_EEEEEEPNS9_6vectorIiNSA_IiEEEE, 
                       __ZN5kaldi27DecodableMatrixScaledMapped13LogLikelihoodEii, 
                       __ZN5kaldi27DecodableMatrixScaledMappedC1ERKNS_15TransitionModelERKNS_6MatrixIfEEf, 
                       __ZN5kaldi27DecodableMatrixScaledMappedC1ERKNS_15TransitionModelEfPKNS_6MatrixIfEE, 
                       __ZN5kaldi27DecodableMatrixScaledMappedC2ERKNS_15TransitionModelERKNS_6MatrixIfEEf, 
                       __ZN5kaldi27DecodableMatrixScaledMappedC2ERKNS_15TransitionModelEfPKNS_6MatrixIfEE, 
                       __ZN5kaldi27DecodableMatrixScaledMappedD0Ev, __ZN5kaldi27DecodableMatrixScaledMappedD1Ev, 
                       __ZN5kaldi27DecodableMatrixScaledMappedD2Ev, __ZN5kaldi27PosteriorEntriesAreDisjointERKNSt3__16vectorINS0_4pairIifEENS0_9allocatorIS3_EEEES8_, 
                       __ZN5kaldi28AutomaticallyObtainQuestionsERNSt3__16vectorINS0_4pairINS1_INS2_IiiEENS0_9allocatorIS3_EEEEPNS_11ClusterableEEENS4_IS9_EEEERKNS1_INS1_IiNS4_IiEEEENS4_ISE_EEEERKSE_iPSG_, 
                       __ZN5kaldi28RescoreCompactLatticeSpeedupERKNS_15TransitionModelEfPNS_18DecodableInterfaceEPN3fst9VectorFstINS5_6ArcTplINS5_23CompactLatticeWeightTplINS5_16LatticeWeightTplIfEEiEEEENS5_11VectorStateISC_NSt3__19allocatorISC_EEEEEE, 
                       __ZN5kaldi28WeightSilencePostDistributedERKNS_15TransitionModelERKNS_15SilencePhoneSetEfPNSt3__16vectorINS7_INS6_4pairIifEENS6_9allocatorIS9_EEEENSA_ISC_EEEE, 
                       __ZN5kaldi29AddWordInsPenToCompactLatticeEfPN3fst9VectorFstINS0_6ArcTplINS0_23CompactLatticeWeightTplINS0_16LatticeWeightTplIfEEiEEEENS0_11VectorStateIS7_NSt3__19allocatorIS7_EEEEEE, 
                       __ZN5kaldi29CompactLatticeToWordAlignmentERKN3fst9VectorFstINS0_6ArcTplINS0_23CompactLatticeWeightTplINS0_16LatticeWeightTplIfEEiEEEENS0_11VectorStateIS7_NSt3__19allocatorIS7_EEEEEEPNS9_6vectorIiNSA_IiEEEESJ_SJ_, 
                       __ZN5kaldi29ConvertCompactLatticeToPhonesERKNS_15TransitionModelEPN3fst9VectorFstINS3_6ArcTplINS3_23CompactLatticeWeightTplINS3_16LatticeWeightTplIfEEiEEEENS3_11VectorStateISA_NSt3__19allocatorISA_EEEEEEb, 
                       __ZN5kaldi29GenRandContextDependencyLargeERKNSt3__16vectorIiNS0_9allocatorIiEEEEiibPS4_, 
                       __ZN5kaldi29RescoreCompactLatticeInternalEPKNS_15TransitionModelEfPNS_18DecodableInterfaceEPN3fst9VectorFstINS5_6ArcTplINS5_23CompactLatticeWeightTplINS5_16LatticeWeightTplIfEEiEEEENS5_11VectorStateISC_NSt3__19allocatorISC_EEEEEE, 
                       __ZN5kaldi29TopSortCompactLatticeIfNeededEPN3fst9VectorFstINS0_6ArcTplINS0_23CompactLatticeWeightTplINS0_16LatticeWeightTplIfEEiEEEENS0_11VectorStateIS7_NSt3__19allocatorIS7_EEEEEE, 
                       __ZN5kaldi30ClusterEventMapRestrictedByMapERKNS_8EventMapERKNSt3__16vectorINS3_4pairINS4_INS5_IiiEENS3_9allocatorIS6_EEEEPNS_11ClusterableEEENS7_ISC_EEEEfS2_Pi, 
                       __ZN5kaldi30EnsureClusterableVectorNotNullEPNSt3__16vectorIPNS_11ClusterableENS0_9allocatorIS3_EEEE, 
                       __ZN5kaldi30GetPdfToTransitionIdTransducerERKNS_15TransitionModelE, 
                       __ZN5kaldi31ClusterEventMapRestrictedByKeysERKNS_8EventMapERKNSt3__16vectorINS3_4pairINS4_INS5_IiiEENS3_9allocatorIS6_EEEEPNS_11ClusterableEEENS7_ISC_EEEEfRKNS4_IiNS7_IiEEEEPi, 
                       __ZN5kaldi31DecodableMatrixScaledMappedTInd13LogLikelihoodEii, 
                       __ZN5kaldi31DecodableMatrixScaledMappedTIndC1ERKNS_15TransitionModelERKNS_6MatrixIfEEff, 
                       __ZN5kaldi31DecodableMatrixScaledMappedTIndC1ERKNS_15TransitionModelEffPKNS_6MatrixIfEE, 
                       __ZN5kaldi31DecodableMatrixScaledMappedTIndC2ERKNS_15TransitionModelERKNS_6MatrixIfEEff, 
                       __ZN5kaldi31DecodableMatrixScaledMappedTIndC2ERKNS_15TransitionModelEffPKNS_6MatrixIfEE, 
                       __ZN5kaldi31DecodableMatrixScaledMappedTIndD0Ev, __ZN5kaldi31DecodableMatrixScaledMappedTIndD1Ev, 
                       __ZN5kaldi31DecodableMatrixScaledMappedTIndD2Ev, __ZN5kaldi32AutoRegressiveDecodableInterfaceD0Ev, 
                       __ZN5kaldi32AutoRegressiveDecodableInterfaceD1Ev, __ZN5kaldi32AutoRegressiveDecodableInterfaceD2Ev, 
                       __ZN5kaldi32ClusterBottomUpCompartmentalizedERKNSt3__16vectorINS1_IPNS_11ClusterableENS0_9allocatorIS3_EEEENS4_IS6_EEEEfiPS8_PNS1_INS1_IiNS4_IiEEEENS4_ISD_EEEE, 
                       __ZN5kaldi32MonophoneContextDependencySharedENSt3__16vectorINS1_IiNS0_9allocatorIiEEEENS2_IS4_EEEES4_, 
                       __ZN5kaldi33LatticeForwardBackwardMpeVariantsERKNS_15TransitionModelERKNS_15SilencePhoneSetERKN3fst9VectorFstINS6_6ArcTplINS6_16LatticeWeightTplIfEEEENS6_11VectorStateISB_NSt3__19allocatorISB_EEEEEERKNSD_6vectorIiNSE_IiEEEENSD_12basic_stringIcNSD_11char_traitsIcEENSE_IcEEEEbPNSK_INSK_INSD_4pairIifEENSE_ISV_EEEENSE_ISX_EEEE, 
                       __ZN5kaldi34CompartmentalizedBottomUpClusterer11SetDistanceEiii, 
                       __ZN5kaldi34CompartmentalizedBottomUpClusterer13MergeClustersEiii, 
                       __ZN5kaldi34CompartmentalizedBottomUpClusterer16ReconstructQueueEv, 
                       __ZN5kaldi34CompartmentalizedBottomUpClusterer19SetInitialDistancesEv, 
                       __ZN5kaldi34CompartmentalizedBottomUpClusterer21InitializeAssignmentsEv, 
                       __ZN5kaldi34CompartmentalizedBottomUpClusterer7ClusterEPNSt3__16vectorINS2_IPNS_11ClusterableENS1_9allocatorIS4_EEEENS5_IS7_EEEEPNS2_INS2_IiNS5_IiEEEENS5_ISC_EEEE, 
                       __ZN5kaldi34CompartmentalizedBottomUpClusterer8CanMergeEiiif, 
                       __ZN5kaldi34CompartmentalizedBottomUpClusterer8RenumberEi, 
                       __ZN5kaldi34ComposeCompactLatticeDeterministicERKN3fst9VectorFstINS0_6ArcTplINS0_23CompactLatticeWeightTplINS0_16LatticeWeightTplIfEEiEEEENS0_11VectorStateIS7_NSt3__19allocatorIS7_EEEEEEPNS0_24DeterministicOnDemandFstINS2_INS0_17TropicalWeightTplIfEEEEEEPSD_, 
                       __ZN5kaldi49RescoreCompactLatticeWithDeterministicOnDemandFstERN3fst24DeterministicOnDemandFstINS0_6ArcTplINS0_17TropicalWeightTplIfEEEEEEPNS0_9VectorFstINS2_INS0_23CompactLatticeWeightTplINS0_16LatticeWeightTplIfEEiEEEENS0_11VectorStateISD_NSt3__19allocatorISD_EEEEEENSF_10shared_ptrINSF_6vectorINSL_INS0_7ArcInfoEEENSG_ISO_EEEEEE, 
                       __ZN5kaldi49RescoreCompactLatticeWithDeterministicOnDemandFstERN3fst24DeterministicOnDemandFstINS0_6ArcTplINS0_17TropicalWeightTplIfEEEEEEiPNS0_9VectorFstINS2_INS0_23CompactLatticeWeightTplINS0_16LatticeWeightTplIfEEiEEEENS0_11VectorStateISD_NSt3__19allocatorISD_EEEEEENSF_10shared_ptrINSF_6vectorINSL_INS0_7ArcInfoEEENSG_ISO_EEEEEEi, 
                       __ZN5kaldi4PeekERNSt3__113basic_istreamIcNS0_11char_traitsIcEEEEb, 
                       __ZN5kaldi4RandEPNS_11RandomStateE, __ZN5kaldi4TrimEPNSt3__112basic_stringIcNS0_11char_traitsIcEENS0_9allocatorIcEEEE, 
                       __ZN5kaldi5Fbank11GetMelBanksEf, __ZN5kaldi5Fbank7ComputeERKNS_10VectorBaseIfEEfPNS_6MatrixIfEEPNS_6VectorIfEES7_b, 
                       __ZN5kaldi5FbankC1ERKNS_12FbankOptionsE, __ZN5kaldi5FbankC2ERKNS_12FbankOptionsE, 
                       __ZN5kaldi5FbankD1Ev, __ZN5kaldi5FbankD2Ev, __ZN5kaldi5Input12OpenInternalERKNSt3__112basic_stringIcNS1_11char_traitsIcEENS1_9allocatorIcEEEEbPb, 
                       __ZN5kaldi5Input5CloseEv, __ZN5kaldi5Input6StreamEv, __ZN5kaldi5InputC1ERKNSt3__112basic_stringIcNS1_11char_traitsIcEENS1_9allocatorIcEEEEPb, 
                       __ZN5kaldi5InputC2ERKNSt3__112basic_stringIcNS1_11char_traitsIcEENS1_9allocatorIcEEEEPb, 
                       __ZN5kaldi5InputD1Ev, __ZN5kaldi5InputD2Ev, __ZN5kaldi5SrandEj, 
                       __ZN5kaldi5nnet110DoBackPropENS0_16NnetTrainOptionsENS0_27GradientNormalizationParamsEfNSt3__112basic_stringIcNS3_11char_traitsIcEENS3_9allocatorIcEEEES9_iNS3_6vectorINSA_IfNS7_IfEEEENS7_ISC_EEEENSA_INSA_INSA_INS3_4pairIifEENS7_ISG_EEEENS7_ISI_EEEENS7_ISK_EEEES9_RSE_RSC_RNSA_IiNS7_IiEEEE, 
                       __ZN5kaldi5nnet110LogSoftmaxD0Ev, __ZN5kaldi5nnet110LogSoftmaxD1Ev, 
                       __ZN5kaldi5nnet110LogSoftmaxD2Ev, __ZN5kaldi5nnet112BlockSoftmaxD0Ev, 
                       __ZN5kaldi5nnet112BlockSoftmaxD1Ev, __ZN5kaldi5nnet112BlockSoftmaxD2Ev, 
                       __ZN5kaldi5nnet112MultiSoftmaxD0Ev, __ZN5kaldi5nnet112MultiSoftmaxD1Ev, 
                       __ZN5kaldi5nnet112MultiSoftmaxD2Ev, __ZN5kaldi5nnet113CheckNnetTypeERKNSt3__112basic_stringIcNS1_11char_traitsIcEENS1_9allocatorIcEEEE, 
                       __ZN5kaldi5nnet113CopyComponentD0Ev, __ZN5kaldi5nnet113CopyComponentD1Ev, 
                       __ZN5kaldi5nnet113CopyComponentD2Ev, __ZN5kaldi5nnet113LstmComponentINS_12CuMatrixBaseIfEEE13UpdateWeightsEPvi, 
                       __ZN5kaldi5nnet113LstmComponentINS_12CuMatrixBaseIfEEE21VectorizeWeightsCorrsEPNS_11CuSubVectorIfEES7_PNSt3__16vectorIS6_NS8_9allocatorIS6_EEEE, 
                       __ZN5kaldi5nnet113SelfAttention12PropagateFncERKNS_12CuMatrixBaseIfEEPS3_i, 
                       __ZN5kaldi5nnet113SelfAttention13EnsureBuffersEv, __ZN5kaldi5nnet113SelfAttention15SetHistoryStateERKNS_12CuMatrixBaseIfEEi, 
                       __ZN5kaldi5nnet113SelfAttention15SetHistoryStateERKNS_12CuVectorBaseIfEEii, 
                       __ZN5kaldi5nnet113SelfAttention17ResetHistoryStateERKNSt3__16vectorIbNS2_9allocatorIbEEEEPvi, 
                       __ZN5kaldi5nnet113SelfAttention17ResetHistoryStateEv, __ZN5kaldi5nnet113SelfAttention8ReadDataERNSt3__113basic_istreamIcNS2_11char_traitsIcEEEEbPKv, 
                       __ZN5kaldi5nnet113SelfAttentionC1ERKS1_, __ZN5kaldi5nnet113SelfAttentionC2ERKS1_, 
                       __ZN5kaldi5nnet114HistoryOptionsD0Ev, __ZN5kaldi5nnet114HistoryOptionsD1Ev, 
                       __ZN5kaldi5nnet114HistoryOptionsD2Ev, __ZN5kaldi5nnet114NnetCorrPacker15UnpackApplyCorrERKNSt3__16vectorIiNS2_9allocatorIiEEEE, 
                       __ZN5kaldi5nnet114NnetCorrPacker24NumIntsForNumCompactValsEm, 
                       __ZN5kaldi5nnet114NnetCorrPacker4InitEPNS0_4NnetE, __ZN5kaldi5nnet114NnetCorrPacker8PackCorrEPNSt3__16vectorIiNS2_9allocatorIiEEEE, 
                       __ZN5kaldi5nnet114NnetCorrPackerC1Ev, __ZN5kaldi5nnet114NnetCorrPackerC2Ev, 
                       __ZN5kaldi5nnet114PNormComponentD0Ev, __ZN5kaldi5nnet114PNormComponentD1Ev, 
                       __ZN5kaldi5nnet114PNormComponentD2Ev, __ZN5kaldi5nnet114RandomizerMask4InitERKNS0_25NnetDataRandomizerOptionsE, 
                       __ZN5kaldi5nnet114RandomizerMask8GenerateEi, __ZN5kaldi5nnet114RelaxedSoftmaxD0Ev, 
                       __ZN5kaldi5nnet114RelaxedSoftmaxD1Ev, __ZN5kaldi5nnet114RelaxedSoftmaxD2Ev, 
                       __ZN5kaldi5nnet115AffineTransform12PropagateFncERKNS_12CuMatrixBaseIfEEPS3_i, 
                       __ZN5kaldi5nnet115AffineTransform12PropagateFncERKNS_12CuVectorBaseIfEEPS3_, 
                       __ZN5kaldi5nnet115LinearTransformINS_12CuMatrixBaseIfEEE13UpdateWeightsEPvi, 
                       __ZN5kaldi5nnet115LinearTransformINS_12CuMatrixBaseIfEEE21VectorizeWeightsCorrsEPNS_11CuSubVectorIfEES7_PNSt3__16vectorIS6_NS8_9allocatorIS6_EEEE, 
                       __ZN5kaldi5nnet115LinearTransformINS_12CuMatrixBaseIfEEEC1Eii, 
                       __ZN5kaldi5nnet115LinearTransformINS_12CuMatrixBaseIfEEEC2Eii, 
                       __ZN5kaldi5nnet115MaxoutComponentD0Ev, __ZN5kaldi5nnet115MaxoutComponentD1Ev, 
                       __ZN5kaldi5nnet115MaxoutComponentD2Ev, __ZN5kaldi5nnet116AverageAttention12PropagateFncERKNS_12CuMatrixBaseIfEEPS3_i, 
                       __ZN5kaldi5nnet116AverageAttention13EnsureBuffersEv, __ZN5kaldi5nnet116AverageAttention15SetHistoryStateERKNS_12CuMatrixBaseIfEEi, 
                       __ZN5kaldi5nnet116AverageAttention15SetHistoryStateERKNS_12CuVectorBaseIfEEii, 
                       __ZN5kaldi5nnet116AverageAttention17ResetHistoryStateERKNSt3__16vectorIbNS2_9allocatorIbEEEEPvi, 
                       __ZN5kaldi5nnet116AverageAttention17ResetHistoryStateEv, __ZN5kaldi5nnet116AverageAttention8ReadDataERNSt3__113basic_istreamIcNS2_11char_traitsIcEEEEbPKv, 
                       __ZN5kaldi5nnet116AverageAttentionC1ERKS1_, __ZN5kaldi5nnet116AverageAttentionC2ERKS1_, 
                       __ZN5kaldi5nnet116LossEvaluatorItfD0Ev, __ZN5kaldi5nnet116LossEvaluatorItfD1Ev, 
                       __ZN5kaldi5nnet116LossEvaluatorItfD2Ev, __ZN5kaldi5nnet116MatrixRandomizer4NextEv, 
                       __ZN5kaldi5nnet116MatrixRandomizer5ValueEiPv, __ZN5kaldi5nnet116MatrixRandomizer9RandomizeERKNSt3__16vectorIiNS2_9allocatorIiEEEE, 
                       __ZN5kaldi5nnet116NnetTrainOptionsD0Ev, __ZN5kaldi5nnet116NnetTrainOptionsD1Ev, 
                       __ZN5kaldi5nnet116NnetTrainOptionsD2Ev, __ZN5kaldi5nnet116PaddingComponent12PropagateFncERKNS_12CuMatrixBaseIfEEPS3_i, 
                       __ZN5kaldi5nnet116PaddingComponent16BackpropagateFncERKNS_12CuMatrixBaseIfEES5_S5_PS3_i, 
                       __ZN5kaldi5nnet116PaddingComponent8InitDataERNSt3__113basic_istreamIcNS2_11char_traitsIcEEEERNS_19UniformRandomNumberE, 
                       __ZN5kaldi5nnet116PaddingComponent8ReadDataERNSt3__113basic_istreamIcNS2_11char_traitsIcEEEEbPKv, 
                       __ZN5kaldi5nnet116VectorRandomizer4NextEv, __ZN5kaldi5nnet116VectorRandomizer5ValueEv, 
                       __ZN5kaldi5nnet116VectorRandomizer7AddDataERKNS_6VectorIfEE, 
                       __ZN5kaldi5nnet116VectorRandomizer9RandomizeERKNSt3__16vectorIiNS2_9allocatorIiEEEE, 
                       __ZN5kaldi5nnet116WordVecComponentD0Ev, __ZN5kaldi5nnet116WordVecComponentD1Ev, 
                       __ZN5kaldi5nnet116WordVecComponentD2Ev, __ZN5kaldi5nnet117AddRelaxedSoftmaxEfPNS0_4NnetE, 
                       __ZN5kaldi5nnet117IdentityComponentD0Ev, __ZN5kaldi5nnet117IdentityComponentD1Ev, 
                       __ZN5kaldi5nnet117IdentityComponentD2Ev, __ZN5kaldi5nnet117Nnet1InferenceNetD0Ev, 
                       __ZN5kaldi5nnet117Nnet1InferenceNetD1Ev, __ZN5kaldi5nnet117Nnet1InferenceNetD2Ev, 
                       __ZN5kaldi5nnet117ParallelComponentD0Ev, __ZN5kaldi5nnet117ParallelComponentD1Ev, 
                       __ZN5kaldi5nnet117ParallelComponentD2Ev, __ZN5kaldi5nnet118DuplicateComponentD0Ev, 
                       __ZN5kaldi5nnet118DuplicateComponentD1Ev, __ZN5kaldi5nnet118DuplicateComponentD2Ev, 
                       __ZN5kaldi5nnet118GatedRecurrentUnit12PropagateFncERKNS_12CuMatrixBaseIfEEPS3_i, 
                       __ZN5kaldi5nnet118GatedRecurrentUnit12PropagateFncERKNS_12CuVectorBaseIfEEPS3_, 
                       __ZN5kaldi5nnet118GatedRecurrentUnit13EnsureBuffersEv, __ZN5kaldi5nnet118GatedRecurrentUnit13PerturbParamsEf, 
                       __ZN5kaldi5nnet118GatedRecurrentUnit13SaveLastStateEi, __ZN5kaldi5nnet118GatedRecurrentUnit13UpdateWeightsEPvi, 
                       __ZN5kaldi5nnet118GatedRecurrentUnit14AccumGradientsERKNS_12CuMatrixBaseIfEES5_Pvi, 
                       __ZN5kaldi5nnet118GatedRecurrentUnit14AllocateParamsEv, __ZN5kaldi5nnet118GatedRecurrentUnit15SetHistoryStateERKNS_12CuMatrixBaseIfEEi, 
                       __ZN5kaldi5nnet118GatedRecurrentUnit15SetHistoryStateERKNS_12CuVectorBaseIfEEii, 
                       __ZN5kaldi5nnet118GatedRecurrentUnit16BackpropagateFncERKNS_12CuMatrixBaseIfEES5_S5_PS3_i, 
                       __ZN5kaldi5nnet118GatedRecurrentUnit17AllocateGradientsEv, 
                       __ZN5kaldi5nnet118GatedRecurrentUnit17ResetHistoryStateERKNSt3__16vectorIbNS2_9allocatorIbEEEEPvi, 
                       __ZN5kaldi5nnet118GatedRecurrentUnit17ResetHistoryStateEv, 
                       __ZN5kaldi5nnet118GatedRecurrentUnit18NormalizeGradientsEfi, 
                       __ZN5kaldi5nnet118GatedRecurrentUnit19SetInternalBoundaryERKNS_12CuVectorBaseIfEEi, 
                       __ZN5kaldi5nnet118GatedRecurrentUnit21EnsureTrainingBuffersEv, 
                       __ZN5kaldi5nnet118GatedRecurrentUnit22AllocateForwardBuffersEiiPv, 
                       __ZN5kaldi5nnet118GatedRecurrentUnit23AllocateBackwardBuffersEiiPv, 
                       __ZN5kaldi5nnet118GatedRecurrentUnit24SetGradientNormalizationEfNS0_9Component16GradientNormTypeE, 
                       __ZN5kaldi5nnet118GatedRecurrentUnit8InitDataERNSt3__113basic_istreamIcNS2_11char_traitsIcEEEERNS_19UniformRandomNumberE, 
                       __ZN5kaldi5nnet118GatedRecurrentUnit8ReadDataERNSt3__113basic_istreamIcNS2_11char_traitsIcEEEEbPKv, 
                       __ZN5kaldi5nnet118GatedRecurrentUnit9SetParamsERKNS_10VectorBaseIfEE, 
                       __ZN5kaldi5nnet118InputGradientCheckERKNS0_9ComponentERKNS_8CuMatrixIfEEfi, 
                       __ZN5kaldi5nnet118MultiHeadAttention16ComputeAttentionERKNS_12CuMatrixBaseIfEEPS3_i, 
                       __ZN5kaldi5nnet118MultiHeadAttention8ReadDataERNSt3__113basic_istreamIcNS2_11char_traitsIcEEEEbPKv, 
                       __ZN5kaldi5nnet118MultiHeadAttentionC1ERKS1_, __ZN5kaldi5nnet118MultiHeadAttentionC2ERKS1_, 
                       __ZN5kaldi5nnet118NormalizeComponent10kNormFloorE, __ZN5kaldi5nnet118NormalizeComponent12PropagateFncERKNS_12CuMatrixBaseIfEEPS3_i, 
                       __ZN5kaldi5nnet118NormalizeComponent16BackpropagateFncERKNS_12CuMatrixBaseIfEES5_S5_PS3_i, 
                       __ZN5kaldi5nnet118Padding2DComponent12PropagateFncERKNS_12CuMatrixBaseIfEEPS3_i, 
                       __ZN5kaldi5nnet118Padding2DComponent16BackpropagateFncERKNS_12CuMatrixBaseIfEES5_S5_PS3_i, 
                       __ZN5kaldi5nnet118Padding2DComponent4InitEv, __ZN5kaldi5nnet118Padding2DComponent4ReadERNSt3__113basic_istreamIcNS2_11char_traitsIcEEEEb, 
                       __ZN5kaldi5nnet118Padding2DComponent8InitDataERNSt3__113basic_istreamIcNS2_11char_traitsIcEEEERNS_19UniformRandomNumberE, 
                       __ZN5kaldi5nnet118Padding2DComponent8ReadDataERNSt3__113basic_istreamIcNS2_11char_traitsIcEEEEbPKv, 
                       __ZN5kaldi5nnet118ScaledDotAttention12PropagateFncERKNS_12CuMatrixBaseIfEEPS3_i, 
                       __ZN5kaldi5nnet118ScaledDotAttention16ComputeAttentionERKNS_12CuMatrixBaseIfEEPS3_i, 
                       __ZN5kaldi5nnet118ScaledDotAttention17SetKeyValueStatesERKNS_12CuMatrixBaseIfEES5_i, 
                       __ZN5kaldi5nnet118ScaledDotAttention19ClearKeyValueStatesEv, 
                       __ZN5kaldi5nnet118ScaledDotAttention25ComputeScaledDotAttentionERKNS_12CuMatrixBaseIfEES5_S5_PS3_S6_, 
                       __ZN5kaldi5nnet118ScaledDotAttention8ReadDataERNSt3__113basic_istreamIcNS2_11char_traitsIcEEEEbPKv, 
                       __ZN5kaldi5nnet118ScaledDotAttentionC1ERKS1_, __ZN5kaldi5nnet118ScaledDotAttentionC2ERKS1_, 
                       __ZN5kaldi5nnet118SharedNceComponentD0Ev, __ZN5kaldi5nnet118SharedNceComponentD1Ev, 
                       __ZN5kaldi5nnet118SharedNceComponentD2Ev, __ZN5kaldi5nnet118UpdatableComponent12ClipGradientEfPNS_12CuMatrixBaseIfEE, 
                       __ZN5kaldi5nnet118UpdatableComponent12ClipGradientEfPNS_12CuVectorBaseIfEE, 
                       __ZN5kaldi5nnet118UpdatableComponent15RmspropGradientEfPNS_12CuMatrixBaseIfEES4_, 
                       __ZN5kaldi5nnet118UpdatableComponent15RmspropGradientEfPNS_12CuVectorBaseIfEES4_, 
                       __ZN5kaldi5nnet118UpdatableComponent19LimitL2NormGradientEfPNS_12CuMatrixBaseIfEES4_, 
                       __ZN5kaldi5nnet118UpdatableComponent19LimitL2NormGradientEfPNS_12CuVectorBaseIfEES4_, 
                       __ZN5kaldi5nnet118UpdatableComponentD0Ev, __ZN5kaldi5nnet118UpdatableComponentD1Ev, 
                       __ZN5kaldi5nnet118UpdatableComponentD2Ev, __ZN5kaldi5nnet119HistoricalComponentD0Ev, 
                       __ZN5kaldi5nnet119HistoricalComponentD1Ev, __ZN5kaldi5nnet119HistoricalComponentD2Ev, 
                       __ZN5kaldi5nnet119MaxPoolingComponentD0Ev, __ZN5kaldi5nnet119MaxPoolingComponentD1Ev, 
                       __ZN5kaldi5nnet119MaxPoolingComponentD2Ev, __ZN5kaldi5nnet120FofeWordVecComponentD0Ev, 
                       __ZN5kaldi5nnet120FofeWordVecComponentD1Ev, __ZN5kaldi5nnet120FofeWordVecComponentD2Ev, 
                       __ZN5kaldi5nnet121CnnRearrangeComponent12PropagateFncERKNS_12CuMatrixBaseIfEEPS3_i, 
                       __ZN5kaldi5nnet121CnnRearrangeComponent16BackpropagateFncERKNS_12CuMatrixBaseIfEES5_S5_PS3_i, 
                       __ZN5kaldi5nnet121CnnRearrangeComponent8InitDataERNSt3__113basic_istreamIcNS2_11char_traitsIcEEEERNS_19UniformRandomNumberE, 
                       __ZN5kaldi5nnet121CnnRearrangeComponent8ReadDataERNSt3__113basic_istreamIcNS2_11char_traitsIcEEEEbPKv, 
                       __ZN5kaldi5nnet121CuPosteriorRandomizer25PosteriorToMatrixElementsERKNSt3__16vectorINS3_INS2_4pairIifEENS2_9allocatorIS5_EEEENS6_IS8_EEEE, 
                       __ZN5kaldi5nnet121CuPosteriorRandomizer4NextEv, __ZN5kaldi5nnet121CuPosteriorRandomizer5ValueEiPv, 
                       __ZN5kaldi5nnet121CuPosteriorRandomizer7AddDataERKNSt3__16vectorINS3_INS2_4pairIifEENS2_9allocatorIS5_EEEENS6_IS8_EEEE, 
                       __ZN5kaldi5nnet121CuPosteriorRandomizer9RandomizeERKNSt3__16vectorIiNS2_9allocatorIiEEEE, 
                       __ZN5kaldi5nnet121FramePoolingComponentD0Ev, __ZN5kaldi5nnet121FramePoolingComponentD1Ev, 
                       __ZN5kaldi5nnet121FramePoolingComponentD2Ev, __ZN5kaldi5nnet121MaxPooling2DComponentD0Ev, 
                       __ZN5kaldi5nnet121MaxPooling2DComponentD1Ev, __ZN5kaldi5nnet121MaxPooling2DComponentD2Ev, 
                       __ZN5kaldi5nnet121SpkCodeTrainingHelper19AttachSpkCodeToNnetEPNS0_4NnetE, 
                       __ZN5kaldi5nnet121SpkCodeTrainingHelper19ConcatenateSpkIndexENSt3__112basic_stringIcNS2_11char_traitsIcEENS2_9allocatorIcEEEEPNS_8CuMatrixIfEE, 
                       __ZN5kaldi5nnet121SpkCodeTrainingHelper21DetachSpkCodeFromNnetEPNS0_4NnetE, 
                       __ZN5kaldi5nnet121WordMultiVecComponentINS_12CuMatrixBaseIfEEE13PerturbParamsEf, 
                       __ZN5kaldi5nnet121WordMultiVecComponentINS_12CuMatrixBaseIfEEE13UpdateWeightsEPvi, 
                       __ZN5kaldi5nnet121WordMultiVecComponentINS_12CuMatrixBaseIfEEE14AccumGradientsERKS3_S6_Pvi, 
                       __ZN5kaldi5nnet121WordMultiVecComponentINS_12CuMatrixBaseIfEEE21VectorizeWeightsCorrsEPNS_11CuSubVectorIfEES7_PNSt3__16vectorIS6_NS8_9allocatorIS6_EEEE, 
                       __ZN5kaldi5nnet122AttentionBaseComponentD0Ev, __ZN5kaldi5nnet122AttentionBaseComponentD1Ev, 
                       __ZN5kaldi5nnet122AttentionBaseComponentD2Ev, __ZN5kaldi5nnet122ConvolutionalComponentD0Ev, 
                       __ZN5kaldi5nnet122ConvolutionalComponentD1Ev, __ZN5kaldi5nnet122ConvolutionalComponentD2Ev, 
                       __ZN5kaldi5nnet122InterpolationComponentD0Ev, __ZN5kaldi5nnet122InterpolationComponentD1Ev, 
                       __ZN5kaldi5nnet122InterpolationComponentD2Ev, __ZN5kaldi5nnet122ParameterGradientCheckERKNS0_9ComponentERKNS_8CuMatrixIfEEbfi, 
                       __ZN5kaldi5nnet122RecurrentBaseComponentD0Ev, __ZN5kaldi5nnet122RecurrentBaseComponentD1Ev, 
                       __ZN5kaldi5nnet122RecurrentBaseComponentD2Ev, __ZN5kaldi5nnet123AveragePoolingComponentD0Ev, 
                       __ZN5kaldi5nnet123AveragePoolingComponentD1Ev, __ZN5kaldi5nnet123AveragePoolingComponentD2Ev, 
                       __ZN5kaldi5nnet123FixedAttentionComponent12PropagateFncERKNS_12CuMatrixBaseIfEEPS3_i, 
                       __ZN5kaldi5nnet123FixedAttentionComponent13PerturbParamsEf, 
                       __ZN5kaldi5nnet123FixedAttentionComponent13UpdateWeightsEPvi, 
                       __ZN5kaldi5nnet123FixedAttentionComponent14AccumGradientsERKNS_12CuMatrixBaseIfEES5_Pvi, 
                       __ZN5kaldi5nnet123FixedAttentionComponent15SetSourceStatesERKNS_12CuMatrixBaseIfEERKNSt3__16vectorIiNS6_9allocatorIiEEEE, 
                       __ZN5kaldi5nnet123FixedAttentionComponent15SetTrainOptionsERKNS0_16NnetTrainOptionsE, 
                       __ZN5kaldi5nnet123FixedAttentionComponent16BackpropagateFncERKNS_12CuMatrixBaseIfEES5_S5_PS3_i, 
                       __ZN5kaldi5nnet123FixedAttentionComponent16SetMaxAttentionsEi, 
                       __ZN5kaldi5nnet123FixedAttentionComponent18NormalizeGradientsEfi, 
                       __ZN5kaldi5nnet123FixedAttentionComponent24SetGradientNormalizationEfNS0_9Component16GradientNormTypeE, 
                       __ZN5kaldi5nnet123FixedAttentionComponent24SetSourceVectorDimensionEi, 
                       __ZN5kaldi5nnet123FixedAttentionComponent8InitDataERNSt3__113basic_istreamIcNS2_11char_traitsIcEEEERNS_19UniformRandomNumberE, 
                       __ZN5kaldi5nnet123FixedAttentionComponent8ReadDataERNSt3__113basic_istreamIcNS2_11char_traitsIcEEEEbPKv, 
                       __ZN5kaldi5nnet123FixedAttentionComponent9SetParamsERKNS_10VectorBaseIfEE, 
                       __ZN5kaldi5nnet123FixedAttentionComponentC1ERKS1_, __ZN5kaldi5nnet123FixedAttentionComponentC1Eii, 
                       __ZN5kaldi5nnet123FixedAttentionComponentC2ERKS1_, __ZN5kaldi5nnet123FixedAttentionComponentC2Eii, 
                       __ZN5kaldi5nnet123FixedAttentionComponentD0Ev, __ZN5kaldi5nnet123FixedAttentionComponentD1Ev, 
                       __ZN5kaldi5nnet123FixedAttentionComponentD2Ev, __ZN5kaldi5nnet123FixedAttentionComponentaSERKS1_, 
                       __ZN5kaldi5nnet124CompressibleComponentItfD0Ev, __ZN5kaldi5nnet124CompressibleComponentItfD1Ev, 
                       __ZN5kaldi5nnet124CompressibleComponentItfD2Ev, __ZN5kaldi5nnet124Convolutional2DComponentINS_12CuMatrixBaseIfEEE13UpdateWeightsEPvi, 
                       __ZN5kaldi5nnet124GlobalAttentionComponent12PropagateFncERKNS_12CuMatrixBaseIfEEPS3_i, 
                       __ZN5kaldi5nnet124GlobalAttentionComponent13PerturbParamsEf, 
                       __ZN5kaldi5nnet124GlobalAttentionComponent13UpdateWeightsEPvi, 
                       __ZN5kaldi5nnet124GlobalAttentionComponent14AccumGradientsERKNS_12CuMatrixBaseIfEES5_Pvi, 
                       __ZN5kaldi5nnet124GlobalAttentionComponent15SetSourceStatesERKNS_12CuMatrixBaseIfEERKNSt3__16vectorIiNS6_9allocatorIiEEEE, 
                       __ZN5kaldi5nnet124GlobalAttentionComponent15SetTrainOptionsERKNS0_16NnetTrainOptionsE, 
                       __ZN5kaldi5nnet124GlobalAttentionComponent16BackpropagateFncERKNS_12CuMatrixBaseIfEES5_S5_PS3_i, 
                       __ZN5kaldi5nnet124GlobalAttentionComponent16SetMaxAttentionsEi, 
                       __ZN5kaldi5nnet124GlobalAttentionComponent18NormalizeGradientsEfi, 
                       __ZN5kaldi5nnet124GlobalAttentionComponent24SetGradientNormalizationEfNS0_9Component16GradientNormTypeE, 
                       __ZN5kaldi5nnet124GlobalAttentionComponent24SetSourceVectorDimensionEi, 
                       __ZN5kaldi5nnet124GlobalAttentionComponent8InitDataERNSt3__113basic_istreamIcNS2_11char_traitsIcEEEERNS_19UniformRandomNumberE, 
                       __ZN5kaldi5nnet124GlobalAttentionComponent8ReadDataERNSt3__113basic_istreamIcNS2_11char_traitsIcEEEEbPKv, 
                       __ZN5kaldi5nnet124GlobalAttentionComponent9SetParamsERKNS_10VectorBaseIfEE, 
                       __ZN5kaldi5nnet124GlobalAttentionComponentC1ERKS1_, __ZN5kaldi5nnet124GlobalAttentionComponentC1Eii, 
                       __ZN5kaldi5nnet124GlobalAttentionComponentC2ERKS1_, __ZN5kaldi5nnet124GlobalAttentionComponentC2Eii, 
                       __ZN5kaldi5nnet124GlobalAttentionComponentD0Ev, __ZN5kaldi5nnet124GlobalAttentionComponentD1Ev, 
                       __ZN5kaldi5nnet124GlobalAttentionComponentD2Ev, __ZN5kaldi5nnet124GlobalAttentionComponentaSERKS1_, 
                       __ZN5kaldi5nnet124GlobalRecurrentAttention12PropagateFncERKNS_12CuMatrixBaseIfEEPS3_i, 
                       __ZN5kaldi5nnet124GlobalRecurrentAttention13PerturbParamsEf, 
                       __ZN5kaldi5nnet124GlobalRecurrentAttention13UpdateWeightsEPvi, 
                       __ZN5kaldi5nnet124GlobalRecurrentAttention14AccumGradientsERKNS_12CuMatrixBaseIfEES5_Pvi, 
                       __ZN5kaldi5nnet124GlobalRecurrentAttention15SetHistoryStateERKNS_12CuMatrixBaseIfEEi, 
                       __ZN5kaldi5nnet124GlobalRecurrentAttention15SetHistoryStateERKNS_12CuVectorBaseIfEEii, 
                       __ZN5kaldi5nnet124GlobalRecurrentAttention15SetSourceStatesERKNS_12CuMatrixBaseIfEERKNSt3__16vectorIiNS6_9allocatorIiEEEE, 
                       __ZN5kaldi5nnet124GlobalRecurrentAttention15SetTrainOptionsERKNS0_16NnetTrainOptionsE, 
                       __ZN5kaldi5nnet124GlobalRecurrentAttention16BackpropagateFncERKNS_12CuMatrixBaseIfEES5_S5_PS3_i, 
                       __ZN5kaldi5nnet124GlobalRecurrentAttention16SetMaxAttentionsEi, 
                       __ZN5kaldi5nnet124GlobalRecurrentAttention17ResetHistoryStateERKNSt3__16vectorIbNS2_9allocatorIbEEEEPvi, 
                       __ZN5kaldi5nnet124GlobalRecurrentAttention17ResetHistoryStateEv, 
                       __ZN5kaldi5nnet124GlobalRecurrentAttention18NormalizeGradientsEfi, 
                       __ZN5kaldi5nnet124GlobalRecurrentAttention19SetInternalBoundaryERKNS_12CuVectorBaseIfEEi, 
                       __ZN5kaldi5nnet124GlobalRecurrentAttention24SetGradientNormalizationEfNS0_9Component16GradientNormTypeE, 
                       __ZN5kaldi5nnet124GlobalRecurrentAttention24SetSourceVectorDimensionEi, 
                       __ZN5kaldi5nnet124GlobalRecurrentAttention8InitDataERNSt3__113basic_istreamIcNS2_11char_traitsIcEEEERNS_19UniformRandomNumberE, 
                       __ZN5kaldi5nnet124GlobalRecurrentAttention8ReadDataERNSt3__113basic_istreamIcNS2_11char_traitsIcEEEEbPKv, 
                       __ZN5kaldi5nnet124GlobalRecurrentAttention9SetParamsERKNS_10VectorBaseIfEE, 
                       __ZN5kaldi5nnet124GlobalRecurrentAttentionC1ERKS1_, __ZN5kaldi5nnet124GlobalRecurrentAttentionC1Eii, 
                       __ZN5kaldi5nnet124GlobalRecurrentAttentionC2ERKS1_, __ZN5kaldi5nnet124GlobalRecurrentAttentionC2Eii, 
                       __ZN5kaldi5nnet124GlobalRecurrentAttentionD0Ev, __ZN5kaldi5nnet124GlobalRecurrentAttentionD1Ev, 
                       __ZN5kaldi5nnet124GlobalRecurrentAttentionD2Ev, __ZN5kaldi5nnet124GlobalRecurrentAttentionaSERKS1_, 
                       __ZN5kaldi5nnet124MovingAttentionComponent12PropagateFncERKNS_12CuMatrixBaseIfEEPS3_i, 
                       __ZN5kaldi5nnet124MovingAttentionComponent13PerturbParamsEf, 
                       __ZN5kaldi5nnet124MovingAttentionComponent13UpdateWeightsEPvi, 
                       __ZN5kaldi5nnet124MovingAttentionComponent14AccumGradientsERKNS_12CuMatrixBaseIfEES5_Pvi, 
                       __ZN5kaldi5nnet124MovingAttentionComponent15SetSourceStatesERKNS_12CuMatrixBaseIfEERKNSt3__16vectorIiNS6_9allocatorIiEEEE, 
                       __ZN5kaldi5nnet124MovingAttentionComponent15SetTrainOptionsERKNS0_16NnetTrainOptionsE, 
                       __ZN5kaldi5nnet124MovingAttentionComponent16BackpropagateFncERKNS_12CuMatrixBaseIfEES5_S5_PS3_i, 
                       __ZN5kaldi5nnet124MovingAttentionComponent16SetMaxAttentionsEi, 
                       __ZN5kaldi5nnet124MovingAttentionComponent17ComputeAlignmentsERKNS_12CuMatrixBaseIfEES5_, 
                       __ZN5kaldi5nnet124MovingAttentionComponent18NormalizeGradientsEfi, 
                       __ZN5kaldi5nnet124MovingAttentionComponent24SetGradientNormalizationEfNS0_9Component16GradientNormTypeE, 
                       __ZN5kaldi5nnet124MovingAttentionComponent24SetSourceVectorDimensionEi, 
                       __ZN5kaldi5nnet124MovingAttentionComponent8InitDataERNSt3__113basic_istreamIcNS2_11char_traitsIcEEEERNS_19UniformRandomNumberE, 
                       __ZN5kaldi5nnet124MovingAttentionComponent8ReadDataERNSt3__113basic_istreamIcNS2_11char_traitsIcEEEEbPKv, 
                       __ZN5kaldi5nnet124MovingAttentionComponent9SetParamsERKNS_10VectorBaseIfEE, 
                       __ZN5kaldi5nnet124MovingAttentionComponentC1ERKS1_, __ZN5kaldi5nnet124MovingAttentionComponentC1Eii, 
                       __ZN5kaldi5nnet124MovingAttentionComponentC2ERKS1_, __ZN5kaldi5nnet124MovingAttentionComponentC2Eii, 
                       __ZN5kaldi5nnet124MovingAttentionComponentD0Ev, __ZN5kaldi5nnet124MovingAttentionComponentD1Ev, 
                       __ZN5kaldi5nnet124MovingAttentionComponentD2Ev, __ZN5kaldi5nnet124MovingAttentionComponentaSERKS1_, 
                       __ZN5kaldi5nnet124RectifiedLinearComponentD0Ev, __ZN5kaldi5nnet124RectifiedLinearComponentD1Ev, 
                       __ZN5kaldi5nnet124RectifiedLinearComponentD2Ev, __ZN5kaldi5nnet125AveragePooling2DComponentD0Ev, 
                       __ZN5kaldi5nnet125AveragePooling2DComponentD1Ev, __ZN5kaldi5nnet125AveragePooling2DComponentD2Ev, 
                       __ZN5kaldi5nnet125RecurrentNnetTrainOptionsD0Ev, __ZN5kaldi5nnet125RecurrentNnetTrainOptionsD1Ev, 
                       __ZN5kaldi5nnet125RecurrentNnetTrainOptionsD2Ev, __ZN5kaldi5nnet126CompressedWordVecComponentD0Ev, 
                       __ZN5kaldi5nnet126CompressedWordVecComponentD1Ev, __ZN5kaldi5nnet126CompressedWordVecComponentD2Ev, 
                       __ZN5kaldi5nnet126ExponentialLinearComponentD0Ev, __ZN5kaldi5nnet126ExponentialLinearComponentD1Ev, 
                       __ZN5kaldi5nnet126ExponentialLinearComponentD2Ev, __ZN5kaldi5nnet126SentenceAveragingComponentD0Ev, 
                       __ZN5kaldi5nnet126SentenceAveragingComponentD1Ev, __ZN5kaldi5nnet126SentenceAveragingComponentD2Ev, 
                       __ZN5kaldi5nnet126SimplerSimpleRecurrentUnit12PropagateFncERKNS_12CuMatrixBaseIfEEPS3_i, 
                       __ZN5kaldi5nnet126SimplerSimpleRecurrentUnit13EnsureBuffersEv, 
                       __ZN5kaldi5nnet126SimplerSimpleRecurrentUnit15SetHistoryStateERKNS_12CuMatrixBaseIfEEi, 
                       __ZN5kaldi5nnet126SimplerSimpleRecurrentUnit15SetHistoryStateERKNS_12CuVectorBaseIfEEii, 
                       __ZN5kaldi5nnet126SimplerSimpleRecurrentUnit17ResetHistoryStateERKNSt3__16vectorIbNS2_9allocatorIbEEEEPvi, 
                       __ZN5kaldi5nnet126SimplerSimpleRecurrentUnit17ResetHistoryStateEv, 
                       __ZN5kaldi5nnet126SimplerSimpleRecurrentUnit8ReadDataERNSt3__113basic_istreamIcNS2_11char_traitsIcEEEEbPKv, 
                       __ZN5kaldi5nnet126SimplerSimpleRecurrentUnitC1ERKS1_, __ZN5kaldi5nnet126SimplerSimpleRecurrentUnitC2ERKS1_, 
                       __ZN5kaldi5nnet127Quantizable8BitComponentItfD0Ev, __ZN5kaldi5nnet127Quantizable8BitComponentItfD1Ev, 
                       __ZN5kaldi5nnet127Quantizable8BitComponentItfD2Ev, __ZN5kaldi5nnet127TemporalMaxPoolingComponentD0Ev, 
                       __ZN5kaldi5nnet127TemporalMaxPoolingComponentD1Ev, __ZN5kaldi5nnet127TemporalMaxPoolingComponentD2Ev, 
                       __ZN5kaldi5nnet128CompressedWordTransComponentD0Ev, __ZN5kaldi5nnet128CompressedWordTransComponentD1Ev, 
                       __ZN5kaldi5nnet128CompressedWordTransComponentD2Ev, __ZN5kaldi5nnet128Quantizable16BitComponentItfD0Ev, 
                       __ZN5kaldi5nnet128Quantizable16BitComponentItfD1Ev, __ZN5kaldi5nnet128Quantizable16BitComponentItfD2Ev, 
                       __ZN5kaldi5nnet128SupervisedMultiHeadAttention16ComputeAttentionERKNS_12CuMatrixBaseIfEEPS3_i, 
                       __ZN5kaldi5nnet128SupervisedMultiHeadAttention8ReadDataERNSt3__113basic_istreamIcNS2_11char_traitsIcEEEEbPKv, 
                       __ZN5kaldi5nnet128SupervisedMultiHeadAttentionC1ERKS1_, __ZN5kaldi5nnet128SupervisedMultiHeadAttentionC2ERKS1_, 
                       __ZN5kaldi5nnet131AttentionBaseInferenceComponentD0Ev, __ZN5kaldi5nnet131AttentionBaseInferenceComponentD1Ev, 
                       __ZN5kaldi5nnet131AttentionBaseInferenceComponentD2Ev, __ZN5kaldi5nnet131BidirectionalRecurrentComponent12PropagateFncERKNS_12CuMatrixBaseIfEEPS3_i, 
                       __ZN5kaldi5nnet131BidirectionalRecurrentComponent13EnsureBuffersEv, 
                       __ZN5kaldi5nnet131BidirectionalRecurrentComponent13PerturbParamsEf, 
                       __ZN5kaldi5nnet131BidirectionalRecurrentComponent13UpdateWeightsEPvi, 
                       __ZN5kaldi5nnet131BidirectionalRecurrentComponent14AccumGradientsERKNS_12CuMatrixBaseIfEES5_Pvi, 
                       __ZN5kaldi5nnet131BidirectionalRecurrentComponent15SetHistoryStateERKNS_12CuMatrixBaseIfEEi, 
                       __ZN5kaldi5nnet131BidirectionalRecurrentComponent15SetHistoryStateERKNS_12CuVectorBaseIfEEii, 
                       __ZN5kaldi5nnet131BidirectionalRecurrentComponent15SetTrainOptionsERKNS0_16NnetTrainOptionsE, 
                       __ZN5kaldi5nnet131BidirectionalRecurrentComponent16BackpropagateFncERKNS_12CuMatrixBaseIfEES5_S5_PS3_i, 
                       __ZN5kaldi5nnet131BidirectionalRecurrentComponent17GetInternalMemoryEPNS_12CuMatrixBaseIfEEi, 
                       __ZN5kaldi5nnet131BidirectionalRecurrentComponent17ResetHistoryStateERKNSt3__16vectorIbNS2_9allocatorIbEEEEPvi, 
                       __ZN5kaldi5nnet131BidirectionalRecurrentComponent17ResetHistoryStateEv, 
                       __ZN5kaldi5nnet131BidirectionalRecurrentComponent18NormalizeGradientsEfi, 
                       __ZN5kaldi5nnet131BidirectionalRecurrentComponent19SetInternalBoundaryERKNS_12CuVectorBaseIfEEi, 
                       __ZN5kaldi5nnet131BidirectionalRecurrentComponent24SetGradientNormalizationEfNS0_9Component16GradientNormTypeE, 
                       __ZN5kaldi5nnet131BidirectionalRecurrentComponent8InitDataERNSt3__113basic_istreamIcNS2_11char_traitsIcEEEERNS_19UniformRandomNumberE, 
                       __ZN5kaldi5nnet131BidirectionalRecurrentComponent8ReadDataERNSt3__113basic_istreamIcNS2_11char_traitsIcEEEEbPKv, 
                       __ZN5kaldi5nnet131BidirectionalRecurrentComponent9SetParamsERKNS_10VectorBaseIfEE, 
                       __ZN5kaldi5nnet131BidirectionalRecurrentComponentC1ERKS1_, 
                       __ZN5kaldi5nnet131BidirectionalRecurrentComponentC1Eii, __ZN5kaldi5nnet131BidirectionalRecurrentComponentC2ERKS1_, 
                       __ZN5kaldi5nnet131BidirectionalRecurrentComponentC2Eii, __ZN5kaldi5nnet131BidirectionalRecurrentComponentaSERKS1_, 
                       __ZN5kaldi5nnet131RecurrentAttentionBaseComponentD0Ev, __ZN5kaldi5nnet131RecurrentAttentionBaseComponentD1Ev, 
                       __ZN5kaldi5nnet131RecurrentAttentionBaseComponentD2Ev, __ZN5kaldi5nnet132ConvolutionalMaxPoolingComponentINS_12CuMatrixBaseIfEEE13UpdateWeightsEPvi, 
                       __ZN5kaldi5nnet132ConvolutionalMaxPoolingComponentINS_12CuMatrixBaseIfEEE14AccumGradientsERKS3_S6_Pvi, 
                       __ZN5kaldi5nnet132ConvolutionalMaxPoolingComponentINS_12CuMatrixBaseIfEEE16BackpropagateFncERKS3_S6_S6_PS3_i, 
                       __ZN5kaldi5nnet132ConvolutionalMaxPoolingComponentINS_12CuMatrixBaseIfEEE21VectorizeWeightsCorrsEPNS_11CuSubVectorIfEES7_PNSt3__16vectorIS6_NS8_9allocatorIS6_EEEE, 
                       __ZN5kaldi5nnet132ConvolutionalMaxPoolingComponentINS_12CuMatrixBaseIfEEE25PropagateFncWithExpansionERKS3_PS3_i, 
                       __ZN5kaldi5nnet132ScaledExponentialLinearComponentD0Ev, __ZN5kaldi5nnet132ScaledExponentialLinearComponentD1Ev, 
                       __ZN5kaldi5nnet132ScaledExponentialLinearComponentD2Ev, __ZN5kaldi5nnet137VectorwiseQuantizable8BitComponentItfD0Ev, 
                       __ZN5kaldi5nnet137VectorwiseQuantizable8BitComponentItfD1Ev, 
                       __ZN5kaldi5nnet137VectorwiseQuantizable8BitComponentItfD2Ev, 
                       __ZN5kaldi5nnet13Mse18CollectPerformanceEPNS0_16LossEvaluatorItfE, 
                       __ZN5kaldi5nnet13Mse4EvalERKNS_12CuMatrixBaseIfEERKNSt3__16vectorINS7_INS6_4pairIifEENS6_9allocatorIS9_EEEENSA_ISC_EEEEPNS_8CuMatrixIfEEPKNS_10VectorBaseIfEE, 
                       __ZN5kaldi5nnet13Mse4EvalERKNS_12CuMatrixBaseIfEES5_PNS_8CuMatrixIfEEPKNS_10VectorBaseIfEE, 
                       __ZN5kaldi5nnet13Mse6ReportEv, __ZN5kaldi5nnet13RbmD0Ev, __ZN5kaldi5nnet13RbmD1Ev, 
                       __ZN5kaldi5nnet13RbmD2Ev, __ZN5kaldi5nnet14Nnet10AppendNnetERKS1_, 
                       __ZN5kaldi5nnet14Nnet10ReadMappedERKN3fst14FstReadOptionsE, 
                       __ZN5kaldi5nnet14Nnet11FeedforwardERKNS_12CuMatrixBaseIfEEPNS_8CuMatrixIfEEii, 
                       __ZN5kaldi5nnet14Nnet11FeedforwardERKNS_12CuVectorBaseIfEEPNS_8CuVectorIfEEi, 
                       __ZN5kaldi5nnet14Nnet12GetComponentEi, __ZN5kaldi5nnet14Nnet12SetComponentEiPNS0_9ComponentE, 
                       __ZN5kaldi5nnet14Nnet13BackpropagateERKNS_12CuMatrixBaseIfEEPNS_8CuMatrixIfEEi, 
                       __ZN5kaldi5nnet14Nnet13RemoveDropoutEv, __ZN5kaldi5nnet14Nnet14PackCorrectionEPNSt3__16vectorIiNS2_9allocatorIiEEEE, 
                       __ZN5kaldi5nnet14Nnet15AppendComponentEPNS0_9ComponentE, __ZN5kaldi5nnet14Nnet15FreezeComponentEib, 
                       __ZN5kaldi5nnet14Nnet15InsertComponentEiPNS0_9ComponentE, 
                       __ZN5kaldi5nnet14Nnet15RemoveComponentEi, __ZN5kaldi5nnet14Nnet15SetHistoryStateERKNS_12CuMatrixBaseIfEEi, 
                       __ZN5kaldi5nnet14Nnet15SetHistoryStateERKNS_12CuVectorBaseIfEEii, 
                       __ZN5kaldi5nnet14Nnet15SetTrainOptionsERKNS0_16NnetTrainOptionsEb, 
                       __ZN5kaldi5nnet14Nnet16ComputeNnetDeltaERKS1_RNSt3__16vectorINS5_IfNS4_9allocatorIfEEEENS6_IS8_EEEERNS5_IiNS6_IiEEEE, 
                       __ZN5kaldi5nnet14Nnet16ReleaseComponentEi, __ZN5kaldi5nnet14Nnet16SetWorkspaceSizeEx, 
                       __ZN5kaldi5nnet14Nnet17IsComponentFrozenEi, __ZN5kaldi5nnet14Nnet17SetHistoryOptionsERKNS0_14HistoryOptionsEb, 
                       __ZN5kaldi5nnet14Nnet18ResetRecurrentFlagEv, __ZN5kaldi5nnet14Nnet19GetFrozenComponentsEPNSt3__16vectorIiNS2_9allocatorIiEEEE, 
                       __ZN5kaldi5nnet14Nnet19SetDropoutRetentionEf, __ZN5kaldi5nnet14Nnet19SetFreezeComponentsERKNSt3__16vectorIiNS2_9allocatorIiEEEE, 
                       __ZN5kaldi5nnet14Nnet19SetInternalBoundaryERKNS_12CuVectorBaseIfEEi, 
                       __ZN5kaldi5nnet14Nnet20ResetInternalBuffersEv, __ZN5kaldi5nnet14Nnet21ResetBuffersAndStatesEv, 
                       __ZN5kaldi5nnet14Nnet21UnpackApplyCorrectionERKNSt3__16vectorIiNS2_9allocatorIiEEEE, 
                       __ZN5kaldi5nnet14Nnet21VectorizeWeightsCorrsEi, __ZN5kaldi5nnet14Nnet22UsingCorrectionPackingEv, 
                       __ZN5kaldi5nnet14Nnet24CompressWordVecComponentEv, __ZN5kaldi5nnet14Nnet24SetGradientNormalizationEfNS0_9Component16GradientNormTypeEbb, 
                       __ZN5kaldi5nnet14Nnet25ApplyWeightsVectorizationEv, __ZN5kaldi5nnet14Nnet25ResetHistoryStateIfExistsERKNSt3__16vectorIbNS2_9allocatorIbEEEEPvi, 
                       __ZN5kaldi5nnet14Nnet25ResetHistoryStateIfExistsEv, __ZN5kaldi5nnet14Nnet4InitERKNSt3__112basic_stringIcNS2_11char_traitsIcEENS2_9allocatorIcEEEERNS_19UniformRandomNumberE, 
                       __ZN5kaldi5nnet14Nnet4InitERNSt3__113basic_istreamIcNS2_11char_traitsIcEEEERNS_19UniformRandomNumberE, 
                       __ZN5kaldi5nnet14Nnet4ReadERKNSt3__112basic_stringIcNS2_11char_traitsIcEENS2_9allocatorIcEEEE, 
                       __ZN5kaldi5nnet14Nnet4ReadERKNSt3__112basic_stringIcNS2_11char_traitsIcEENS2_9allocatorIcEEEEb, 
                       __ZN5kaldi5nnet14Nnet4ReadERNSt3__113basic_istreamIcNS2_11char_traitsIcEEEEbPKv, 
                       __ZN5kaldi5nnet14Nnet6UpdateEPvi, __ZN5kaldi5nnet14Nnet7DestroyEv, 
                       __ZN5kaldi5nnet14Nnet9SetParamsERKNS_10VectorBaseIfEE, __ZN5kaldi5nnet14NnetC1ERKNSt3__112basic_stringIcNS2_11char_traitsIcEENS2_9allocatorIcEEEERKNS0_16NnetTrainOptionsERKNS0_27GradientNormalizationParamsERKNS2_6vectorIiNS6_IiEEEEPNS0_21SpkCodeTrainingHelperEPNS0_18ConvolutionSplicerE, 
                       __ZN5kaldi5nnet14NnetC1ERKS1_, __ZN5kaldi5nnet14NnetC2ERKNSt3__112basic_stringIcNS2_11char_traitsIcEENS2_9allocatorIcEEEERKNS0_16NnetTrainOptionsERKNS0_27GradientNormalizationParamsERKNS2_6vectorIiNS6_IiEEEEPNS0_21SpkCodeTrainingHelperEPNS0_18ConvolutionSplicerE, 
                       __ZN5kaldi5nnet14NnetC2ERKS1_, __ZN5kaldi5nnet14NnetD1Ev, 
                       __ZN5kaldi5nnet14NnetD2Ev, __ZN5kaldi5nnet14NnetaSERKS1_, 
                       __ZN5kaldi5nnet14TanhD0Ev, __ZN5kaldi5nnet14TanhD1Ev, __ZN5kaldi5nnet14TanhD2Ev, 
                       __ZN5kaldi5nnet14Xent14ReportProgressEiff, __ZN5kaldi5nnet14Xent15ExpandPosteriorERKNSt3__16vectorINS3_INS2_4pairIifEENS2_9allocatorIS5_EEEENS6_IS8_EEEEi, 
                       __ZN5kaldi5nnet14Xent18CollectPerformanceEPNS0_16LossEvaluatorItfE, 
                       __ZN5kaldi5nnet14Xent4EvalERKNS_12CuMatrixBaseIfEERKNS_7CuArrayI13MatrixElementIfEEEPNS_8CuMatrixIfEE, 
                       __ZN5kaldi5nnet14Xent4EvalERKNS_12CuMatrixBaseIfEERKNSt3__16vectorINS7_INS6_4pairIifEENS6_9allocatorIS9_EEEENSA_ISC_EEEEPNS_8CuMatrixIfEEPKNS_10VectorBaseIfEE, 
                       __ZN5kaldi5nnet14Xent4EvalERKNS_12CuMatrixBaseIfEERKNSt3__16vectorIiNS6_9allocatorIiEEEEPNS_8CuMatrixIfEEPKNS_10VectorBaseIfEE, 
                       __ZN5kaldi5nnet14Xent4EvalERKNS_12CuMatrixBaseIfEES5_PNS_8CuMatrixIfEEPKNS_10VectorBaseIfEE, 
                       __ZN5kaldi5nnet14Xent6ReportEv, __ZN5kaldi5nnet15KlHmmD0Ev, 
                       __ZN5kaldi5nnet15KlHmmD1Ev, __ZN5kaldi5nnet15KlHmmD2Ev, __ZN5kaldi5nnet16SpliceD0Ev, 
                       __ZN5kaldi5nnet16SpliceD1Ev, __ZN5kaldi5nnet16SpliceD2Ev, 
                       __ZN5kaldi5nnet17CtcLoss14ReportProgressEv, __ZN5kaldi5nnet17CtcLoss17EvalSymbolErrRateERKNS_12CuMatrixBaseIfEERKNSt3__16vectorIN3fst9VectorFstINS8_6ArcTplINS8_17TropicalWeightTplIfEEEENS8_11VectorStateISD_NS6_9allocatorISD_EEEEEENSF_ISI_EEEERKNS7_IiNSF_IiEEEE, 
                       __ZN5kaldi5nnet17CtcLoss17PostProcessLabelsERKNSt3__16vectorIiNS2_9allocatorIiEEEERS6_, 
                       __ZN5kaldi5nnet17CtcLoss4EvalERKNS_12CuMatrixBaseIfEERKNSt3__16vectorIN3fst9VectorFstINS8_6ArcTplINS8_17TropicalWeightTplIfEEEENS8_11VectorStateISD_NS6_9allocatorISD_EEEEEENSF_ISI_EEEERKNS7_IiNSF_IiEEEEPNS_8CuMatrixIfEE, 
                       __ZN5kaldi5nnet17CtcLoss6ReportEv, __ZN5kaldi5nnet17DropoutD0Ev, 
                       __ZN5kaldi5nnet17DropoutD1Ev, __ZN5kaldi5nnet17DropoutD2Ev, 
                       __ZN5kaldi5nnet17RbmBaseD0Ev, __ZN5kaldi5nnet17RbmBaseD1Ev, 
                       __ZN5kaldi5nnet17RbmBaseD2Ev, __ZN5kaldi5nnet17RescaleD0Ev, 
                       __ZN5kaldi5nnet17RescaleD1Ev, __ZN5kaldi5nnet17RescaleD2Ev, 
                       __ZN5kaldi5nnet17SigmoidD0Ev, __ZN5kaldi5nnet17SigmoidD1Ev, 
                       __ZN5kaldi5nnet17SigmoidD2Ev, __ZN5kaldi5nnet17SoftmaxD0Ev, 
                       __ZN5kaldi5nnet17SoftmaxD1Ev, __ZN5kaldi5nnet17SoftmaxD2Ev, 
                       __ZN5kaldi5nnet18AddShiftD0Ev, __ZN5kaldi5nnet18AddShiftD1Ev, 
                       __ZN5kaldi5nnet18AddShiftD2Ev, __ZN5kaldi5nnet18BMMILoss4EvalERKNSt3__112basic_stringIcNS2_11char_traitsIcEENS2_9allocatorIcEEEERKNS2_6vectorIiNS6_IiEEEEPNS_12CuMatrixBaseIfEEPN3fst9VectorFstINSJ_6ArcTplINSJ_16LatticeWeightTplIfEEEENSJ_11VectorStateISO_NS6_ISO_EEEEEEPNS_8CuMatrixIfEE, 
                       __ZN5kaldi5nnet18BMMILoss4EvalERKNSt3__16vectorIiNS2_9allocatorIiEEEEPNS_10MatrixBaseIfEEPN3fst9VectorFstINSC_6ArcTplINSC_16LatticeWeightTplIfEEEENSC_11VectorStateISH_NS4_ISH_EEEEEEPfSB_, 
                       __ZN5kaldi5nnet18BMMILossC1ERKNSt3__112basic_stringIcNS2_11char_traitsIcEENS2_9allocatorIcEEEERKNS0_15PdfPriorOptionsERKNS0_19NnetMmiTrainOptionsE, 
                       __ZN5kaldi5nnet18BMMILossC2ERKNSt3__112basic_stringIcNS2_11char_traitsIcEENS2_9allocatorIcEEEERKNS0_15PdfPriorOptionsERKNS0_19NnetMmiTrainOptionsE, 
                       __ZN5kaldi5nnet18BMMILossD1Ev, __ZN5kaldi5nnet18BMMILossD2Ev, 
                       __ZN5kaldi5nnet18DespliceD0Ev, __ZN5kaldi5nnet18DespliceD1Ev, 
                       __ZN5kaldi5nnet18DespliceD2Ev, __ZN5kaldi5nnet18PdfPriorC1ERKNS0_15PdfPriorOptionsE, 
                       __ZN5kaldi5nnet18PdfPriorC2ERKNS0_15PdfPriorOptionsE, __ZN5kaldi5nnet19Component12TypeToMarkerENS1_13ComponentTypeE, 
                       __ZN5kaldi5nnet19Component12TypeToMarkerENS1_14MatrixInitTypeE, 
                       __ZN5kaldi5nnet19Component12TypeToMarkerENS1_16GradientNormTypeE, 
                       __ZN5kaldi5nnet19Component18NewComponentOfTypeENS1_13ComponentTypeEii, 
                       __ZN5kaldi5nnet19Component19GetComponentTypeMapEv, __ZN5kaldi5nnet19Component20GetMatrixInitTypeMapEv, 
                       __ZN5kaldi5nnet19Component21MarkerToComponentTypeERKNSt3__112basic_stringIcNS2_11char_traitsIcEENS2_9allocatorIcEEEE, 
                       __ZN5kaldi5nnet19Component22GetGradientNormTypeMapEv, __ZN5kaldi5nnet19Component22MarkerToMatrixInitTypeERKNSt3__112basic_stringIcNS2_11char_traitsIcEENS2_9allocatorIcEEEE, 
                       __ZN5kaldi5nnet19Component24MarkerToGradientNormTypeERKNSt3__112basic_stringIcNS2_11char_traitsIcEENS2_9allocatorIcEEEE, 
                       __ZN5kaldi5nnet19Component4InitERKNSt3__112basic_stringIcNS2_11char_traitsIcEENS2_9allocatorIcEEEERNS_19UniformRandomNumberE, 
                       __ZN5kaldi5nnet19Component4ReadERNSt3__113basic_istreamIcNS2_11char_traitsIcEEEEbPKv, 
                       __ZN5kaldi5nnet19Component6DeleteEPS1_b, __ZN5kaldi5nnet19ComponentD0Ev, 
                       __ZN5kaldi5nnet19ComponentD1Ev, __ZN5kaldi5nnet19ComponentD2Ev, 
                       __ZN5kaldi5nnet19LayerNorm12PropagateFncERKNS_12CuMatrixBaseIfEEPS3_i, 
                       __ZN5kaldi5nnet19LayerNorm8ReadDataERNSt3__113basic_istreamIcNS2_11char_traitsIcEEEEbPKv, 
                       __ZN5kaldi5nnet19LayerNormC1ERKS1_, __ZN5kaldi5nnet19LayerNormC2ERKS1_, 
                       __ZN5kaldi5nnet19MultiXent15SetWeightVectorERKNSt3__16vectorIfNS2_9allocatorIfEEEE, 
                       __ZN5kaldi5nnet19MultiXent4EvalERKNS_12CuMatrixBaseIfEERKNSt3__16vectorINS7_INS6_4pairIifEENS6_9allocatorIS9_EEEENSA_ISC_EEEEPNS_8CuMatrixIfEEPKNS_10VectorBaseIfEE, 
                       __ZN5kaldi5nnet19MultiXent4EvalERKNS_12CuMatrixBaseIfEES5_PNS_8CuMatrixIfEEPKNS_10VectorBaseIfEE, 
                       __ZN5kaldi5nnet19MultiXent6ReportEv, __ZN5kaldi5nnet19RecurrentD0Ev, 
                       __ZN5kaldi5nnet19RecurrentD1Ev, __ZN5kaldi5nnet19RecurrentD2Ev, 
                       __ZN5kaldi6DitherEPNS_10VectorBaseIfEEf, __ZN5kaldi6DurbinEiPKfPfS2_, 
                       __ZN5kaldi6IsLineERKNSt3__112basic_stringIcNS0_11char_traitsIcEENS0_9allocatorIcEEEE, 
                       __ZN5kaldi6Output4OpenERKNSt3__112basic_stringIcNS1_11char_traitsIcEENS1_9allocatorIcEEEEbb, 
                       __ZN5kaldi6Output5CloseEv, __ZN5kaldi6Output6StreamEv, __ZN5kaldi6OutputC1ERKNSt3__112basic_stringIcNS1_11char_traitsIcEENS1_9allocatorIcEEEEbb, 
                       __ZN5kaldi6OutputC2ERKNSt3__112basic_stringIcNS1_11char_traitsIcEENS1_9allocatorIcEEEEbb, 
                       __ZN5kaldi6OutputD1Ev, __ZN5kaldi6OutputD2Ev, __ZN5kaldi7IsTokenERKNSt3__112basic_stringIcNS0_11char_traitsIcEENS0_9allocatorIcEEEE, 
                       __ZN5kaldi7RandIntEiiPNS_11RandomStateE, __ZN5kaldi7SumObjfERKNSt3__16vectorINS0_4pairINS1_INS2_IiiEENS0_9allocatorIS3_EEEEPNS_11ClusterableEEENS4_IS9_EEEE, 
                       __ZN5kaldi8CuRandomD1Ev, __ZN5kaldi8CuRandomD2Ev, __ZN5kaldi8EventMap4ReadERNSt3__113basic_istreamIcNS1_11char_traitsIcEEEEb, 
                       __ZN5kaldi8EventMap5CheckERKNSt3__16vectorINS1_4pairIiiEENS1_9allocatorIS4_EEEE, 
                       __ZN5kaldi8EventMap5WriteERNSt3__113basic_ostreamIcNS1_11char_traitsIcEEEEbPS0_, 
                       __ZN5kaldi8EventMap6LookupERKNSt3__16vectorINS1_4pairIiiEENS1_9allocatorIS4_EEEEiPi, 
                       __ZN5kaldi8EventMapD0Ev, __ZN5kaldi8EventMapD1Ev, __ZN5kaldi8EventMapD2Ev, 
                       __ZN5kaldi8FileLock4LockEb, __ZN5kaldi8FileLock6UnlockEv, 
                       __ZN5kaldi8FileLockC1ERKNSt3__112basic_stringIcNS1_11char_traitsIcEENS1_9allocatorIcEEEE, 
                       __ZN5kaldi8FileLockC2ERKNSt3__112basic_stringIcNS1_11char_traitsIcEENS1_9allocatorIcEEEE, 
                       __ZN5kaldi8FileLockD1Ev, __ZN5kaldi8FileLockD2Ev, __ZN5kaldi8MelBanks12VtlnWarpFreqEffffff, 
                       __ZN5kaldi8MelBanks15VtlnWarpMelFreqEffffff, __ZN5kaldi8MelBanksC1ERKNS_15MelBanksOptionsERKNS_22FrameExtractionOptionsEf, 
                       __ZN5kaldi8MelBanksC2ERKNS_15MelBanksOptionsERKNS_22FrameExtractionOptionsEf, 
                       __ZN5kaldi8SpMatrixIdE7AddVec2IdEEvdRKNS_10VectorBaseIT_EE, 
                       __ZN5kaldi8SpMatrixIfE7AddVec2IfEEvfRKNS_10VectorBaseIT_EE, 
                       __ZN5kaldi8SumStatsERKNSt3__16vectorINS0_4pairINS1_INS2_IiiEENS0_9allocatorIS3_EEEEPNS_11ClusterableEEENS4_IS9_EEEE, 
                       __ZN5kaldi8WaveData10ReadUint16ERNSt3__113basic_istreamIcNS1_11char_traitsIcEEEEb, 
                       __ZN5kaldi8WaveData10ReadUint32ERNSt3__113basic_istreamIcNS1_11char_traitsIcEEEEb, 
                       __ZN5kaldi8WaveData11WriteUint16ERNSt3__113basic_ostreamIcNS1_11char_traitsIcEEEEs, 
                       __ZN5kaldi8WaveData11WriteUint32ERNSt3__113basic_ostreamIcNS1_11char_traitsIcEEEEi, 
                       __ZN5kaldi8WaveData12Read4ByteTagERNSt3__113basic_istreamIcNS1_11char_traitsIcEEEEPc, 
                       __ZN5kaldi8WaveData14Expect4ByteTagERNSt3__113basic_istreamIcNS1_11char_traitsIcEEEEPKc, 
                       __ZN5kaldi8WaveData4ReadERNSt3__113basic_istreamIcNS1_11char_traitsIcEEEE, 
                       __ZN5kaldi8WaveData5StripEj, __ZN5kaldi8WithProbEfPNS_11RandomStateE, 
                       __ZN5kaldi9BuildTreeERNS_9QuestionsERKNSt3__16vectorINS3_IiNS2_9allocatorIiEEEENS4_IS6_EEEERKS6_RKNS3_IbNS4_IbEEEESG_RKNS3_INS2_4pairINS3_INSH_IiiEENS4_ISI_EEEEPNS_11ClusterableEEENS4_ISN_EEEEfifi, 
                       __ZN5kaldi9NumFramesEiRKNS_22FrameExtractionOptionsE, __ZN5kaldi9PeekTokenERNSt3__113basic_istreamIcNS0_11char_traitsIcEEEEb, 
                       __ZN5kaldi9Questions4ReadERNSt3__113basic_istreamIcNS1_11char_traitsIcEEEEb, 
                       __ZN5kaldi9Questions8InitRandERKNSt3__16vectorINS1_4pairINS2_INS3_IiiEENS1_9allocatorIS4_EEEEPNS_11ClusterableEEENS5_ISA_EEEEiiNS_11AllKeysTypeE, 
                       __ZN5kaldi9ReadTokenERNSt3__113basic_istreamIcNS0_11char_traitsIcEEEEbPNS0_12basic_stringIcS3_NS0_9allocatorIcEEEE, 
                       __ZN5kaldi9TraceSpSpERKNS_8SpMatrixIdEES3_, __ZN5kaldi9TraceSpSpERKNS_8SpMatrixIfEES3_, 
                       __ZN5kaldigtERKNS_16CompBotClustElemES2_, __ZN5utils15read_pitch_dataEPKc, 
                       __ZN5utils16write_pitch_dataERNSt3__15tupleIJNS0_6vectorIfNS0_9allocatorIfEEEES5_S5_S5_EEENS0_12basic_stringIcNS0_11char_traitsIcEENS3_IcEEEEi, 
                       __ZN5utils17write_energy_dataERNSt3__15tupleIJNS0_6vectorIfNS0_9allocatorIfEEEES5_EEENS0_12basic_stringIcNS0_11char_traitsIcEENS3_IcEEEEi, 
                       __ZN5utils19read_pitchmark_dataENSt3__112basic_stringIcNS0_11char_traitsIcEENS0_9allocatorIcEEEE, 
                       __ZN5utils19update_progress_barEiiiiNSt3__112basic_stringIcNS0_11char_traitsIcEENS0_9allocatorIcEEEE, 
                       __ZN5utils20write_pitchmark_dataERNSt3__16vectorINS1_IiNS0_9allocatorIiEEEENS2_IS4_EEEENS0_12basic_stringIcNS0_11char_traitsIcEENS2_IcEEEE, 
                       __ZN5utils21read_pitch_data_tupleEPKc, __ZN5utils24write_spectral_tilt_dataERNSt3__15tupleIJNS0_6vectorIfNS0_9allocatorIfEEEES5_EEENS0_12basic_stringIcNS0_11char_traitsIcEENS3_IcEEEEi, 
                       __ZN5utils32linuxReturnCurrentMemoryUsage_kBEv, __ZN5utils5pauseEi, 
                       __ZN5utils8vec2fileERNSt3__16vectorIdNS0_9allocatorIdEEEENS0_12basic_stringIcNS0_11char_traitsIcEENS2_IcEEEE, 
                       __ZN5utils8vec2fileERNSt3__16vectorIfNS0_9allocatorIfEEEENS0_12basic_stringIcNS0_11char_traitsIcEENS2_IcEEEE, 
                       __ZN5utils8vec2fileERNSt3__16vectorIiNS0_9allocatorIiEEEENS0_12basic_stringIcNS0_11char_traitsIcEENS2_IcEEEE, 
                       __ZN5utils8vec2fileERNSt3__16vectorIsNS0_9allocatorIsEEEENS0_12basic_stringIcNS0_11char_traitsIcEENS2_IcEEEE, 
                       __ZN5utils9parseLineEPc, __ZN7AutocF011parse_inputEiPPc, __ZN7AutocF012print_manualEv, 
                       __ZN7AutocF014estimate_pitchERNSt3__16vectorIsNS0_9allocatorIsEEEEi, 
                       __ZN7AutocF019remove_false_flanksERNSt3__16vectorIdNS0_9allocatorIdEEEEiii, 
                       __ZN7AutocF024voiced_unvoiced_decisionERNSt3__16vectorIdNS0_9allocatorIdEEEES5_S5_S5_dddb, 
                       __ZN7AutocF0C1ENSt3__112basic_stringIcNS0_11char_traitsIcEENS0_9allocatorIcEEEE, 
                       __ZN7AutocF0C2ENSt3__112basic_stringIcNS0_11char_traitsIcEENS0_9allocatorIcEEEE, 
                       __ZN7PCMFile13create_readerERKNSt3__112basic_stringIcNS0_11char_traitsIcEENS0_9allocatorIcEEEE, 
                       __ZN7PCMFile13create_writerERKNSt3__112basic_stringIcNS0_11char_traitsIcEENS0_9allocatorIcEEEERKNS_4InfoE, 
                       __ZN7PCMFile13create_writerERKNSt3__112basic_stringIcNS0_11char_traitsIcEENS0_9allocatorIcEEEERKNS_4InfoENS_9AudioTypeE, 
                       __ZN7PCMFile6Reader10set_offsetEm, __ZN7PCMFile6Reader11set_channelEi, 
                       __ZN7PCMFile6Reader12read_samplesEmPvibf, __ZN7PCMFile6ReaderD0Ev, 
                       __ZN7PCMFile6ReaderD1Ev, __ZN7PCMFile6ReaderD2Ev, __ZN7PCMFile6Writer12write_markerEmRKNSt3__112basic_stringIcNS1_11char_traitsIcEENS1_9allocatorIcEEEE, 
                       __ZN7PCMFile6Writer13write_samplesEmPKvibf, __ZN7PCMFile6WriterC1ERKNSt3__112basic_stringIcNS1_11char_traitsIcEENS1_9allocatorIcEEEERKNS_4InfoE, 
                       __ZN7PCMFile6WriterC2ERKNSt3__112basic_stringIcNS1_11char_traitsIcEENS1_9allocatorIcEEEERKNS_4InfoE, 
                       __ZN7PCMFile6WriterD0Ev, __ZN7PCMFile6WriterD1Ev, __ZN7PCMFile6WriterD2Ev, 
                       __ZN7PCMFile8get_typeERKNSt3__112basic_stringIcNS0_11char_traitsIcEENS0_9allocatorIcEEEE, 
                       __ZN7SiriTTS10TTSTrainer10preprocessENSt3__18functionIFiNS0_15CallbackMessageEEEE, 
                       __ZN7SiriTTS10TTSTrainer12get_task_id_Ev, __ZN7SiriTTS10TTSTrainer14train_internalENS0_17TrainingModelTypeENSt3__18functionIFiNS0_15CallbackMessageEEEE, 
                       __ZN7SiriTTS10TTSTrainer19preprocess_internalENSt3__18functionIFiNS0_15CallbackMessageEEEE, 
                       __ZN7SiriTTS10TTSTrainer4stopEv, __ZN7SiriTTS10TTSTrainer5pauseEv, 
                       __ZN7SiriTTS10TTSTrainer5trainENS0_17TrainingModelTypeENSt3__18functionIFiNS0_15CallbackMessageEEEE, 
                       __ZN7SiriTTS10TTSTrainerC1ERKNSt3__112basic_stringIcNS1_11char_traitsIcEENS1_9allocatorIcEEEES9_S9_S9_, 
                       __ZN7SiriTTS10TTSTrainerC2ERKNSt3__112basic_stringIcNS1_11char_traitsIcEENS1_9allocatorIcEEEES9_S9_S9_, 
                       __ZN7SiriTTS10TTSTrainerD1Ev, __ZN7SiriTTS10TTSTrainerD2Ev, 
                       __ZN7SiriTTS13SpeechFeature17SpeechFeatureData5printERKNSt3__16vectorIS1_NS2_9allocatorIS1_EEEE, 
                       __ZN7SiriTTS13SpeechFeature22SpeechFeatureExtractor19extract_phone_pitchERKNSt3__16vectorIfNS2_9allocatorIfEEEERKNS3_INS0_17SpeechFeatureDataENS4_IS9_EEEE, 
                       __ZN7SiriTTS13SpeechFeature22SpeechFeatureExtractor20extract_phone_energyERKNSt3__16vectorIfNS2_9allocatorIfEEEERKNS3_INS0_17SpeechFeatureDataENS4_IS9_EEEE, 
                       __ZN7SiriTTS13SpeechFeature22SpeechFeatureExtractor22extract_phone_durationERKNSt3__16vectorINS2_4pairINS2_12basic_stringIcNS2_11char_traitsIcEENS2_9allocatorIcEEEEiEENS8_ISB_EEEE, 
                       __ZN7SiriTTS13SpeechFeature22SpeechFeatureExtractor22extract_speech_featureERKNSt3__112basic_stringIcNS2_11char_traitsIcEENS2_9allocatorIcEEEERKNS2_6vectorINS0_8WordDataENS6_ISC_EEEERKbPKNS2_13unordered_mapIS8_SE_NS2_4hashIS8_EENS2_8equal_toIS8_EENS6_INS2_4pairIS9_SE_EEEEEE, 
                       __ZN7SiriTTS13SpeechFeature22SpeechFeatureExtractor22extract_speech_featureERKNSt3__16vectorIsNS2_9allocatorIsEEEERKNS3_INS0_8WordDataENS4_IS9_EEEEiRKbPKNS2_13unordered_mapINS2_12basic_stringIcNS2_11char_traitsIcEENS4_IcEEEESB_NS2_4hashISL_EENS2_8equal_toISL_EENS4_INS2_4pairIKSL_SB_EEEEEE, 
                       __ZN7SiriTTS13SpeechFeature22SpeechFeatureExtractor24extract_dur_energy_pitchENSt3__16vectorIsNS2_9allocatorIsEEEENS3_INS2_4pairINS2_12basic_stringIcNS2_11char_traitsIcEENS4_IcEEEEiEENS4_ISD_EEEERKb, 
                       __ZN7SiriTTS13SpeechFeature22SpeechFeatureExtractor8resampleENSt3__16vectorIsNS2_9allocatorIsEEEEii, 
                       __ZN7SiriTTS13SpeechFeature22SpeechFeatureExtractorC1ERKNSt3__112basic_stringIcNS2_11char_traitsIcEENS2_9allocatorIcEEEERKb, 
                       __ZN7SiriTTS13SpeechFeature22SpeechFeatureExtractorC1ERKNSt3__112basic_stringIcNS2_11char_traitsIcEENS2_9allocatorIcEEEERKbSA_, 
                       __ZN7SiriTTS13SpeechFeature22SpeechFeatureExtractorC2ERKNSt3__112basic_stringIcNS2_11char_traitsIcEENS2_9allocatorIcEEEERKb, 
                       __ZN7SiriTTS13SpeechFeature22SpeechFeatureExtractorC2ERKNSt3__112basic_stringIcNS2_11char_traitsIcEENS2_9allocatorIcEEEERKbSA_, 
                       __ZN7SiriTTS15ForcedAlignment13AcousticModel7forwardERKNSt3__16vectorINS3_IfNS2_9allocatorIfEEEENS4_IS6_EEEERKb, 
                       __ZN7SiriTTS15ForcedAlignment13AcousticModelC1ERKNSt3__112basic_stringIcNS2_11char_traitsIcEENS2_9allocatorIcEEEERKb, 
                       __ZN7SiriTTS15ForcedAlignment13AcousticModelC2ERKNSt3__112basic_stringIcNS2_11char_traitsIcEENS2_9allocatorIcEEEERKb, 
                       __ZN7SiriTTS15ForcedAlignment13get_submatrixERKNSt3__16vectorINS2_IfNS1_9allocatorIfEEEENS3_IS5_EEEEii, 
                       __ZN7SiriTTS15ForcedAlignment14AlignmentGraph7compileERKNSt3__16vectorIiNS2_9allocatorIiEEEE, 
                       __ZN7SiriTTS15ForcedAlignment14AlignmentGraphC1ERKN5kaldi17ContextDependencyERKNS2_15TransitionModelEPv, 
                       __ZN7SiriTTS15ForcedAlignment14AlignmentGraphC2ERKN5kaldi17ContextDependencyERKNS2_15TransitionModelEPv, 
                       __ZN7SiriTTS15ForcedAlignment15EspressoSession7forwardERKNSt3__16vectorINS3_IfNS2_9allocatorIfEEEENS4_IS6_EEEERKNS2_12basic_stringIcNS2_11char_traitsIcEENS4_IcEEEESH_, 
                       __ZN7SiriTTS15ForcedAlignment15EspressoSessionC1ERKNSt3__112basic_stringIcNS2_11char_traitsIcEENS2_9allocatorIcEEEE, 
                       __ZN7SiriTTS15ForcedAlignment15EspressoSessionC2ERKNSt3__112basic_stringIcNS2_11char_traitsIcEENS2_9allocatorIcEEEE, 
                       __ZN7SiriTTS15ForcedAlignment15EspressoSessionD1Ev, __ZN7SiriTTS15ForcedAlignment15EspressoSessionD2Ev, 
                       __ZN7SiriTTS15ForcedAlignment15ForcedAlignment12align_phonesERKNSt3__112basic_stringIcNS2_11char_traitsIcEENS2_9allocatorIcEEEERKNS2_6vectorINS0_6LexemeENS6_ISC_EEEE, 
                       __ZN7SiriTTS15ForcedAlignment15ForcedAlignment12align_phonesERKNSt3__16vectorIfNS2_9allocatorIfEEEERKNS3_INS0_6LexemeENS4_IS9_EEEE, 
                       __ZN7SiriTTS15ForcedAlignment15ForcedAlignment13build_lexiconERKNSt3__112basic_stringIcNS2_11char_traitsIcEENS2_9allocatorIcEEEE, 
                       __ZN7SiriTTS15ForcedAlignment15ForcedAlignment14process_lexemeERNS0_7LexiconERKNSt3__16vectorINS0_6LexemeENS4_9allocatorIS6_EEEERKbPKNS4_13unordered_mapINS4_12basic_stringIcNS4_11char_traitsIcEENS7_IcEEEENS5_INS0_7PhonemeENS7_ISK_EEEENS4_4hashISJ_EENS4_8equal_toISJ_EENS7_INS4_4pairIKSJ_SM_EEEEEE, 
                       __ZN7SiriTTS15ForcedAlignment15ForcedAlignment23align_phones_with_frameERKNSt3__112basic_stringIcNS2_11char_traitsIcEENS2_9allocatorIcEEEERKNS2_6vectorINS0_6LexemeENS6_ISC_EEEERKbPKNS2_13unordered_mapIS8_NSB_INS0_7PhonemeENS6_ISK_EEEENS2_4hashIS8_EENS2_8equal_toIS8_EENS6_INS2_4pairIS9_SM_EEEEEE, 
                       __ZN7SiriTTS15ForcedAlignment15ForcedAlignment23align_phones_with_frameERKNSt3__16vectorIfNS2_9allocatorIfEEEERKNS3_INS0_6LexemeENS4_IS9_EEEERKbPKNS2_13unordered_mapINS2_12basic_stringIcNS2_11char_traitsIcEENS4_IcEEEENS3_INS0_7PhonemeENS4_ISM_EEEENS2_4hashISL_EENS2_8equal_toISL_EENS4_INS2_4pairIKSL_SO_EEEEEE, 
                       __ZN7SiriTTS15ForcedAlignment15ForcedAlignment6decodeERNS0_7LexiconERNSt3__16vectorINS5_IfNS4_9allocatorIfEEEENS6_IS8_EEEERKNS5_IiNS6_IiEEEERKb, 
                       __ZN7SiriTTS15ForcedAlignment15ForcedAlignmentC1ERKNSt3__112basic_stringIcNS2_11char_traitsIcEENS2_9allocatorIcEEEERKb, 
                       __ZN7SiriTTS15ForcedAlignment15ForcedAlignmentC1ERKNSt3__112basic_stringIcNS2_11char_traitsIcEENS2_9allocatorIcEEEERKbSA_, 
                       __ZN7SiriTTS15ForcedAlignment15ForcedAlignmentC2ERKNSt3__112basic_stringIcNS2_11char_traitsIcEENS2_9allocatorIcEEEERKb, 
                       __ZN7SiriTTS15ForcedAlignment15ForcedAlignmentC2ERKNSt3__112basic_stringIcNS2_11char_traitsIcEENS2_9allocatorIcEEEERKbSA_, 
                       __ZN7SiriTTS15ForcedAlignment15concat_featuresERKNSt3__16vectorIN5kaldi6MatrixIfEENS1_9allocatorIS5_EEEE, 
                       __ZN7SiriTTS15ForcedAlignment16AlignmentDecoder20decodePhoneAlignmentENSt3__110shared_ptrIvEERKNS0_19GraphDecodingOptionERKNS2_6vectorINS8_IfNS2_9allocatorIfEEEENS9_ISB_EEEE, 
                       __ZN7SiriTTS15ForcedAlignment16AlignmentDecoderC1ENSt3__110shared_ptrIKN5kaldi15TransitionModelEEE, 
                       __ZN7SiriTTS15ForcedAlignment16AlignmentDecoderC2ENSt3__110shared_ptrIKN5kaldi15TransitionModelEEE, 
                       __ZN7SiriTTS15ForcedAlignment16FeatureTransform9transformERKNSt3__16vectorINS3_IfNS2_9allocatorIfEEEENS4_IS6_EEEE, 
                       __ZN7SiriTTS15ForcedAlignment16FeatureTransformC1ERKNSt3__112basic_stringIcNS2_11char_traitsIcEENS2_9allocatorIcEEEE, 
                       __ZN7SiriTTS15ForcedAlignment16FeatureTransformC2ERKNSt3__112basic_stringIcNS2_11char_traitsIcEENS2_9allocatorIcEEEE, 
                       __ZN7SiriTTS15ForcedAlignment19FeatureExtractorWav7computeERKNSt3__112basic_stringIcNS2_11char_traitsIcEENS2_9allocatorIcEEEE, 
                       __ZN7SiriTTS15ForcedAlignment19FeatureExtractorWav7computeERKNSt3__16vectorIfNS2_9allocatorIfEEEE, 
                       __ZN7SiriTTS15ForcedAlignment24kaldi_matrix_from_matrixENSt3__16vectorINS2_IfNS1_9allocatorIfEEEENS3_IS5_EEEE, 
                       __ZN7SiriTTS15ForcedAlignment24matrix_from_kaldi_matrixEN5kaldi6MatrixIfEE, 
                       __ZN7SiriTTS15ForcedAlignment30convert_espbuffer_to_2d_vectorERK17espresso_buffer_t, 
                       __ZN7SiriTTS15ForcedAlignment7Lexicon10add_lexemeERKNS0_6LexemeE, 
                       __ZN7SiriTTS15ForcedAlignment7Lexicon12generate_fstEv, __ZN7SiriTTS15ForcedAlignment7Lexicon14write_text_fstERNSt3__113basic_ostreamIcNS2_11char_traitsIcEEEE, 
                       __ZN7SiriTTS15ForcedAlignment7Lexicon9add_phoneERKNSt3__112basic_stringIcNS2_11char_traitsIcEENS2_9allocatorIcEEEEb, 
                       __ZN7SiriTTS15ForcedAlignment7LexiconC1ERKNSt3__16vectorINS2_12basic_stringIcNS2_11char_traitsIcEENS2_9allocatorIcEEEENS7_IS9_EEEESD_, 
                       __ZN7SiriTTS15ForcedAlignment7LexiconC2ERKNSt3__16vectorINS2_12basic_stringIcNS2_11char_traitsIcEENS2_9allocatorIcEEEENS7_IS9_EEEESD_, 
                       __ZN7SiriTTS15ForcedAlignment8PdfPrior19subtract_on_logpostERNSt3__16vectorINS3_IfNS2_9allocatorIfEEEENS4_IS6_EEEE, 
                       __ZN7SiriTTS15ForcedAlignment8PdfPriorC1ERKNSt3__112basic_stringIcNS2_11char_traitsIcEENS2_9allocatorIcEEEE, 
                       __ZN7SiriTTS15ForcedAlignment8PdfPriorC2ERKNSt3__112basic_stringIcNS2_11char_traitsIcEENS2_9allocatorIcEEEE, 
                       __ZN8MelBanks12compute_diffERNSt3__16vectorIdNS0_9allocatorIdEEEE, 
                       __ZN8MelBanks12intersectionEdRNSt3__16vectorIdNS0_9allocatorIdEEEES5_, 
                       __ZN8MelBanks13compute_lowerERNSt3__16vectorIdNS0_9allocatorIdEEEEd, 
                       __ZN8MelBanks13compute_rampsERNSt3__16vectorIdNS0_9allocatorIdEEEES5_, 
                       __ZN8MelBanks13compute_upperERNSt3__16vectorIdNS0_9allocatorIdEEEEd, 
                       __ZN8MelBanks15mel_frequenciesEi, __ZN8MelBanks8linspaceEddi, 
                       __ZN8MelBanks9hz_to_melEd, __ZN8MelBanks9mel_to_hzERNSt3__16vectorIdNS0_9allocatorIdEEEE, 
                       __ZN8MelBanks9mel_to_hzEd, __ZN8MelBanks9normalizeERNSt3__16vectorIdNS0_9allocatorIdEEEE, 
                       __ZN8MelBanksC1Eiiiiiib, __ZN8MelBanksC2Eiiiiiib, __ZN8MelBanksD1Ev, 
                       __ZN8MelBanksD2Ev, __ZNK3fst11SymbolTable9WriteTextERNSt3__113basic_ostreamIcNS1_11char_traitsIcEEEERKNS_22SymbolTableTextOptionsE, 
                       __ZNK3fst14FstReadOptions11DebugStringEv, __ZNK3fst15SymbolTableImpl22MaybeRecomputeCheckSumEv, 
                       __ZNK3fst15SymbolTableImpl5WriteERNSt3__113basic_ostreamIcNS1_11char_traitsIcEEEE, 
                       __ZNK3fst8internal14DenseSymbolMap4FindERKNSt3__112basic_stringIcNS2_11char_traitsIcEENS2_9allocatorIcEEEE, 
                       __ZNK3fst9FstHeader5WriteERNSt3__113basic_ostreamIcNS1_11char_traitsIcEEEERKNS1_12basic_stringIcS4_NS1_9allocatorIcEEEE, 
                       __ZNK5boost10filesystem6detail18utf8_codecvt_facet5do_inER11__mbstate_tPKcS6_RS6_PwS8_RS8_, 
                       __ZNK5boost10filesystem6detail18utf8_codecvt_facet6do_outER11__mbstate_tPKwS6_RS6_PcS8_RS8_, 
                       __ZNK5boost10filesystem6detail18utf8_codecvt_facet9do_lengthER11__mbstate_tPKcS6_m, 
                       __ZNK5kaldi11Clusterable8DistanceERKS0_, __ZNK5kaldi11Clusterable8ObjfPlusERKS0_, 
                       __ZNK5kaldi11Clusterable9ObjfMinusERKS0_, __ZNK5kaldi11HmmTopology13NumPdfClassesEi, 
                       __ZNK5kaldi11HmmTopology16TopologyForPhoneEi, __ZNK5kaldi11HmmTopology23GetPhoneToNumPdfClassesEPNSt3__16vectorIiNS1_9allocatorIiEEEE, 
                       __ZNK5kaldi11HmmTopology5IsHmmEv, __ZNK5kaldi11HmmTopology5WriteERNSt3__113basic_ostreamIcNS1_11char_traitsIcEEEEb, 
                       __ZNK5kaldi12ParseOptions6GetArgEi, __ZNK5kaldi12ParseOptions7NumArgsEv, 
                       __ZNK5kaldi13DeltaFeatures7ProcessERKNS_10MatrixBaseIfEEiPNS_10VectorBaseIfEE, 
                       __ZNK5kaldi13FasterDecoder9GetWeightEPNS_8HashListIiPNS0_5TokenEE4ElemE, 
                       __ZNK5kaldi13SolverOptions5CheckEv, __ZNK5kaldi13SplitEventMap5PruneEv, 
                       __ZNK5kaldi13SplitEventMap9MapValuesERKNSt3__113unordered_setIiNS1_4hashIiEENS1_8equal_toIiEENS1_9allocatorIiEEEERKNS1_13unordered_mapIiiS4_S6_NS7_INS1_4pairIKiiEEEEEE, 
                       __ZNK5kaldi13TableEventMap5PruneEv, __ZNK5kaldi13TableEventMap9MapValuesERKNSt3__113unordered_setIiNS1_4hashIiEENS1_8equal_toIiEENS1_9allocatorIiEEEERKNS1_13unordered_mapIiiS4_S6_NS7_INS1_4pairIKiiEEEEEE, 
                       __ZNK5kaldi15QuestionsForKey5WriteERNSt3__113basic_ostreamIcNS1_11char_traitsIcEEEEb, 
                       __ZNK5kaldi15SilencePhoneSet14isSilencePhoneEi, __ZNK5kaldi15SilencePhoneSet7isEmptyEv, 
                       __ZNK5kaldi15TransitionModel10CompatibleERKS0_, __ZNK5kaldi15TransitionModel10IsSelfLoopEi, 
                       __ZNK5kaldi15TransitionModel10SelfLoopOfEi, __ZNK5kaldi15TransitionModel17GetTransitionProbEi, 
                       __ZNK5kaldi15TransitionModel18PairToTransitionIdEii, __ZNK5kaldi15TransitionModel19TransitionIdToPhoneEi, 
                       __ZNK5kaldi15TransitionModel20GetTransitionLogProbEi, __ZNK5kaldi15TransitionModel20NumTransitionIndicesEi, 
                       __ZNK5kaldi15TransitionModel21GetNonSelfLoopLogProbEi, __ZNK5kaldi15TransitionModel22TransitionIdToHmmStateEi, 
                       __ZNK5kaldi15TransitionModel22TransitionIdToPdfClassEi, __ZNK5kaldi15TransitionModel22TransitionStateToPhoneEi, 
                       __ZNK5kaldi15TransitionModel22TupleToTransitionStateEiiii, 
                       __ZNK5kaldi15TransitionModel25TransitionStateToHmmStateEi, 
                       __ZNK5kaldi15TransitionModel27TransitionStateToForwardPdfEi, 
                       __ZNK5kaldi15TransitionModel28TransitionStateToSelfLoopPdfEi, 
                       __ZNK5kaldi15TransitionModel29TransitionIdToTransitionIndexEi, 
                       __ZNK5kaldi15TransitionModel29TransitionIdToTransitionStateEi, 
                       __ZNK5kaldi15TransitionModel32TransitionStateToForwardPdfClassEi, 
                       __ZNK5kaldi15TransitionModel33TransitionStateToSelfLoopPdfClassEi, 
                       __ZNK5kaldi15TransitionModel37GetTransitionLogProbIgnoringSelfLoopsEi, 
                       __ZNK5kaldi15TransitionModel5CheckEv, __ZNK5kaldi15TransitionModel5IsHmmEv, 
                       __ZNK5kaldi15TransitionModel5WriteERNSt3__113basic_ostreamIcNS1_11char_traitsIcEEEEb, 
                       __ZNK5kaldi15TransitionModel7IsFinalEi, __ZNK5kaldi15TransitionModel9NumPhonesEv, 
                       __ZNK5kaldi16CompressedMatrix3SumEv, __ZNK5kaldi16CompressedMatrix5WriteERNSt3__113basic_ostreamIcNS1_11char_traitsIcEEEEbb, 
                       __ZNK5kaldi16GaussClusterable4CopyEv, __ZNK5kaldi16GaussClusterable4ObjfEv, 
                       __ZNK5kaldi16GaussClusterable5WriteERNSt3__113basic_ostreamIcNS1_11char_traitsIcEEEEb, 
                       __ZNK5kaldi16GaussClusterable7ReadNewERNSt3__113basic_istreamIcNS1_11char_traitsIcEEEEb, 
                       __ZNK5kaldi17ContextDependency10GetPdfInfoERKNSt3__16vectorIiNS1_9allocatorIiEEEERKNS2_INS2_INS1_4pairIiiEENS3_IS9_EEEENS3_ISB_EEEEPNS2_ISD_NS3_ISD_EEEE, 
                       __ZNK5kaldi17ContextDependency10GetPdfInfoERKNSt3__16vectorIiNS1_9allocatorIiEEEES7_PNS2_INS2_INS1_4pairIiiEENS3_IS9_EEEENS3_ISB_EEEE, 
                       __ZNK5kaldi17ContextDependency14EnumeratePairsERKNSt3__16vectorIiNS1_9allocatorIiEEEEiiS7_PNS1_13unordered_setINS1_4pairIiiEENS_10PairHasherIiEENS1_8equal_toISA_EENS3_ISA_EEEE, 
                       __ZNK5kaldi17ContextDependency5WriteERNSt3__113basic_ostreamIcNS1_11char_traitsIcEEEEb, 
                       __ZNK5kaldi17ContextDependency7ComputeERKNSt3__16vectorIiNS1_9allocatorIiEEEEiPi, 
                       __ZNK5kaldi17GaussRandomNumber4RandEi, __ZNK5kaldi17ScalarClusterable4CopyEv, 
                       __ZNK5kaldi17ScalarClusterable4ObjfEv, __ZNK5kaldi17ScalarClusterable5WriteERNSt3__113basic_ostreamIcNS1_11char_traitsIcEEEEb, 
                       __ZNK5kaldi17ScalarClusterable7ReadNewERNSt3__113basic_istreamIcNS1_11char_traitsIcEEEEb, 
                       __ZNK5kaldi17VectorClusterable4CopyEv, __ZNK5kaldi17VectorClusterable4ObjfEv, 
                       __ZNK5kaldi17VectorClusterable5WriteERNSt3__113basic_ostreamIcNS1_11char_traitsIcEEEEb, 
                       __ZNK5kaldi17VectorClusterable7ReadNewERNSt3__113basic_istreamIcNS1_11char_traitsIcEEEEb, 
                       __ZNK5kaldi19UniformRandomNumber11RandUniformEm, __ZNK5kaldi19UniformRandomNumber13NumGeneratorsEv, 
                       __ZNK5kaldi19UniformRandomNumber4RandEm, __ZNK5kaldi19UniformRandomNumber7RandMaxEv, 
                       __ZNK5kaldi20ShiftedDeltaFeatures7ProcessERKNS_10MatrixBaseIfEEiPNS_9SubVectorIfEE, 
                       __ZNK5kaldi21DecodableMatrixScaled10NumIndicesEv, __ZNK5kaldi21DecodableMatrixScaled11IsLastFrameEi, 
                       __ZNK5kaldi21DecodableMatrixScaled9NumFramesEv, __ZNK5kaldi21RefineClustersOptions5WriteERNSt3__113basic_ostreamIcNS1_11char_traitsIcEEEEb, 
                       __ZNK5kaldi23SlidingWindowCmnOptions5CheckEv, __ZNK5kaldi25DecodableMatrixSkipFrames10NumIndicesEv, 
                       __ZNK5kaldi25DecodableMatrixSkipFrames11IsLastFrameEi, __ZNK5kaldi25DecodableMatrixSkipFrames9NumFramesEv, 
                       __ZNK5kaldi27DecodableMatrixScaledMapped10NumIndicesEv, __ZNK5kaldi27DecodableMatrixScaledMapped11IsLastFrameEi, 
                       __ZNK5kaldi27DecodableMatrixScaledMapped9NumFramesEv, __ZNK5kaldi31DecodableMatrixScaledMappedTInd10NumIndicesEv, 
                       __ZNK5kaldi31DecodableMatrixScaledMappedTInd11IsLastFrameEi, 
                       __ZNK5kaldi31DecodableMatrixScaledMappedTInd9NumFramesEv, 
                       __ZNK5kaldi5Fbank11GetMelBanksEfPb, __ZNK5kaldi5Fbank15ComputeInternalERKNS_10VectorBaseIfEERKNS_8MelBanksEPNS_6MatrixIfEEPNS_6VectorIfEEb, 
                       __ZNK5kaldi5Fbank7ComputeERKNS_10VectorBaseIfEEfPNS_6MatrixIfEEPNS_6VectorIfEES7_b, 
                       __ZNK5kaldi5nnet113LstmComponentINS_12CuMatrixBaseIfEEE11IsUpdatableEv, 
                       __ZNK5kaldi5nnet113LstmComponentINS_12CuMatrixBaseIfEEE7GetTypeEv, 
                       __ZNK5kaldi5nnet113LstmComponentINS_15QuantizedMatrixIaEEE11IsUpdatableEv, 
                       __ZNK5kaldi5nnet113LstmComponentINS_15QuantizedMatrixIaEEE7GetTypeEv, 
                       __ZNK5kaldi5nnet113LstmComponentINS_15QuantizedMatrixIsEEE11IsUpdatableEv, 
                       __ZNK5kaldi5nnet113LstmComponentINS_15QuantizedMatrixIsEEE7GetTypeEv, 
                       __ZNK5kaldi5nnet113SelfAttention15GetHistoryStateEPNS_8CuMatrixIfEEi, 
                       __ZNK5kaldi5nnet113SelfAttention15GetHistoryStateEPNS_8CuVectorIfEEii, 
                       __ZNK5kaldi5nnet113SelfAttention16HistoryStateSizeEv, __ZNK5kaldi5nnet113SelfAttention17CopyQuantized8BitEv, 
                       __ZNK5kaldi5nnet113SelfAttention18CopyQuantized16BitEv, __ZNK5kaldi5nnet113SelfAttention4InfoEv, 
                       __ZNK5kaldi5nnet113SelfAttention9WriteDataERNSt3__113basic_ostreamIcNS2_11char_traitsIcEEEEbb, 
                       __ZNK5kaldi5nnet114NnetCorrPacker13IsInitializedEv, __ZNK5kaldi5nnet114NnetCorrPacker16UsingCorrPackingEv, 
                       __ZNK5kaldi5nnet115AffineTransform17CopyQuantized8BitEv, __ZNK5kaldi5nnet115AffineTransform18CopyQuantized16BitEv, 
                       __ZNK5kaldi5nnet115AffineTransform27CopyVectorwiseQuantized8BitEv, 
                       __ZNK5kaldi5nnet115LinearTransformINS_12CuMatrixBaseIfEEE7GetTypeEv, 
                       __ZNK5kaldi5nnet115LinearTransformINS_15QuantizedMatrixIaEEE7GetTypeEv, 
                       __ZNK5kaldi5nnet115LinearTransformINS_15QuantizedMatrixIsEEE7GetTypeEv, 
                       __ZNK5kaldi5nnet116AverageAttention15GetHistoryStateEPNS_8CuMatrixIfEEi, 
                       __ZNK5kaldi5nnet116AverageAttention15GetHistoryStateEPNS_8CuVectorIfEEii, 
                       __ZNK5kaldi5nnet116AverageAttention16HistoryStateSizeEv, __ZNK5kaldi5nnet116AverageAttention17CopyQuantized8BitEv, 
                       __ZNK5kaldi5nnet116AverageAttention18CopyQuantized16BitEv, 
                       __ZNK5kaldi5nnet116AverageAttention4InfoEv, __ZNK5kaldi5nnet116AverageAttention9WriteDataERNSt3__113basic_ostreamIcNS2_11char_traitsIcEEEEbb, 
                       __ZNK5kaldi5nnet116PaddingComponent4InfoEv, __ZNK5kaldi5nnet116PaddingComponent9WriteDataERNSt3__113basic_ostreamIcNS2_11char_traitsIcEEEEbb, 
                       __ZNK5kaldi5nnet118GatedRecurrentUnit11GetGradientERKNS_8CuMatrixIfEES5_PNS_6VectorIfEE, 
                       __ZNK5kaldi5nnet118GatedRecurrentUnit11WriteConfigERNSt3__113basic_ostreamIcNS2_11char_traitsIcEEEEb, 
                       __ZNK5kaldi5nnet118GatedRecurrentUnit12InfoGradientEv, __ZNK5kaldi5nnet118GatedRecurrentUnit13InfoPropagateEv, 
                       __ZNK5kaldi5nnet118GatedRecurrentUnit15GetHistoryStateEPNS_8CuMatrixIfEEi, 
                       __ZNK5kaldi5nnet118GatedRecurrentUnit15GetHistoryStateEPNS_8CuVectorIfEEii, 
                       __ZNK5kaldi5nnet118GatedRecurrentUnit16HistoryStateSizeEv, 
                       __ZNK5kaldi5nnet118GatedRecurrentUnit17InfoBackPropagateEv, 
                       __ZNK5kaldi5nnet118GatedRecurrentUnit4InfoEv, __ZNK5kaldi5nnet118GatedRecurrentUnit5CheckEv, 
                       __ZNK5kaldi5nnet118GatedRecurrentUnit9GetParamsEPNS_6VectorIfEE, 
                       __ZNK5kaldi5nnet118GatedRecurrentUnit9NumParamsEv, __ZNK5kaldi5nnet118GatedRecurrentUnit9SumParamsEv, 
                       __ZNK5kaldi5nnet118GatedRecurrentUnit9WriteDataERNSt3__113basic_ostreamIcNS2_11char_traitsIcEEEEbb, 
                       __ZNK5kaldi5nnet118MultiHeadAttention4CopyEb, __ZNK5kaldi5nnet118MultiHeadAttention4InfoEv, 
                       __ZNK5kaldi5nnet118MultiHeadAttention9WriteDataERNSt3__113basic_ostreamIcNS2_11char_traitsIcEEEEbb, 
                       __ZNK5kaldi5nnet118Padding2DComponent4InfoEv, __ZNK5kaldi5nnet118Padding2DComponent5CheckEv, 
                       __ZNK5kaldi5nnet118Padding2DComponent9WriteDataERNSt3__113basic_ostreamIcNS2_11char_traitsIcEEEEbb, 
                       __ZNK5kaldi5nnet118ScaledDotAttention17CopyQuantized8BitEv, 
                       __ZNK5kaldi5nnet118ScaledDotAttention18CopyQuantized16BitEv, 
                       __ZNK5kaldi5nnet118ScaledDotAttention4CopyEb, __ZNK5kaldi5nnet118ScaledDotAttention4InfoEv, 
                       __ZNK5kaldi5nnet118ScaledDotAttention9WriteDataERNSt3__113basic_ostreamIcNS2_11char_traitsIcEEEEbb, 
                       __ZNK5kaldi5nnet121CnnRearrangeComponent4InfoEv, __ZNK5kaldi5nnet121CnnRearrangeComponent9WriteDataERNSt3__113basic_ostreamIcNS2_11char_traitsIcEEEEbb, 
                       __ZNK5kaldi5nnet121WordMultiVecComponentINS_12CuMatrixBaseIfEEE11IsUpdatableEv, 
                       __ZNK5kaldi5nnet121WordMultiVecComponentINS_12CuMatrixBaseIfEEE21ConstructMatrixObjectEv, 
                       __ZNK5kaldi5nnet121WordMultiVecComponentINS_12CuMatrixBaseIfEEE7GetTypeEv, 
                       __ZNK5kaldi5nnet121WordMultiVecComponentINS_16CompressedMatrixEE7GetTypeEv, 
                       __ZNK5kaldi5nnet123FixedAttentionComponent11GetGradientERKNS_8CuMatrixIfEES5_PNS_6VectorIfEE, 
                       __ZNK5kaldi5nnet123FixedAttentionComponent11WriteConfigERNSt3__113basic_ostreamIcNS2_11char_traitsIcEEEEb, 
                       __ZNK5kaldi5nnet123FixedAttentionComponent12InfoGradientEv, 
                       __ZNK5kaldi5nnet123FixedAttentionComponent14GetSourceDiffsERKNS_12CuMatrixBaseIfEERKNSt3__16vectorIiNS6_9allocatorIiEEEEPNS_8CuMatrixIfEE, 
                       __ZNK5kaldi5nnet123FixedAttentionComponent19GetCurrentAlignmentEPNSt3__16vectorIiNS2_9allocatorIiEEEE, 
                       __ZNK5kaldi5nnet123FixedAttentionComponent19GetOverallAlignmentEPNSt3__16vectorINS3_IiNS2_9allocatorIiEEEENS4_IS6_EEEE, 
                       __ZNK5kaldi5nnet123FixedAttentionComponent4CopyEv, __ZNK5kaldi5nnet123FixedAttentionComponent4InfoEv, 
                       __ZNK5kaldi5nnet123FixedAttentionComponent5CheckEv, __ZNK5kaldi5nnet123FixedAttentionComponent7GetTypeEv, 
                       __ZNK5kaldi5nnet123FixedAttentionComponent9GetParamsEPNS_6VectorIfEE, 
                       __ZNK5kaldi5nnet123FixedAttentionComponent9NumParamsEv, __ZNK5kaldi5nnet123FixedAttentionComponent9SumParamsEv, 
                       __ZNK5kaldi5nnet123FixedAttentionComponent9WriteDataERNSt3__113basic_ostreamIcNS2_11char_traitsIcEEEEbb, 
                       __ZNK5kaldi5nnet124Convolutional2DComponentINS_12CuMatrixBaseIfEEE7GetTypeEv, 
                       __ZNK5kaldi5nnet124Convolutional2DComponentINS_15QuantizedMatrixIaEEE7GetTypeEv, 
                       __ZNK5kaldi5nnet124Convolutional2DComponentINS_15QuantizedMatrixIsEEE7GetTypeEv, 
                       __ZNK5kaldi5nnet124GlobalAttentionComponent11GetGradientERKNS_8CuMatrixIfEES5_PNS_6VectorIfEE, 
                       __ZNK5kaldi5nnet124GlobalAttentionComponent11WriteConfigERNSt3__113basic_ostreamIcNS2_11char_traitsIcEEEEb, 
                       __ZNK5kaldi5nnet124GlobalAttentionComponent12InfoGradientEv, 
                       __ZNK5kaldi5nnet124GlobalAttentionComponent14GetSourceDiffsERKNS_12CuMatrixBaseIfEERKNSt3__16vectorIiNS6_9allocatorIiEEEEPNS_8CuMatrixIfEE, 
                       __ZNK5kaldi5nnet124GlobalAttentionComponent19GetCurrentAlignmentEPNSt3__16vectorIiNS2_9allocatorIiEEEE, 
                       __ZNK5kaldi5nnet124GlobalAttentionComponent19GetOverallAlignmentEPNSt3__16vectorINS3_IiNS2_9allocatorIiEEEENS4_IS6_EEEE, 
                       __ZNK5kaldi5nnet124GlobalAttentionComponent4CopyEv, __ZNK5kaldi5nnet124GlobalAttentionComponent4InfoEv, 
                       __ZNK5kaldi5nnet124GlobalAttentionComponent5CheckEv, __ZNK5kaldi5nnet124GlobalAttentionComponent7GetTypeEv, 
                       __ZNK5kaldi5nnet124GlobalAttentionComponent9GetParamsEPNS_6VectorIfEE, 
                       __ZNK5kaldi5nnet124GlobalAttentionComponent9NumParamsEv, __ZNK5kaldi5nnet124GlobalAttentionComponent9SumParamsEv, 
                       __ZNK5kaldi5nnet124GlobalAttentionComponent9WriteDataERNSt3__113basic_ostreamIcNS2_11char_traitsIcEEEEbb, 
                       __ZNK5kaldi5nnet124GlobalRecurrentAttention11GetGradientERKNS_8CuMatrixIfEES5_PNS_6VectorIfEE, 
                       __ZNK5kaldi5nnet124GlobalRecurrentAttention11WriteConfigERNSt3__113basic_ostreamIcNS2_11char_traitsIcEEEEb, 
                       __ZNK5kaldi5nnet124GlobalRecurrentAttention12InfoGradientEv, 
                       __ZNK5kaldi5nnet124GlobalRecurrentAttention14GetSourceDiffsERKNS_12CuMatrixBaseIfEERKNSt3__16vectorIiNS6_9allocatorIiEEEEPNS_8CuMatrixIfEE, 
                       __ZNK5kaldi5nnet124GlobalRecurrentAttention15GetHistoryStateEPNS_8CuMatrixIfEEi, 
                       __ZNK5kaldi5nnet124GlobalRecurrentAttention15GetHistoryStateEPNS_8CuVectorIfEEii, 
                       __ZNK5kaldi5nnet124GlobalRecurrentAttention16HistoryStateSizeEv, 
                       __ZNK5kaldi5nnet124GlobalRecurrentAttention19GetCurrentAlignmentEPNSt3__16vectorIiNS2_9allocatorIiEEEE, 
                       __ZNK5kaldi5nnet124GlobalRecurrentAttention19GetOverallAlignmentEPNSt3__16vectorINS3_IiNS2_9allocatorIiEEEENS4_IS6_EEEE, 
                       __ZNK5kaldi5nnet124GlobalRecurrentAttention4CopyEv, __ZNK5kaldi5nnet124GlobalRecurrentAttention4InfoEv, 
                       __ZNK5kaldi5nnet124GlobalRecurrentAttention5CheckEv, __ZNK5kaldi5nnet124GlobalRecurrentAttention7GetTypeEv, 
                       __ZNK5kaldi5nnet124GlobalRecurrentAttention9GetParamsEPNS_6VectorIfEE, 
                       __ZNK5kaldi5nnet124GlobalRecurrentAttention9NumParamsEv, __ZNK5kaldi5nnet124GlobalRecurrentAttention9SumParamsEv, 
                       __ZNK5kaldi5nnet124GlobalRecurrentAttention9WriteDataERNSt3__113basic_ostreamIcNS2_11char_traitsIcEEEEbb, 
                       __ZNK5kaldi5nnet124MovingAttentionComponent11GetGradientERKNS_8CuMatrixIfEES5_PNS_6VectorIfEE, 
                       __ZNK5kaldi5nnet124MovingAttentionComponent11WriteConfigERNSt3__113basic_ostreamIcNS2_11char_traitsIcEEEEb, 
                       __ZNK5kaldi5nnet124MovingAttentionComponent12InfoGradientEv, 
                       __ZNK5kaldi5nnet124MovingAttentionComponent14GetSourceDiffsERKNS_12CuMatrixBaseIfEERKNSt3__16vectorIiNS6_9allocatorIiEEEEPNS_8CuMatrixIfEE, 
                       __ZNK5kaldi5nnet124MovingAttentionComponent19GetCurrentAlignmentEPNSt3__16vectorIiNS2_9allocatorIiEEEE, 
                       __ZNK5kaldi5nnet124MovingAttentionComponent19GetOverallAlignmentEPNSt3__16vectorINS3_IiNS2_9allocatorIiEEEENS4_IS6_EEEE, 
                       __ZNK5kaldi5nnet124MovingAttentionComponent4CopyEv, __ZNK5kaldi5nnet124MovingAttentionComponent4InfoEv, 
                       __ZNK5kaldi5nnet124MovingAttentionComponent5CheckEv, __ZNK5kaldi5nnet124MovingAttentionComponent7GetTypeEv, 
                       __ZNK5kaldi5nnet124MovingAttentionComponent9GetParamsEPNS_6VectorIfEE, 
                       __ZNK5kaldi5nnet124MovingAttentionComponent9NumParamsEv, __ZNK5kaldi5nnet124MovingAttentionComponent9SumParamsEv, 
                       __ZNK5kaldi5nnet124MovingAttentionComponent9WriteDataERNSt3__113basic_ostreamIcNS2_11char_traitsIcEEEEbb, 
                       __ZNK5kaldi5nnet126SimplerSimpleRecurrentUnit15GetHistoryStateEPNS_8CuMatrixIfEEi, 
                       __ZNK5kaldi5nnet126SimplerSimpleRecurrentUnit15GetHistoryStateEPNS_8CuVectorIfEEii, 
                       __ZNK5kaldi5nnet126SimplerSimpleRecurrentUnit16HistoryStateSizeEv, 
                       __ZNK5kaldi5nnet126SimplerSimpleRecurrentUnit17CopyQuantized8BitEv, 
                       __ZNK5kaldi5nnet126SimplerSimpleRecurrentUnit18CopyQuantized16BitEv, 
                       __ZNK5kaldi5nnet126SimplerSimpleRecurrentUnit4InfoEv, __ZNK5kaldi5nnet126SimplerSimpleRecurrentUnit9WriteDataERNSt3__113basic_ostreamIcNS2_11char_traitsIcEEEEbb, 
                       __ZNK5kaldi5nnet127Quantizable8BitComponentItf13CopyQuantizedEv, 
                       __ZNK5kaldi5nnet128Quantizable16BitComponentItf13CopyQuantizedEv, 
                       __ZNK5kaldi5nnet128SupervisedMultiHeadAttention20GetAttnProbabilitiesEv, 
                       __ZNK5kaldi5nnet128SupervisedMultiHeadAttention4CopyEb, __ZNK5kaldi5nnet128SupervisedMultiHeadAttention4InfoEv, 
                       __ZNK5kaldi5nnet128SupervisedMultiHeadAttention9WriteDataERNSt3__113basic_ostreamIcNS2_11char_traitsIcEEEEbb, 
                       __ZNK5kaldi5nnet131BidirectionalRecurrentComponent11GetGradientERKNS_8CuMatrixIfEES5_PNS_6VectorIfEE, 
                       __ZNK5kaldi5nnet131BidirectionalRecurrentComponent11WriteConfigERNSt3__113basic_ostreamIcNS2_11char_traitsIcEEEEb, 
                       __ZNK5kaldi5nnet131BidirectionalRecurrentComponent12InfoGradientEv, 
                       __ZNK5kaldi5nnet131BidirectionalRecurrentComponent13InfoPropagateEv, 
                       __ZNK5kaldi5nnet131BidirectionalRecurrentComponent15GetHistoryStateEPNS_8CuMatrixIfEEi, 
                       __ZNK5kaldi5nnet131BidirectionalRecurrentComponent15GetHistoryStateEPNS_8CuVectorIfEEii, 
                       __ZNK5kaldi5nnet131BidirectionalRecurrentComponent16HistoryStateSizeEv, 
                       __ZNK5kaldi5nnet131BidirectionalRecurrentComponent17CopyQuantized8BitEv, 
                       __ZNK5kaldi5nnet131BidirectionalRecurrentComponent17InfoBackPropagateEv, 
                       __ZNK5kaldi5nnet131BidirectionalRecurrentComponent18CopyQuantized16BitEv, 
                       __ZNK5kaldi5nnet131BidirectionalRecurrentComponent4InfoEv, 
                       __ZNK5kaldi5nnet131BidirectionalRecurrentComponent5CheckEv, 
                       __ZNK5kaldi5nnet131BidirectionalRecurrentComponent9GetParamsEPNS_6VectorIfEE, 
                       __ZNK5kaldi5nnet131BidirectionalRecurrentComponent9NumParamsEv, 
                       __ZNK5kaldi5nnet131BidirectionalRecurrentComponent9SumParamsEv, 
                       __ZNK5kaldi5nnet131BidirectionalRecurrentComponent9WriteDataERNSt3__113basic_ostreamIcNS2_11char_traitsIcEEEEbb, 
                       __ZNK5kaldi5nnet132ConvolutionalMaxPoolingComponentINS_12CuMatrixBaseIfEEE7GetTypeEv, 
                       __ZNK5kaldi5nnet132ConvolutionalMaxPoolingComponentINS_15QuantizedMatrixIaEEE7GetTypeEv, 
                       __ZNK5kaldi5nnet132ConvolutionalMaxPoolingComponentINS_15QuantizedMatrixIsEEE7GetTypeEv, 
                       __ZNK5kaldi5nnet137VectorwiseQuantizable8BitComponentItf13CopyQuantizedEv, 
                       __ZNK5kaldi5nnet13Mse10GetResultsEv, __ZNK5kaldi5nnet14Nnet10HasHistoryEv, 
                       __ZNK5kaldi5nnet14Nnet11GetGradientEPNS_6VectorIfEE, __ZNK5kaldi5nnet14Nnet12CheckWeightsEv, 
                       __ZNK5kaldi5nnet14Nnet12GetComponentEi, __ZNK5kaldi5nnet14Nnet12InfoGradientEv, 
                       __ZNK5kaldi5nnet14Nnet12ValidateNnetEv, __ZNK5kaldi5nnet14Nnet13InfoPropagateEv, 
                       __ZNK5kaldi5nnet14Nnet15CheckDimensionsEv, __ZNK5kaldi5nnet14Nnet15GetHistoryStateEPNS_8CuMatrixIfEEi, 
                       __ZNK5kaldi5nnet14Nnet15GetHistoryStateEPNS_8CuVectorIfEEii, 
                       __ZNK5kaldi5nnet14Nnet15GetTrainOptionsEv, __ZNK5kaldi5nnet14Nnet16AllCountZeroCorrEPiS2_Pf, 
                       __ZNK5kaldi5nnet14Nnet16HistoryStateSizeEv, __ZNK5kaldi5nnet14Nnet17InfoBackPropagateEv, 
                       __ZNK5kaldi5nnet14Nnet18IsBidirectionalRnnEv, __ZNK5kaldi5nnet14Nnet20CheckInternalBuffersEv, 
                       __ZNK5kaldi5nnet14Nnet22GetRecurrentComponentsEv, __ZNK5kaldi5nnet14Nnet23GetHistoricalComponentsEv, 
                       __ZNK5kaldi5nnet14Nnet25GetNormalizedLearningRateEv, __ZNK5kaldi5nnet14Nnet4InfoEv, 
                       __ZNK5kaldi5nnet14Nnet5IsRnnEv, __ZNK5kaldi5nnet14Nnet5WriteERKNSt3__112basic_stringIcNS2_11char_traitsIcEENS2_9allocatorIcEEEEbb, 
                       __ZNK5kaldi5nnet14Nnet5WriteERNSt3__113basic_ostreamIcNS2_11char_traitsIcEEEEbb, 
                       __ZNK5kaldi5nnet14Nnet8InputDimEv, __ZNK5kaldi5nnet14Nnet9GetParamsEPNS_6VectorIfEE, 
                       __ZNK5kaldi5nnet14Nnet9NumParamsEv, __ZNK5kaldi5nnet14Nnet9OutputDimEv, 
                       __ZNK5kaldi5nnet14Nnet9SumParamsEv, __ZNK5kaldi5nnet14Xent10GetAvgLossEb, 
                       __ZNK5kaldi5nnet14Xent10GetResultsEv, __ZNK5kaldi5nnet17CtcLoss10GetResultsEv, 
                       __ZNK5kaldi5nnet18BMMILoss10GetResultsEv, __ZNK5kaldi5nnet18BMMILoss6ReportEv, 
                       __ZNK5kaldi5nnet18PdfPrior17SubtractOnLogpostEPNS_10MatrixBaseIfEE, 
                       __ZNK5kaldi5nnet18PdfPrior17SubtractOnLogpostEPNS_12CuMatrixBaseIfEE, 
                       __ZNK5kaldi5nnet18PdfPrior21SubtractLogpostForPdfEiPNS_12CuVectorBaseIfEE, 
                       __ZNK5kaldi5nnet19Component5WriteERNSt3__113basic_ostreamIcNS2_11char_traitsIcEEEEbb, 
                       __ZNK5kaldi5nnet19Component9BasicInfoEv, __ZNK5kaldi5nnet19LayerNorm4InfoEv, 
                       __ZNK5kaldi5nnet19LayerNorm9WriteDataERNSt3__113basic_ostreamIcNS2_11char_traitsIcEEEEbb, 
                       __ZNK5kaldi5nnet19MultiXent10GetResultsEv, __ZNK5kaldi8CuRandom11RandWrapperEPji, 
                       __ZNK5kaldi8CuRandom11RandWrapperEPyi, __ZNK5kaldi8CuRandom16RandGaussWrapperEPdidd, 
                       __ZNK5kaldi8CuRandom16RandGaussWrapperEPfiff, __ZNK5kaldi8CuRandom18RandUniformWrapperEPdi, 
                       __ZNK5kaldi8CuRandom18RandUniformWrapperEPfi, __ZNK5kaldi8CuRandom4InitEv, 
                       __ZNK5kaldi8MelBanks7ComputeERKNS_10VectorBaseIfEEPNS_6VectorIfEE, 
                       __ZNK5kaldi8WaveData5WriteERNSt3__113basic_ostreamIcNS1_11char_traitsIcEEEE, 
                       __ZNK5kaldi9Questions5WriteERNSt3__113basic_ostreamIcNS1_11char_traitsIcEEEEb, 
                       __ZNK7SiriTTS15ForcedAlignment13AcousticModel14silence_phonesEv, 
                       __ZNK7SiriTTS15ForcedAlignment13AcousticModel16transition_modelEv, 
                       __ZNK7SiriTTS15ForcedAlignment13AcousticModel17nonsilence_phonesEv, 
                       __ZNK7SiriTTS15ForcedAlignment13AcousticModel7contextEv, __ZNK7SiriTTS15ForcedAlignment7Lexicon11int_to_wordEi, 
                       __ZNK7SiriTTS15ForcedAlignment7Lexicon11word_to_intERKNSt3__112basic_stringIcNS2_11char_traitsIcEENS2_9allocatorIcEEEE, 
                       __ZNK7SiriTTS15ForcedAlignment7Lexicon12int_to_phoneEiRKb, 
                       __ZNK7SiriTTS15ForcedAlignment7Lexicon12phone_to_intERKNSt3__112basic_stringIcNS2_11char_traitsIcEENS2_9allocatorIcEEEE, 
                       __ZNK8MelBanks20get_mel_filter_banksEv, __ZTCN5kaldi5nnet113SelfAttentionE0_NS0_31AttentionBaseInferenceComponentE, 
                       __ZTCN5kaldi5nnet116AverageAttentionE0_NS0_31AttentionBaseInferenceComponentE, 
                       __ZTCN5kaldi5nnet117ParallelComponentE0_NS0_22RecurrentBaseComponentE, 
                       __ZTCN5kaldi5nnet118GatedRecurrentUnitE0_NS0_22RecurrentBaseComponentE, 
                       __ZTCN5kaldi5nnet118MultiHeadAttentionE0_NS0_18ScaledDotAttentionE, 
                       __ZTCN5kaldi5nnet118MultiHeadAttentionE0_NS0_31AttentionBaseInferenceComponentE, 
                       __ZTCN5kaldi5nnet118ScaledDotAttentionE0_NS0_31AttentionBaseInferenceComponentE, 
                       __ZTCN5kaldi5nnet123FixedAttentionComponentE0_NS0_22AttentionBaseComponentE, 
                       __ZTCN5kaldi5nnet124GlobalAttentionComponentE0_NS0_22AttentionBaseComponentE, 
                       __ZTCN5kaldi5nnet124GlobalRecurrentAttentionE0_NS0_22AttentionBaseComponentE, 
                       __ZTCN5kaldi5nnet124GlobalRecurrentAttentionE0_NS0_31RecurrentAttentionBaseComponentE, 
                       __ZTCN5kaldi5nnet124GlobalRecurrentAttentionE16_NS0_22RecurrentBaseComponentE, 
                       __ZTCN5kaldi5nnet124MovingAttentionComponentE0_NS0_22AttentionBaseComponentE, 
                       __ZTCN5kaldi5nnet128SupervisedMultiHeadAttentionE0_NS0_18MultiHeadAttentionE, 
                       __ZTCN5kaldi5nnet128SupervisedMultiHeadAttentionE0_NS0_18ScaledDotAttentionE, 
                       __ZTCN5kaldi5nnet128SupervisedMultiHeadAttentionE0_NS0_31AttentionBaseInferenceComponentE, 
                       __ZTCN5kaldi5nnet131BidirectionalRecurrentComponentE0_NS0_22RecurrentBaseComponentE, 
                       __ZTCN5kaldi5nnet131RecurrentAttentionBaseComponentE0_NS0_22AttentionBaseComponentE, 
                       __ZTCN5kaldi5nnet131RecurrentAttentionBaseComponentE16_NS0_22RecurrentBaseComponentE, 
                       __ZTCN5kaldi5nnet19RecurrentE0_NS0_22RecurrentBaseComponentE, 
                       __ZTI12DataFeederV2, __ZTI12PCMProcessor, __ZTI13PCMReader_CAF, 
                       __ZTI13PCMReader_WAV, __ZTI13PCMWriter_CAF, __ZTI13PCMWriter_WAV, 
                       __ZTI14InferenceModel, __ZTI15EffectAudioUnit, __ZTI17WaveRNNDataFeeder, 
                       __ZTI17WaveRNNEspressoIO, __ZTI18NeuralFEDataFeeder, __ZTI18NeuralFEEspressoIO, 
                       __ZTI19EffectAudioUnitImpl, __ZTI19WaveRNNDataFeederV2, __ZTI19WaveRNNModelIONames, 
                       __ZTI25SpeakerNeuralFEEspressoIO, __ZTI30WaveRNNDecoupledInferenceModel, 
                       __ZTI33ParallelAMDecoupledInferenceModel, __ZTIN15InferenceEngine10DataTensorE, 
                       __ZTIN15InferenceEngine13Mil2BnnsMilIOE, __ZTIN15InferenceEngine17MilInferenceModelE, 
                       __ZTIN15InferenceEngine25Mil2BnnsMilInferenceModelE, __ZTIN3fst10MappedFileE, 
                       __ZTIN3fst11SymbolTableE, __ZTIN3fst13InterpArcInfoE, __ZTIN3fst14BackoffArcInfoE, 
                       __ZTIN3fst14MemoryPoolBaseE, __ZTIN3fst15MemoryArenaBaseE, 
                       __ZTIN3fst7ArcInfoE, __ZTIN5boost10filesystem6detail18utf8_codecvt_facetE, 
                       __ZTIN5kaldi10OptionsItfE, __ZTIN5kaldi11ClusterableE, __ZTIN5kaldi12ParseOptionsE, 
                       __ZTIN5kaldi13FileInputImplE, __ZTIN5kaldi13InputImplBaseE, 
                       __ZTIN5kaldi13PipeInputImplE, __ZTIN5kaldi13SplitEventMapE, 
                       __ZTIN5kaldi13TableEventMapE, __ZTIN5kaldi14FileOutputImplE, 
                       __ZTIN5kaldi14OutputImplBaseE, __ZTIN5kaldi14PipeOutputImplE, 
                       __ZTIN5kaldi15InferenceNetItfE, __ZTIN5kaldi16ConstantEventMapE, 
                       __ZTIN5kaldi16GaussClusterableE, __ZTIN5kaldi17ContextDependencyE, 
                       __ZTIN5kaldi17FeedForwardNetItfE, __ZTIN5kaldi17OnlineBaseFeatureE, 
                       __ZTIN5kaldi17ScalarClusterableE, __ZTIN5kaldi17StandardInputImplE, 
                       __ZTIN5kaldi17VectorClusterableE, __ZTIN5kaldi18DecodableInterfaceE, 
                       __ZTIN5kaldi18StandardOutputImplE, __ZTIN5kaldi19OffsetFileInputImplE, 
                       __ZTIN5kaldi20EncoderDecoderNetItfE, __ZTIN5kaldi21DecodableMatrixScaledE, 
                       __ZTIN5kaldi21E2EDecodableInterfaceE, __ZTIN5kaldi22OnlineFeatureInterfaceE, 
                       __ZTIN5kaldi25DecodableMatrixSkipFramesE, __ZTIN5kaldi26ContextDependencyInterfaceE, 
                       __ZTIN5kaldi27DecodableMatrixScaledMappedE, __ZTIN5kaldi31DecodableMatrixScaledMappedTIndE, 
                       __ZTIN5kaldi32AutoRegressiveDecodableInterfaceE, __ZTIN5kaldi5nnet110LogSoftmaxE, 
                       __ZTIN5kaldi5nnet112BlockSoftmaxE, __ZTIN5kaldi5nnet112MultiSoftmaxE, 
                       __ZTIN5kaldi5nnet113CopyComponentE, __ZTIN5kaldi5nnet113SelfAttentionE, 
                       __ZTIN5kaldi5nnet114HistoryOptionsE, __ZTIN5kaldi5nnet114PNormComponentE, 
                       __ZTIN5kaldi5nnet114RelaxedSoftmaxE, __ZTIN5kaldi5nnet115AffineTransformE, 
                       __ZTIN5kaldi5nnet115MaxoutComponentE, __ZTIN5kaldi5nnet116AverageAttentionE, 
                       __ZTIN5kaldi5nnet116LossEvaluatorItfE, __ZTIN5kaldi5nnet116NnetTrainOptionsE, 
                       __ZTIN5kaldi5nnet116PaddingComponentE, __ZTIN5kaldi5nnet116WordVecComponentE, 
                       __ZTIN5kaldi5nnet117IdentityComponentE, __ZTIN5kaldi5nnet117Nnet1InferenceNetE, 
                       __ZTIN5kaldi5nnet117ParallelComponentE, __ZTIN5kaldi5nnet118DuplicateComponentE, 
                       __ZTIN5kaldi5nnet118GatedRecurrentUnitE, __ZTIN5kaldi5nnet118MultiHeadAttentionE, 
                       __ZTIN5kaldi5nnet118NormalizeComponentE, __ZTIN5kaldi5nnet118Padding2DComponentE, 
                       __ZTIN5kaldi5nnet118ScaledDotAttentionE, __ZTIN5kaldi5nnet118SharedNceComponentE, 
                       __ZTIN5kaldi5nnet118UpdatableComponentE, __ZTIN5kaldi5nnet119HistoricalComponentE, 
                       __ZTIN5kaldi5nnet119MaxPoolingComponentE, __ZTIN5kaldi5nnet120FofeWordVecComponentE, 
                       __ZTIN5kaldi5nnet121CnnRearrangeComponentE, __ZTIN5kaldi5nnet121FramePoolingComponentE, 
                       __ZTIN5kaldi5nnet121MaxPooling2DComponentE, __ZTIN5kaldi5nnet122AttentionBaseComponentE, 
                       __ZTIN5kaldi5nnet122ConvolutionalComponentE, __ZTIN5kaldi5nnet122InterpolationComponentE, 
                       __ZTIN5kaldi5nnet122RecurrentBaseComponentE, __ZTIN5kaldi5nnet123AveragePoolingComponentE, 
                       __ZTIN5kaldi5nnet123FixedAttentionComponentE, __ZTIN5kaldi5nnet124CompressibleComponentItfE, 
                       __ZTIN5kaldi5nnet124GlobalAttentionComponentE, __ZTIN5kaldi5nnet124GlobalRecurrentAttentionE, 
                       __ZTIN5kaldi5nnet124MovingAttentionComponentE, __ZTIN5kaldi5nnet124RectifiedLinearComponentE, 
                       __ZTIN5kaldi5nnet125AveragePooling2DComponentE, __ZTIN5kaldi5nnet125RecurrentNnetTrainOptionsE, 
                       __ZTIN5kaldi5nnet126CompressedWordVecComponentE, __ZTIN5kaldi5nnet126ExponentialLinearComponentE, 
                       __ZTIN5kaldi5nnet126SentenceAveragingComponentE, __ZTIN5kaldi5nnet126SimplerSimpleRecurrentUnitE, 
                       __ZTIN5kaldi5nnet127Quantizable8BitComponentItfE, __ZTIN5kaldi5nnet127TemporalMaxPoolingComponentE, 
                       __ZTIN5kaldi5nnet128CompressedWordTransComponentE, __ZTIN5kaldi5nnet128Quantizable16BitComponentItfE, 
                       __ZTIN5kaldi5nnet128SupervisedMultiHeadAttentionE, __ZTIN5kaldi5nnet131AttentionBaseInferenceComponentE, 
                       __ZTIN5kaldi5nnet131BidirectionalRecurrentComponentE, __ZTIN5kaldi5nnet131RecurrentAttentionBaseComponentE, 
                       __ZTIN5kaldi5nnet132ScaledExponentialLinearComponentE, __ZTIN5kaldi5nnet137VectorwiseQuantizable8BitComponentItfE, 
                       __ZTIN5kaldi5nnet13MseE, __ZTIN5kaldi5nnet13RbmE, __ZTIN5kaldi5nnet14TanhE, 
                       __ZTIN5kaldi5nnet14XentE, __ZTIN5kaldi5nnet15KlHmmE, __ZTIN5kaldi5nnet16SpliceE, 
                       __ZTIN5kaldi5nnet17DropoutE, __ZTIN5kaldi5nnet17RbmBaseE, 
                       __ZTIN5kaldi5nnet17RescaleE, __ZTIN5kaldi5nnet17SigmoidE, 
                       __ZTIN5kaldi5nnet17SoftmaxE, __ZTIN5kaldi5nnet18AddShiftE, 
                       __ZTIN5kaldi5nnet18DespliceE, __ZTIN5kaldi5nnet19ComponentE, 
                       __ZTIN5kaldi5nnet19LayerNormE, __ZTIN5kaldi5nnet19MultiXentE, 
                       __ZTIN5kaldi5nnet19RecurrentE, __ZTIN5kaldi8EventMapE, __ZTIN7PCMFile6ReaderE, 
                       __ZTIN7PCMFile6WriterE, __ZTS12DataFeederV2, __ZTS12PCMProcessor, 
                       __ZTS13PCMReader_CAF, __ZTS13PCMReader_WAV, __ZTS13PCMWriter_CAF, 
                       __ZTS13PCMWriter_WAV, __ZTS14InferenceModel, __ZTS15EffectAudioUnit, 
                       __ZTS17WaveRNNDataFeeder, __ZTS17WaveRNNEspressoIO, __ZTS18NeuralFEDataFeeder, 
                       __ZTS18NeuralFEEspressoIO, __ZTS19EffectAudioUnitImpl, __ZTS19WaveRNNDataFeederV2, 
                       __ZTS19WaveRNNModelIONames, __ZTS25SpeakerNeuralFEEspressoIO, 
                       __ZTS30WaveRNNDecoupledInferenceModel, __ZTS33ParallelAMDecoupledInferenceModel, 
                       __ZTSN15InferenceEngine10DataTensorE, __ZTSN15InferenceEngine13Mil2BnnsMilIOE, 
                       __ZTSN15InferenceEngine17MilInferenceModelE, __ZTSN15InferenceEngine25Mil2BnnsMilInferenceModelE, 
                       __ZTSN3fst10MappedFileE, __ZTSN3fst11SymbolTableE, __ZTSN3fst13InterpArcInfoE, 
                       __ZTSN3fst14BackoffArcInfoE, __ZTSN3fst14MemoryPoolBaseE, 
                       __ZTSN3fst15MemoryArenaBaseE, __ZTSN3fst7ArcInfoE, __ZTSN5boost10filesystem6detail18utf8_codecvt_facetE, 
                       __ZTSN5kaldi10OptionsItfE, __ZTSN5kaldi11ClusterableE, __ZTSN5kaldi12ParseOptionsE, 
                       __ZTSN5kaldi13FileInputImplE, __ZTSN5kaldi13InputImplBaseE, 
                       __ZTSN5kaldi13PipeInputImplE, __ZTSN5kaldi13SplitEventMapE, 
                       __ZTSN5kaldi13TableEventMapE, __ZTSN5kaldi14FileOutputImplE, 
                       __ZTSN5kaldi14OutputImplBaseE, __ZTSN5kaldi14PipeOutputImplE, 
                       __ZTSN5kaldi15InferenceNetItfE, __ZTSN5kaldi16ConstantEventMapE, 
                       __ZTSN5kaldi16GaussClusterableE, __ZTSN5kaldi17ContextDependencyE, 
                       __ZTSN5kaldi17FeedForwardNetItfE, __ZTSN5kaldi17OnlineBaseFeatureE, 
                       __ZTSN5kaldi17ScalarClusterableE, __ZTSN5kaldi17StandardInputImplE, 
                       __ZTSN5kaldi17VectorClusterableE, __ZTSN5kaldi18DecodableInterfaceE, 
                       __ZTSN5kaldi18StandardOutputImplE, __ZTSN5kaldi19OffsetFileInputImplE, 
                       __ZTSN5kaldi20EncoderDecoderNetItfE, __ZTSN5kaldi21DecodableMatrixScaledE, 
                       __ZTSN5kaldi21E2EDecodableInterfaceE, __ZTSN5kaldi22OnlineFeatureInterfaceE, 
                       __ZTSN5kaldi25DecodableMatrixSkipFramesE, __ZTSN5kaldi26ContextDependencyInterfaceE, 
                       __ZTSN5kaldi27DecodableMatrixScaledMappedE, __ZTSN5kaldi31DecodableMatrixScaledMappedTIndE, 
                       __ZTSN5kaldi32AutoRegressiveDecodableInterfaceE, __ZTSN5kaldi5nnet110LogSoftmaxE, 
                       __ZTSN5kaldi5nnet112BlockSoftmaxE, __ZTSN5kaldi5nnet112MultiSoftmaxE, 
                       __ZTSN5kaldi5nnet113CopyComponentE, __ZTSN5kaldi5nnet113SelfAttentionE, 
                       __ZTSN5kaldi5nnet114HistoryOptionsE, __ZTSN5kaldi5nnet114PNormComponentE, 
                       __ZTSN5kaldi5nnet114RelaxedSoftmaxE, __ZTSN5kaldi5nnet115AffineTransformE, 
                       __ZTSN5kaldi5nnet115MaxoutComponentE, __ZTSN5kaldi5nnet116AverageAttentionE, 
                       __ZTSN5kaldi5nnet116LossEvaluatorItfE, __ZTSN5kaldi5nnet116NnetTrainOptionsE, 
                       __ZTSN5kaldi5nnet116PaddingComponentE, __ZTSN5kaldi5nnet116WordVecComponentE, 
                       __ZTSN5kaldi5nnet117IdentityComponentE, __ZTSN5kaldi5nnet117Nnet1InferenceNetE, 
                       __ZTSN5kaldi5nnet117ParallelComponentE, __ZTSN5kaldi5nnet118DuplicateComponentE, 
                       __ZTSN5kaldi5nnet118GatedRecurrentUnitE, __ZTSN5kaldi5nnet118MultiHeadAttentionE, 
                       __ZTSN5kaldi5nnet118NormalizeComponentE, __ZTSN5kaldi5nnet118Padding2DComponentE, 
                       __ZTSN5kaldi5nnet118ScaledDotAttentionE, __ZTSN5kaldi5nnet118SharedNceComponentE, 
                       __ZTSN5kaldi5nnet118UpdatableComponentE, __ZTSN5kaldi5nnet119HistoricalComponentE, 
                       __ZTSN5kaldi5nnet119MaxPoolingComponentE, __ZTSN5kaldi5nnet120FofeWordVecComponentE, 
                       __ZTSN5kaldi5nnet121CnnRearrangeComponentE, __ZTSN5kaldi5nnet121FramePoolingComponentE, 
                       __ZTSN5kaldi5nnet121MaxPooling2DComponentE, __ZTSN5kaldi5nnet122AttentionBaseComponentE, 
                       __ZTSN5kaldi5nnet122ConvolutionalComponentE, __ZTSN5kaldi5nnet122InterpolationComponentE, 
                       __ZTSN5kaldi5nnet122RecurrentBaseComponentE, __ZTSN5kaldi5nnet123AveragePoolingComponentE, 
                       __ZTSN5kaldi5nnet123FixedAttentionComponentE, __ZTSN5kaldi5nnet124CompressibleComponentItfE, 
                       __ZTSN5kaldi5nnet124GlobalAttentionComponentE, __ZTSN5kaldi5nnet124GlobalRecurrentAttentionE, 
                       __ZTSN5kaldi5nnet124MovingAttentionComponentE, __ZTSN5kaldi5nnet124RectifiedLinearComponentE, 
                       __ZTSN5kaldi5nnet125AveragePooling2DComponentE, __ZTSN5kaldi5nnet125RecurrentNnetTrainOptionsE, 
                       __ZTSN5kaldi5nnet126CompressedWordVecComponentE, __ZTSN5kaldi5nnet126ExponentialLinearComponentE, 
                       __ZTSN5kaldi5nnet126SentenceAveragingComponentE, __ZTSN5kaldi5nnet126SimplerSimpleRecurrentUnitE, 
                       __ZTSN5kaldi5nnet127Quantizable8BitComponentItfE, __ZTSN5kaldi5nnet127TemporalMaxPoolingComponentE, 
                       __ZTSN5kaldi5nnet128CompressedWordTransComponentE, __ZTSN5kaldi5nnet128Quantizable16BitComponentItfE, 
                       __ZTSN5kaldi5nnet128SupervisedMultiHeadAttentionE, __ZTSN5kaldi5nnet131AttentionBaseInferenceComponentE, 
                       __ZTSN5kaldi5nnet131BidirectionalRecurrentComponentE, __ZTSN5kaldi5nnet131RecurrentAttentionBaseComponentE, 
                       __ZTSN5kaldi5nnet132ScaledExponentialLinearComponentE, __ZTSN5kaldi5nnet137VectorwiseQuantizable8BitComponentItfE, 
                       __ZTSN5kaldi5nnet13MseE, __ZTSN5kaldi5nnet13RbmE, __ZTSN5kaldi5nnet14TanhE, 
                       __ZTSN5kaldi5nnet14XentE, __ZTSN5kaldi5nnet15KlHmmE, __ZTSN5kaldi5nnet16SpliceE, 
                       __ZTSN5kaldi5nnet17DropoutE, __ZTSN5kaldi5nnet17RbmBaseE, 
                       __ZTSN5kaldi5nnet17RescaleE, __ZTSN5kaldi5nnet17SigmoidE, 
                       __ZTSN5kaldi5nnet17SoftmaxE, __ZTSN5kaldi5nnet18AddShiftE, 
                       __ZTSN5kaldi5nnet18DespliceE, __ZTSN5kaldi5nnet19ComponentE, 
                       __ZTSN5kaldi5nnet19LayerNormE, __ZTSN5kaldi5nnet19MultiXentE, 
                       __ZTSN5kaldi5nnet19RecurrentE, __ZTSN5kaldi8EventMapE, __ZTSN7PCMFile6ReaderE, 
                       __ZTSN7PCMFile6WriterE, __ZTTN5kaldi5nnet113SelfAttentionE, 
                       __ZTTN5kaldi5nnet116AverageAttentionE, __ZTTN5kaldi5nnet117ParallelComponentE, 
                       __ZTTN5kaldi5nnet118GatedRecurrentUnitE, __ZTTN5kaldi5nnet118MultiHeadAttentionE, 
                       __ZTTN5kaldi5nnet118ScaledDotAttentionE, __ZTTN5kaldi5nnet122AttentionBaseComponentE, 
                       __ZTTN5kaldi5nnet122RecurrentBaseComponentE, __ZTTN5kaldi5nnet123FixedAttentionComponentE, 
                       __ZTTN5kaldi5nnet124GlobalAttentionComponentE, __ZTTN5kaldi5nnet124GlobalRecurrentAttentionE, 
                       __ZTTN5kaldi5nnet124MovingAttentionComponentE, __ZTTN5kaldi5nnet126SimplerSimpleRecurrentUnitE, 
                       __ZTTN5kaldi5nnet128SupervisedMultiHeadAttentionE, __ZTTN5kaldi5nnet131AttentionBaseInferenceComponentE, 
                       __ZTTN5kaldi5nnet131BidirectionalRecurrentComponentE, __ZTTN5kaldi5nnet131RecurrentAttentionBaseComponentE, 
                       __ZTTN5kaldi5nnet19RecurrentE, __ZTV12DataFeederV2, __ZTV12PCMProcessor, 
                       __ZTV13PCMReader_CAF, __ZTV13PCMReader_WAV, __ZTV13PCMWriter_CAF, 
                       __ZTV13PCMWriter_WAV, __ZTV14InferenceModel, __ZTV15EffectAudioUnit, 
                       __ZTV17WaveRNNDataFeeder, __ZTV17WaveRNNEspressoIO, __ZTV18NeuralFEDataFeeder, 
                       __ZTV18NeuralFEEspressoIO, __ZTV19EffectAudioUnitImpl, __ZTV19WaveRNNDataFeederV2, 
                       __ZTV19WaveRNNModelIONames, __ZTV25SpeakerNeuralFEEspressoIO, 
                       __ZTV30WaveRNNDecoupledInferenceModel, __ZTV33ParallelAMDecoupledInferenceModel, 
                       __ZTVN15InferenceEngine10DataTensorE, __ZTVN15InferenceEngine13Mil2BnnsMilIOE, 
                       __ZTVN15InferenceEngine17MilInferenceModelE, __ZTVN15InferenceEngine25Mil2BnnsMilInferenceModelE, 
                       __ZTVN3fst10MappedFileE, __ZTVN3fst11SymbolTableE, __ZTVN3fst13InterpArcInfoE, 
                       __ZTVN3fst14BackoffArcInfoE, __ZTVN3fst14MemoryPoolBaseE, 
                       __ZTVN3fst15MemoryArenaBaseE, __ZTVN3fst7ArcInfoE, __ZTVN5boost10filesystem6detail18utf8_codecvt_facetE, 
                       __ZTVN5kaldi10OptionsItfE, __ZTVN5kaldi11ClusterableE, __ZTVN5kaldi12ParseOptionsE, 
                       __ZTVN5kaldi13FileInputImplE, __ZTVN5kaldi13InputImplBaseE, 
                       __ZTVN5kaldi13PipeInputImplE, __ZTVN5kaldi13SplitEventMapE, 
                       __ZTVN5kaldi13TableEventMapE, __ZTVN5kaldi14FileOutputImplE, 
                       __ZTVN5kaldi14OutputImplBaseE, __ZTVN5kaldi14PipeOutputImplE, 
                       __ZTVN5kaldi15InferenceNetItfE, __ZTVN5kaldi16ConstantEventMapE, 
                       __ZTVN5kaldi16GaussClusterableE, __ZTVN5kaldi17ContextDependencyE, 
                       __ZTVN5kaldi17FeedForwardNetItfE, __ZTVN5kaldi17OnlineBaseFeatureE, 
                       __ZTVN5kaldi17ScalarClusterableE, __ZTVN5kaldi17StandardInputImplE, 
                       __ZTVN5kaldi17VectorClusterableE, __ZTVN5kaldi18DecodableInterfaceE, 
                       __ZTVN5kaldi18StandardOutputImplE, __ZTVN5kaldi19OffsetFileInputImplE, 
                       __ZTVN5kaldi20EncoderDecoderNetItfE, __ZTVN5kaldi21DecodableMatrixScaledE, 
                       __ZTVN5kaldi21E2EDecodableInterfaceE, __ZTVN5kaldi22OnlineFeatureInterfaceE, 
                       __ZTVN5kaldi25DecodableMatrixSkipFramesE, __ZTVN5kaldi26ContextDependencyInterfaceE, 
                       __ZTVN5kaldi27DecodableMatrixScaledMappedE, __ZTVN5kaldi31DecodableMatrixScaledMappedTIndE, 
                       __ZTVN5kaldi32AutoRegressiveDecodableInterfaceE, __ZTVN5kaldi5nnet110LogSoftmaxE, 
                       __ZTVN5kaldi5nnet112BlockSoftmaxE, __ZTVN5kaldi5nnet112MultiSoftmaxE, 
                       __ZTVN5kaldi5nnet113CopyComponentE, __ZTVN5kaldi5nnet113SelfAttentionE, 
                       __ZTVN5kaldi5nnet114HistoryOptionsE, __ZTVN5kaldi5nnet114PNormComponentE, 
                       __ZTVN5kaldi5nnet114RelaxedSoftmaxE, __ZTVN5kaldi5nnet115AffineTransformE, 
                       __ZTVN5kaldi5nnet115MaxoutComponentE, __ZTVN5kaldi5nnet116AverageAttentionE, 
                       __ZTVN5kaldi5nnet116LossEvaluatorItfE, __ZTVN5kaldi5nnet116NnetTrainOptionsE, 
                       __ZTVN5kaldi5nnet116PaddingComponentE, __ZTVN5kaldi5nnet116WordVecComponentE, 
                       __ZTVN5kaldi5nnet117IdentityComponentE, __ZTVN5kaldi5nnet117Nnet1InferenceNetE, 
                       __ZTVN5kaldi5nnet117ParallelComponentE, __ZTVN5kaldi5nnet118DuplicateComponentE, 
                       __ZTVN5kaldi5nnet118GatedRecurrentUnitE, __ZTVN5kaldi5nnet118MultiHeadAttentionE, 
                       __ZTVN5kaldi5nnet118NormalizeComponentE, __ZTVN5kaldi5nnet118Padding2DComponentE, 
                       __ZTVN5kaldi5nnet118ScaledDotAttentionE, __ZTVN5kaldi5nnet118SharedNceComponentE, 
                       __ZTVN5kaldi5nnet118UpdatableComponentE, __ZTVN5kaldi5nnet119HistoricalComponentE, 
                       __ZTVN5kaldi5nnet119MaxPoolingComponentE, __ZTVN5kaldi5nnet120FofeWordVecComponentE, 
                       __ZTVN5kaldi5nnet121CnnRearrangeComponentE, __ZTVN5kaldi5nnet121FramePoolingComponentE, 
                       __ZTVN5kaldi5nnet121MaxPooling2DComponentE, __ZTVN5kaldi5nnet122AttentionBaseComponentE, 
                       __ZTVN5kaldi5nnet122ConvolutionalComponentE, __ZTVN5kaldi5nnet122InterpolationComponentE, 
                       __ZTVN5kaldi5nnet122RecurrentBaseComponentE, __ZTVN5kaldi5nnet123AveragePoolingComponentE, 
                       __ZTVN5kaldi5nnet123FixedAttentionComponentE, __ZTVN5kaldi5nnet124CompressibleComponentItfE, 
                       __ZTVN5kaldi5nnet124GlobalAttentionComponentE, __ZTVN5kaldi5nnet124GlobalRecurrentAttentionE, 
                       __ZTVN5kaldi5nnet124MovingAttentionComponentE, __ZTVN5kaldi5nnet124RectifiedLinearComponentE, 
                       __ZTVN5kaldi5nnet125AveragePooling2DComponentE, __ZTVN5kaldi5nnet125RecurrentNnetTrainOptionsE, 
                       __ZTVN5kaldi5nnet126CompressedWordVecComponentE, __ZTVN5kaldi5nnet126ExponentialLinearComponentE, 
                       __ZTVN5kaldi5nnet126SentenceAveragingComponentE, __ZTVN5kaldi5nnet126SimplerSimpleRecurrentUnitE, 
                       __ZTVN5kaldi5nnet127Quantizable8BitComponentItfE, __ZTVN5kaldi5nnet127TemporalMaxPoolingComponentE, 
                       __ZTVN5kaldi5nnet128CompressedWordTransComponentE, __ZTVN5kaldi5nnet128Quantizable16BitComponentItfE, 
                       __ZTVN5kaldi5nnet128SupervisedMultiHeadAttentionE, __ZTVN5kaldi5nnet131AttentionBaseInferenceComponentE, 
                       __ZTVN5kaldi5nnet131BidirectionalRecurrentComponentE, __ZTVN5kaldi5nnet131RecurrentAttentionBaseComponentE, 
                       __ZTVN5kaldi5nnet132ScaledExponentialLinearComponentE, __ZTVN5kaldi5nnet137VectorwiseQuantizable8BitComponentItfE, 
                       __ZTVN5kaldi5nnet13MseE, __ZTVN5kaldi5nnet13RbmE, __ZTVN5kaldi5nnet14TanhE, 
                       __ZTVN5kaldi5nnet14XentE, __ZTVN5kaldi5nnet15KlHmmE, __ZTVN5kaldi5nnet16SpliceE, 
                       __ZTVN5kaldi5nnet17DropoutE, __ZTVN5kaldi5nnet17RbmBaseE, 
                       __ZTVN5kaldi5nnet17RescaleE, __ZTVN5kaldi5nnet17SigmoidE, 
                       __ZTVN5kaldi5nnet17SoftmaxE, __ZTVN5kaldi5nnet18AddShiftE, 
                       __ZTVN5kaldi5nnet18DespliceE, __ZTVN5kaldi5nnet19ComponentE, 
                       __ZTVN5kaldi5nnet19LayerNormE, __ZTVN5kaldi5nnet19MultiXentE, 
                       __ZTVN5kaldi5nnet19RecurrentE, __ZTVN5kaldi8EventMapE, __ZTVN7PCMFile6ReaderE, 
                       __ZTVN7PCMFile6WriterE, __ZThn104_NK5kaldi5nnet115AffineTransform27CopyVectorwiseQuantized8BitEv, 
                       __ZThn160_N5kaldi5nnet117ParallelComponentD0Ev, __ZThn160_N5kaldi5nnet117ParallelComponentD1Ev, 
                       __ZThn160_NK5kaldi5nnet131BidirectionalRecurrentComponent17CopyQuantized8BitEv, 
                       __ZThn168_N5kaldi5nnet117ParallelComponentD0Ev, __ZThn168_N5kaldi5nnet117ParallelComponentD1Ev, 
                       __ZThn168_NK5kaldi5nnet131BidirectionalRecurrentComponent18CopyQuantized16BitEv, 
                       __ZThn16_N5kaldi5nnet124GlobalRecurrentAttention15SetHistoryStateERKNS_12CuMatrixBaseIfEEi, 
                       __ZThn16_N5kaldi5nnet124GlobalRecurrentAttention15SetHistoryStateERKNS_12CuVectorBaseIfEEii, 
                       __ZThn16_N5kaldi5nnet124GlobalRecurrentAttention15SetTrainOptionsERKNS0_16NnetTrainOptionsE, 
                       __ZThn16_N5kaldi5nnet124GlobalRecurrentAttention17ResetHistoryStateERKNSt3__16vectorIbNS2_9allocatorIbEEEEPvi, 
                       __ZThn16_N5kaldi5nnet124GlobalRecurrentAttention17ResetHistoryStateEv, 
                       __ZThn16_N5kaldi5nnet124GlobalRecurrentAttention19SetInternalBoundaryERKNS_12CuVectorBaseIfEEi, 
                       __ZThn16_N5kaldi5nnet124GlobalRecurrentAttentionD0Ev, __ZThn16_N5kaldi5nnet124GlobalRecurrentAttentionD1Ev, 
                       __ZThn16_N5kaldi5nnet131RecurrentAttentionBaseComponentD0Ev, 
                       __ZThn16_N5kaldi5nnet131RecurrentAttentionBaseComponentD1Ev, 
                       __ZThn16_NK5kaldi5nnet124GlobalRecurrentAttention15GetHistoryStateEPNS_8CuMatrixIfEEi, 
                       __ZThn16_NK5kaldi5nnet124GlobalRecurrentAttention15GetHistoryStateEPNS_8CuVectorIfEEii, 
                       __ZThn16_NK5kaldi5nnet124GlobalRecurrentAttention16HistoryStateSizeEv, 
                       __ZThn16_NK5kaldi5nnet124GlobalRecurrentAttention5CheckEv, 
                       __ZThn40_N5kaldi5nnet125RecurrentNnetTrainOptionsD0Ev, __ZThn40_N5kaldi5nnet125RecurrentNnetTrainOptionsD1Ev, 
                       __ZThn88_N5kaldi5nnet116WordVecComponentD0Ev, __ZThn88_N5kaldi5nnet116WordVecComponentD1Ev, 
                       __ZThn88_N5kaldi5nnet120FofeWordVecComponentD0Ev, __ZThn88_N5kaldi5nnet120FofeWordVecComponentD1Ev, 
                       __ZThn88_NK5kaldi5nnet115AffineTransform17CopyQuantized8BitEv, 
                       __ZThn8_N5kaldi5nnet113SelfAttention13EnsureBuffersEv, __ZThn8_N5kaldi5nnet113SelfAttention15SetHistoryStateERKNS_12CuMatrixBaseIfEEi, 
                       __ZThn8_N5kaldi5nnet113SelfAttention15SetHistoryStateERKNS_12CuVectorBaseIfEEii, 
                       __ZThn8_N5kaldi5nnet113SelfAttention17ResetHistoryStateERKNSt3__16vectorIbNS2_9allocatorIbEEEEPvi, 
                       __ZThn8_N5kaldi5nnet113SelfAttention17ResetHistoryStateEv, 
                       __ZThn8_N5kaldi5nnet116AverageAttention13EnsureBuffersEv, 
                       __ZThn8_N5kaldi5nnet116AverageAttention15SetHistoryStateERKNS_12CuMatrixBaseIfEEi, 
                       __ZThn8_N5kaldi5nnet116AverageAttention15SetHistoryStateERKNS_12CuVectorBaseIfEEii, 
                       __ZThn8_N5kaldi5nnet116AverageAttention17ResetHistoryStateERKNSt3__16vectorIbNS2_9allocatorIbEEEEPvi, 
                       __ZThn8_N5kaldi5nnet116AverageAttention17ResetHistoryStateEv, 
                       __ZThn8_NK5kaldi5nnet113SelfAttention15GetHistoryStateEPNS_8CuMatrixIfEEi, 
                       __ZThn8_NK5kaldi5nnet113SelfAttention15GetHistoryStateEPNS_8CuVectorIfEEii, 
                       __ZThn8_NK5kaldi5nnet113SelfAttention16HistoryStateSizeEv, 
                       __ZThn8_NK5kaldi5nnet116AverageAttention15GetHistoryStateEPNS_8CuMatrixIfEEi, 
                       __ZThn8_NK5kaldi5nnet116AverageAttention15GetHistoryStateEPNS_8CuVectorIfEEii, 
                       __ZThn8_NK5kaldi5nnet116AverageAttention16HistoryStateSizeEv, 
                       __ZThn96_NK5kaldi5nnet115AffineTransform18CopyQuantized16BitEv, 
                       __ZTv0_n104_N5kaldi5nnet126SimplerSimpleRecurrentUnit13EnsureBuffersEv, 
                       __ZTv0_n104_NK5kaldi5nnet118GatedRecurrentUnit17InfoBackPropagateEv, 
                       __ZTv0_n104_NK5kaldi5nnet131BidirectionalRecurrentComponent17InfoBackPropagateEv, 
                       __ZTv0_n112_N5kaldi5nnet118GatedRecurrentUnit8InitDataERNSt3__113basic_istreamIcNS2_11char_traitsIcEEEERNS_19UniformRandomNumberE, 
                       __ZTv0_n112_N5kaldi5nnet123FixedAttentionComponent8InitDataERNSt3__113basic_istreamIcNS2_11char_traitsIcEEEERNS_19UniformRandomNumberE, 
                       __ZTv0_n112_N5kaldi5nnet124GlobalAttentionComponent8InitDataERNSt3__113basic_istreamIcNS2_11char_traitsIcEEEERNS_19UniformRandomNumberE, 
                       __ZTv0_n112_N5kaldi5nnet124GlobalRecurrentAttention8InitDataERNSt3__113basic_istreamIcNS2_11char_traitsIcEEEERNS_19UniformRandomNumberE, 
                       __ZTv0_n112_N5kaldi5nnet124MovingAttentionComponent8InitDataERNSt3__113basic_istreamIcNS2_11char_traitsIcEEEERNS_19UniformRandomNumberE, 
                       __ZTv0_n112_N5kaldi5nnet131BidirectionalRecurrentComponent8InitDataERNSt3__113basic_istreamIcNS2_11char_traitsIcEEEERNS_19UniformRandomNumberE, 
                       __ZTv0_n120_NK5kaldi5nnet113SelfAttention9WriteDataERNSt3__113basic_ostreamIcNS2_11char_traitsIcEEEEbb, 
                       __ZTv0_n120_NK5kaldi5nnet116AverageAttention9WriteDataERNSt3__113basic_ostreamIcNS2_11char_traitsIcEEEEbb, 
                       __ZTv0_n120_NK5kaldi5nnet118GatedRecurrentUnit9WriteDataERNSt3__113basic_ostreamIcNS2_11char_traitsIcEEEEbb, 
                       __ZTv0_n120_NK5kaldi5nnet118MultiHeadAttention9WriteDataERNSt3__113basic_ostreamIcNS2_11char_traitsIcEEEEbb, 
                       __ZTv0_n120_NK5kaldi5nnet118ScaledDotAttention9WriteDataERNSt3__113basic_ostreamIcNS2_11char_traitsIcEEEEbb, 
                       __ZTv0_n120_NK5kaldi5nnet123FixedAttentionComponent9WriteDataERNSt3__113basic_ostreamIcNS2_11char_traitsIcEEEEbb, 
                       __ZTv0_n120_NK5kaldi5nnet124GlobalAttentionComponent9WriteDataERNSt3__113basic_ostreamIcNS2_11char_traitsIcEEEEbb, 
                       __ZTv0_n120_NK5kaldi5nnet124GlobalRecurrentAttention9WriteDataERNSt3__113basic_ostreamIcNS2_11char_traitsIcEEEEbb, 
                       __ZTv0_n120_NK5kaldi5nnet124MovingAttentionComponent9WriteDataERNSt3__113basic_ostreamIcNS2_11char_traitsIcEEEEbb, 
                       __ZTv0_n120_NK5kaldi5nnet126SimplerSimpleRecurrentUnit9WriteDataERNSt3__113basic_ostreamIcNS2_11char_traitsIcEEEEbb, 
                       __ZTv0_n120_NK5kaldi5nnet128SupervisedMultiHeadAttention9WriteDataERNSt3__113basic_ostreamIcNS2_11char_traitsIcEEEEbb, 
                       __ZTv0_n120_NK5kaldi5nnet131BidirectionalRecurrentComponent9WriteDataERNSt3__113basic_ostreamIcNS2_11char_traitsIcEEEEbb, 
                       __ZTv0_n128_N5kaldi5nnet113SelfAttention12PropagateFncERKNS_12CuMatrixBaseIfEEPS3_i, 
                       __ZTv0_n128_N5kaldi5nnet116AverageAttention12PropagateFncERKNS_12CuMatrixBaseIfEEPS3_i, 
                       __ZTv0_n128_N5kaldi5nnet118GatedRecurrentUnit12PropagateFncERKNS_12CuMatrixBaseIfEEPS3_i, 
                       __ZTv0_n128_N5kaldi5nnet118ScaledDotAttention12PropagateFncERKNS_12CuMatrixBaseIfEEPS3_i, 
                       __ZTv0_n128_N5kaldi5nnet123FixedAttentionComponent12PropagateFncERKNS_12CuMatrixBaseIfEEPS3_i, 
                       __ZTv0_n128_N5kaldi5nnet124GlobalAttentionComponent12PropagateFncERKNS_12CuMatrixBaseIfEEPS3_i, 
                       __ZTv0_n128_N5kaldi5nnet124GlobalRecurrentAttention12PropagateFncERKNS_12CuMatrixBaseIfEEPS3_i, 
                       __ZTv0_n128_N5kaldi5nnet124MovingAttentionComponent12PropagateFncERKNS_12CuMatrixBaseIfEEPS3_i, 
                       __ZTv0_n128_N5kaldi5nnet126SimplerSimpleRecurrentUnit12PropagateFncERKNS_12CuMatrixBaseIfEEPS3_i, 
                       __ZTv0_n128_N5kaldi5nnet131BidirectionalRecurrentComponent12PropagateFncERKNS_12CuMatrixBaseIfEEPS3_i, 
                       __ZTv0_n136_N5kaldi5nnet118GatedRecurrentUnit12PropagateFncERKNS_12CuVectorBaseIfEEPS3_, 
                       __ZTv0_n144_N5kaldi5nnet118GatedRecurrentUnit16BackpropagateFncERKNS_12CuMatrixBaseIfEES5_S5_PS3_i, 
                       __ZTv0_n144_N5kaldi5nnet123FixedAttentionComponent16BackpropagateFncERKNS_12CuMatrixBaseIfEES5_S5_PS3_i, 
                       __ZTv0_n144_N5kaldi5nnet124GlobalAttentionComponent16BackpropagateFncERKNS_12CuMatrixBaseIfEES5_S5_PS3_i, 
                       __ZTv0_n144_N5kaldi5nnet124GlobalRecurrentAttention16BackpropagateFncERKNS_12CuMatrixBaseIfEES5_S5_PS3_i, 
                       __ZTv0_n144_N5kaldi5nnet124MovingAttentionComponent16BackpropagateFncERKNS_12CuMatrixBaseIfEES5_S5_PS3_i, 
                       __ZTv0_n144_N5kaldi5nnet131BidirectionalRecurrentComponent16BackpropagateFncERKNS_12CuMatrixBaseIfEES5_S5_PS3_i, 
                       __ZTv0_n176_N5kaldi5nnet113SelfAttention8ReadDataERNSt3__113basic_istreamIcNS2_11char_traitsIcEEEEbPKv, 
                       __ZTv0_n176_N5kaldi5nnet116AverageAttention8ReadDataERNSt3__113basic_istreamIcNS2_11char_traitsIcEEEEbPKv, 
                       __ZTv0_n176_N5kaldi5nnet118GatedRecurrentUnit8ReadDataERNSt3__113basic_istreamIcNS2_11char_traitsIcEEEEbPKv, 
                       __ZTv0_n176_N5kaldi5nnet118MultiHeadAttention8ReadDataERNSt3__113basic_istreamIcNS2_11char_traitsIcEEEEbPKv, 
                       __ZTv0_n176_N5kaldi5nnet118ScaledDotAttention8ReadDataERNSt3__113basic_istreamIcNS2_11char_traitsIcEEEEbPKv, 
                       __ZTv0_n176_N5kaldi5nnet123FixedAttentionComponent8ReadDataERNSt3__113basic_istreamIcNS2_11char_traitsIcEEEEbPKv, 
                       __ZTv0_n176_N5kaldi5nnet124GlobalAttentionComponent8ReadDataERNSt3__113basic_istreamIcNS2_11char_traitsIcEEEEbPKv, 
                       __ZTv0_n176_N5kaldi5nnet124GlobalRecurrentAttention8ReadDataERNSt3__113basic_istreamIcNS2_11char_traitsIcEEEEbPKv, 
                       __ZTv0_n176_N5kaldi5nnet124MovingAttentionComponent8ReadDataERNSt3__113basic_istreamIcNS2_11char_traitsIcEEEEbPKv, 
                       __ZTv0_n176_N5kaldi5nnet126SimplerSimpleRecurrentUnit8ReadDataERNSt3__113basic_istreamIcNS2_11char_traitsIcEEEEbPKv, 
                       __ZTv0_n176_N5kaldi5nnet128SupervisedMultiHeadAttention8ReadDataERNSt3__113basic_istreamIcNS2_11char_traitsIcEEEEbPKv, 
                       __ZTv0_n176_N5kaldi5nnet131BidirectionalRecurrentComponent8ReadDataERNSt3__113basic_istreamIcNS2_11char_traitsIcEEEEbPKv, 
                       __ZTv0_n184_NK5kaldi5nnet118GatedRecurrentUnit11WriteConfigERNSt3__113basic_ostreamIcNS2_11char_traitsIcEEEEb, 
                       __ZTv0_n184_NK5kaldi5nnet123FixedAttentionComponent11WriteConfigERNSt3__113basic_ostreamIcNS2_11char_traitsIcEEEEb, 
                       __ZTv0_n184_NK5kaldi5nnet124GlobalAttentionComponent11WriteConfigERNSt3__113basic_ostreamIcNS2_11char_traitsIcEEEEb, 
                       __ZTv0_n184_NK5kaldi5nnet124GlobalRecurrentAttention11WriteConfigERNSt3__113basic_ostreamIcNS2_11char_traitsIcEEEEb, 
                       __ZTv0_n184_NK5kaldi5nnet124MovingAttentionComponent11WriteConfigERNSt3__113basic_ostreamIcNS2_11char_traitsIcEEEEb, 
                       __ZTv0_n184_NK5kaldi5nnet131BidirectionalRecurrentComponent11WriteConfigERNSt3__113basic_ostreamIcNS2_11char_traitsIcEEEEb, 
                       __ZTv0_n192_NK5kaldi5nnet118GatedRecurrentUnit9NumParamsEv, 
                       __ZTv0_n192_NK5kaldi5nnet123FixedAttentionComponent9NumParamsEv, 
                       __ZTv0_n192_NK5kaldi5nnet124GlobalAttentionComponent9NumParamsEv, 
                       __ZTv0_n192_NK5kaldi5nnet124GlobalRecurrentAttention9NumParamsEv, 
                       __ZTv0_n192_NK5kaldi5nnet124MovingAttentionComponent9NumParamsEv, 
                       __ZTv0_n192_NK5kaldi5nnet131BidirectionalRecurrentComponent9NumParamsEv, 
                       __ZTv0_n200_NK5kaldi5nnet118GatedRecurrentUnit9GetParamsEPNS_6VectorIfEE, 
                       __ZTv0_n200_NK5kaldi5nnet123FixedAttentionComponent9GetParamsEPNS_6VectorIfEE, 
                       __ZTv0_n200_NK5kaldi5nnet124GlobalAttentionComponent9GetParamsEPNS_6VectorIfEE, 
                       __ZTv0_n200_NK5kaldi5nnet124GlobalRecurrentAttention9GetParamsEPNS_6VectorIfEE, 
                       __ZTv0_n200_NK5kaldi5nnet124MovingAttentionComponent9GetParamsEPNS_6VectorIfEE, 
                       __ZTv0_n200_NK5kaldi5nnet131BidirectionalRecurrentComponent9GetParamsEPNS_6VectorIfEE, 
                       __ZTv0_n208_N5kaldi5nnet118GatedRecurrentUnit9SetParamsERKNS_10VectorBaseIfEE, 
                       __ZTv0_n208_N5kaldi5nnet123FixedAttentionComponent9SetParamsERKNS_10VectorBaseIfEE, 
                       __ZTv0_n208_N5kaldi5nnet124GlobalAttentionComponent9SetParamsERKNS_10VectorBaseIfEE, 
                       __ZTv0_n208_N5kaldi5nnet124GlobalRecurrentAttention9SetParamsERKNS_10VectorBaseIfEE, 
                       __ZTv0_n208_N5kaldi5nnet124MovingAttentionComponent9SetParamsERKNS_10VectorBaseIfEE, 
                       __ZTv0_n208_N5kaldi5nnet131BidirectionalRecurrentComponent9SetParamsERKNS_10VectorBaseIfEE, 
                       __ZTv0_n224_NK5kaldi5nnet118GatedRecurrentUnit9SumParamsEv, 
                       __ZTv0_n224_NK5kaldi5nnet123FixedAttentionComponent9SumParamsEv, 
                       __ZTv0_n224_NK5kaldi5nnet124GlobalAttentionComponent9SumParamsEv, 
                       __ZTv0_n224_NK5kaldi5nnet124GlobalRecurrentAttention9SumParamsEv, 
                       __ZTv0_n224_NK5kaldi5nnet124MovingAttentionComponent9SumParamsEv, 
                       __ZTv0_n224_NK5kaldi5nnet131BidirectionalRecurrentComponent9SumParamsEv, 
                       __ZTv0_n232_N5kaldi5nnet118GatedRecurrentUnit13PerturbParamsEf, 
                       __ZTv0_n232_N5kaldi5nnet123FixedAttentionComponent13PerturbParamsEf, 
                       __ZTv0_n232_N5kaldi5nnet124GlobalAttentionComponent13PerturbParamsEf, 
                       __ZTv0_n232_N5kaldi5nnet124GlobalRecurrentAttention13PerturbParamsEf, 
                       __ZTv0_n232_N5kaldi5nnet124MovingAttentionComponent13PerturbParamsEf, 
                       __ZTv0_n232_N5kaldi5nnet131BidirectionalRecurrentComponent13PerturbParamsEf, 
                       __ZTv0_n240_NK5kaldi5nnet118GatedRecurrentUnit11GetGradientERKNS_8CuMatrixIfEES5_PNS_6VectorIfEE, 
                       __ZTv0_n240_NK5kaldi5nnet123FixedAttentionComponent11GetGradientERKNS_8CuMatrixIfEES5_PNS_6VectorIfEE, 
                       __ZTv0_n240_NK5kaldi5nnet124GlobalAttentionComponent11GetGradientERKNS_8CuMatrixIfEES5_PNS_6VectorIfEE, 
                       __ZTv0_n240_NK5kaldi5nnet124GlobalRecurrentAttention11GetGradientERKNS_8CuMatrixIfEES5_PNS_6VectorIfEE, 
                       __ZTv0_n240_NK5kaldi5nnet124MovingAttentionComponent11GetGradientERKNS_8CuMatrixIfEES5_PNS_6VectorIfEE, 
                       __ZTv0_n240_NK5kaldi5nnet131BidirectionalRecurrentComponent11GetGradientERKNS_8CuMatrixIfEES5_PNS_6VectorIfEE, 
                       __ZTv0_n248_N5kaldi5nnet118GatedRecurrentUnit14AccumGradientsERKNS_12CuMatrixBaseIfEES5_Pvi, 
                       __ZTv0_n248_N5kaldi5nnet123FixedAttentionComponent14AccumGradientsERKNS_12CuMatrixBaseIfEES5_Pvi, 
                       __ZTv0_n248_N5kaldi5nnet124GlobalAttentionComponent14AccumGradientsERKNS_12CuMatrixBaseIfEES5_Pvi, 
                       __ZTv0_n248_N5kaldi5nnet124GlobalRecurrentAttention14AccumGradientsERKNS_12CuMatrixBaseIfEES5_Pvi, 
                       __ZTv0_n248_N5kaldi5nnet124MovingAttentionComponent14AccumGradientsERKNS_12CuMatrixBaseIfEES5_Pvi, 
                       __ZTv0_n248_N5kaldi5nnet131BidirectionalRecurrentComponent14AccumGradientsERKNS_12CuMatrixBaseIfEES5_Pvi, 
                       __ZTv0_n24_N5kaldi5nnet117ParallelComponentD0Ev, __ZTv0_n24_N5kaldi5nnet117ParallelComponentD1Ev, 
                       __ZTv0_n24_N5kaldi5nnet122AttentionBaseComponentD0Ev, __ZTv0_n24_N5kaldi5nnet122AttentionBaseComponentD1Ev, 
                       __ZTv0_n24_N5kaldi5nnet122RecurrentBaseComponentD0Ev, __ZTv0_n24_N5kaldi5nnet122RecurrentBaseComponentD1Ev, 
                       __ZTv0_n24_N5kaldi5nnet123FixedAttentionComponentD0Ev, __ZTv0_n24_N5kaldi5nnet123FixedAttentionComponentD1Ev, 
                       __ZTv0_n24_N5kaldi5nnet124GlobalAttentionComponentD0Ev, __ZTv0_n24_N5kaldi5nnet124GlobalAttentionComponentD1Ev, 
                       __ZTv0_n24_N5kaldi5nnet124GlobalRecurrentAttentionD0Ev, __ZTv0_n24_N5kaldi5nnet124GlobalRecurrentAttentionD1Ev, 
                       __ZTv0_n24_N5kaldi5nnet124MovingAttentionComponentD0Ev, __ZTv0_n24_N5kaldi5nnet124MovingAttentionComponentD1Ev, 
                       __ZTv0_n24_N5kaldi5nnet131AttentionBaseInferenceComponentD0Ev, 
                       __ZTv0_n24_N5kaldi5nnet131AttentionBaseInferenceComponentD1Ev, 
                       __ZTv0_n24_N5kaldi5nnet131RecurrentAttentionBaseComponentD0Ev, 
                       __ZTv0_n24_N5kaldi5nnet131RecurrentAttentionBaseComponentD1Ev, 
                       __ZTv0_n24_N5kaldi5nnet19RecurrentD0Ev, __ZTv0_n24_N5kaldi5nnet19RecurrentD1Ev, 
                       __ZTv0_n256_N5kaldi5nnet118GatedRecurrentUnit24SetGradientNormalizationEfNS0_9Component16GradientNormTypeE, 
                       __ZTv0_n256_N5kaldi5nnet123FixedAttentionComponent24SetGradientNormalizationEfNS0_9Component16GradientNormTypeE, 
                       __ZTv0_n256_N5kaldi5nnet124GlobalAttentionComponent24SetGradientNormalizationEfNS0_9Component16GradientNormTypeE, 
                       __ZTv0_n256_N5kaldi5nnet124GlobalRecurrentAttention24SetGradientNormalizationEfNS0_9Component16GradientNormTypeE, 
                       __ZTv0_n256_N5kaldi5nnet124MovingAttentionComponent24SetGradientNormalizationEfNS0_9Component16GradientNormTypeE, 
                       __ZTv0_n256_N5kaldi5nnet131BidirectionalRecurrentComponent24SetGradientNormalizationEfNS0_9Component16GradientNormTypeE, 
                       __ZTv0_n264_N5kaldi5nnet118GatedRecurrentUnit18NormalizeGradientsEfi, 
                       __ZTv0_n264_N5kaldi5nnet123FixedAttentionComponent18NormalizeGradientsEfi, 
                       __ZTv0_n264_N5kaldi5nnet124GlobalAttentionComponent18NormalizeGradientsEfi, 
                       __ZTv0_n264_N5kaldi5nnet124GlobalRecurrentAttention18NormalizeGradientsEfi, 
                       __ZTv0_n264_N5kaldi5nnet124MovingAttentionComponent18NormalizeGradientsEfi, 
                       __ZTv0_n264_N5kaldi5nnet131BidirectionalRecurrentComponent18NormalizeGradientsEfi, 
                       __ZTv0_n272_N5kaldi5nnet113LstmComponentINS_12CuMatrixBaseIfEEE13UpdateWeightsEPvi, 
                       __ZTv0_n272_N5kaldi5nnet118GatedRecurrentUnit13UpdateWeightsEPvi, 
                       __ZTv0_n272_N5kaldi5nnet123FixedAttentionComponent13UpdateWeightsEPvi, 
                       __ZTv0_n272_N5kaldi5nnet124GlobalAttentionComponent13UpdateWeightsEPvi, 
                       __ZTv0_n272_N5kaldi5nnet124GlobalRecurrentAttention13UpdateWeightsEPvi, 
                       __ZTv0_n272_N5kaldi5nnet124MovingAttentionComponent13UpdateWeightsEPvi, 
                       __ZTv0_n272_N5kaldi5nnet131BidirectionalRecurrentComponent13UpdateWeightsEPvi, 
                       __ZTv0_n280_N5kaldi5nnet123FixedAttentionComponent15SetTrainOptionsERKNS0_16NnetTrainOptionsE, 
                       __ZTv0_n280_N5kaldi5nnet124GlobalAttentionComponent15SetTrainOptionsERKNS0_16NnetTrainOptionsE, 
                       __ZTv0_n280_N5kaldi5nnet124GlobalRecurrentAttention15SetTrainOptionsERKNS0_16NnetTrainOptionsE, 
                       __ZTv0_n280_N5kaldi5nnet124MovingAttentionComponent15SetTrainOptionsERKNS0_16NnetTrainOptionsE, 
                       __ZTv0_n280_N5kaldi5nnet131BidirectionalRecurrentComponent15SetTrainOptionsERKNS0_16NnetTrainOptionsE, 
                       __ZTv0_n32_NK5kaldi5nnet113SelfAttention17CopyQuantized8BitEv, 
                       __ZTv0_n32_NK5kaldi5nnet113SelfAttention18CopyQuantized16BitEv, 
                       __ZTv0_n32_NK5kaldi5nnet116AverageAttention17CopyQuantized8BitEv, 
                       __ZTv0_n32_NK5kaldi5nnet116AverageAttention18CopyQuantized16BitEv, 
                       __ZTv0_n32_NK5kaldi5nnet118ScaledDotAttention17CopyQuantized8BitEv, 
                       __ZTv0_n32_NK5kaldi5nnet118ScaledDotAttention18CopyQuantized16BitEv, 
                       __ZTv0_n32_NK5kaldi5nnet123FixedAttentionComponent4CopyEv, 
                       __ZTv0_n32_NK5kaldi5nnet124GlobalAttentionComponent4CopyEv, 
                       __ZTv0_n32_NK5kaldi5nnet124GlobalRecurrentAttention4CopyEv, 
                       __ZTv0_n32_NK5kaldi5nnet124MovingAttentionComponent4CopyEv, 
                       __ZTv0_n32_NK5kaldi5nnet126SimplerSimpleRecurrentUnit16HistoryStateSizeEv, 
                       __ZTv0_n32_NK5kaldi5nnet126SimplerSimpleRecurrentUnit17CopyQuantized8BitEv, 
                       __ZTv0_n32_NK5kaldi5nnet126SimplerSimpleRecurrentUnit18CopyQuantized16BitEv, 
                       __ZTv0_n40_N5kaldi5nnet126SimplerSimpleRecurrentUnit17ResetHistoryStateERKNSt3__16vectorIbNS2_9allocatorIbEEEEPvi, 
                       __ZTv0_n40_NK5kaldi5nnet113LstmComponentINS_12CuMatrixBaseIfEEE7GetTypeEv, 
                       __ZTv0_n40_NK5kaldi5nnet113LstmComponentINS_15QuantizedMatrixIaEEE7GetTypeEv, 
                       __ZTv0_n40_NK5kaldi5nnet113LstmComponentINS_15QuantizedMatrixIsEEE7GetTypeEv, 
                       __ZTv0_n40_NK5kaldi5nnet123FixedAttentionComponent7GetTypeEv, 
                       __ZTv0_n40_NK5kaldi5nnet124GlobalAttentionComponent7GetTypeEv, 
                       __ZTv0_n40_NK5kaldi5nnet124GlobalRecurrentAttention7GetTypeEv, 
                       __ZTv0_n40_NK5kaldi5nnet124MovingAttentionComponent7GetTypeEv, 
                       __ZTv0_n48_N5kaldi5nnet126SimplerSimpleRecurrentUnit17ResetHistoryStateEv, 
                       __ZTv0_n48_NK5kaldi5nnet113LstmComponentINS_12CuMatrixBaseIfEEE11IsUpdatableEv, 
                       __ZTv0_n48_NK5kaldi5nnet113LstmComponentINS_15QuantizedMatrixIaEEE11IsUpdatableEv, 
                       __ZTv0_n48_NK5kaldi5nnet113LstmComponentINS_15QuantizedMatrixIsEEE11IsUpdatableEv, 
                       __ZTv0_n56_NK5kaldi5nnet126SimplerSimpleRecurrentUnit15GetHistoryStateEPNS_8CuMatrixIfEEi, 
                       __ZTv0_n64_N5kaldi5nnet113LstmComponentINS_12CuMatrixBaseIfEEE21VectorizeWeightsCorrsEPNS_11CuSubVectorIfEES7_PNSt3__16vectorIS6_NS8_9allocatorIS6_EEEE, 
                       __ZTv0_n64_NK5kaldi5nnet126SimplerSimpleRecurrentUnit15GetHistoryStateEPNS_8CuVectorIfEEii, 
                       __ZTv0_n72_N5kaldi5nnet126SimplerSimpleRecurrentUnit15SetHistoryStateERKNS_12CuMatrixBaseIfEEi, 
                       __ZTv0_n80_N5kaldi5nnet126SimplerSimpleRecurrentUnit15SetHistoryStateERKNS_12CuVectorBaseIfEEii, 
                       __ZTv0_n80_NK5kaldi5nnet113SelfAttention4InfoEv, __ZTv0_n80_NK5kaldi5nnet116AverageAttention4InfoEv, 
                       __ZTv0_n80_NK5kaldi5nnet118GatedRecurrentUnit4InfoEv, __ZTv0_n80_NK5kaldi5nnet118MultiHeadAttention4InfoEv, 
                       __ZTv0_n80_NK5kaldi5nnet118ScaledDotAttention4InfoEv, __ZTv0_n80_NK5kaldi5nnet123FixedAttentionComponent4InfoEv, 
                       __ZTv0_n80_NK5kaldi5nnet124GlobalAttentionComponent4InfoEv, 
                       __ZTv0_n80_NK5kaldi5nnet124GlobalRecurrentAttention4InfoEv, 
                       __ZTv0_n80_NK5kaldi5nnet124MovingAttentionComponent4InfoEv, 
                       __ZTv0_n80_NK5kaldi5nnet126SimplerSimpleRecurrentUnit4InfoEv, 
                       __ZTv0_n80_NK5kaldi5nnet128SupervisedMultiHeadAttention4InfoEv, 
                       __ZTv0_n80_NK5kaldi5nnet131BidirectionalRecurrentComponent4InfoEv, 
                       __ZTv0_n88_NK5kaldi5nnet118GatedRecurrentUnit12InfoGradientEv, 
                       __ZTv0_n88_NK5kaldi5nnet123FixedAttentionComponent12InfoGradientEv, 
                       __ZTv0_n88_NK5kaldi5nnet124GlobalAttentionComponent12InfoGradientEv, 
                       __ZTv0_n88_NK5kaldi5nnet124GlobalRecurrentAttention12InfoGradientEv, 
                       __ZTv0_n88_NK5kaldi5nnet124MovingAttentionComponent12InfoGradientEv, 
                       __ZTv0_n88_NK5kaldi5nnet131BidirectionalRecurrentComponent12InfoGradientEv, 
                       __ZTv0_n96_NK5kaldi5nnet118GatedRecurrentUnit13InfoPropagateEv, 
                       __ZTv0_n96_NK5kaldi5nnet131BidirectionalRecurrentComponent13InfoPropagateEv, 
                       _render_callback ]
    objc-classes:    [ SiriTTSTrainer, SiriTTSTrainerAudioQualityAssessment, SiriTTSTrainerAudioQualityHelper, 
                       SiriTTSTrainerSession, SiriTTSTrainerTask, SiriTTSTrainingAsset ]
    weak-symbols:    [ __ZGVZN3fst10PairWeightINS_12StringWeightIiLNS_10StringTypeE0EEENS_12LogWeightTplIfEEE3OneEvE3one, 
                       __ZGVZN3fst10PairWeightINS_12StringWeightIiLNS_10StringTypeE0EEENS_12LogWeightTplIfEEE4ZeroEvE4zero, 
                       __ZGVZN3fst10PairWeightINS_12StringWeightIiLNS_10StringTypeE0EEENS_12LogWeightTplIfEEE8NoWeightEvE9no_weight, 
                       __ZGVZN3fst10PairWeightINS_12StringWeightIiLNS_10StringTypeE1EEENS_12LogWeightTplIfEEE3OneEvE3one, 
                       __ZGVZN3fst10PairWeightINS_12StringWeightIiLNS_10StringTypeE1EEENS_12LogWeightTplIfEEE4ZeroEvE4zero, 
                       __ZGVZN3fst10PairWeightINS_12StringWeightIiLNS_10StringTypeE1EEENS_12LogWeightTplIfEEE8NoWeightEvE9no_weight, 
                       __ZGVZN3fst10ReverseArcINS_6ArcTplINS_12LogWeightTplIfEEEEE4TypeEvE4type, 
                       __ZGVZN3fst10ReverseArcINS_6ArcTplINS_17TropicalWeightTplIfEEEEE4TypeEvE4type, 
                       __ZGVZN3fst10ReverseArcINS_9GallicArcINS_6ArcTplINS_12LogWeightTplIfEEEELNS_10GallicTypeE0EEEE4TypeEvE4type, 
                       __ZGVZN3fst12GallicWeightIiNS_12LogWeightTplIfEELNS_10GallicTypeE0EE3OneEvE3one, 
                       __ZGVZN3fst12GallicWeightIiNS_12LogWeightTplIfEELNS_10GallicTypeE0EE4TypeEvE4type, 
                       __ZGVZN3fst12GallicWeightIiNS_12LogWeightTplIfEELNS_10GallicTypeE0EE4ZeroEvE4zero, 
                       __ZGVZN3fst12GallicWeightIiNS_12LogWeightTplIfEELNS_10GallicTypeE0EE8NoWeightEvE9no_weight, 
                       __ZGVZN3fst12GallicWeightIiNS_12LogWeightTplIfEELNS_10GallicTypeE1EE3OneEvE3one, 
                       __ZGVZN3fst12GallicWeightIiNS_12LogWeightTplIfEELNS_10GallicTypeE1EE4TypeEvE4type, 
                       __ZGVZN3fst12GallicWeightIiNS_12LogWeightTplIfEELNS_10GallicTypeE1EE4ZeroEvE4zero, 
                       __ZGVZN3fst12GallicWeightIiNS_12LogWeightTplIfEELNS_10GallicTypeE1EE8NoWeightEvE9no_weight, 
                       __ZGVZN3fst12LogWeightTplIfE4TypeEvE4type, __ZGVZN3fst12StringWeightIiLNS_10StringTypeE0EE3OneEvE3one, 
                       __ZGVZN3fst12StringWeightIiLNS_10StringTypeE0EE4ZeroEvE4zero, 
                       __ZGVZN3fst12StringWeightIiLNS_10StringTypeE0EE8NoWeightEvE9no_weight, 
                       __ZGVZN3fst12StringWeightIiLNS_10StringTypeE1EE3OneEvE3one, 
                       __ZGVZN3fst12StringWeightIiLNS_10StringTypeE1EE4ZeroEvE4zero, 
                       __ZGVZN3fst12StringWeightIiLNS_10StringTypeE1EE8NoWeightEvE9no_weight, 
                       __ZGVZN3fst13ProductWeightINS_12StringWeightIiLNS_10StringTypeE0EEENS_12LogWeightTplIfEEE3OneEvE3one, 
                       __ZGVZN3fst13ProductWeightINS_12StringWeightIiLNS_10StringTypeE0EEENS_12LogWeightTplIfEEE4ZeroEvE4zero, 
                       __ZGVZN3fst13ProductWeightINS_12StringWeightIiLNS_10StringTypeE0EEENS_12LogWeightTplIfEEE8NoWeightEvE9no_weight, 
                       __ZGVZN3fst13ProductWeightINS_12StringWeightIiLNS_10StringTypeE1EEENS_12LogWeightTplIfEEE3OneEvE3one, 
                       __ZGVZN3fst13ProductWeightINS_12StringWeightIiLNS_10StringTypeE1EEENS_12LogWeightTplIfEEE4ZeroEvE4zero, 
                       __ZGVZN3fst13ProductWeightINS_12StringWeightIiLNS_10StringTypeE1EEENS_12LogWeightTplIfEEE8NoWeightEvE9no_weight, 
                       __ZGVZN3fst16LatticeWeightTplIfE4TypeEvE4type, __ZGVZN3fst17TropicalWeightTplIfE4TypeEvE4type, 
                       __ZGVZN3fst23CompactLatticeWeightTplINS_16LatticeWeightTplIfEEiE4TypeEvE4type, 
                       __ZGVZN3fst6ArcTplINS_12LogWeightTplIfEEE4TypeEvE4type, __ZGVZN3fst6ArcTplINS_16LatticeWeightTplIfEEE4TypeEvE4type, 
                       __ZGVZN3fst6ArcTplINS_17TropicalWeightTplIfEEE4TypeEvE4type, 
                       __ZGVZN3fst6ArcTplINS_23CompactLatticeWeightTplINS_16LatticeWeightTplIfEEiEEE4TypeEvE4type, 
                       __ZGVZN3fst9GallicArcINS_6ArcTplINS_12LogWeightTplIfEEEELNS_10GallicTypeE0EE4TypeEvE4type, 
                       __ZN13TrainingUtils26slice_espresso_buffer_dataIDF16_EEvP17espresso_buffer_tS2_mmmm, 
                       __ZN13TrainingUtils26slice_espresso_buffer_dataIfEEvP17espresso_buffer_tS2_mmmm, 
                       __ZN30WaveRNNDecoupledInferenceModel22var_transform_functionIDF16_EEPK17espresso_buffer_tS3_RKNSt3__112basic_stringIcNS4_11char_traitsIcEENS4_9allocatorIcEEEESC_, 
                       __ZN30WaveRNNDecoupledInferenceModel22var_transform_functionIfEEPK17espresso_buffer_tS3_RKNSt3__112basic_stringIcNS4_11char_traitsIcEENS4_9allocatorIcEEEESC_, 
                       __ZN3fst11ArcIteratorINS_9VectorFstINS_6ArcTplINS_12LogWeightTplIfEEEENS_11VectorStateIS5_NSt3__19allocatorIS5_EEEEEEE4NextEv, 
                       __ZN3fst11ArcIteratorINS_9VectorFstINS_6ArcTplINS_12LogWeightTplIfEEEENS_11VectorStateIS5_NSt3__19allocatorIS5_EEEEEEE4SeekEm, 
                       __ZN3fst11ArcIteratorINS_9VectorFstINS_6ArcTplINS_12LogWeightTplIfEEEENS_11VectorStateIS5_NSt3__19allocatorIS5_EEEEEEE5ResetEv, 
                       __ZN3fst11ArcIteratorINS_9VectorFstINS_6ArcTplINS_12LogWeightTplIfEEEENS_11VectorStateIS5_NSt3__19allocatorIS5_EEEEEEE6ReinitERKSB_i, 
                       __ZN3fst11ArcIteratorINS_9VectorFstINS_6ArcTplINS_12LogWeightTplIfEEEENS_11VectorStateIS5_NSt3__19allocatorIS5_EEEEEEE8SetFlagsEjj, 
                       __ZN3fst11ArcIteratorINS_9VectorFstINS_6ArcTplINS_12LogWeightTplIfEEEENS_11VectorStateIS5_NSt3__19allocatorIS5_EEEEEEEC1ERKSB_i, 
                       __ZN3fst11ArcIteratorINS_9VectorFstINS_6ArcTplINS_12LogWeightTplIfEEEENS_11VectorStateIS5_NSt3__19allocatorIS5_EEEEEEEC2ERKSB_i, 
                       __ZN3fst11ArcIteratorINS_9VectorFstINS_6ArcTplINS_17TropicalWeightTplIfEEEENS_11VectorStateIS5_NSt3__19allocatorIS5_EEEEEEE4NextEv, 
                       __ZN3fst11ArcIteratorINS_9VectorFstINS_6ArcTplINS_17TropicalWeightTplIfEEEENS_11VectorStateIS5_NSt3__19allocatorIS5_EEEEEEE4SeekEm, 
                       __ZN3fst11ArcIteratorINS_9VectorFstINS_6ArcTplINS_17TropicalWeightTplIfEEEENS_11VectorStateIS5_NSt3__19allocatorIS5_EEEEEEE5ResetEv, 
                       __ZN3fst11ArcIteratorINS_9VectorFstINS_6ArcTplINS_17TropicalWeightTplIfEEEENS_11VectorStateIS5_NSt3__19allocatorIS5_EEEEEEE6ReinitERKSB_i, 
                       __ZN3fst11ArcIteratorINS_9VectorFstINS_6ArcTplINS_17TropicalWeightTplIfEEEENS_11VectorStateIS5_NSt3__19allocatorIS5_EEEEEEE8SetFlagsEjj, 
                       __ZN3fst11ArcIteratorINS_9VectorFstINS_6ArcTplINS_17TropicalWeightTplIfEEEENS_11VectorStateIS5_NSt3__19allocatorIS5_EEEEEEEC1ERKSB_i, 
                       __ZN3fst11ArcIteratorINS_9VectorFstINS_6ArcTplINS_17TropicalWeightTplIfEEEENS_11VectorStateIS5_NSt3__19allocatorIS5_EEEEEEEC2ERKSB_i, 
                       __ZN3fst13StateIteratorINS_9VectorFstINS_6ArcTplINS_12LogWeightTplIfEEEENS_11VectorStateIS5_NSt3__19allocatorIS5_EEEEEEE4NextEv, 
                       __ZN3fst13StateIteratorINS_9VectorFstINS_6ArcTplINS_12LogWeightTplIfEEEENS_11VectorStateIS5_NSt3__19allocatorIS5_EEEEEEE5ResetEv, 
                       __ZN3fst13StateIteratorINS_9VectorFstINS_6ArcTplINS_12LogWeightTplIfEEEENS_11VectorStateIS5_NSt3__19allocatorIS5_EEEEEEEC1ERKSB_, 
                       __ZN3fst13StateIteratorINS_9VectorFstINS_6ArcTplINS_12LogWeightTplIfEEEENS_11VectorStateIS5_NSt3__19allocatorIS5_EEEEEEEC2ERKSB_, 
                       __ZN3fst13StateIteratorINS_9VectorFstINS_6ArcTplINS_17TropicalWeightTplIfEEEENS_11VectorStateIS5_NSt3__19allocatorIS5_EEEEEEE4NextEv, 
                       __ZN3fst13StateIteratorINS_9VectorFstINS_6ArcTplINS_17TropicalWeightTplIfEEEENS_11VectorStateIS5_NSt3__19allocatorIS5_EEEEEEE5ResetEv, 
                       __ZN3fst13StateIteratorINS_9VectorFstINS_6ArcTplINS_17TropicalWeightTplIfEEEENS_11VectorStateIS5_NSt3__19allocatorIS5_EEEEEEEC1ERKSB_, 
                       __ZN3fst13StateIteratorINS_9VectorFstINS_6ArcTplINS_17TropicalWeightTplIfEEEENS_11VectorStateIS5_NSt3__19allocatorIS5_EEEEEEEC2ERKSB_, 
                       __ZN3fst18CompactHashBiTableIiNS_24DefaultComposeStateTupleIiNS_18IntegerFilterStateIaEEEENS_11ComposeHashIS4_EENSt3__18equal_toIS4_EELNS_6HSTypeE1EE11kCurrentKeyE, 
                       __ZN3fst18MutableArcIteratorINS_9VectorFstINS_6ArcTplINS_12LogWeightTplIfEEEENS_11VectorStateIS5_NSt3__19allocatorIS5_EEEEEEE4NextEv, 
                       __ZN3fst18MutableArcIteratorINS_9VectorFstINS_6ArcTplINS_12LogWeightTplIfEEEENS_11VectorStateIS5_NSt3__19allocatorIS5_EEEEEEE4SeekEm, 
                       __ZN3fst18MutableArcIteratorINS_9VectorFstINS_6ArcTplINS_12LogWeightTplIfEEEENS_11VectorStateIS5_NSt3__19allocatorIS5_EEEEEEE5Next_Ev, 
                       __ZN3fst18MutableArcIteratorINS_9VectorFstINS_6ArcTplINS_12LogWeightTplIfEEEENS_11VectorStateIS5_NSt3__19allocatorIS5_EEEEEEE5ResetEv, 
                       __ZN3fst18MutableArcIteratorINS_9VectorFstINS_6ArcTplINS_12LogWeightTplIfEEEENS_11VectorStateIS5_NSt3__19allocatorIS5_EEEEEEE5Seek_Em, 
                       __ZN3fst18MutableArcIteratorINS_9VectorFstINS_6ArcTplINS_12LogWeightTplIfEEEENS_11VectorStateIS5_NSt3__19allocatorIS5_EEEEEEE6Reset_Ev, 
                       __ZN3fst18MutableArcIteratorINS_9VectorFstINS_6ArcTplINS_12LogWeightTplIfEEEENS_11VectorStateIS5_NSt3__19allocatorIS5_EEEEEEE8SetFlagsEjj, 
                       __ZN3fst18MutableArcIteratorINS_9VectorFstINS_6ArcTplINS_12LogWeightTplIfEEEENS_11VectorStateIS5_NSt3__19allocatorIS5_EEEEEEE8SetValueERKS5_, 
                       __ZN3fst18MutableArcIteratorINS_9VectorFstINS_6ArcTplINS_12LogWeightTplIfEEEENS_11VectorStateIS5_NSt3__19allocatorIS5_EEEEEEE9SetFlags_Ejj, 
                       __ZN3fst18MutableArcIteratorINS_9VectorFstINS_6ArcTplINS_12LogWeightTplIfEEEENS_11VectorStateIS5_NSt3__19allocatorIS5_EEEEEEE9SetValue_ERKS5_, 
                       __ZN3fst18MutableArcIteratorINS_9VectorFstINS_6ArcTplINS_12LogWeightTplIfEEEENS_11VectorStateIS5_NSt3__19allocatorIS5_EEEEEEEC1EPSB_i, 
                       __ZN3fst18MutableArcIteratorINS_9VectorFstINS_6ArcTplINS_12LogWeightTplIfEEEENS_11VectorStateIS5_NSt3__19allocatorIS5_EEEEEEEC2EPSB_i, 
                       __ZN3fst18MutableArcIteratorINS_9VectorFstINS_6ArcTplINS_17TropicalWeightTplIfEEEENS_11VectorStateIS5_NSt3__19allocatorIS5_EEEEEEE4NextEv, 
                       __ZN3fst18MutableArcIteratorINS_9VectorFstINS_6ArcTplINS_17TropicalWeightTplIfEEEENS_11VectorStateIS5_NSt3__19allocatorIS5_EEEEEEE4SeekEm, 
                       __ZN3fst18MutableArcIteratorINS_9VectorFstINS_6ArcTplINS_17TropicalWeightTplIfEEEENS_11VectorStateIS5_NSt3__19allocatorIS5_EEEEEEE5Next_Ev, 
                       __ZN3fst18MutableArcIteratorINS_9VectorFstINS_6ArcTplINS_17TropicalWeightTplIfEEEENS_11VectorStateIS5_NSt3__19allocatorIS5_EEEEEEE5ResetEv, 
                       __ZN3fst18MutableArcIteratorINS_9VectorFstINS_6ArcTplINS_17TropicalWeightTplIfEEEENS_11VectorStateIS5_NSt3__19allocatorIS5_EEEEEEE5Seek_Em, 
                       __ZN3fst18MutableArcIteratorINS_9VectorFstINS_6ArcTplINS_17TropicalWeightTplIfEEEENS_11VectorStateIS5_NSt3__19allocatorIS5_EEEEEEE6Reset_Ev, 
                       __ZN3fst18MutableArcIteratorINS_9VectorFstINS_6ArcTplINS_17TropicalWeightTplIfEEEENS_11VectorStateIS5_NSt3__19allocatorIS5_EEEEEEE8SetFlagsEjj, 
                       __ZN3fst18MutableArcIteratorINS_9VectorFstINS_6ArcTplINS_17TropicalWeightTplIfEEEENS_11VectorStateIS5_NSt3__19allocatorIS5_EEEEEEE8SetValueERKS5_, 
                       __ZN3fst18MutableArcIteratorINS_9VectorFstINS_6ArcTplINS_17TropicalWeightTplIfEEEENS_11VectorStateIS5_NSt3__19allocatorIS5_EEEEEEE9SetFlags_Ejj, 
                       __ZN3fst18MutableArcIteratorINS_9VectorFstINS_6ArcTplINS_17TropicalWeightTplIfEEEENS_11VectorStateIS5_NSt3__19allocatorIS5_EEEEEEE9SetValue_ERKS5_, 
                       __ZN3fst18MutableArcIteratorINS_9VectorFstINS_6ArcTplINS_17TropicalWeightTplIfEEEENS_11VectorStateIS5_NSt3__19allocatorIS5_EEEEEEEC1EPSB_i, 
                       __ZN3fst18MutableArcIteratorINS_9VectorFstINS_6ArcTplINS_17TropicalWeightTplIfEEEENS_11VectorStateIS5_NSt3__19allocatorIS5_EEEEEEEC2EPSB_i, 
                       __ZN3fst9VectorFstINS_6ArcTplINS_12LogWeightTplIfEEEENS_11VectorStateIS4_NSt3__19allocatorIS4_EEEEE11MutateCheckEv, 
                       __ZN3fst9VectorFstINS_6ArcTplINS_12LogWeightTplIfEEEENS_11VectorStateIS4_NSt3__19allocatorIS4_EEEEE11ReserveArcsEim, 
                       __ZN3fst9VectorFstINS_6ArcTplINS_12LogWeightTplIfEEEENS_11VectorStateIS4_NSt3__19allocatorIS4_EEEEE13ReserveStatesEi, 
                       __ZN3fst9VectorFstINS_6ArcTplINS_12LogWeightTplIfEEEENS_11VectorStateIS4_NSt3__19allocatorIS4_EEEEE22InitMutableArcIteratorEiPNS_22MutableArcIteratorDataIS4_EE, 
                       __ZN3fst9VectorFstINS_6ArcTplINS_12LogWeightTplIfEEEENS_11VectorStateIS4_NSt3__19allocatorIS4_EEEEE4ReadERKNS6_12basic_stringIcNS6_11char_traitsIcEENS7_IcEEEE, 
                       __ZN3fst9VectorFstINS_6ArcTplINS_12LogWeightTplIfEEEENS_11VectorStateIS4_NSt3__19allocatorIS4_EEEEE4ReadERNS6_13basic_istreamIcNS6_11char_traitsIcEEEERKNS_14FstReadOptionsE, 
                       __ZN3fst9VectorFstINS_6ArcTplINS_12LogWeightTplIfEEEENS_11VectorStateIS4_NSt3__19allocatorIS4_EEEEE7SetImplEPNS_13VectorFstImplIS9_EEb, 
                       __ZN3fst9VectorFstINS_6ArcTplINS_12LogWeightTplIfEEEENS_11VectorStateIS4_NSt3__19allocatorIS4_EEEEEC1EPNS_13VectorFstImplIS9_EE, 
                       __ZN3fst9VectorFstINS_6ArcTplINS_12LogWeightTplIfEEEENS_11VectorStateIS4_NSt3__19allocatorIS4_EEEEEC1ERKNS_3FstIS4_EE, 
                       __ZN3fst9VectorFstINS_6ArcTplINS_12LogWeightTplIfEEEENS_11VectorStateIS4_NSt3__19allocatorIS4_EEEEEC1ERKSA_, 
                       __ZN3fst9VectorFstINS_6ArcTplINS_12LogWeightTplIfEEEENS_11VectorStateIS4_NSt3__19allocatorIS4_EEEEEC1Ev, 
                       __ZN3fst9VectorFstINS_6ArcTplINS_12LogWeightTplIfEEEENS_11VectorStateIS4_NSt3__19allocatorIS4_EEEEEC2EPNS_13VectorFstImplIS9_EE, 
                       __ZN3fst9VectorFstINS_6ArcTplINS_12LogWeightTplIfEEEENS_11VectorStateIS4_NSt3__19allocatorIS4_EEEEEC2ERKNS_3FstIS4_EE, 
                       __ZN3fst9VectorFstINS_6ArcTplINS_12LogWeightTplIfEEEENS_11VectorStateIS4_NSt3__19allocatorIS4_EEEEEC2ERKSA_, 
                       __ZN3fst9VectorFstINS_6ArcTplINS_12LogWeightTplIfEEEENS_11VectorStateIS4_NSt3__19allocatorIS4_EEEEEC2Ev, 
                       __ZN3fst9VectorFstINS_6ArcTplINS_12LogWeightTplIfEEEENS_11VectorStateIS4_NSt3__19allocatorIS4_EEEEEaSERKNS_3FstIS4_EE, 
                       __ZN3fst9VectorFstINS_6ArcTplINS_12LogWeightTplIfEEEENS_11VectorStateIS4_NSt3__19allocatorIS4_EEEEEaSERKSA_, 
                       __ZN3fst9VectorFstINS_6ArcTplINS_17TropicalWeightTplIfEEEENS_11VectorStateIS4_NSt3__19allocatorIS4_EEEEE11MutateCheckEv, 
                       __ZN3fst9VectorFstINS_6ArcTplINS_17TropicalWeightTplIfEEEENS_11VectorStateIS4_NSt3__19allocatorIS4_EEEEE11ReserveArcsEim, 
                       __ZN3fst9VectorFstINS_6ArcTplINS_17TropicalWeightTplIfEEEENS_11VectorStateIS4_NSt3__19allocatorIS4_EEEEE13ReserveStatesEi, 
                       __ZN3fst9VectorFstINS_6ArcTplINS_17TropicalWeightTplIfEEEENS_11VectorStateIS4_NSt3__19allocatorIS4_EEEEE22InitMutableArcIteratorEiPNS_22MutableArcIteratorDataIS4_EE, 
                       __ZN3fst9VectorFstINS_6ArcTplINS_17TropicalWeightTplIfEEEENS_11VectorStateIS4_NSt3__19allocatorIS4_EEEEE4ReadERKNS6_12basic_stringIcNS6_11char_traitsIcEENS7_IcEEEE, 
                       __ZN3fst9VectorFstINS_6ArcTplINS_17TropicalWeightTplIfEEEENS_11VectorStateIS4_NSt3__19allocatorIS4_EEEEE4ReadERNS6_13basic_istreamIcNS6_11char_traitsIcEEEERKNS_14FstReadOptionsE, 
                       __ZN3fst9VectorFstINS_6ArcTplINS_17TropicalWeightTplIfEEEENS_11VectorStateIS4_NSt3__19allocatorIS4_EEEEE7SetImplEPNS_13VectorFstImplIS9_EEb, 
                       __ZN3fst9VectorFstINS_6ArcTplINS_17TropicalWeightTplIfEEEENS_11VectorStateIS4_NSt3__19allocatorIS4_EEEEEC1EPNS_13VectorFstImplIS9_EE, 
                       __ZN3fst9VectorFstINS_6ArcTplINS_17TropicalWeightTplIfEEEENS_11VectorStateIS4_NSt3__19allocatorIS4_EEEEEC1ERKNS_3FstIS4_EE, 
                       __ZN3fst9VectorFstINS_6ArcTplINS_17TropicalWeightTplIfEEEENS_11VectorStateIS4_NSt3__19allocatorIS4_EEEEEC1ERKSA_, 
                       __ZN3fst9VectorFstINS_6ArcTplINS_17TropicalWeightTplIfEEEENS_11VectorStateIS4_NSt3__19allocatorIS4_EEEEEC1Ev, 
                       __ZN3fst9VectorFstINS_6ArcTplINS_17TropicalWeightTplIfEEEENS_11VectorStateIS4_NSt3__19allocatorIS4_EEEEEC2EPNS_13VectorFstImplIS9_EE, 
                       __ZN3fst9VectorFstINS_6ArcTplINS_17TropicalWeightTplIfEEEENS_11VectorStateIS4_NSt3__19allocatorIS4_EEEEEC2ERKNS_3FstIS4_EE, 
                       __ZN3fst9VectorFstINS_6ArcTplINS_17TropicalWeightTplIfEEEENS_11VectorStateIS4_NSt3__19allocatorIS4_EEEEEC2ERKSA_, 
                       __ZN3fst9VectorFstINS_6ArcTplINS_17TropicalWeightTplIfEEEENS_11VectorStateIS4_NSt3__19allocatorIS4_EEEEEC2Ev, 
                       __ZN3fst9VectorFstINS_6ArcTplINS_17TropicalWeightTplIfEEEENS_11VectorStateIS4_NSt3__19allocatorIS4_EEEEEaSERKNS_3FstIS4_EE, 
                       __ZN3fst9VectorFstINS_6ArcTplINS_17TropicalWeightTplIfEEEENS_11VectorStateIS4_NSt3__19allocatorIS4_EEEEEaSERKSA_, 
                       __ZN5boost6detail8function15functor_managerINS_9algorithm6detail13token_finderFINS4_10is_any_ofFIcEEEEE6manageERKNS1_15function_bufferERSA_NS1_30functor_manager_operation_typeE, 
                       __ZN5boost6detail8function21function_obj_invoker2INS_9algorithm6detail13token_finderFINS4_10is_any_ofFIcEEEENS_14iterator_rangeINSt3__111__wrap_iterIPKcEEEESE_SE_E6invokeERNS1_15function_bufferESE_SE_, 
                       __ZN5boost6detail8function21function_obj_invoker2INS_9algorithm6detail13token_finderFINS4_10is_any_ofFIcEEEENS_14iterator_rangeINSt3__111__wrap_iterIPcEEEESD_SD_E6invokeERNS1_15function_bufferESD_SD_, 
                       __ZN5kaldi10ComplexFftIdEEvPNS_10VectorBaseIT_EEbPNS_6VectorIS2_EE, 
                       __ZN5kaldi10ComplexFftIfEEvPNS_10VectorBaseIT_EEbPNS_6VectorIS2_EE, 
                       __ZN5kaldi10ComputePcaIdEEvRKNS_10MatrixBaseIT_EEPS3_S6_bb, 
                       __ZN5kaldi10ComputePcaIfEEvRKNS_10MatrixBaseIT_EEPS3_S6_bb, 
                       __ZN5kaldi10CuSpMatrixIdE10CopyFromSpERKNS_8SpMatrixIdEE, 
                       __ZN5kaldi10CuSpMatrixIdE10CopyFromSpERKS1_, __ZN5kaldi10CuSpMatrixIdE11CopyFromMatERKNS_12CuMatrixBaseIdEENS_10SpCopyTypeE, 
                       __ZN5kaldi10CuSpMatrixIdE3MatEv, __ZN5kaldi10CuSpMatrixIdE5AddSpEdRKS1_, 
                       __ZN5kaldi10CuSpMatrixIdE6InvertEv, __ZN5kaldi10CuSpMatrixIdE6ResizeEiNS_16MatrixResizeTypeE, 
                       __ZN5kaldi10CuSpMatrixIdE7AddMat2EdRKNS_12CuMatrixBaseIdEENS_19MatrixTransposeTypeEd, 
                       __ZN5kaldi10CuSpMatrixIdE7AddVec2EdRKNS_12CuVectorBaseIdEE, 
                       __ZN5kaldi10CuSpMatrixIdEC1ERKNS_12CuMatrixBaseIdEENS_10SpCopyTypeE, 
                       __ZN5kaldi10CuSpMatrixIdEC1ERKNS_8SpMatrixIdEEPv, __ZN5kaldi10CuSpMatrixIdEC1ERKS1_, 
                       __ZN5kaldi10CuSpMatrixIdEC1EiNS_16MatrixResizeTypeEPv, __ZN5kaldi10CuSpMatrixIdEC1Ev, 
                       __ZN5kaldi10CuSpMatrixIdEC2ERKNS_12CuMatrixBaseIdEENS_10SpCopyTypeE, 
                       __ZN5kaldi10CuSpMatrixIdEC2ERKNS_8SpMatrixIdEEPv, __ZN5kaldi10CuSpMatrixIdEC2ERKS1_, 
                       __ZN5kaldi10CuSpMatrixIdEC2EiNS_16MatrixResizeTypeEPv, __ZN5kaldi10CuSpMatrixIdEC2Ev, 
                       __ZN5kaldi10CuSpMatrixIdED1Ev, __ZN5kaldi10CuSpMatrixIdED2Ev, 
                       __ZN5kaldi10CuSpMatrixIdEclEii, __ZN5kaldi10CuSpMatrixIfE10CopyFromSpERKNS_8SpMatrixIfEE, 
                       __ZN5kaldi10CuSpMatrixIfE10CopyFromSpERKS1_, __ZN5kaldi10CuSpMatrixIfE11CopyFromMatERKNS_12CuMatrixBaseIfEENS_10SpCopyTypeE, 
                       __ZN5kaldi10CuSpMatrixIfE3MatEv, __ZN5kaldi10CuSpMatrixIfE5AddSpEfRKS1_, 
                       __ZN5kaldi10CuSpMatrixIfE6InvertEv, __ZN5kaldi10CuSpMatrixIfE6ResizeEiNS_16MatrixResizeTypeE, 
                       __ZN5kaldi10CuSpMatrixIfE7AddMat2EfRKNS_12CuMatrixBaseIfEENS_19MatrixTransposeTypeEf, 
                       __ZN5kaldi10CuSpMatrixIfE7AddVec2EfRKNS_12CuVectorBaseIfEE, 
                       __ZN5kaldi10CuSpMatrixIfEC1ERKNS_12CuMatrixBaseIfEENS_10SpCopyTypeE, 
                       __ZN5kaldi10CuSpMatrixIfEC1ERKNS_8SpMatrixIfEEPv, __ZN5kaldi10CuSpMatrixIfEC1ERKS1_, 
                       __ZN5kaldi10CuSpMatrixIfEC1EiNS_16MatrixResizeTypeEPv, __ZN5kaldi10CuSpMatrixIfEC1Ev, 
                       __ZN5kaldi10CuSpMatrixIfEC2ERKNS_12CuMatrixBaseIfEENS_10SpCopyTypeE, 
                       __ZN5kaldi10CuSpMatrixIfEC2ERKNS_8SpMatrixIfEEPv, __ZN5kaldi10CuSpMatrixIfEC2ERKS1_, 
                       __ZN5kaldi10CuSpMatrixIfEC2EiNS_16MatrixResizeTypeEPv, __ZN5kaldi10CuSpMatrixIfEC2Ev, 
                       __ZN5kaldi10CuSpMatrixIfED1Ev, __ZN5kaldi10CuSpMatrixIfED2Ev, 
                       __ZN5kaldi10CuSpMatrixIfEclEii, __ZN5kaldi10MatrixBaseIdE10AddMatSmatEdRKS1_NS_19MatrixTransposeTypeES3_S4_d, 
                       __ZN5kaldi10MatrixBaseIdE10AddSmatMatEdRKS1_NS_19MatrixTransposeTypeES3_S4_d, 
                       __ZN5kaldi10MatrixBaseIdE10AddSpMatSpEdRKNS_8SpMatrixIdEERKS1_NS_19MatrixTransposeTypeES5_d, 
                       __ZN5kaldi10MatrixBaseIdE10ApplyFloorEd, __ZN5kaldi10MatrixBaseIdE10CopyFromSpIfEEvRKNS_8SpMatrixIT_EE, 
                       __ZN5kaldi10MatrixBaseIdE10CopyFromTpIdEEvRKNS_8TpMatrixIT_EENS_19MatrixTransposeTypeE, 
                       __ZN5kaldi10MatrixBaseIdE10CopyFromTpIfEEvRKNS_8TpMatrixIT_EENS_19MatrixTransposeTypeE, 
                       __ZN5kaldi10MatrixBaseIdE10GroupPnormERKS1_d, __ZN5kaldi10MatrixBaseIdE10MulColsVecERKNS_10VectorBaseIdEE, 
                       __ZN5kaldi10MatrixBaseIdE10MulRowsVecERKNS_10VectorBaseIdEE, 
                       __ZN5kaldi10MatrixBaseIdE10SymAddMat2EdRKS1_NS_19MatrixTransposeTypeEd, 
                       __ZN5kaldi10MatrixBaseIdE11ApplyPowAbsEdb, __ZN5kaldi10MatrixBaseIdE11CopyFromMatERKNS_16CompressedMatrixE, 
                       __ZN5kaldi10MatrixBaseIdE11CopyFromMatIdEEvRKNS0_IT_EENS_19MatrixTransposeTypeE, 
                       __ZN5kaldi10MatrixBaseIdE11CopyFromMatIfEEvRKNS0_IT_EENS_19MatrixTransposeTypeE, 
                       __ZN5kaldi10MatrixBaseIdE11DiffSigmoidERKS1_S3_, __ZN5kaldi10MatrixBaseIdE11DivElementsERKS1_, 
                       __ZN5kaldi10MatrixBaseIdE11LapackGesvdEPNS_10VectorBaseIdEEPS1_S5_, 
                       __ZN5kaldi10MatrixBaseIdE11MulElementsERKS1_, __ZN5kaldi10MatrixBaseIdE12AddMatEwpMatEdRKS1_NS_19MatrixTransposeTypeES3_S4_d, 
                       __ZN5kaldi10MatrixBaseIdE12AddMatMatMatEdRKS1_NS_19MatrixTransposeTypeES3_S4_S3_S4_d, 
                       __ZN5kaldi10MatrixBaseIdE12AddVecToColsIdEEvdRKNS_10VectorBaseIT_EE, 
                       __ZN5kaldi10MatrixBaseIdE12AddVecToColsIfEEvdRKNS_10VectorBaseIT_EE, 
                       __ZN5kaldi10MatrixBaseIdE12AddVecToRowsIdEEvdRKNS_10VectorBaseIT_EE, 
                       __ZN5kaldi10MatrixBaseIdE12AddVecToRowsIfEEvdRKNS_10VectorBaseIT_EE, 
                       __ZN5kaldi10MatrixBaseIdE12ApplyCeilingEd, __ZN5kaldi10MatrixBaseIdE12ApplyMaxNormEdb, 
                       __ZN5kaldi10MatrixBaseIdE12ApplySoftMaxEv, __ZN5kaldi10MatrixBaseIdE12InvertDoubleEPdS2_b, 
                       __ZN5kaldi10MatrixBaseIdE12SummarizeVecERKNS_16CompressedMatrixERKS1_, 
                       __ZN5kaldi10MatrixBaseIdE12SummarizeVecERKS1_S3_, __ZN5kaldi10MatrixBaseIdE13AddDiagVecMatEdRKNS_10VectorBaseIdEERKS1_NS_19MatrixTransposeTypeEd, 
                       __ZN5kaldi10MatrixBaseIdE13AddMatDiagVecEdRKS1_NS_19MatrixTransposeTypeERKNS_10VectorBaseIdEEd, 
                       __ZN5kaldi10MatrixBaseIdE13DiffSharedNceERKS1_RKNS_10VectorBaseIdEEd, 
                       __ZN5kaldi10MatrixBaseIdE13MaxoutForwardERKS1_, __ZN5kaldi10MatrixBaseIdE14AddIndexedRowsEdRKS1_S3_, 
                       __ZN5kaldi10MatrixBaseIdE14ApplyHeavisideEv, __ZN5kaldi10MatrixBaseIdE14ConcatenateVecERKNS_16CompressedMatrixERKS1_, 
                       __ZN5kaldi10MatrixBaseIdE14ConcatenateVecERKS1_S3_, __ZN5kaldi10MatrixBaseIdE14CopyColFromVecERKNS_10VectorBaseIdEEi, 
                       __ZN5kaldi10MatrixBaseIdE14CopyRowFromVecERKNS_10VectorBaseIdEEi, 
                       __ZN5kaldi10MatrixBaseIdE14DestructiveSvdEPNS_10VectorBaseIdEEPS1_S5_, 
                       __ZN5kaldi10MatrixBaseIdE14InvertElementsEv, __ZN5kaldi10MatrixBaseIdE14SetRandUniformEv, 
                       __ZN5kaldi10MatrixBaseIdE15AddMatMatDivMatERKS1_S3_S3_, __ZN5kaldi10MatrixBaseIdE15CopyColsFromVecERKNS_10VectorBaseIdEE, 
                       __ZN5kaldi10MatrixBaseIdE15CopyDiagFromVecERKNS_10VectorBaseIdEE, 
                       __ZN5kaldi10MatrixBaseIdE15CopyRowsFromVecERKNS_10VectorBaseIdEE, 
                       __ZN5kaldi10MatrixBaseIdE15CopyRowsFromVecERKNS_12CuVectorBaseIdEE, 
                       __ZN5kaldi10MatrixBaseIdE15CopyRowsFromVecIfEEvRKNS_10VectorBaseIT_EE, 
                       __ZN5kaldi10MatrixBaseIdE15GroupPnormDerivERKS1_S3_d, __ZN5kaldi10MatrixBaseIdE15MulRowsGroupMatERKS1_, 
                       __ZN5kaldi10MatrixBaseIdE16CopyIndexedItemsERKS1_PKiS5_mi, 
                       __ZN5kaldi10MatrixBaseIdE16CopyIndexedItemsERKS1_RKNSt3__16vectorIiNS4_9allocatorIiEEEESA_i, 
                       __ZN5kaldi10MatrixBaseIdE16CopyLowerToUpperEv, __ZN5kaldi10MatrixBaseIdE16CopySelectedRowsERKS1_RKNS_10VectorBaseIdEEb, 
                       __ZN5kaldi10MatrixBaseIdE16CopyUpperToLowerEv, __ZN5kaldi10MatrixBaseIdE16MaxoutDerivativeERKS1_S3_, 
                       __ZN5kaldi10MatrixBaseIdE16SymPosSemiDefEigEPNS_10VectorBaseIdEEPS1_d, 
                       __ZN5kaldi10MatrixBaseIdE17CopySelectedItemsERKS1_S3_di, __ZN5kaldi10MatrixBaseIdE17MaxPoolDerivativeERKS1_S3_iii, 
                       __ZN5kaldi10MatrixBaseIdE17OrthogonalizeRowsEv, __ZN5kaldi10MatrixBaseIdE19CopyIndexedElementsEdRKS1_S3_, 
                       __ZN5kaldi10MatrixBaseIdE3AddEd, __ZN5kaldi10MatrixBaseIdE3MaxERKS1_, 
                       __ZN5kaldi10MatrixBaseIdE3RowEi, __ZN5kaldi10MatrixBaseIdE3SetEd, 
                       __ZN5kaldi10MatrixBaseIdE4DataEv, __ZN5kaldi10MatrixBaseIdE4ReadERNSt3__113basic_istreamIcNS2_11char_traitsIcEEEEbb, 
                       __ZN5kaldi10MatrixBaseIdE4TanhERKS1_, __ZN5kaldi10MatrixBaseIdE5AddSpIdEEvdRKNS_8SpMatrixIT_EE, 
                       __ZN5kaldi10MatrixBaseIdE5AddSpIfEEvdRKNS_8SpMatrixIT_EE, 
                       __ZN5kaldi10MatrixBaseIdE5IndexEii, __ZN5kaldi10MatrixBaseIdE5PowerEd, 
                       __ZN5kaldi10MatrixBaseIdE5ScaleEd, __ZN5kaldi10MatrixBaseIdE6AddMatEdRKS1_NS_19MatrixTransposeTypeEd, 
                       __ZN5kaldi10MatrixBaseIdE6InvertEPdS2_b, __ZN5kaldi10MatrixBaseIdE7AddSpSpEdRKNS_8SpMatrixIdEES5_d, 
                       __ZN5kaldi10MatrixBaseIdE7AddTpTpEdRKNS_8TpMatrixIdEENS_19MatrixTransposeTypeES5_S6_d, 
                       __ZN5kaldi10MatrixBaseIdE7MaxPoolERKS1_PS1_iii, __ZN5kaldi10MatrixBaseIdE7RowDataEi, 
                       __ZN5kaldi10MatrixBaseIdE7SetUnitEv, __ZN5kaldi10MatrixBaseIdE7SetZeroEv, 
                       __ZN5kaldi10MatrixBaseIdE7SigmoidERKS1_, __ZN5kaldi10MatrixBaseIdE8AddMatSpEdRKS1_NS_19MatrixTransposeTypeERKNS_8SpMatrixIdEEd, 
                       __ZN5kaldi10MatrixBaseIdE8AddMatTpEdRKS1_NS_19MatrixTransposeTypeERKNS_8TpMatrixIdEES4_d, 
                       __ZN5kaldi10MatrixBaseIdE8AddSpMatEdRKNS_8SpMatrixIdEERKS1_NS_19MatrixTransposeTypeEd, 
                       __ZN5kaldi10MatrixBaseIdE8AddTpMatEdRKNS_8TpMatrixIdEENS_19MatrixTransposeTypeERKS1_S6_d, 
                       __ZN5kaldi10MatrixBaseIdE8ApplyExpEv, __ZN5kaldi10MatrixBaseIdE8ApplyLogEv, 
                       __ZN5kaldi10MatrixBaseIdE8ApplyPowEd, __ZN5kaldi10MatrixBaseIdE8CopyColsERKS1_RKNSt3__16vectorIiNS4_9allocatorIiEEEE, 
                       __ZN5kaldi10MatrixBaseIdE8CopyRowsERKS1_RKNSt3__16vectorIiNS4_9allocatorIiEEEE, 
                       __ZN5kaldi10MatrixBaseIdE8DiffTanhERKS1_S3_, __ZN5kaldi10MatrixBaseIdE8SetRandnEv, 
                       __ZN5kaldi10MatrixBaseIdE9AddMatMatEdRKS1_NS_19MatrixTransposeTypeES3_S4_d, 
                       __ZN5kaldi10MatrixBaseIdE9AddToDiagEd, __ZN5kaldi10MatrixBaseIdE9AddToDiagEdRKNS_10VectorBaseIdEEd, 
                       __ZN5kaldi10MatrixBaseIdE9AddVecVecIfEEvdRKNS_10VectorBaseIT_EES7_, 
                       __ZN5kaldi10MatrixBaseIdE9ApplyTanhEv, __ZN5kaldi10MatrixBaseIdE9LogSumMatERKS1_, 
                       __ZN5kaldi10MatrixBaseIdE9SetStrideEi, __ZN5kaldi10MatrixBaseIdE9SoftHingeERKS1_, 
                       __ZN5kaldi10MatrixBaseIdE9TransposeEv, __ZN5kaldi10MatrixBaseIdEC1EPdiii, 
                       __ZN5kaldi10MatrixBaseIdEC1Ev, __ZN5kaldi10MatrixBaseIdEC2EPdiii, 
                       __ZN5kaldi10MatrixBaseIdEC2Ev, __ZN5kaldi10MatrixBaseIdED1Ev, 
                       __ZN5kaldi10MatrixBaseIdED2Ev, __ZN5kaldi10MatrixBaseIdEclEii, 
                       __ZN5kaldi10MatrixBaseIfE10AddMatSmatEfRKS1_NS_19MatrixTransposeTypeES3_S4_f, 
                       __ZN5kaldi10MatrixBaseIfE10AddSmatMatEfRKS1_NS_19MatrixTransposeTypeES3_S4_f, 
                       __ZN5kaldi10MatrixBaseIfE10AddSpMatSpEfRKNS_8SpMatrixIfEERKS1_NS_19MatrixTransposeTypeES5_f, 
                       __ZN5kaldi10MatrixBaseIfE10ApplyFloorEf, __ZN5kaldi10MatrixBaseIfE10CopyFromSpIdEEvRKNS_8SpMatrixIT_EE, 
                       __ZN5kaldi10MatrixBaseIfE10CopyFromTpIdEEvRKNS_8TpMatrixIT_EENS_19MatrixTransposeTypeE, 
                       __ZN5kaldi10MatrixBaseIfE10CopyFromTpIfEEvRKNS_8TpMatrixIT_EENS_19MatrixTransposeTypeE, 
                       __ZN5kaldi10MatrixBaseIfE10GroupPnormERKS1_f, __ZN5kaldi10MatrixBaseIfE10MulColsVecERKNS_10VectorBaseIfEE, 
                       __ZN5kaldi10MatrixBaseIfE10MulRowsVecERKNS_10VectorBaseIfEE, 
                       __ZN5kaldi10MatrixBaseIfE10SymAddMat2EfRKS1_NS_19MatrixTransposeTypeEf, 
                       __ZN5kaldi10MatrixBaseIfE11ApplyPowAbsEfb, __ZN5kaldi10MatrixBaseIfE11CopyFromMatERKNS_16CompressedMatrixE, 
                       __ZN5kaldi10MatrixBaseIfE11CopyFromMatIaEEvRKNS_19QuantizedMatrixBaseIT_EENS_19MatrixTransposeTypeE, 
                       __ZN5kaldi10MatrixBaseIfE11CopyFromMatIdEEvRKNS0_IT_EENS_19MatrixTransposeTypeE, 
                       __ZN5kaldi10MatrixBaseIfE11CopyFromMatIfEEvRKNS0_IT_EENS_19MatrixTransposeTypeE, 
                       __ZN5kaldi10MatrixBaseIfE11CopyFromMatIsEEvRKNS_19QuantizedMatrixBaseIT_EENS_19MatrixTransposeTypeE, 
                       __ZN5kaldi10MatrixBaseIfE11DiffSigmoidERKS1_S3_, __ZN5kaldi10MatrixBaseIfE11DivElementsERKS1_, 
                       __ZN5kaldi10MatrixBaseIfE11LapackGesvdEPNS_10VectorBaseIfEEPS1_S5_, 
                       __ZN5kaldi10MatrixBaseIfE11MulElementsERKS1_, __ZN5kaldi10MatrixBaseIfE12AddMatEwpMatEfRKS1_NS_19MatrixTransposeTypeES3_S4_f, 
                       __ZN5kaldi10MatrixBaseIfE12AddMatMatMatEfRKS1_NS_19MatrixTransposeTypeES3_S4_S3_S4_f, 
                       __ZN5kaldi10MatrixBaseIfE12AddVecToColsIdEEvfRKNS_10VectorBaseIT_EE, 
                       __ZN5kaldi10MatrixBaseIfE12AddVecToColsIfEEvfRKNS_10VectorBaseIT_EE, 
                       __ZN5kaldi10MatrixBaseIfE12AddVecToRowsIdEEvfRKNS_10VectorBaseIT_EE, 
                       __ZN5kaldi10MatrixBaseIfE12AddVecToRowsIfEEvfRKNS_10VectorBaseIT_EE, 
                       __ZN5kaldi10MatrixBaseIfE12ApplyCeilingEf, __ZN5kaldi10MatrixBaseIfE12ApplyMaxNormEfb, 
                       __ZN5kaldi10MatrixBaseIfE12ApplySoftMaxEv, __ZN5kaldi10MatrixBaseIfE12InvertDoubleEPfS2_b, 
                       __ZN5kaldi10MatrixBaseIfE12SummarizeVecERKNS_16CompressedMatrixERKS1_, 
                       __ZN5kaldi10MatrixBaseIfE12SummarizeVecERKS1_S3_, __ZN5kaldi10MatrixBaseIfE13AddDiagVecMatEfRKNS_10VectorBaseIfEERKS1_NS_19MatrixTransposeTypeEf, 
                       __ZN5kaldi10MatrixBaseIfE13AddMatDiagVecEfRKS1_NS_19MatrixTransposeTypeERKNS_10VectorBaseIfEEf, 
                       __ZN5kaldi10MatrixBaseIfE13DiffSharedNceERKS1_RKNS_10VectorBaseIfEEf, 
                       __ZN5kaldi10MatrixBaseIfE13MaxoutForwardERKS1_, __ZN5kaldi10MatrixBaseIfE14AddIndexedRowsEfRKS1_S3_, 
                       __ZN5kaldi10MatrixBaseIfE14ApplyHeavisideEv, __ZN5kaldi10MatrixBaseIfE14ConcatenateVecERKNS_16CompressedMatrixERKS1_, 
                       __ZN5kaldi10MatrixBaseIfE14ConcatenateVecERKS1_S3_, __ZN5kaldi10MatrixBaseIfE14CopyColFromVecERKNS_10VectorBaseIfEEi, 
                       __ZN5kaldi10MatrixBaseIfE14CopyRowFromVecERKNS_10VectorBaseIfEEi, 
                       __ZN5kaldi10MatrixBaseIfE14DestructiveSvdEPNS_10VectorBaseIfEEPS1_S5_, 
                       __ZN5kaldi10MatrixBaseIfE14InvertElementsEv, __ZN5kaldi10MatrixBaseIfE14SetRandUniformEv, 
                       __ZN5kaldi10MatrixBaseIfE15AddMatMatDivMatERKS1_S3_S3_, __ZN5kaldi10MatrixBaseIfE15CopyColsFromVecERKNS_10VectorBaseIfEE, 
                       __ZN5kaldi10MatrixBaseIfE15CopyDiagFromVecERKNS_10VectorBaseIfEE, 
                       __ZN5kaldi10MatrixBaseIfE15CopyRowsFromVecERKNS_10VectorBaseIfEE, 
                       __ZN5kaldi10MatrixBaseIfE15CopyRowsFromVecERKNS_12CuVectorBaseIfEE, 
                       __ZN5kaldi10MatrixBaseIfE15CopyRowsFromVecIdEEvRKNS_10VectorBaseIT_EE, 
                       __ZN5kaldi10MatrixBaseIfE15GroupPnormDerivERKS1_S3_f, __ZN5kaldi10MatrixBaseIfE15MulRowsGroupMatERKS1_, 
                       __ZN5kaldi10MatrixBaseIfE16CopyIndexedItemsERKS1_PKiS5_mi, 
                       __ZN5kaldi10MatrixBaseIfE16CopyIndexedItemsERKS1_RKNSt3__16vectorIiNS4_9allocatorIiEEEESA_i, 
                       __ZN5kaldi10MatrixBaseIfE16CopyLowerToUpperEv, __ZN5kaldi10MatrixBaseIfE16CopySelectedRowsERKS1_RKNS_10VectorBaseIfEEb, 
                       __ZN5kaldi10MatrixBaseIfE16CopyUpperToLowerEv, __ZN5kaldi10MatrixBaseIfE16MaxoutDerivativeERKS1_S3_, 
                       __ZN5kaldi10MatrixBaseIfE16SymPosSemiDefEigEPNS_10VectorBaseIfEEPS1_f, 
                       __ZN5kaldi10MatrixBaseIfE17CopySelectedItemsERKS1_S3_fi, __ZN5kaldi10MatrixBaseIfE17MaxPoolDerivativeERKS1_S3_iii, 
                       __ZN5kaldi10MatrixBaseIfE17OrthogonalizeRowsEv, __ZN5kaldi10MatrixBaseIfE19CopyIndexedElementsEfRKS1_S3_, 
                       __ZN5kaldi10MatrixBaseIfE3AddEf, __ZN5kaldi10MatrixBaseIfE3MaxERKS1_, 
                       __ZN5kaldi10MatrixBaseIfE3RowEi, __ZN5kaldi10MatrixBaseIfE3SetEf, 
                       __ZN5kaldi10MatrixBaseIfE4DataEv, __ZN5kaldi10MatrixBaseIfE4ReadERNSt3__113basic_istreamIcNS2_11char_traitsIcEEEEbb, 
                       __ZN5kaldi10MatrixBaseIfE4TanhERKS1_, __ZN5kaldi10MatrixBaseIfE5AddSpIdEEvfRKNS_8SpMatrixIT_EE, 
                       __ZN5kaldi10MatrixBaseIfE5AddSpIfEEvfRKNS_8SpMatrixIT_EE, 
                       __ZN5kaldi10MatrixBaseIfE5IndexEii, __ZN5kaldi10MatrixBaseIfE5PowerEf, 
                       __ZN5kaldi10MatrixBaseIfE5ScaleEf, __ZN5kaldi10MatrixBaseIfE6AddMatEfRKS1_NS_19MatrixTransposeTypeEf, 
                       __ZN5kaldi10MatrixBaseIfE6InvertEPfS2_b, __ZN5kaldi10MatrixBaseIfE7AddSpSpEfRKNS_8SpMatrixIfEES5_f, 
                       __ZN5kaldi10MatrixBaseIfE7AddTpTpEfRKNS_8TpMatrixIfEENS_19MatrixTransposeTypeES5_S6_f, 
                       __ZN5kaldi10MatrixBaseIfE7MaxPoolERKS1_PS1_iii, __ZN5kaldi10MatrixBaseIfE7RowDataEi, 
                       __ZN5kaldi10MatrixBaseIfE7SetUnitEv, __ZN5kaldi10MatrixBaseIfE7SetZeroEv, 
                       __ZN5kaldi10MatrixBaseIfE7SigmoidERKS1_, __ZN5kaldi10MatrixBaseIfE8AddMatSpEfRKS1_NS_19MatrixTransposeTypeERKNS_8SpMatrixIfEEf, 
                       __ZN5kaldi10MatrixBaseIfE8AddMatTpEfRKS1_NS_19MatrixTransposeTypeERKNS_8TpMatrixIfEES4_f, 
                       __ZN5kaldi10MatrixBaseIfE8AddSpMatEfRKNS_8SpMatrixIfEERKS1_NS_19MatrixTransposeTypeEf, 
                       __ZN5kaldi10MatrixBaseIfE8AddTpMatEfRKNS_8TpMatrixIfEENS_19MatrixTransposeTypeERKS1_S6_f, 
                       __ZN5kaldi10MatrixBaseIfE8ApplyExpEv, __ZN5kaldi10MatrixBaseIfE8ApplyLogEv, 
                       __ZN5kaldi10MatrixBaseIfE8ApplyPowEf, __ZN5kaldi10MatrixBaseIfE8CopyColsERKS1_RKNSt3__16vectorIiNS4_9allocatorIiEEEE, 
                       __ZN5kaldi10MatrixBaseIfE8CopyRowsERKS1_RKNSt3__16vectorIiNS4_9allocatorIiEEEE, 
                       __ZN5kaldi10MatrixBaseIfE8DiffTanhERKS1_S3_, __ZN5kaldi10MatrixBaseIfE8SetRandnEv, 
                       __ZN5kaldi10MatrixBaseIfE9AddMatMatEfRKS1_NS_19MatrixTransposeTypeES3_S4_f, 
                       __ZN5kaldi10MatrixBaseIfE9AddMatMatIaEEvfRKS1_NS_19MatrixTransposeTypeERKNS_19QuantizedMatrixBaseIT_EES5_f, 
                       __ZN5kaldi10MatrixBaseIfE9AddMatMatIaEEvfRKS1_NS_19MatrixTransposeTypeERKNS_25VectorwiseQuantizedMatrixIT_EES5_f, 
                       __ZN5kaldi10MatrixBaseIfE9AddMatMatIsEEvfRKS1_NS_19MatrixTransposeTypeERKNS_19QuantizedMatrixBaseIT_EES5_f, 
                       __ZN5kaldi10MatrixBaseIfE9AddMatMatIsEEvfRKS1_NS_19MatrixTransposeTypeERKNS_25VectorwiseQuantizedMatrixIT_EES5_f, 
                       __ZN5kaldi10MatrixBaseIfE9AddToDiagEf, __ZN5kaldi10MatrixBaseIfE9AddToDiagEfRKNS_10VectorBaseIfEEf, 
                       __ZN5kaldi10MatrixBaseIfE9AddVecVecIdEEvfRKNS_10VectorBaseIT_EES7_, 
                       __ZN5kaldi10MatrixBaseIfE9ApplyTanhEv, __ZN5kaldi10MatrixBaseIfE9LogSumMatERKS1_, 
                       __ZN5kaldi10MatrixBaseIfE9SetStrideEi, __ZN5kaldi10MatrixBaseIfE9SoftHingeERKS1_, 
                       __ZN5kaldi10MatrixBaseIfE9TransposeEv, __ZN5kaldi10MatrixBaseIfEC1EPfiii, 
                       __ZN5kaldi10MatrixBaseIfEC1Ev, __ZN5kaldi10MatrixBaseIfEC2EPfiii, 
                       __ZN5kaldi10MatrixBaseIfEC2Ev, __ZN5kaldi10MatrixBaseIfED1Ev, 
                       __ZN5kaldi10MatrixBaseIfED2Ev, __ZN5kaldi10MatrixBaseIfEclEii, 
                       __ZN5kaldi10TraceSpMatIdEET_RKNS_8SpMatrixIS1_EERKNS_10MatrixBaseIS1_EE, 
                       __ZN5kaldi10TraceSpMatIfEET_RKNS_8SpMatrixIS1_EERKNS_10MatrixBaseIS1_EE, 
                       __ZN5kaldi10VectorBaseIdE10AddMatSvecEdRKNS_10MatrixBaseIdEENS_19MatrixTransposeTypeERKS1_d, 
                       __ZN5kaldi10VectorBaseIdE10ApplyFloorERKS1_, __ZN5kaldi10VectorBaseIdE10ApplyFloorEd, 
                       __ZN5kaldi10VectorBaseIdE11AddDiagMat2EdRKNS_10MatrixBaseIdEENS_19MatrixTransposeTypeEd, 
                       __ZN5kaldi10VectorBaseIdE11ApplyPowAbsEdb, __ZN5kaldi10VectorBaseIdE11CopyFromPtrEPKdi, 
                       __ZN5kaldi10VectorBaseIdE11CopyFromVecERKS1_, __ZN5kaldi10VectorBaseIdE11CopyFromVecIfEEvRKNS0_IT_EE, 
                       __ZN5kaldi10VectorBaseIdE11DiffSigmoidERKS1_S3_, __ZN5kaldi10VectorBaseIdE11DivElementsERKS1_, 
                       __ZN5kaldi10VectorBaseIdE11DivElementsIfEEvRKNS0_IT_EE, __ZN5kaldi10VectorBaseIdE11MulElementsERKS1_, 
                       __ZN5kaldi10VectorBaseIdE11MulElementsIfEEvRKNS0_IT_EE, __ZN5kaldi10VectorBaseIdE12AddColSumMatEdRKNS_10MatrixBaseIdEEd, 
                       __ZN5kaldi10VectorBaseIdE12AddRowSumMatEdRKNS_10MatrixBaseIdEEd, 
                       __ZN5kaldi10VectorBaseIdE12AddVecDivVecEdRKS1_S3_d, __ZN5kaldi10VectorBaseIdE12ApplyCeilingEd, 
                       __ZN5kaldi10VectorBaseIdE12ApplyMaxNormEd, __ZN5kaldi10VectorBaseIdE12ApplySoftMaxEv, 
                       __ZN5kaldi10VectorBaseIdE12BinarySearchERKS1_, __ZN5kaldi10VectorBaseIdE12ReplaceValueEdd, 
                       __ZN5kaldi10VectorBaseIdE13AddDiagMatMatEdRKNS_10MatrixBaseIdEENS_19MatrixTransposeTypeES5_S6_d, 
                       __ZN5kaldi10VectorBaseIdE13CopyRowFromSpIdEEvRKNS_8SpMatrixIT_EEi, 
                       __ZN5kaldi10VectorBaseIdE13CopyRowFromSpIfEEvRKNS_8SpMatrixIT_EEi, 
                       __ZN5kaldi10VectorBaseIdE14CopyColFromMatIdEEvRKNS_10MatrixBaseIT_EEi, 
                       __ZN5kaldi10VectorBaseIdE14CopyColFromMatIfEEvRKNS_10MatrixBaseIT_EEi, 
                       __ZN5kaldi10VectorBaseIdE14CopyDiagFromSpERKNS_8SpMatrixIdEE, 
                       __ZN5kaldi10VectorBaseIdE14CopyDiagFromTpERKNS_8TpMatrixIdEE, 
                       __ZN5kaldi10VectorBaseIdE14CopyFromPackedIdEEvRKNS_12PackedMatrixIT_EE, 
                       __ZN5kaldi10VectorBaseIdE14CopyFromPackedIfEEvRKNS_12PackedMatrixIT_EE, 
                       __ZN5kaldi10VectorBaseIdE14CopyRowFromMatERKNS_10MatrixBaseIdEEi, 
                       __ZN5kaldi10VectorBaseIdE14CopyRowFromMatIfEEvRKNS_10MatrixBaseIT_EEi, 
                       __ZN5kaldi10VectorBaseIdE14InvertElementsEv, __ZN5kaldi10VectorBaseIdE14SetRandUniformEv, 
                       __ZN5kaldi10VectorBaseIdE15CopyColsFromMatERKNS_10MatrixBaseIdEE, 
                       __ZN5kaldi10VectorBaseIdE15CopyDiagFromMatERKNS_10MatrixBaseIdEE, 
                       __ZN5kaldi10VectorBaseIdE15CopyRowsFromMatERKNS_10MatrixBaseIdEE, 
                       __ZN5kaldi10VectorBaseIdE15CopyRowsFromMatERKNS_12CuMatrixBaseIdEE, 
                       __ZN5kaldi10VectorBaseIdE15CopyRowsFromMatERKNS_16CompressedMatrixE, 
                       __ZN5kaldi10VectorBaseIdE15CopyRowsFromMatIfEEvRKNS_10MatrixBaseIT_EE, 
                       __ZN5kaldi10VectorBaseIdE15UnpackPackedAddEfRKi, __ZN5kaldi10VectorBaseIdE18CopyDiagFromPackedERKNS_12PackedMatrixIdEE, 
                       __ZN5kaldi10VectorBaseIdE18ReverseCopyFromVecERKS1_, __ZN5kaldi10VectorBaseIdE3AddEd, 
                       __ZN5kaldi10VectorBaseIdE3SetEd, __ZN5kaldi10VectorBaseIdE4DataEv, 
                       __ZN5kaldi10VectorBaseIdE4ReadERNSt3__113basic_istreamIcNS2_11char_traitsIcEEEEbb, 
                       __ZN5kaldi10VectorBaseIdE5MulTpERKNS_8TpMatrixIdEENS_19MatrixTransposeTypeE, 
                       __ZN5kaldi10VectorBaseIdE5RangeEii, __ZN5kaldi10VectorBaseIdE5ScaleEd, 
                       __ZN5kaldi10VectorBaseIdE5SolveERKNS_8TpMatrixIdEENS_19MatrixTransposeTypeE, 
                       __ZN5kaldi10VectorBaseIdE6AddVecIfEEvdRKNS0_IT_EE, __ZN5kaldi10VectorBaseIdE7AddVec2EdRKS1_, 
                       __ZN5kaldi10VectorBaseIdE7AddVec2IfEEvdRKNS0_IT_EE, __ZN5kaldi10VectorBaseIdE7SetZeroEv, 
                       __ZN5kaldi10VectorBaseIdE7SigmoidERKS1_, __ZN5kaldi10VectorBaseIdE8AddSpVecEdRKNS_8SpMatrixIdEERKS1_d, 
                       __ZN5kaldi10VectorBaseIdE8AddTpVecEdRKNS_8TpMatrixIdEENS_19MatrixTransposeTypeERKS1_d, 
                       __ZN5kaldi10VectorBaseIdE8DiffTanhERKS1_S3_, __ZN5kaldi10VectorBaseIdE8SetRandnEv, 
                       __ZN5kaldi10VectorBaseIdE9AddMatVecEdRKNS_10MatrixBaseIdEENS_19MatrixTransposeTypeERKS1_d, 
                       __ZN5kaldi10VectorBaseIdE9AddVecVecEdRKS1_S3_d, __ZN5kaldi10VectorBaseIdEC1Ev, 
                       __ZN5kaldi10VectorBaseIdEC2Ev, __ZN5kaldi10VectorBaseIdED1Ev, 
                       __ZN5kaldi10VectorBaseIdED2Ev, __ZN5kaldi10VectorBaseIdEclEi, 
                       __ZN5kaldi10VectorBaseIfE10AddMatSvecEfRKNS_10MatrixBaseIfEENS_19MatrixTransposeTypeERKS1_f, 
                       __ZN5kaldi10VectorBaseIfE10ApplyFloorERKS1_, __ZN5kaldi10VectorBaseIfE10ApplyFloorEf, 
                       __ZN5kaldi10VectorBaseIfE11AddDiagMat2EfRKNS_10MatrixBaseIfEENS_19MatrixTransposeTypeEf, 
                       __ZN5kaldi10VectorBaseIfE11ApplyPowAbsEfb, __ZN5kaldi10VectorBaseIfE11CopyFromPtrEPKfi, 
                       __ZN5kaldi10VectorBaseIfE11CopyFromVecERKS1_, __ZN5kaldi10VectorBaseIfE11CopyFromVecIdEEvRKNS0_IT_EE, 
                       __ZN5kaldi10VectorBaseIfE11DiffSigmoidERKS1_S3_, __ZN5kaldi10VectorBaseIfE11DivElementsERKS1_, 
                       __ZN5kaldi10VectorBaseIfE11DivElementsIdEEvRKNS0_IT_EE, __ZN5kaldi10VectorBaseIfE11MulElementsERKS1_, 
                       __ZN5kaldi10VectorBaseIfE11MulElementsIdEEvRKNS0_IT_EE, __ZN5kaldi10VectorBaseIfE12AddColSumMatEfRKNS_10MatrixBaseIfEEf, 
                       __ZN5kaldi10VectorBaseIfE12AddRowSumMatEfRKNS_10MatrixBaseIfEEf, 
                       __ZN5kaldi10VectorBaseIfE12AddVecDivVecEfRKS1_S3_f, __ZN5kaldi10VectorBaseIfE12ApplyCeilingEf, 
                       __ZN5kaldi10VectorBaseIfE12ApplyMaxNormEf, __ZN5kaldi10VectorBaseIfE12ApplySoftMaxEv, 
                       __ZN5kaldi10VectorBaseIfE12BinarySearchERKS1_, __ZN5kaldi10VectorBaseIfE12ReplaceValueEff, 
                       __ZN5kaldi10VectorBaseIfE13AddDiagMatMatEfRKNS_10MatrixBaseIfEENS_19MatrixTransposeTypeES5_S6_f, 
                       __ZN5kaldi10VectorBaseIfE13CopyRowFromSpIdEEvRKNS_8SpMatrixIT_EEi, 
                       __ZN5kaldi10VectorBaseIfE13CopyRowFromSpIfEEvRKNS_8SpMatrixIT_EEi, 
                       __ZN5kaldi10VectorBaseIfE14CopyColFromMatIdEEvRKNS_10MatrixBaseIT_EEi, 
                       __ZN5kaldi10VectorBaseIfE14CopyColFromMatIfEEvRKNS_10MatrixBaseIT_EEi, 
                       __ZN5kaldi10VectorBaseIfE14CopyDiagFromSpERKNS_8SpMatrixIfEE, 
                       __ZN5kaldi10VectorBaseIfE14CopyDiagFromTpERKNS_8TpMatrixIfEE, 
                       __ZN5kaldi10VectorBaseIfE14CopyFromPackedIdEEvRKNS_12PackedMatrixIT_EE, 
                       __ZN5kaldi10VectorBaseIfE14CopyFromPackedIfEEvRKNS_12PackedMatrixIT_EE, 
                       __ZN5kaldi10VectorBaseIfE14CopyRowFromMatERKNS_10MatrixBaseIfEEi, 
                       __ZN5kaldi10VectorBaseIfE14CopyRowFromMatIdEEvRKNS_10MatrixBaseIT_EEi, 
                       __ZN5kaldi10VectorBaseIfE14InvertElementsEv, __ZN5kaldi10VectorBaseIfE14SetRandUniformEv, 
                       __ZN5kaldi10VectorBaseIfE15CopyColsFromMatERKNS_10MatrixBaseIfEE, 
                       __ZN5kaldi10VectorBaseIfE15CopyDiagFromMatERKNS_10MatrixBaseIfEE, 
                       __ZN5kaldi10VectorBaseIfE15CopyRowsFromMatERKNS_10MatrixBaseIfEE, 
                       __ZN5kaldi10VectorBaseIfE15CopyRowsFromMatERKNS_12CuMatrixBaseIfEE, 
                       __ZN5kaldi10VectorBaseIfE15CopyRowsFromMatERKNS_16CompressedMatrixE, 
                       __ZN5kaldi10VectorBaseIfE15CopyRowsFromMatIaEEvRKNS_19QuantizedMatrixBaseIT_EE, 
                       __ZN5kaldi10VectorBaseIfE15CopyRowsFromMatIdEEvRKNS_10MatrixBaseIT_EE, 
                       __ZN5kaldi10VectorBaseIfE15CopyRowsFromMatIsEEvRKNS_19QuantizedMatrixBaseIT_EE, 
                       __ZN5kaldi10VectorBaseIfE15UnpackPackedAddEfRKi, __ZN5kaldi10VectorBaseIfE18CopyDiagFromPackedERKNS_12PackedMatrixIfEE, 
                       __ZN5kaldi10VectorBaseIfE18ReverseCopyFromVecERKS1_, __ZN5kaldi10VectorBaseIfE3AddEf, 
                       __ZN5kaldi10VectorBaseIfE3SetEf, __ZN5kaldi10VectorBaseIfE4DataEv, 
                       __ZN5kaldi10VectorBaseIfE4ReadERNSt3__113basic_istreamIcNS2_11char_traitsIcEEEEbb, 
                       __ZN5kaldi10VectorBaseIfE5MulTpERKNS_8TpMatrixIfEENS_19MatrixTransposeTypeE, 
                       __ZN5kaldi10VectorBaseIfE5RangeEii, __ZN5kaldi10VectorBaseIfE5ScaleEf, 
                       __ZN5kaldi10VectorBaseIfE5SolveERKNS_8TpMatrixIfEENS_19MatrixTransposeTypeE, 
                       __ZN5kaldi10VectorBaseIfE6AddVecIdEEvfRKNS0_IT_EE, __ZN5kaldi10VectorBaseIfE7AddVec2EfRKS1_, 
                       __ZN5kaldi10VectorBaseIfE7AddVec2IdEEvfRKNS0_IT_EE, __ZN5kaldi10VectorBaseIfE7SetZeroEv, 
                       __ZN5kaldi10VectorBaseIfE7SigmoidERKS1_, __ZN5kaldi10VectorBaseIfE8AddSpVecEfRKNS_8SpMatrixIfEERKS1_f, 
                       __ZN5kaldi10VectorBaseIfE8AddTpVecEfRKNS_8TpMatrixIfEENS_19MatrixTransposeTypeERKS1_f, 
                       __ZN5kaldi10VectorBaseIfE8DiffTanhERKS1_S3_, __ZN5kaldi10VectorBaseIfE8SetRandnEv, 
                       __ZN5kaldi10VectorBaseIfE9AddMatVecEfRKNS_10MatrixBaseIfEENS_19MatrixTransposeTypeERKS1_f, 
                       __ZN5kaldi10VectorBaseIfE9AddMatVecIaEEvfRKNS_10MatrixBaseIfEENS_19MatrixTransposeTypeERKNS_19QuantizedVectorBaseIT_EEf, 
                       __ZN5kaldi10VectorBaseIfE9AddMatVecIsEEvfRKNS_10MatrixBaseIfEENS_19MatrixTransposeTypeERKNS_19QuantizedVectorBaseIT_EEf, 
                       __ZN5kaldi10VectorBaseIfE9AddVecVecEfRKS1_S3_f, __ZN5kaldi10VectorBaseIfEC1Ev, 
                       __ZN5kaldi10VectorBaseIfEC2Ev, __ZN5kaldi10VectorBaseIfED1Ev, 
                       __ZN5kaldi10VectorBaseIfED2Ev, __ZN5kaldi10VectorBaseIfEclEi, 
                       __ZN5kaldi11CuWorkspace9GetMatrixIdEENS_11CuSubMatrixIT_EEiiNS_16MatrixResizeTypeEb, 
                       __ZN5kaldi11CuWorkspace9GetMatrixIfEENS_11CuSubMatrixIT_EEiiNS_16MatrixResizeTypeEb, 
                       __ZN5kaldi11CuWorkspace9GetVectorIdEENS_11CuSubVectorIT_EEiNS_16MatrixResizeTypeE, 
                       __ZN5kaldi11CuWorkspace9GetVectorIfEENS_11CuSubVectorIT_EEiNS_16MatrixResizeTypeE, 
                       __ZN5kaldi11TraceMatMatIdEET_RKNS_10MatrixBaseIS1_EES5_NS_19MatrixTransposeTypeE, 
                       __ZN5kaldi11TraceMatMatIdEET_RKNS_12CuMatrixBaseIS1_EES5_NS_19MatrixTransposeTypeE, 
                       __ZN5kaldi11TraceMatMatIfEET_RKNS_10MatrixBaseIS1_EES5_NS_19MatrixTransposeTypeE, 
                       __ZN5kaldi11TraceMatMatIfEET_RKNS_12CuMatrixBaseIS1_EES5_NS_19MatrixTransposeTypeE, 
                       __ZN5kaldi11WriteSphinxIdEEbRNSt3__113basic_ostreamIcNS1_11char_traitsIcEEEERKNS_10MatrixBaseIT_EE, 
                       __ZN5kaldi11WriteSphinxIfEEbRNSt3__113basic_ostreamIcNS1_11char_traitsIcEEEERKNS_10MatrixBaseIT_EE, 
                       __ZN5kaldi12CuMatrixBaseIdE10ApplyFloorEd, __ZN5kaldi12CuMatrixBaseIdE10CopyFromSpERKNS_10CuSpMatrixIdEE, 
                       __ZN5kaldi12CuMatrixBaseIdE10CopyFromTpIdEEvRKNS_10CuTpMatrixIT_EENS_19MatrixTransposeTypeE, 
                       __ZN5kaldi12CuMatrixBaseIdE10CopyFromTpIfEEvRKNS_10CuTpMatrixIT_EENS_19MatrixTransposeTypeE, 
                       __ZN5kaldi12CuMatrixBaseIdE10DivRowsVecERKNS_12CuVectorBaseIdEE, 
                       __ZN5kaldi12CuMatrixBaseIdE10GroupPnormERKS1_d, __ZN5kaldi12CuMatrixBaseIdE10MulColsVecERKNS_12CuVectorBaseIdEE, 
                       __ZN5kaldi12CuMatrixBaseIdE10MulRowsVecERKNS_12CuVectorBaseIdEE, 
                       __ZN5kaldi12CuMatrixBaseIdE10SymAddMat2EdRKS1_NS_19MatrixTransposeTypeEd, 
                       __ZN5kaldi12CuMatrixBaseIdE11AddElementsEdRKNSt3__16vectorI13MatrixElementIdENS2_9allocatorIS5_EEEE, 
                       __ZN5kaldi12CuMatrixBaseIdE11AddMatBlockEdRKS1_NS_19MatrixTransposeTypeERKNS_13CuBlockMatrixIdEES4_d, 
                       __ZN5kaldi12CuMatrixBaseIdE11ApplyPowAbsEdb, __ZN5kaldi12CuMatrixBaseIdE11CopyFromMatERKNS_10MatrixBaseIdEENS_19MatrixTransposeTypeE, 
                       __ZN5kaldi12CuMatrixBaseIdE11CopyFromMatIdEEvRKNS0_IT_EENS_19MatrixTransposeTypeE, 
                       __ZN5kaldi12CuMatrixBaseIdE11CopyFromMatIfEEvRKNS0_IT_EENS_19MatrixTransposeTypeE, 
                       __ZN5kaldi12CuMatrixBaseIdE11CopyFromMatIfEEvRKNS_10MatrixBaseIT_EENS_19MatrixTransposeTypeE, 
                       __ZN5kaldi12CuMatrixBaseIdE11DiffSigmoidERKS1_S3_, __ZN5kaldi12CuMatrixBaseIdE11DivElementsERKS1_, 
                       __ZN5kaldi12CuMatrixBaseIdE11MulElementsERKS1_, __ZN5kaldi12CuMatrixBaseIdE12AddMatEwpMatEdRKS1_NS_19MatrixTransposeTypeES3_S4_d, 
                       __ZN5kaldi12CuMatrixBaseIdE12AddVecToColsEdRKNS_12CuVectorBaseIdEEd, 
                       __ZN5kaldi12CuMatrixBaseIdE12AddVecToRowsEdRKNS_12CuVectorBaseIdEEd, 
                       __ZN5kaldi12CuMatrixBaseIdE12ApplyCeilingEd, __ZN5kaldi12CuMatrixBaseIdE12ApplyMaxNormEdb, 
                       __ZN5kaldi12CuMatrixBaseIdE12SummarizeVecERKNS_16CompressedMatrixERKS1_, 
                       __ZN5kaldi12CuMatrixBaseIdE12SummarizeVecERKS1_S3_, __ZN5kaldi12CuMatrixBaseIdE13AddDiagVecMatEdRNS_12CuVectorBaseIdEERKS1_NS_19MatrixTransposeTypeEd, 
                       __ZN5kaldi12CuMatrixBaseIdE13AddMatDiagVecEdRKS1_NS_19MatrixTransposeTypeERKNS_12CuVectorBaseIdEEd, 
                       __ZN5kaldi12CuMatrixBaseIdE13CopyFromBlockERKNS_13CuBlockMatrixIdEENS_19MatrixTransposeTypeE, 
                       __ZN5kaldi12CuMatrixBaseIdE13DiffSharedNceERKS1_RKNS_12CuVectorBaseIdEEd, 
                       __ZN5kaldi12CuMatrixBaseIdE13MaxoutForwardERKS1_, __ZN5kaldi12CuMatrixBaseIdE14AddIndexedRowsEdRKS1_S3_, 
                       __ZN5kaldi12CuMatrixBaseIdE14ApplyHeavisideEv, __ZN5kaldi12CuMatrixBaseIdE14ConcatenateVecERKNS_16CompressedMatrixERKS1_, 
                       __ZN5kaldi12CuMatrixBaseIdE14ConcatenateVecERKS1_S3_, __ZN5kaldi12CuMatrixBaseIdE14CopyColFromVecERKNS_12CuVectorBaseIdEEi, 
                       __ZN5kaldi12CuMatrixBaseIdE14InvertElementsEv, __ZN5kaldi12CuMatrixBaseIdE14SetRandUniformEv, 
                       __ZN5kaldi12CuMatrixBaseIdE15AddMatMatDivMatERKS1_S3_S3_, 
                       __ZN5kaldi12CuMatrixBaseIdE15AddMatMatMaskedEdRKS1_NS_19MatrixTransposeTypeES3_S4_S3_, 
                       __ZN5kaldi12CuMatrixBaseIdE15CopyRowsFromVecERKNS_10VectorBaseIdEE, 
                       __ZN5kaldi12CuMatrixBaseIdE15CopyRowsFromVecERKNS_12CuVectorBaseIdEE, 
                       __ZN5kaldi12CuMatrixBaseIdE15GroupPnormDerivERKS1_S3_d, __ZN5kaldi12CuMatrixBaseIdE15MulRowsGroupMatERKS1_, 
                       __ZN5kaldi12CuMatrixBaseIdE15SumColumnRangesERKS1_RKNS_7CuArrayI9Int32PairEE, 
                       __ZN5kaldi12CuMatrixBaseIdE15SymInvertPosDefEv, __ZN5kaldi12CuMatrixBaseIdE16CopyIndexedItemsERKS1_RKNS_7CuArrayIiEES7_i, 
                       __ZN5kaldi12CuMatrixBaseIdE16CopyLowerToUpperEv, __ZN5kaldi12CuMatrixBaseIdE16CopySelectedRowsERKS1_RKNS_12CuVectorBaseIdEEb, 
                       __ZN5kaldi12CuMatrixBaseIdE16CopyUpperToLowerEv, __ZN5kaldi12CuMatrixBaseIdE16MaxoutDerivativeERKS1_S3_, 
                       __ZN5kaldi12CuMatrixBaseIdE16SetZeroAboveDiagEv, __ZN5kaldi12CuMatrixBaseIdE17AddUniqueElementsEdRKNS_7CuArrayI13MatrixElementIdEEE, 
                       __ZN5kaldi12CuMatrixBaseIdE17CopySelectedItemsERKS1_S3_di, 
                       __ZN5kaldi12CuMatrixBaseIdE17MaxPoolDerivativeERKS1_S3_iii, 
                       __ZN5kaldi12CuMatrixBaseIdE18ApplySoftMaxPerRowERKS1_, __ZN5kaldi12CuMatrixBaseIdE19CopyIndexedElementsEdRKS1_S3_, 
                       __ZN5kaldi12CuMatrixBaseIdE3AddEd, __ZN5kaldi12CuMatrixBaseIdE3MatEv, 
                       __ZN5kaldi12CuMatrixBaseIdE3MaxERKS1_, __ZN5kaldi12CuMatrixBaseIdE3RowEi, 
                       __ZN5kaldi12CuMatrixBaseIdE3SetERKNS_7CuValueIdEE, __ZN5kaldi12CuMatrixBaseIdE3SetEd, 
                       __ZN5kaldi12CuMatrixBaseIdE4DataEv, __ZN5kaldi12CuMatrixBaseIdE4ReadERNSt3__113basic_istreamIcNS2_11char_traitsIcEEEEbPKv, 
                       __ZN5kaldi12CuMatrixBaseIdE4TanhERKS1_, __ZN5kaldi12CuMatrixBaseIdE5ScaleEd, 
                       __ZN5kaldi12CuMatrixBaseIdE6AddMatEdRKS1_NS_19MatrixTransposeTypeEd, 
                       __ZN5kaldi12CuMatrixBaseIdE7MaxPoolERKS1_PS1_iii, __ZN5kaldi12CuMatrixBaseIdE7RowDataEi, 
                       __ZN5kaldi12CuMatrixBaseIdE7SetZeroEv, __ZN5kaldi12CuMatrixBaseIdE7SigmoidERKS1_, 
                       __ZN5kaldi12CuMatrixBaseIdE8AddMatSpEdRKS1_NS_19MatrixTransposeTypeERKNS_10CuSpMatrixIdEEd, 
                       __ZN5kaldi12CuMatrixBaseIdE8AddMatTpEdRKS1_NS_19MatrixTransposeTypeERKNS_10CuTpMatrixIdEES4_d, 
                       __ZN5kaldi12CuMatrixBaseIdE8AddSpMatEdRKNS_10CuSpMatrixIdEERKS1_NS_19MatrixTransposeTypeEd, 
                       __ZN5kaldi12CuMatrixBaseIdE8AddTpMatEdRKNS_10CuTpMatrixIdEENS_19MatrixTransposeTypeERKS1_S6_d, 
                       __ZN5kaldi12CuMatrixBaseIdE8ApplyExpEv, __ZN5kaldi12CuMatrixBaseIdE8ApplyLogEv, 
                       __ZN5kaldi12CuMatrixBaseIdE8ApplyPowEd, __ZN5kaldi12CuMatrixBaseIdE8CholeskyEPS1_, 
                       __ZN5kaldi12CuMatrixBaseIdE8CopyColsERKS1_RKNS_7CuArrayIiEE, 
                       __ZN5kaldi12CuMatrixBaseIdE8CopyColsERKS1_RKNSt3__16vectorIiNS4_9allocatorIiEEEE, 
                       __ZN5kaldi12CuMatrixBaseIdE8CopyRowsERKS1_RKNSt3__16vectorIiNS4_9allocatorIiEEEE, 
                       __ZN5kaldi12CuMatrixBaseIdE8DiffReluERKS1_S3_, __ZN5kaldi12CuMatrixBaseIdE8DiffTanhERKS1_S3_, 
                       __ZN5kaldi12CuMatrixBaseIdE8DiffXentERKNS_7CuArrayIiEEPNS_8CuVectorIdEE, 
                       __ZN5kaldi12CuMatrixBaseIdE8SetRandnEv, __ZN5kaldi12CuMatrixBaseIdE9AddMatMatEdRKS1_NS_19MatrixTransposeTypeES3_S4_d, 
                       __ZN5kaldi12CuMatrixBaseIdE9AddToDiagEd, __ZN5kaldi12CuMatrixBaseIdE9AddToDiagEdRKNS_12CuVectorBaseIdEEd, 
                       __ZN5kaldi12CuMatrixBaseIdE9AddVecVecEdRKNS_12CuVectorBaseIdEES5_d, 
                       __ZN5kaldi12CuMatrixBaseIdE9ApplyTanhEv, __ZN5kaldi12CuMatrixBaseIdE9LogSumMatERKS1_, 
                       __ZN5kaldi12CuMatrixBaseIdE9SetStreamEPv, __ZN5kaldi12CuMatrixBaseIdE9SetStrideEi, 
                       __ZN5kaldi12CuMatrixBaseIdE9SoftHingeERKS1_, __ZN5kaldi12CuMatrixBaseIdEC1EPdiiiiPv, 
                       __ZN5kaldi12CuMatrixBaseIdEC1Ev, __ZN5kaldi12CuMatrixBaseIdEC2EPdiiiiPv, 
                       __ZN5kaldi12CuMatrixBaseIdEC2Ev, __ZN5kaldi12CuMatrixBaseIdED0Ev, 
                       __ZN5kaldi12CuMatrixBaseIdED1Ev, __ZN5kaldi12CuMatrixBaseIdED2Ev, 
                       __ZN5kaldi12CuMatrixBaseIdEclEii, __ZN5kaldi12CuMatrixBaseIfE10ApplyFloorEf, 
                       __ZN5kaldi12CuMatrixBaseIfE10CopyFromSpERKNS_10CuSpMatrixIfEE, 
                       __ZN5kaldi12CuMatrixBaseIfE10CopyFromTpIdEEvRKNS_10CuTpMatrixIT_EENS_19MatrixTransposeTypeE, 
                       __ZN5kaldi12CuMatrixBaseIfE10CopyFromTpIfEEvRKNS_10CuTpMatrixIT_EENS_19MatrixTransposeTypeE, 
                       __ZN5kaldi12CuMatrixBaseIfE10DivRowsVecERKNS_12CuVectorBaseIfEE, 
                       __ZN5kaldi12CuMatrixBaseIfE10GroupPnormERKS1_f, __ZN5kaldi12CuMatrixBaseIfE10MulColsVecERKNS_12CuVectorBaseIfEE, 
                       __ZN5kaldi12CuMatrixBaseIfE10MulRowsVecERKNS_12CuVectorBaseIfEE, 
                       __ZN5kaldi12CuMatrixBaseIfE10SymAddMat2EfRKS1_NS_19MatrixTransposeTypeEf, 
                       __ZN5kaldi12CuMatrixBaseIfE11AddElementsEfRKNSt3__16vectorI13MatrixElementIfENS2_9allocatorIS5_EEEE, 
                       __ZN5kaldi12CuMatrixBaseIfE11AddMatBlockEfRKS1_NS_19MatrixTransposeTypeERKNS_13CuBlockMatrixIfEES4_f, 
                       __ZN5kaldi12CuMatrixBaseIfE11ApplyPowAbsEfb, __ZN5kaldi12CuMatrixBaseIfE11CopyFromMatERKNS_10MatrixBaseIfEENS_19MatrixTransposeTypeE, 
                       __ZN5kaldi12CuMatrixBaseIfE11CopyFromMatIdEEvRKNS0_IT_EENS_19MatrixTransposeTypeE, 
                       __ZN5kaldi12CuMatrixBaseIfE11CopyFromMatIdEEvRKNS_10MatrixBaseIT_EENS_19MatrixTransposeTypeE, 
                       __ZN5kaldi12CuMatrixBaseIfE11CopyFromMatIfEEvRKNS0_IT_EENS_19MatrixTransposeTypeE, 
                       __ZN5kaldi12CuMatrixBaseIfE11DiffSigmoidERKS1_S3_, __ZN5kaldi12CuMatrixBaseIfE11DivElementsERKS1_, 
                       __ZN5kaldi12CuMatrixBaseIfE11MulElementsERKS1_, __ZN5kaldi12CuMatrixBaseIfE12AddMatEwpMatEfRKS1_NS_19MatrixTransposeTypeES3_S4_f, 
                       __ZN5kaldi12CuMatrixBaseIfE12AddVecToColsEfRKNS_12CuVectorBaseIfEEf, 
                       __ZN5kaldi12CuMatrixBaseIfE12AddVecToRowsEfRKNS_12CuVectorBaseIfEEf, 
                       __ZN5kaldi12CuMatrixBaseIfE12ApplyCeilingEf, __ZN5kaldi12CuMatrixBaseIfE12ApplyMaxNormEfb, 
                       __ZN5kaldi12CuMatrixBaseIfE12SummarizeVecERKNS_16CompressedMatrixERKS1_, 
                       __ZN5kaldi12CuMatrixBaseIfE12SummarizeVecERKS1_S3_, __ZN5kaldi12CuMatrixBaseIfE13AddDiagVecMatEfRNS_12CuVectorBaseIfEERKS1_NS_19MatrixTransposeTypeEf, 
                       __ZN5kaldi12CuMatrixBaseIfE13AddMatDiagVecEfRKS1_NS_19MatrixTransposeTypeERKNS_12CuVectorBaseIfEEf, 
                       __ZN5kaldi12CuMatrixBaseIfE13CopyFromBlockERKNS_13CuBlockMatrixIfEENS_19MatrixTransposeTypeE, 
                       __ZN5kaldi12CuMatrixBaseIfE13DiffSharedNceERKS1_RKNS_12CuVectorBaseIfEEf, 
                       __ZN5kaldi12CuMatrixBaseIfE13MaxoutForwardERKS1_, __ZN5kaldi12CuMatrixBaseIfE14AddIndexedRowsEfRKS1_S3_, 
                       __ZN5kaldi12CuMatrixBaseIfE14ApplyHeavisideEv, __ZN5kaldi12CuMatrixBaseIfE14ConcatenateVecERKNS_16CompressedMatrixERKS1_, 
                       __ZN5kaldi12CuMatrixBaseIfE14ConcatenateVecERKS1_S3_, __ZN5kaldi12CuMatrixBaseIfE14CopyColFromVecERKNS_12CuVectorBaseIfEEi, 
                       __ZN5kaldi12CuMatrixBaseIfE14InvertElementsEv, __ZN5kaldi12CuMatrixBaseIfE14SetRandUniformEv, 
                       __ZN5kaldi12CuMatrixBaseIfE15AddMatMatDivMatERKS1_S3_S3_, 
                       __ZN5kaldi12CuMatrixBaseIfE15AddMatMatMaskedEfRKS1_NS_19MatrixTransposeTypeES3_S4_S3_, 
                       __ZN5kaldi12CuMatrixBaseIfE15CopyRowsFromVecERKNS_10VectorBaseIfEE, 
                       __ZN5kaldi12CuMatrixBaseIfE15CopyRowsFromVecERKNS_12CuVectorBaseIfEE, 
                       __ZN5kaldi12CuMatrixBaseIfE15GroupPnormDerivERKS1_S3_f, __ZN5kaldi12CuMatrixBaseIfE15MulRowsGroupMatERKS1_, 
                       __ZN5kaldi12CuMatrixBaseIfE15SumColumnRangesERKS1_RKNS_7CuArrayI9Int32PairEE, 
                       __ZN5kaldi12CuMatrixBaseIfE15SymInvertPosDefEv, __ZN5kaldi12CuMatrixBaseIfE16CopyIndexedItemsERKS1_RKNS_7CuArrayIiEES7_i, 
                       __ZN5kaldi12CuMatrixBaseIfE16CopyLowerToUpperEv, __ZN5kaldi12CuMatrixBaseIfE16CopySelectedRowsERKS1_RKNS_12CuVectorBaseIfEEb, 
                       __ZN5kaldi12CuMatrixBaseIfE16CopyUpperToLowerEv, __ZN5kaldi12CuMatrixBaseIfE16MaxoutDerivativeERKS1_S3_, 
                       __ZN5kaldi12CuMatrixBaseIfE16SetZeroAboveDiagEv, __ZN5kaldi12CuMatrixBaseIfE17AddUniqueElementsEfRKNS_7CuArrayI13MatrixElementIfEEE, 
                       __ZN5kaldi12CuMatrixBaseIfE17CopySelectedItemsERKS1_S3_fi, 
                       __ZN5kaldi12CuMatrixBaseIfE17MaxPoolDerivativeERKS1_S3_iii, 
                       __ZN5kaldi12CuMatrixBaseIfE18ApplySoftMaxPerRowERKS1_, __ZN5kaldi12CuMatrixBaseIfE19CopyIndexedElementsEfRKS1_S3_, 
                       __ZN5kaldi12CuMatrixBaseIfE3AddEf, __ZN5kaldi12CuMatrixBaseIfE3MatEv, 
                       __ZN5kaldi12CuMatrixBaseIfE3MaxERKS1_, __ZN5kaldi12CuMatrixBaseIfE3RowEi, 
                       __ZN5kaldi12CuMatrixBaseIfE3SetERKNS_7CuValueIfEE, __ZN5kaldi12CuMatrixBaseIfE3SetEf, 
                       __ZN5kaldi12CuMatrixBaseIfE4DataEv, __ZN5kaldi12CuMatrixBaseIfE4ReadERNSt3__113basic_istreamIcNS2_11char_traitsIcEEEEbPKv, 
                       __ZN5kaldi12CuMatrixBaseIfE4TanhERKS1_, __ZN5kaldi12CuMatrixBaseIfE5ScaleEf, 
                       __ZN5kaldi12CuMatrixBaseIfE6AddMatEfRKS1_NS_19MatrixTransposeTypeEf, 
                       __ZN5kaldi12CuMatrixBaseIfE7MaxPoolERKS1_PS1_iii, __ZN5kaldi12CuMatrixBaseIfE7RowDataEi, 
                       __ZN5kaldi12CuMatrixBaseIfE7SetZeroEv, __ZN5kaldi12CuMatrixBaseIfE7SigmoidERKS1_, 
                       __ZN5kaldi12CuMatrixBaseIfE8AddMatSpEfRKS1_NS_19MatrixTransposeTypeERKNS_10CuSpMatrixIfEEf, 
                       __ZN5kaldi12CuMatrixBaseIfE8AddMatTpEfRKS1_NS_19MatrixTransposeTypeERKNS_10CuTpMatrixIfEES4_f, 
                       __ZN5kaldi12CuMatrixBaseIfE8AddSpMatEfRKNS_10CuSpMatrixIfEERKS1_NS_19MatrixTransposeTypeEf, 
                       __ZN5kaldi12CuMatrixBaseIfE8AddTpMatEfRKNS_10CuTpMatrixIfEENS_19MatrixTransposeTypeERKS1_S6_f, 
                       __ZN5kaldi12CuMatrixBaseIfE8ApplyExpEv, __ZN5kaldi12CuMatrixBaseIfE8ApplyLogEv, 
                       __ZN5kaldi12CuMatrixBaseIfE8ApplyPowEf, __ZN5kaldi12CuMatrixBaseIfE8CholeskyEPS1_, 
                       __ZN5kaldi12CuMatrixBaseIfE8CopyColsERKS1_RKNS_7CuArrayIiEE, 
                       __ZN5kaldi12CuMatrixBaseIfE8CopyColsERKS1_RKNSt3__16vectorIiNS4_9allocatorIiEEEE, 
                       __ZN5kaldi12CuMatrixBaseIfE8CopyRowsERKS1_RKNSt3__16vectorIiNS4_9allocatorIiEEEE, 
                       __ZN5kaldi12CuMatrixBaseIfE8DiffReluERKS1_S3_, __ZN5kaldi12CuMatrixBaseIfE8DiffTanhERKS1_S3_, 
                       __ZN5kaldi12CuMatrixBaseIfE8DiffXentERKNS_7CuArrayIiEEPNS_8CuVectorIfEE, 
                       __ZN5kaldi12CuMatrixBaseIfE8SetRandnEv, __ZN5kaldi12CuMatrixBaseIfE9AddMatMatEfRKS1_NS_19MatrixTransposeTypeES3_S4_f, 
                       __ZN5kaldi12CuMatrixBaseIfE9AddMatMatIaEEvfRKS1_NS_19MatrixTransposeTypeERKNS_19QuantizedMatrixBaseIT_EES5_f, 
                       __ZN5kaldi12CuMatrixBaseIfE9AddMatMatIaEEvfRKS1_NS_19MatrixTransposeTypeERKNS_25VectorwiseQuantizedMatrixIT_EES5_f, 
                       __ZN5kaldi12CuMatrixBaseIfE9AddMatMatIsEEvfRKS1_NS_19MatrixTransposeTypeERKNS_19QuantizedMatrixBaseIT_EES5_f, 
                       __ZN5kaldi12CuMatrixBaseIfE9AddMatMatIsEEvfRKS1_NS_19MatrixTransposeTypeERKNS_25VectorwiseQuantizedMatrixIT_EES5_f, 
                       __ZN5kaldi12CuMatrixBaseIfE9AddToDiagEf, __ZN5kaldi12CuMatrixBaseIfE9AddToDiagEfRKNS_12CuVectorBaseIfEEf, 
                       __ZN5kaldi12CuMatrixBaseIfE9AddVecVecEfRKNS_12CuVectorBaseIfEES5_f, 
                       __ZN5kaldi12CuMatrixBaseIfE9ApplyTanhEv, __ZN5kaldi12CuMatrixBaseIfE9LogSumMatERKS1_, 
                       __ZN5kaldi12CuMatrixBaseIfE9SetStreamEPv, __ZN5kaldi12CuMatrixBaseIfE9SetStrideEi, 
                       __ZN5kaldi12CuMatrixBaseIfE9SoftHingeERKS1_, __ZN5kaldi12CuMatrixBaseIfEC1EPfiiiiPv, 
                       __ZN5kaldi12CuMatrixBaseIfEC1Ev, __ZN5kaldi12CuMatrixBaseIfEC2EPfiiiiPv, 
                       __ZN5kaldi12CuMatrixBaseIfEC2Ev, __ZN5kaldi12CuMatrixBaseIfED0Ev, 
                       __ZN5kaldi12CuMatrixBaseIfED1Ev, __ZN5kaldi12CuMatrixBaseIfED2Ev, 
                       __ZN5kaldi12CuMatrixBaseIfEclEii, __ZN5kaldi12CuVectorBaseIdE10ApplyFloorEd, 
                       __ZN5kaldi12CuVectorBaseIdE11AddDiagMat2EdRKNS_12CuMatrixBaseIdEENS_19MatrixTransposeTypeEd, 
                       __ZN5kaldi12CuVectorBaseIdE11CopyFromVecERKS1_, __ZN5kaldi12CuVectorBaseIdE11CopyFromVecIdEEvRKNS_10VectorBaseIT_EE, 
                       __ZN5kaldi12CuVectorBaseIdE11CopyFromVecIfEEvRKNS_10VectorBaseIT_EE, 
                       __ZN5kaldi12CuVectorBaseIdE11DiffSigmoidERKS1_S3_, __ZN5kaldi12CuVectorBaseIdE11DivElementsERKS1_, 
                       __ZN5kaldi12CuVectorBaseIdE11MulElementsERKS1_, __ZN5kaldi12CuVectorBaseIdE12AddColSumMatEdRKNS_12CuMatrixBaseIdEEd, 
                       __ZN5kaldi12CuVectorBaseIdE12AddRowSumMatEdRKNS_12CuMatrixBaseIdEEd, 
                       __ZN5kaldi12CuVectorBaseIdE12ApplyCeilingEd, __ZN5kaldi12CuVectorBaseIdE12ApplyMaxNormEd, 
                       __ZN5kaldi12CuVectorBaseIdE12ApplySoftMaxEv, __ZN5kaldi12CuVectorBaseIdE12BinarySearchERKS1_, 
                       __ZN5kaldi12CuVectorBaseIdE12ReplaceValueEdd, __ZN5kaldi12CuVectorBaseIdE13AddDiagMatMatEdRKNS_12CuMatrixBaseIdEENS_19MatrixTransposeTypeES5_S6_d, 
                       __ZN5kaldi12CuVectorBaseIdE13ElementsEqualERKNS_7CuArrayIiEES5_, 
                       __ZN5kaldi12CuVectorBaseIdE14CopyColFromMatERKNS_12CuMatrixBaseIdEEi, 
                       __ZN5kaldi12CuVectorBaseIdE14InvertElementsEv, __ZN5kaldi12CuVectorBaseIdE14SetRandUniformEv, 
                       __ZN5kaldi12CuVectorBaseIdE15CopyDiagFromMatERKNS_8CuMatrixIdEE, 
                       __ZN5kaldi12CuVectorBaseIdE15CopyRowsFromMatERKNS_10MatrixBaseIdEE, 
                       __ZN5kaldi12CuVectorBaseIdE15CopyRowsFromMatERKNS_12CuMatrixBaseIdEE, 
                       __ZN5kaldi12CuVectorBaseIdE15UnpackPackedAddEifiRKNS_7CuArrayIiEEfRKS1_, 
                       __ZN5kaldi12CuVectorBaseIdE18CopyDiagFromPackedERKNS_14CuPackedMatrixIdEE, 
                       __ZN5kaldi12CuVectorBaseIdE18ReverseCopyFromVecERKS1_, __ZN5kaldi12CuVectorBaseIdE3AddEd, 
                       __ZN5kaldi12CuVectorBaseIdE3SetERKNS_7CuValueIdEE, __ZN5kaldi12CuVectorBaseIdE3SetEd, 
                       __ZN5kaldi12CuVectorBaseIdE3VecEv, __ZN5kaldi12CuVectorBaseIdE4DataEv, 
                       __ZN5kaldi12CuVectorBaseIdE4NormEd, __ZN5kaldi12CuVectorBaseIdE4ReadERNSt3__113basic_istreamIcNS2_11char_traitsIcEEEEb, 
                       __ZN5kaldi12CuVectorBaseIdE4TanhERKS1_, __ZN5kaldi12CuVectorBaseIdE5MulTpERKNS_10CuTpMatrixIdEENS_19MatrixTransposeTypeE, 
                       __ZN5kaldi12CuVectorBaseIdE5RangeEii, __ZN5kaldi12CuVectorBaseIdE5ScaleEd, 
                       __ZN5kaldi12CuVectorBaseIdE6AddVecERKNS_7CuValueIdEERKS1_d, 
                       __ZN5kaldi12CuVectorBaseIdE6AddVecEdRKS1_d, __ZN5kaldi12CuVectorBaseIdE6AddVecIfEEvdRKNS0_IT_EEd, 
                       __ZN5kaldi12CuVectorBaseIdE7SetZeroEv, __ZN5kaldi12CuVectorBaseIdE7SigmoidERKS1_, 
                       __ZN5kaldi12CuVectorBaseIdE8AddSpVecEdRKNS_10CuSpMatrixIdEERKS1_d, 
                       __ZN5kaldi12CuVectorBaseIdE8AddTpVecEdRKNS_10CuTpMatrixIdEENS_19MatrixTransposeTypeERKS1_d, 
                       __ZN5kaldi12CuVectorBaseIdE8ApplyExpEv, __ZN5kaldi12CuVectorBaseIdE8ApplyLogEv, 
                       __ZN5kaldi12CuVectorBaseIdE8ApplyPowEd, __ZN5kaldi12CuVectorBaseIdE8DiffTanhERKS1_S3_, 
                       __ZN5kaldi12CuVectorBaseIdE8SetRandnEv, __ZN5kaldi12CuVectorBaseIdE9AddMatVecEdRKNS_12CuMatrixBaseIdEENS_19MatrixTransposeTypeERKS1_d, 
                       __ZN5kaldi12CuVectorBaseIdE9AddVecVecEdRKS1_S3_d, __ZN5kaldi12CuVectorBaseIdE9ApplyTanhEv, 
                       __ZN5kaldi12CuVectorBaseIdE9SetStreamEPv, __ZN5kaldi12CuVectorBaseIdEC1EPdiiPv, 
                       __ZN5kaldi12CuVectorBaseIdEC1Ev, __ZN5kaldi12CuVectorBaseIdEC2EPdiiPv, 
                       __ZN5kaldi12CuVectorBaseIdEC2Ev, __ZN5kaldi12CuVectorBaseIdED0Ev, 
                       __ZN5kaldi12CuVectorBaseIdED1Ev, __ZN5kaldi12CuVectorBaseIdED2Ev, 
                       __ZN5kaldi12CuVectorBaseIdEclEi, __ZN5kaldi12CuVectorBaseIfE10ApplyFloorEf, 
                       __ZN5kaldi12CuVectorBaseIfE11AddDiagMat2EfRKNS_12CuMatrixBaseIfEENS_19MatrixTransposeTypeEf, 
                       __ZN5kaldi12CuVectorBaseIfE11CopyFromVecERKS1_, __ZN5kaldi12CuVectorBaseIfE11CopyFromVecIdEEvRKNS_10VectorBaseIT_EE, 
                       __ZN5kaldi12CuVectorBaseIfE11CopyFromVecIfEEvRKNS_10VectorBaseIT_EE, 
                       __ZN5kaldi12CuVectorBaseIfE11DiffSigmoidERKS1_S3_, __ZN5kaldi12CuVectorBaseIfE11DivElementsERKS1_, 
                       __ZN5kaldi12CuVectorBaseIfE11MulElementsERKS1_, __ZN5kaldi12CuVectorBaseIfE12AddColSumMatEfRKNS_12CuMatrixBaseIfEEf, 
                       __ZN5kaldi12CuVectorBaseIfE12AddRowSumMatEfRKNS_12CuMatrixBaseIfEEf, 
                       __ZN5kaldi12CuVectorBaseIfE12ApplyCeilingEf, __ZN5kaldi12CuVectorBaseIfE12ApplyMaxNormEf, 
                       __ZN5kaldi12CuVectorBaseIfE12ApplySoftMaxEv, __ZN5kaldi12CuVectorBaseIfE12BinarySearchERKS1_, 
                       __ZN5kaldi12CuVectorBaseIfE12ReplaceValueEff, __ZN5kaldi12CuVectorBaseIfE13AddDiagMatMatEfRKNS_12CuMatrixBaseIfEENS_19MatrixTransposeTypeES5_S6_f, 
                       __ZN5kaldi12CuVectorBaseIfE13ElementsEqualERKNS_7CuArrayIiEES5_, 
                       __ZN5kaldi12CuVectorBaseIfE14CopyColFromMatERKNS_12CuMatrixBaseIfEEi, 
                       __ZN5kaldi12CuVectorBaseIfE14InvertElementsEv, __ZN5kaldi12CuVectorBaseIfE14SetRandUniformEv, 
                       __ZN5kaldi12CuVectorBaseIfE15CopyDiagFromMatERKNS_8CuMatrixIfEE, 
                       __ZN5kaldi12CuVectorBaseIfE15CopyRowsFromMatERKNS_10MatrixBaseIfEE, 
                       __ZN5kaldi12CuVectorBaseIfE15CopyRowsFromMatERKNS_12CuMatrixBaseIfEE, 
                       __ZN5kaldi12CuVectorBaseIfE15UnpackPackedAddEifiRKNS_7CuArrayIiEEfRKS1_, 
                       __ZN5kaldi12CuVectorBaseIfE18CopyDiagFromPackedERKNS_14CuPackedMatrixIfEE, 
                       __ZN5kaldi12CuVectorBaseIfE18ReverseCopyFromVecERKS1_, __ZN5kaldi12CuVectorBaseIfE3AddEf, 
                       __ZN5kaldi12CuVectorBaseIfE3SetERKNS_7CuValueIfEE, __ZN5kaldi12CuVectorBaseIfE3SetEf, 
                       __ZN5kaldi12CuVectorBaseIfE3VecEv, __ZN5kaldi12CuVectorBaseIfE4DataEv, 
                       __ZN5kaldi12CuVectorBaseIfE4NormEf, __ZN5kaldi12CuVectorBaseIfE4ReadERNSt3__113basic_istreamIcNS2_11char_traitsIcEEEEb, 
                       __ZN5kaldi12CuVectorBaseIfE4TanhERKS1_, __ZN5kaldi12CuVectorBaseIfE5MulTpERKNS_10CuTpMatrixIfEENS_19MatrixTransposeTypeE, 
                       __ZN5kaldi12CuVectorBaseIfE5RangeEii, __ZN5kaldi12CuVectorBaseIfE5ScaleEf, 
                       __ZN5kaldi12CuVectorBaseIfE6AddVecERKNS_7CuValueIfEERKS1_f, 
                       __ZN5kaldi12CuVectorBaseIfE6AddVecEfRKS1_f, __ZN5kaldi12CuVectorBaseIfE6AddVecIdEEvfRKNS0_IT_EEf, 
                       __ZN5kaldi12CuVectorBaseIfE7SetZeroEv, __ZN5kaldi12CuVectorBaseIfE7SigmoidERKS1_, 
                       __ZN5kaldi12CuVectorBaseIfE8AddSpVecEfRKNS_10CuSpMatrixIfEERKS1_f, 
                       __ZN5kaldi12CuVectorBaseIfE8AddTpVecEfRKNS_10CuTpMatrixIfEENS_19MatrixTransposeTypeERKS1_f, 
                       __ZN5kaldi12CuVectorBaseIfE8ApplyExpEv, __ZN5kaldi12CuVectorBaseIfE8ApplyLogEv, 
                       __ZN5kaldi12CuVectorBaseIfE8ApplyPowEf, __ZN5kaldi12CuVectorBaseIfE8DiffTanhERKS1_S3_, 
                       __ZN5kaldi12CuVectorBaseIfE8SetRandnEv, __ZN5kaldi12CuVectorBaseIfE9AddMatVecEfRKNS_12CuMatrixBaseIfEENS_19MatrixTransposeTypeERKS1_f, 
                       __ZN5kaldi12CuVectorBaseIfE9AddMatVecIaEEvfRKNS_12CuMatrixBaseIfEENS_19MatrixTransposeTypeERKNS_19QuantizedVectorBaseIT_EEf, 
                       __ZN5kaldi12CuVectorBaseIfE9AddMatVecIaEEvfRKNS_19QuantizedMatrixBaseIT_EENS_19MatrixTransposeTypeERKS1_f, 
                       __ZN5kaldi12CuVectorBaseIfE9AddMatVecIsEEvfRKNS_12CuMatrixBaseIfEENS_19MatrixTransposeTypeERKNS_19QuantizedVectorBaseIT_EEf, 
                       __ZN5kaldi12CuVectorBaseIfE9AddMatVecIsEEvfRKNS_19QuantizedMatrixBaseIT_EENS_19MatrixTransposeTypeERKS1_f, 
                       __ZN5kaldi12CuVectorBaseIfE9AddVecVecEfRKS1_S3_f, __ZN5kaldi12CuVectorBaseIfE9ApplyTanhEv, 
                       __ZN5kaldi12CuVectorBaseIfE9SetStreamEPv, __ZN5kaldi12CuVectorBaseIfEC1EPfiiPv, 
                       __ZN5kaldi12CuVectorBaseIfEC1Ev, __ZN5kaldi12CuVectorBaseIfEC2EPfiiPv, 
                       __ZN5kaldi12CuVectorBaseIfEC2Ev, __ZN5kaldi12CuVectorBaseIfED0Ev, 
                       __ZN5kaldi12CuVectorBaseIfED1Ev, __ZN5kaldi12CuVectorBaseIfED2Ev, 
                       __ZN5kaldi12CuVectorBaseIfEclEi, __ZN5kaldi12PackedMatrixIdE11CopyFromVecIdEEvRKNS_9SubVectorIT_EE, 
                       __ZN5kaldi12PackedMatrixIdE11CopyFromVecIfEEvRKNS_9SubVectorIT_EE, 
                       __ZN5kaldi12PackedMatrixIdE14CopyFromPackedIdEEvRKNS0_IT_EE, 
                       __ZN5kaldi12PackedMatrixIdE14CopyFromPackedIfEEvRKNS0_IT_EE, 
                       __ZN5kaldi12PackedMatrixIdE4DataEv, __ZN5kaldi12PackedMatrixIdE4InitEi, 
                       __ZN5kaldi12PackedMatrixIdE4ReadERNSt3__113basic_istreamIcNS2_11char_traitsIcEEEEbb, 
                       __ZN5kaldi12PackedMatrixIdE4SwapEPNS_6MatrixIdEE, __ZN5kaldi12PackedMatrixIdE4SwapEPS1_, 
                       __ZN5kaldi12PackedMatrixIdE5ScaleEd, __ZN5kaldi12PackedMatrixIdE6ResizeEiNS_16MatrixResizeTypeE, 
                       __ZN5kaldi12PackedMatrixIdE7DestroyEv, __ZN5kaldi12PackedMatrixIdE7SetDiagEd, 
                       __ZN5kaldi12PackedMatrixIdE7SetUnitEv, __ZN5kaldi12PackedMatrixIdE7SetZeroEv, 
                       __ZN5kaldi12PackedMatrixIdE8SetRandnEv, __ZN5kaldi12PackedMatrixIdE9AddPackedEdRKS1_, 
                       __ZN5kaldi12PackedMatrixIdE9AddToDiagEd, __ZN5kaldi12PackedMatrixIdE9ScaleDiagEd, 
                       __ZN5kaldi12PackedMatrixIdEC1ERKS1_, __ZN5kaldi12PackedMatrixIdEC1EiNS_16MatrixResizeTypeE, 
                       __ZN5kaldi12PackedMatrixIdEC1Ev, __ZN5kaldi12PackedMatrixIdEC2ERKS1_, 
                       __ZN5kaldi12PackedMatrixIdEC2EiNS_16MatrixResizeTypeE, __ZN5kaldi12PackedMatrixIdEC2Ev, 
                       __ZN5kaldi12PackedMatrixIdED1Ev, __ZN5kaldi12PackedMatrixIdED2Ev, 
                       __ZN5kaldi12PackedMatrixIdEaSERKS1_, __ZN5kaldi12PackedMatrixIdEclEii, 
                       __ZN5kaldi12PackedMatrixIfE11CopyFromVecIdEEvRKNS_9SubVectorIT_EE, 
                       __ZN5kaldi12PackedMatrixIfE11CopyFromVecIfEEvRKNS_9SubVectorIT_EE, 
                       __ZN5kaldi12PackedMatrixIfE14CopyFromPackedIdEEvRKNS0_IT_EE, 
                       __ZN5kaldi12PackedMatrixIfE14CopyFromPackedIfEEvRKNS0_IT_EE, 
                       __ZN5kaldi12PackedMatrixIfE4DataEv, __ZN5kaldi12PackedMatrixIfE4InitEi, 
                       __ZN5kaldi12PackedMatrixIfE4ReadERNSt3__113basic_istreamIcNS2_11char_traitsIcEEEEbb, 
                       __ZN5kaldi12PackedMatrixIfE4SwapEPNS_6MatrixIfEE, __ZN5kaldi12PackedMatrixIfE4SwapEPS1_, 
                       __ZN5kaldi12PackedMatrixIfE5ScaleEf, __ZN5kaldi12PackedMatrixIfE6ResizeEiNS_16MatrixResizeTypeE, 
                       __ZN5kaldi12PackedMatrixIfE7DestroyEv, __ZN5kaldi12PackedMatrixIfE7SetDiagEf, 
                       __ZN5kaldi12PackedMatrixIfE7SetUnitEv, __ZN5kaldi12PackedMatrixIfE7SetZeroEv, 
                       __ZN5kaldi12PackedMatrixIfE8SetRandnEv, __ZN5kaldi12PackedMatrixIfE9AddPackedEfRKS1_, 
                       __ZN5kaldi12PackedMatrixIfE9AddToDiagEf, __ZN5kaldi12PackedMatrixIfE9ScaleDiagEf, 
                       __ZN5kaldi12PackedMatrixIfEC1ERKS1_, __ZN5kaldi12PackedMatrixIfEC1EiNS_16MatrixResizeTypeE, 
                       __ZN5kaldi12PackedMatrixIfEC1Ev, __ZN5kaldi12PackedMatrixIfEC2ERKS1_, 
                       __ZN5kaldi12PackedMatrixIfEC2EiNS_16MatrixResizeTypeE, __ZN5kaldi12PackedMatrixIfEC2Ev, 
                       __ZN5kaldi12PackedMatrixIfED1Ev, __ZN5kaldi12PackedMatrixIfED2Ev, 
                       __ZN5kaldi12PackedMatrixIfEaSERKS1_, __ZN5kaldi12PackedMatrixIfEclEii, 
                       __ZN5kaldi12ParseOptions12RegisterTmplINSt3__112basic_stringIcNS2_11char_traitsIcEENS2_9allocatorIcEEEEEEvRKS8_PT_SA_, 
                       __ZN5kaldi12ParseOptions12RegisterTmplIbEEvRKNSt3__112basic_stringIcNS2_11char_traitsIcEENS2_9allocatorIcEEEEPT_SA_, 
                       __ZN5kaldi12ParseOptions12RegisterTmplIdEEvRKNSt3__112basic_stringIcNS2_11char_traitsIcEENS2_9allocatorIcEEEEPT_SA_, 
                       __ZN5kaldi12ParseOptions12RegisterTmplIfEEvRKNSt3__112basic_stringIcNS2_11char_traitsIcEENS2_9allocatorIcEEEEPT_SA_, 
                       __ZN5kaldi12ParseOptions12RegisterTmplIiEEvRKNSt3__112basic_stringIcNS2_11char_traitsIcEENS2_9allocatorIcEEEEPT_SA_, 
                       __ZN5kaldi12ParseOptions12RegisterTmplIjEEvRKNSt3__112basic_stringIcNS2_11char_traitsIcEENS2_9allocatorIcEEEEPT_SA_, 
                       __ZN5kaldi12ParseOptions14RegisterCommonINSt3__112basic_stringIcNS2_11char_traitsIcEENS2_9allocatorIcEEEEEEvRKS8_PT_SA_b, 
                       __ZN5kaldi12ParseOptions14RegisterCommonIbEEvRKNSt3__112basic_stringIcNS2_11char_traitsIcEENS2_9allocatorIcEEEEPT_SA_b, 
                       __ZN5kaldi12ParseOptions14RegisterCommonIdEEvRKNSt3__112basic_stringIcNS2_11char_traitsIcEENS2_9allocatorIcEEEEPT_SA_b, 
                       __ZN5kaldi12ParseOptions14RegisterCommonIfEEvRKNSt3__112basic_stringIcNS2_11char_traitsIcEENS2_9allocatorIcEEEEPT_SA_b, 
                       __ZN5kaldi12ParseOptions14RegisterCommonIiEEvRKNSt3__112basic_stringIcNS2_11char_traitsIcEENS2_9allocatorIcEEEEPT_SA_b, 
                       __ZN5kaldi12ParseOptions14RegisterCommonIjEEvRKNSt3__112basic_stringIcNS2_11char_traitsIcEENS2_9allocatorIcEEEEPT_SA_b, 
                       __ZN5kaldi12ParseOptions16RegisterStandardINSt3__112basic_stringIcNS2_11char_traitsIcEENS2_9allocatorIcEEEEEEvRKS8_PT_SA_, 
                       __ZN5kaldi12ParseOptions16RegisterStandardIbEEvRKNSt3__112basic_stringIcNS2_11char_traitsIcEENS2_9allocatorIcEEEEPT_SA_, 
                       __ZN5kaldi12ParseOptions16RegisterStandardIdEEvRKNSt3__112basic_stringIcNS2_11char_traitsIcEENS2_9allocatorIcEEEEPT_SA_, 
                       __ZN5kaldi12ParseOptions16RegisterStandardIfEEvRKNSt3__112basic_stringIcNS2_11char_traitsIcEENS2_9allocatorIcEEEEPT_SA_, 
                       __ZN5kaldi12ParseOptions16RegisterStandardIiEEvRKNSt3__112basic_stringIcNS2_11char_traitsIcEENS2_9allocatorIcEEEEPT_SA_, 
                       __ZN5kaldi12ParseOptions16RegisterStandardIjEEvRKNSt3__112basic_stringIcNS2_11char_traitsIcEENS2_9allocatorIcEEEEPT_SA_, 
                       __ZN5kaldi12PruneLatticeIN3fst9VectorFstINS1_6ArcTplINS1_16LatticeWeightTplIfEEEENS1_11VectorStateIS6_NSt3__19allocatorIS6_EEEEEEEEbfPT_, 
                       __ZN5kaldi12PruneLatticeIN3fst9VectorFstINS1_6ArcTplINS1_23CompactLatticeWeightTplINS1_16LatticeWeightTplIfEEiEEEENS1_11VectorStateIS8_NSt3__19allocatorIS8_EEEEEEEEbfPT_, 
                       __ZN5kaldi12Quant3LevelsIdEEvT_PNS_10MatrixBaseIS1_EES4_, 
                       __ZN5kaldi12Quant3LevelsIdEEvT_PNS_10VectorBaseIS1_EES4_, 
                       __ZN5kaldi12Quant3LevelsIdEEvT_PNS_12CuMatrixBaseIS1_EES4_, 
                       __ZN5kaldi12Quant3LevelsIdEEvT_PNS_12CuVectorBaseIS1_EES4_, 
                       __ZN5kaldi12Quant3LevelsIfEEvT_PNS_10MatrixBaseIS1_EES4_, 
                       __ZN5kaldi12Quant3LevelsIfEEvT_PNS_10VectorBaseIS1_EES4_, 
                       __ZN5kaldi12Quant3LevelsIfEEvT_PNS_12CuMatrixBaseIS1_EES4_, 
                       __ZN5kaldi12Quant3LevelsIfEEvT_PNS_12CuVectorBaseIS1_EES4_, 
                       __ZN5kaldi13CuBlockMatrixIdE11CopyFromMatERKNS_8CuMatrixIdEE, 
                       __ZN5kaldi13CuBlockMatrixIdE11SetCudaDataEv, __ZN5kaldi13CuBlockMatrixIdE12FreeCudaDataEv, 
                       __ZN5kaldi13CuBlockMatrixIdE4ReadERNSt3__113basic_istreamIcNS2_11char_traitsIcEEEEb, 
                       __ZN5kaldi13CuBlockMatrixIdE4SwapEPS1_, __ZN5kaldi13CuBlockMatrixIdE5BlockEi, 
                       __ZN5kaldi13CuBlockMatrixIdE7DestroyEv, __ZN5kaldi13CuBlockMatrixIdE9AddMatMatEfRKNS_8CuMatrixIdEENS_19MatrixTransposeTypeES5_S6_f, 
                       __ZN5kaldi13CuBlockMatrixIdE9SetStreamEPv, __ZN5kaldi13CuBlockMatrixIdEC1EPv, 
                       __ZN5kaldi13CuBlockMatrixIdEC1ERKNSt3__16vectorINS_8CuMatrixIdEENS2_9allocatorIS5_EEEEPv, 
                       __ZN5kaldi13CuBlockMatrixIdEC1ERKS1_, __ZN5kaldi13CuBlockMatrixIdEC2EPv, 
                       __ZN5kaldi13CuBlockMatrixIdEC2ERKNSt3__16vectorINS_8CuMatrixIdEENS2_9allocatorIS5_EEEEPv, 
                       __ZN5kaldi13CuBlockMatrixIdEC2ERKS1_, __ZN5kaldi13CuBlockMatrixIdED1Ev, 
                       __ZN5kaldi13CuBlockMatrixIdED2Ev, __ZN5kaldi13CuBlockMatrixIdEaSERKS1_, 
                       __ZN5kaldi13CuBlockMatrixIfE11CopyFromMatERKNS_8CuMatrixIfEE, 
                       __ZN5kaldi13CuBlockMatrixIfE11SetCudaDataEv, __ZN5kaldi13CuBlockMatrixIfE12FreeCudaDataEv, 
                       __ZN5kaldi13CuBlockMatrixIfE4ReadERNSt3__113basic_istreamIcNS2_11char_traitsIcEEEEb, 
                       __ZN5kaldi13CuBlockMatrixIfE4SwapEPS1_, __ZN5kaldi13CuBlockMatrixIfE5BlockEi, 
                       __ZN5kaldi13CuBlockMatrixIfE7DestroyEv, __ZN5kaldi13CuBlockMatrixIfE9AddMatMatEfRKNS_8CuMatrixIfEENS_19MatrixTransposeTypeES5_S6_f, 
                       __ZN5kaldi13CuBlockMatrixIfE9SetStreamEPv, __ZN5kaldi13CuBlockMatrixIfEC1EPv, 
                       __ZN5kaldi13CuBlockMatrixIfEC1ERKNSt3__16vectorINS_8CuMatrixIfEENS2_9allocatorIS5_EEEEPv, 
                       __ZN5kaldi13CuBlockMatrixIfEC1ERKS1_, __ZN5kaldi13CuBlockMatrixIfEC2EPv, 
                       __ZN5kaldi13CuBlockMatrixIfEC2ERKNSt3__16vectorINS_8CuMatrixIfEENS2_9allocatorIS5_EEEEPv, 
                       __ZN5kaldi13CuBlockMatrixIfEC2ERKS1_, __ZN5kaldi13CuBlockMatrixIfED1Ev, 
                       __ZN5kaldi13CuBlockMatrixIfED2Ev, __ZN5kaldi13CuBlockMatrixIfEaSERKS1_, 
                       __ZN5kaldi13TraceMatSpMatIdEET_RKNS_10MatrixBaseIS1_EENS_19MatrixTransposeTypeERKNS_8SpMatrixIS1_EES5_S6_, 
                       __ZN5kaldi13TraceMatSpMatIfEET_RKNS_10MatrixBaseIS1_EENS_19MatrixTransposeTypeERKNS_8SpMatrixIS1_EES5_S6_, 
                       __ZN5kaldi14CuPackedMatrixIdE14CopyFromPackedERKNS_12PackedMatrixIdEE, 
                       __ZN5kaldi14CuPackedMatrixIdE14CopyFromPackedERKS1_, __ZN5kaldi14CuPackedMatrixIdE3MatEv, 
                       __ZN5kaldi14CuPackedMatrixIdE4DataEv, __ZN5kaldi14CuPackedMatrixIdE4ReadERNSt3__113basic_istreamIcNS2_11char_traitsIcEEEEb, 
                       __ZN5kaldi14CuPackedMatrixIdE4SwapEPNS_12PackedMatrixIdEE, 
                       __ZN5kaldi14CuPackedMatrixIdE5ScaleEd, __ZN5kaldi14CuPackedMatrixIdE6ResizeEiNS_16MatrixResizeTypeE, 
                       __ZN5kaldi14CuPackedMatrixIdE7DestroyEv, __ZN5kaldi14CuPackedMatrixIdE7SetDiagEd, 
                       __ZN5kaldi14CuPackedMatrixIdE7SetUnitEv, __ZN5kaldi14CuPackedMatrixIdE7SetZeroEv, 
                       __ZN5kaldi14CuPackedMatrixIdE8SetRandnEv, __ZN5kaldi14CuPackedMatrixIdE9AddPackedEdRKS1_, 
                       __ZN5kaldi14CuPackedMatrixIdE9AddToDiagEd, __ZN5kaldi14CuPackedMatrixIdE9ScaleDiagEd, 
                       __ZN5kaldi14CuPackedMatrixIdE9SetStreamEPv, __ZN5kaldi14CuPackedMatrixIdEC1ERKNS_12PackedMatrixIdEEPv, 
                       __ZN5kaldi14CuPackedMatrixIdEC1ERKS1_, __ZN5kaldi14CuPackedMatrixIdEC1EiNS_16MatrixResizeTypeEPv, 
                       __ZN5kaldi14CuPackedMatrixIdEC1Ev, __ZN5kaldi14CuPackedMatrixIdEC2ERKNS_12PackedMatrixIdEEPv, 
                       __ZN5kaldi14CuPackedMatrixIdEC2ERKS1_, __ZN5kaldi14CuPackedMatrixIdEC2EiNS_16MatrixResizeTypeEPv, 
                       __ZN5kaldi14CuPackedMatrixIdEC2Ev, __ZN5kaldi14CuPackedMatrixIdED1Ev, 
                       __ZN5kaldi14CuPackedMatrixIdED2Ev, __ZN5kaldi14CuPackedMatrixIfE14CopyFromPackedERKNS_12PackedMatrixIfEE, 
                       __ZN5kaldi14CuPackedMatrixIfE14CopyFromPackedERKS1_, __ZN5kaldi14CuPackedMatrixIfE3MatEv, 
                       __ZN5kaldi14CuPackedMatrixIfE4DataEv, __ZN5kaldi14CuPackedMatrixIfE4ReadERNSt3__113basic_istreamIcNS2_11char_traitsIcEEEEb, 
                       __ZN5kaldi14CuPackedMatrixIfE4SwapEPNS_12PackedMatrixIfEE, 
                       __ZN5kaldi14CuPackedMatrixIfE5ScaleEf, __ZN5kaldi14CuPackedMatrixIfE6ResizeEiNS_16MatrixResizeTypeE, 
                       __ZN5kaldi14CuPackedMatrixIfE7DestroyEv, __ZN5kaldi14CuPackedMatrixIfE7SetDiagEf, 
                       __ZN5kaldi14CuPackedMatrixIfE7SetUnitEv, __ZN5kaldi14CuPackedMatrixIfE7SetZeroEv, 
                       __ZN5kaldi14CuPackedMatrixIfE8SetRandnEv, __ZN5kaldi14CuPackedMatrixIfE9AddPackedEfRKS1_, 
                       __ZN5kaldi14CuPackedMatrixIfE9AddToDiagEf, __ZN5kaldi14CuPackedMatrixIfE9ScaleDiagEf, 
                       __ZN5kaldi14CuPackedMatrixIfE9SetStreamEPv, __ZN5kaldi14CuPackedMatrixIfEC1ERKNS_12PackedMatrixIfEEPv, 
                       __ZN5kaldi14CuPackedMatrixIfEC1ERKS1_, __ZN5kaldi14CuPackedMatrixIfEC1EiNS_16MatrixResizeTypeEPv, 
                       __ZN5kaldi14CuPackedMatrixIfEC1Ev, __ZN5kaldi14CuPackedMatrixIfEC2ERKNS_12PackedMatrixIfEEPv, 
                       __ZN5kaldi14CuPackedMatrixIfEC2ERKS1_, __ZN5kaldi14CuPackedMatrixIfEC2EiNS_16MatrixResizeTypeEPv, 
                       __ZN5kaldi14CuPackedMatrixIfEC2Ev, __ZN5kaldi14CuPackedMatrixIfED1Ev, 
                       __ZN5kaldi14CuPackedMatrixIfED2Ev, __ZN5kaldi14TraceMatMatMatIdEET_RKNS_10MatrixBaseIS1_EENS_19MatrixTransposeTypeES5_S6_S5_S6_, 
                       __ZN5kaldi14TraceMatMatMatIfEET_RKNS_10MatrixBaseIS1_EENS_19MatrixTransposeTypeES5_S6_S5_S6_, 
                       __ZN5kaldi14TraceSpSpLowerIdEET_RKNS_8SpMatrixIS1_EES5_, __ZN5kaldi14TraceSpSpLowerIfEET_RKNS_8SpMatrixIS1_EES5_, 
                       __ZN5kaldi15QuantizedMatrixIaE4ReadERNSt3__113basic_istreamIcNS2_11char_traitsIcEEEEbPKv, 
                       __ZN5kaldi15QuantizedMatrixIaEC1ERKNS_10MatrixBaseIfEE, __ZN5kaldi15QuantizedMatrixIaEC1ERKNS_12CuMatrixBaseIfEE, 
                       __ZN5kaldi15QuantizedMatrixIaEC1ERKNS_19QuantizedMatrixBaseIaEE, 
                       __ZN5kaldi15QuantizedMatrixIaEC1Eii, __ZN5kaldi15QuantizedMatrixIaEC1IsEERKNS_19QuantizedMatrixBaseIT_EE, 
                       __ZN5kaldi15QuantizedMatrixIaEC2ERKNS_10MatrixBaseIfEE, __ZN5kaldi15QuantizedMatrixIaEC2ERKNS_12CuMatrixBaseIfEE, 
                       __ZN5kaldi15QuantizedMatrixIaEC2ERKNS_19QuantizedMatrixBaseIaEE, 
                       __ZN5kaldi15QuantizedMatrixIaEC2Eii, __ZN5kaldi15QuantizedMatrixIaEC2IsEERKNS_19QuantizedMatrixBaseIT_EE, 
                       __ZN5kaldi15QuantizedMatrixIsE4ReadERNSt3__113basic_istreamIcNS2_11char_traitsIcEEEEbPKv, 
                       __ZN5kaldi15QuantizedMatrixIsEC1ERKNS_10MatrixBaseIfEE, __ZN5kaldi15QuantizedMatrixIsEC1ERKNS_12CuMatrixBaseIfEE, 
                       __ZN5kaldi15QuantizedMatrixIsEC1ERKNS_19QuantizedMatrixBaseIsEE, 
                       __ZN5kaldi15QuantizedMatrixIsEC1Eii, __ZN5kaldi15QuantizedMatrixIsEC1IaEERKNS_19QuantizedMatrixBaseIT_EE, 
                       __ZN5kaldi15QuantizedMatrixIsEC2ERKNS_10MatrixBaseIfEE, __ZN5kaldi15QuantizedMatrixIsEC2ERKNS_12CuMatrixBaseIfEE, 
                       __ZN5kaldi15QuantizedMatrixIsEC2ERKNS_19QuantizedMatrixBaseIsEE, 
                       __ZN5kaldi15QuantizedMatrixIsEC2Eii, __ZN5kaldi15QuantizedMatrixIsEC2IaEERKNS_19QuantizedMatrixBaseIT_EE, 
                       __ZN5kaldi15TraceMatSpMatSpIdEET_RKNS_10MatrixBaseIS1_EENS_19MatrixTransposeTypeERKNS_8SpMatrixIS1_EES5_S6_SA_, 
                       __ZN5kaldi15TraceMatSpMatSpIfEET_RKNS_10MatrixBaseIS1_EENS_19MatrixTransposeTypeERKNS_8SpMatrixIS1_EES5_S6_SA_, 
                       __ZN5kaldi15ZeroSmallValuesIdEEvT_PNS_10MatrixBaseIS1_EES4_, 
                       __ZN5kaldi15ZeroSmallValuesIdEEvT_PNS_10VectorBaseIS1_EES4_, 
                       __ZN5kaldi15ZeroSmallValuesIdEEvT_PNS_12CuMatrixBaseIS1_EES4_, 
                       __ZN5kaldi15ZeroSmallValuesIdEEvT_PNS_12CuVectorBaseIS1_EES4_, 
                       __ZN5kaldi15ZeroSmallValuesIfEEvT_PNS_10MatrixBaseIS1_EES4_, 
                       __ZN5kaldi15ZeroSmallValuesIfEEvT_PNS_10VectorBaseIS1_EES4_, 
                       __ZN5kaldi15ZeroSmallValuesIfEEvT_PNS_12CuMatrixBaseIS1_EES4_, 
                       __ZN5kaldi15ZeroSmallValuesIfEEvT_PNS_12CuVectorBaseIS1_EES4_, 
                       __ZN5kaldi16CompressedMatrix11CopyFromMatIdEEvRKNS_10MatrixBaseIT_EE, 
                       __ZN5kaldi16CompressedMatrix11CopyFromMatIfEEvRKNS_10MatrixBaseIT_EE, 
                       __ZN5kaldi16CompressedMatrix15CopyRowsFromVecIdEEvRKNS_10VectorBaseIT_EE, 
                       __ZN5kaldi16CompressedMatrix15CopyRowsFromVecIfEEvRKNS_10VectorBaseIT_EE, 
                       __ZN5kaldi16CompressedMatrixaSIdEERS0_RKNS_10MatrixBaseIT_EE, 
                       __ZN5kaldi16CompressedMatrixaSIfEERS0_RKNS_10MatrixBaseIT_EE, 
                       __ZN5kaldi16ComputeDctMatrixIdEEvPNS_6MatrixIT_EE, __ZN5kaldi16ComputeDctMatrixIfEEvPNS_6MatrixIT_EE, 
                       __ZN5kaldi17MatrixExponentialIdE13ComputeTaylorERKNS_10MatrixBaseIdEEPS3_, 
                       __ZN5kaldi17MatrixExponentialIdE5ClearEv, __ZN5kaldi17MatrixExponentialIdE7ComputeERKNS_10MatrixBaseIdEEPS3_, 
                       __ZN5kaldi17MatrixExponentialIdE7ComputeERKNS_8SpMatrixIdEEPS3_, 
                       __ZN5kaldi17MatrixExponentialIdE8ComputeNERKNS_10MatrixBaseIdEE, 
                       __ZN5kaldi17MatrixExponentialIdEC1Ev, __ZN5kaldi17MatrixExponentialIdEC2Ev, 
                       __ZN5kaldi17MatrixExponentialIfE13ComputeTaylorERKNS_10MatrixBaseIfEEPS3_, 
                       __ZN5kaldi17MatrixExponentialIfE5ClearEv, __ZN5kaldi17MatrixExponentialIfE7ComputeERKNS_10MatrixBaseIfEEPS3_, 
                       __ZN5kaldi17MatrixExponentialIfE7ComputeERKNS_8SpMatrixIfEEPS3_, 
                       __ZN5kaldi17MatrixExponentialIfE8ComputeNERKNS_10MatrixBaseIfEE, 
                       __ZN5kaldi17MatrixExponentialIfEC1Ev, __ZN5kaldi17MatrixExponentialIfEC2Ev, 
                       __ZN5kaldi17SplitRadixRealFftIdE7ComputeEPdb, __ZN5kaldi17SplitRadixRealFftIdEC1Ei, 
                       __ZN5kaldi17SplitRadixRealFftIdEC2Ei, __ZN5kaldi17SplitRadixRealFftIfE7ComputeEPfb, 
                       __ZN5kaldi17SplitRadixRealFftIfEC1Ei, __ZN5kaldi17SplitRadixRealFftIfEC2Ei, 
                       __ZN5kaldi17TraceMatMatMatMatIdEET_RKNS_10MatrixBaseIS1_EENS_19MatrixTransposeTypeES5_S6_S5_S6_S5_S6_, 
                       __ZN5kaldi17TraceMatMatMatMatIfEET_RKNS_10MatrixBaseIS1_EENS_19MatrixTransposeTypeES5_S6_S5_S6_S5_S6_, 
                       __ZN5kaldi18QuantizedSubMatrixIaEC1ERKNS_19QuantizedMatrixBaseIaEEii, 
                       __ZN5kaldi18QuantizedSubMatrixIaEC2ERKNS_19QuantizedMatrixBaseIaEEii, 
                       __ZN5kaldi18QuantizedSubMatrixIsEC1ERKNS_19QuantizedMatrixBaseIsEEii, 
                       __ZN5kaldi18QuantizedSubMatrixIsEC2ERKNS_19QuantizedMatrixBaseIsEEii, 
                       __ZN5kaldi18QuantizedSubVectorIaEC1EPKaif, __ZN5kaldi18QuantizedSubVectorIaEC2EPKaif, 
                       __ZN5kaldi18QuantizedSubVectorIsEC1EPKsif, __ZN5kaldi18QuantizedSubVectorIsEC2EPKsif, 
                       __ZN5kaldi18RealFftInefficientIdEEvPNS_10VectorBaseIT_EEb, 
                       __ZN5kaldi18RealFftInefficientIfEEvPNS_10VectorBaseIT_EEb, 
                       __ZN5kaldi19AttemptComplexPowerIdEEbPT_S2_S1_, __ZN5kaldi19AttemptComplexPowerIfEEbPT_S2_S1_, 
                       __ZN5kaldi19QuantizedMatrixBaseIaE11CopyFromMatERKNS_10MatrixBaseIfEE, 
                       __ZN5kaldi19QuantizedMatrixBaseIaE11CopyFromMatERKS1_NS_19MatrixTransposeTypeE, 
                       __ZN5kaldi19QuantizedMatrixBaseIaE11MutableDataEv, __ZN5kaldi19QuantizedMatrixBaseIaE12UpdateFilterEv, 
                       __ZN5kaldi19QuantizedMatrixBaseIaE15CopyRowsFromVecERKNS_10VectorBaseIfEE, 
                       __ZN5kaldi19QuantizedMatrixBaseIaE6AddMatEfRKNS_10MatrixBaseIfEENS_19MatrixTransposeTypeEf, 
                       __ZN5kaldi19QuantizedMatrixBaseIaE6AddMatEfRKNS_12CuMatrixBaseIfEENS_19MatrixTransposeTypeEf, 
                       __ZN5kaldi19QuantizedMatrixBaseIaE6AddMatEfRKS1_NS_19MatrixTransposeTypeEf, 
                       __ZN5kaldi19QuantizedMatrixBaseIaE9SetStreamEPv, __ZN5kaldi19QuantizedMatrixBaseIaEC1ERKS1_, 
                       __ZN5kaldi19QuantizedMatrixBaseIaEC1Eii, __ZN5kaldi19QuantizedMatrixBaseIaEC2ERKS1_, 
                       __ZN5kaldi19QuantizedMatrixBaseIaEC2Eii, __ZN5kaldi19QuantizedMatrixBaseIaED1Ev, 
                       __ZN5kaldi19QuantizedMatrixBaseIaED2Ev, __ZN5kaldi19QuantizedMatrixBaseIsE11CopyFromMatERKNS_10MatrixBaseIfEE, 
                       __ZN5kaldi19QuantizedMatrixBaseIsE11CopyFromMatERKS1_NS_19MatrixTransposeTypeE, 
                       __ZN5kaldi19QuantizedMatrixBaseIsE11MutableDataEv, __ZN5kaldi19QuantizedMatrixBaseIsE12UpdateFilterEv, 
                       __ZN5kaldi19QuantizedMatrixBaseIsE15CopyRowsFromVecERKNS_10VectorBaseIfEE, 
                       __ZN5kaldi19QuantizedMatrixBaseIsE6AddMatEfRKNS_10MatrixBaseIfEENS_19MatrixTransposeTypeEf, 
                       __ZN5kaldi19QuantizedMatrixBaseIsE6AddMatEfRKNS_12CuMatrixBaseIfEENS_19MatrixTransposeTypeEf, 
                       __ZN5kaldi19QuantizedMatrixBaseIsE6AddMatEfRKS1_NS_19MatrixTransposeTypeEf, 
                       __ZN5kaldi19QuantizedMatrixBaseIsE9SetStreamEPv, __ZN5kaldi19QuantizedMatrixBaseIsEC1ERKS1_, 
                       __ZN5kaldi19QuantizedMatrixBaseIsEC1Eii, __ZN5kaldi19QuantizedMatrixBaseIsEC2ERKS1_, 
                       __ZN5kaldi19QuantizedMatrixBaseIsEC2Eii, __ZN5kaldi19QuantizedMatrixBaseIsED1Ev, 
                       __ZN5kaldi19QuantizedMatrixBaseIsED2Ev, __ZN5kaldi19QuantizedVectorBaseIaEC1Ev, 
                       __ZN5kaldi19QuantizedVectorBaseIaEC2Ev, __ZN5kaldi19QuantizedVectorBaseIaED1Ev, 
                       __ZN5kaldi19QuantizedVectorBaseIaED2Ev, __ZN5kaldi19QuantizedVectorBaseIsEC1Ev, 
                       __ZN5kaldi19QuantizedVectorBaseIsEC2Ev, __ZN5kaldi19QuantizedVectorBaseIsED1Ev, 
                       __ZN5kaldi19QuantizedVectorBaseIsED2Ev, __ZN5kaldi19SplitStringToFloatsIdEEbRKNSt3__112basic_stringIcNS1_11char_traitsIcEENS1_9allocatorIcEEEEPKcbPNS1_6vectorIT_NS5_ISD_EEEE, 
                       __ZN5kaldi19SplitStringToFloatsIfEEbRKNSt3__112basic_stringIcNS1_11char_traitsIcEENS1_9allocatorIcEEEEPKcbPNS1_6vectorIT_NS5_ISD_EEEE, 
                       __ZN5kaldi20SplitRadixComplexFftIdE13ComputeTablesEv, __ZN5kaldi20SplitRadixComplexFftIdE7ComputeEPdb, 
                       __ZN5kaldi20SplitRadixComplexFftIdEC1Ei, __ZN5kaldi20SplitRadixComplexFftIdEC2Ei, 
                       __ZN5kaldi20SplitRadixComplexFftIdED1Ev, __ZN5kaldi20SplitRadixComplexFftIdED2Ev, 
                       __ZN5kaldi20SplitRadixComplexFftIfE13ComputeTablesEv, __ZN5kaldi20SplitRadixComplexFftIfE7ComputeEPfb, 
                       __ZN5kaldi20SplitRadixComplexFftIfEC1Ei, __ZN5kaldi20SplitRadixComplexFftIfEC2Ei, 
                       __ZN5kaldi20SplitRadixComplexFftIfED1Ev, __ZN5kaldi20SplitRadixComplexFftIfED2Ev, 
                       __ZN5kaldi22CreateEigenvalueMatrixIdEEvRKNS_10VectorBaseIT_EES5_PNS_10MatrixBaseIS2_EE, 
                       __ZN5kaldi22CreateEigenvalueMatrixIfEEvRKNS_10VectorBaseIT_EES5_PNS_10MatrixBaseIS2_EE, 
                       __ZN5kaldi23EigenvalueDecompositionIdE18GetImagEigenvaluesEPNS_10VectorBaseIdEE, 
                       __ZN5kaldi23EigenvalueDecompositionIdE18GetRealEigenvaluesEPNS_10VectorBaseIdEE, 
                       __ZN5kaldi23EigenvalueDecompositionIdE1HEii, __ZN5kaldi23EigenvalueDecompositionIdE1VEii, 
                       __ZN5kaldi23EigenvalueDecompositionIdE4GetVEPNS_10MatrixBaseIdEE, 
                       __ZN5kaldi23EigenvalueDecompositionIdE4cdivEddddPdS2_, __ZN5kaldi23EigenvalueDecompositionIfE18GetImagEigenvaluesEPNS_10VectorBaseIfEE, 
                       __ZN5kaldi23EigenvalueDecompositionIfE18GetRealEigenvaluesEPNS_10VectorBaseIfEE, 
                       __ZN5kaldi23EigenvalueDecompositionIfE1HEii, __ZN5kaldi23EigenvalueDecompositionIfE1VEii, 
                       __ZN5kaldi23EigenvalueDecompositionIfE4GetVEPNS_10MatrixBaseIfEE, 
                       __ZN5kaldi23EigenvalueDecompositionIfE4cdivEffffPfS2_, __ZN5kaldi24AddOuterProductPlusMinusIdEEvT_RKNS_10VectorBaseIS1_EES5_PNS_10MatrixBaseIS1_EES8_, 
                       __ZN5kaldi24AddOuterProductPlusMinusIfEEvT_RKNS_10VectorBaseIS1_EES5_PNS_10MatrixBaseIS1_EES8_, 
                       __ZN5kaldi25VectorwiseQuantizedMatrixIaE11CopyFromMatERKNS_10MatrixBaseIfEE, 
                       __ZN5kaldi25VectorwiseQuantizedMatrixIaE4ReadERNSt3__113basic_istreamIcNS2_11char_traitsIcEEEEbPKv, 
                       __ZN5kaldi25VectorwiseQuantizedMatrixIaEC1ERKNS_10MatrixBaseIfEE, 
                       __ZN5kaldi25VectorwiseQuantizedMatrixIaEC1ERKNS_12CuMatrixBaseIfEE, 
                       __ZN5kaldi25VectorwiseQuantizedMatrixIaEC1ERKS1_, __ZN5kaldi25VectorwiseQuantizedMatrixIaEC1Eii, 
                       __ZN5kaldi25VectorwiseQuantizedMatrixIaEC2ERKNS_10MatrixBaseIfEE, 
                       __ZN5kaldi25VectorwiseQuantizedMatrixIaEC2ERKNS_12CuMatrixBaseIfEE, 
                       __ZN5kaldi25VectorwiseQuantizedMatrixIaEC2ERKS1_, __ZN5kaldi25VectorwiseQuantizedMatrixIaEC2Eii, 
                       __ZN5kaldi25VectorwiseQuantizedMatrixIsE11CopyFromMatERKNS_10MatrixBaseIfEE, 
                       __ZN5kaldi25VectorwiseQuantizedMatrixIsE4ReadERNSt3__113basic_istreamIcNS2_11char_traitsIcEEEEbPKv, 
                       __ZN5kaldi25VectorwiseQuantizedMatrixIsEC1ERKNS_10MatrixBaseIfEE, 
                       __ZN5kaldi25VectorwiseQuantizedMatrixIsEC1ERKNS_12CuMatrixBaseIfEE, 
                       __ZN5kaldi25VectorwiseQuantizedMatrixIsEC1ERKS1_, __ZN5kaldi25VectorwiseQuantizedMatrixIsEC1Eii, 
                       __ZN5kaldi25VectorwiseQuantizedMatrixIsEC2ERKNS_10MatrixBaseIfEE, 
                       __ZN5kaldi25VectorwiseQuantizedMatrixIsEC2ERKNS_12CuMatrixBaseIfEE, 
                       __ZN5kaldi25VectorwiseQuantizedMatrixIsEC2ERKS1_, __ZN5kaldi25VectorwiseQuantizedMatrixIsEC2Eii, 
                       __ZN5kaldi27SolveQuadraticMatrixProblemIdEET_RKNS_8SpMatrixIS1_EERKNS_10MatrixBaseIS1_EES5_RKNS_13SolverOptionsEPS7_, 
                       __ZN5kaldi27SolveQuadraticMatrixProblemIfEET_RKNS_8SpMatrixIS1_EERKNS_10MatrixBaseIS1_EES5_RKNS_13SolverOptionsEPS7_, 
                       __ZN5kaldi2cu12RegularizeL1IdEEvPNS_12CuMatrixBaseIT_EES5_S3_S3_, 
                       __ZN5kaldi2cu12RegularizeL1IfEEvPNS_12CuMatrixBaseIT_EES5_S3_S3_, 
                       __ZN5kaldi2cu4CopyIdEEvRKNS_12CuMatrixBaseIT_EERKNS_7CuArrayIiEEPS4_, 
                       __ZN5kaldi2cu4CopyIfEEvRKNS_12CuMatrixBaseIT_EERKNS_7CuArrayIiEEPS4_, 
                       __ZN5kaldi2cu6SpliceIdEEvRKNS_12CuMatrixBaseIT_EERKNS_7CuArrayIiEEPS4_, 
                       __ZN5kaldi2cu6SpliceIfEEvRKNS_12CuMatrixBaseIT_EERKNS_7CuArrayIiEEPS4_, 
                       __ZN5kaldi2cu9RandomizeIdEEvRKNS_12CuMatrixBaseIT_EERKNS_7CuArrayIiEEPS4_, 
                       __ZN5kaldi2cu9RandomizeIfEEvRKNS_12CuMatrixBaseIT_EERKNS_7CuArrayIiEEPS4_, 
                       __ZN5kaldi33SolveDoubleQuadraticMatrixProblemIdEET_RKNS_10MatrixBaseIS1_EERKNS_8SpMatrixIS1_EES9_S9_S9_RKNS_13SolverOptionsEPS3_, 
                       __ZN5kaldi33SolveDoubleQuadraticMatrixProblemIfEET_RKNS_10MatrixBaseIS1_EERKNS_8SpMatrixIS1_EES9_S9_S9_RKNS_13SolverOptionsEPS3_, 
                       __ZN5kaldi5nnet113LstmComponentINS_12CuMatrixBaseIfEEE12BiasGradientEi, 
                       __ZN5kaldi5nnet113LstmComponentINS_12CuMatrixBaseIfEEE12InputWeightsEv, 
                       __ZN5kaldi5nnet113LstmComponentINS_12CuMatrixBaseIfEEE12PropagateFncERKNS_12CuVectorBaseIfEEPS6_, 
                       __ZN5kaldi5nnet113LstmComponentINS_12CuMatrixBaseIfEEE12PropagateFncERKS3_PS3_i, 
                       __ZN5kaldi5nnet113LstmComponentINS_12CuMatrixBaseIfEEE13CountZeroCorrEPiS5_, 
                       __ZN5kaldi5nnet113LstmComponentINS_12CuMatrixBaseIfEEE13EnsureBuffersEv, 
                       __ZN5kaldi5nnet113LstmComponentINS_12CuMatrixBaseIfEEE13PerturbParamsEf, 
                       __ZN5kaldi5nnet113LstmComponentINS_12CuMatrixBaseIfEEE13SaveLastStateEi, 
                       __ZN5kaldi5nnet113LstmComponentINS_12CuMatrixBaseIfEEE14AccumGradientsERKS3_S6_Pvi, 
                       __ZN5kaldi5nnet113LstmComponentINS_12CuMatrixBaseIfEEE14AllocateParamsEi, 
                       __ZN5kaldi5nnet113LstmComponentINS_12CuMatrixBaseIfEEE15PeepholeWeightsEv, 
                       __ZN5kaldi5nnet113LstmComponentINS_12CuMatrixBaseIfEEE15SetHistoryStateERKNS_12CuVectorBaseIfEEii, 
                       __ZN5kaldi5nnet113LstmComponentINS_12CuMatrixBaseIfEEE15SetHistoryStateERKS3_i, 
                       __ZN5kaldi5nnet113LstmComponentINS_12CuMatrixBaseIfEEE15SetTrainOptionsERKNS0_16NnetTrainOptionsE, 
                       __ZN5kaldi5nnet113LstmComponentINS_12CuMatrixBaseIfEEE16BackpropagateFncERKS3_S6_S6_PS3_i, 
                       __ZN5kaldi5nnet113LstmComponentINS_12CuMatrixBaseIfEEE16RecurrentWeightsEv, 
                       __ZN5kaldi5nnet113LstmComponentINS_12CuMatrixBaseIfEEE17AllocateGradientsEv, 
                       __ZN5kaldi5nnet113LstmComponentINS_12CuMatrixBaseIfEEE17GetInternalMemoryEPS3_i, 
                       __ZN5kaldi5nnet113LstmComponentINS_12CuMatrixBaseIfEEE17ProjectionWeightsEv, 
                       __ZN5kaldi5nnet113LstmComponentINS_12CuMatrixBaseIfEEE17ResetHistoryStateERKNSt3__16vectorIbNS5_9allocatorIbEEEEPvi, 
                       __ZN5kaldi5nnet113LstmComponentINS_12CuMatrixBaseIfEEE17ResetHistoryStateEv, 
                       __ZN5kaldi5nnet113LstmComponentINS_12CuMatrixBaseIfEEE18NormalizeGradientsEfi, 
                       __ZN5kaldi5nnet113LstmComponentINS_12CuMatrixBaseIfEEE19SetInternalBoundaryERKNS_12CuVectorBaseIfEEi, 
                       __ZN5kaldi5nnet113LstmComponentINS_12CuMatrixBaseIfEEE20InputWeightsGradientEi, 
                       __ZN5kaldi5nnet113LstmComponentINS_12CuMatrixBaseIfEEE21EnsureTrainingBuffersEv, 
                       __ZN5kaldi5nnet113LstmComponentINS_12CuMatrixBaseIfEEE22AllocateForwardBuffersEiiPv, 
                       __ZN5kaldi5nnet113LstmComponentINS_12CuMatrixBaseIfEEE22InitResidualAggregatorEPNS0_27QuantizerResidualAggregatorE, 
                       __ZN5kaldi5nnet113LstmComponentINS_12CuMatrixBaseIfEEE23AllocateBackwardBuffersEiiPv, 
                       __ZN5kaldi5nnet113LstmComponentINS_12CuMatrixBaseIfEEE23PeepholeWeightsGradientEi, 
                       __ZN5kaldi5nnet113LstmComponentINS_12CuMatrixBaseIfEEE24RecurrentWeightsGradientEi, 
                       __ZN5kaldi5nnet113LstmComponentINS_12CuMatrixBaseIfEEE24SetGradientNormalizationEfNS0_9Component16GradientNormTypeE, 
                       __ZN5kaldi5nnet113LstmComponentINS_12CuMatrixBaseIfEEE25ProjectionWeightsGradientEi, 
                       __ZN5kaldi5nnet113LstmComponentINS_12CuMatrixBaseIfEEE4BiasEv, 
                       __ZN5kaldi5nnet113LstmComponentINS_12CuMatrixBaseIfEEE8InitDataERNSt3__113basic_istreamIcNS5_11char_traitsIcEEEERNS_19UniformRandomNumberE, 
                       __ZN5kaldi5nnet113LstmComponentINS_12CuMatrixBaseIfEEE8ReadDataERNSt3__113basic_istreamIcNS5_11char_traitsIcEEEEbPKv, 
                       __ZN5kaldi5nnet113LstmComponentINS_12CuMatrixBaseIfEEE9ApplyCorrEfi, 
                       __ZN5kaldi5nnet113LstmComponentINS_12CuMatrixBaseIfEEE9SetParamsERKNS_10VectorBaseIfEE, 
                       __ZN5kaldi5nnet113LstmComponentINS_12CuMatrixBaseIfEEEC1ERKS4_, 
                       __ZN5kaldi5nnet113LstmComponentINS_12CuMatrixBaseIfEEEC1Eii, 
                       __ZN5kaldi5nnet113LstmComponentINS_12CuMatrixBaseIfEEEC2ERKS4_, 
                       __ZN5kaldi5nnet113LstmComponentINS_12CuMatrixBaseIfEEEC2Eii, 
                       __ZN5kaldi5nnet113LstmComponentINS_12CuMatrixBaseIfEEED0Ev, 
                       __ZN5kaldi5nnet113LstmComponentINS_12CuMatrixBaseIfEEED1Ev, 
                       __ZN5kaldi5nnet113LstmComponentINS_12CuMatrixBaseIfEEED2Ev, 
                       __ZN5kaldi5nnet113LstmComponentINS_15QuantizedMatrixIaEEE12BiasGradientEi, 
                       __ZN5kaldi5nnet113LstmComponentINS_15QuantizedMatrixIaEEE12InputWeightsEv, 
                       __ZN5kaldi5nnet113LstmComponentINS_15QuantizedMatrixIaEEE12PropagateFncERKNS_12CuMatrixBaseIfEEPS6_i, 
                       __ZN5kaldi5nnet113LstmComponentINS_15QuantizedMatrixIaEEE12PropagateFncERKNS_12CuVectorBaseIfEEPS6_, 
                       __ZN5kaldi5nnet113LstmComponentINS_15QuantizedMatrixIaEEE13CountZeroCorrEPiS5_, 
                       __ZN5kaldi5nnet113LstmComponentINS_15QuantizedMatrixIaEEE13EnsureBuffersEv, 
                       __ZN5kaldi5nnet113LstmComponentINS_15QuantizedMatrixIaEEE13PerturbParamsEf, 
                       __ZN5kaldi5nnet113LstmComponentINS_15QuantizedMatrixIaEEE13SaveLastStateEi, 
                       __ZN5kaldi5nnet113LstmComponentINS_15QuantizedMatrixIaEEE13UpdateWeightsEPvi, 
                       __ZN5kaldi5nnet113LstmComponentINS_15QuantizedMatrixIaEEE14AccumGradientsERKNS_12CuMatrixBaseIfEES8_Pvi, 
                       __ZN5kaldi5nnet113LstmComponentINS_15QuantizedMatrixIaEEE14AllocateParamsEi, 
                       __ZN5kaldi5nnet113LstmComponentINS_15QuantizedMatrixIaEEE15PeepholeWeightsEv, 
                       __ZN5kaldi5nnet113LstmComponentINS_15QuantizedMatrixIaEEE15SetHistoryStateERKNS_12CuMatrixBaseIfEEi, 
                       __ZN5kaldi5nnet113LstmComponentINS_15QuantizedMatrixIaEEE15SetHistoryStateERKNS_12CuVectorBaseIfEEii, 
                       __ZN5kaldi5nnet113LstmComponentINS_15QuantizedMatrixIaEEE15SetTrainOptionsERKNS0_16NnetTrainOptionsE, 
                       __ZN5kaldi5nnet113LstmComponentINS_15QuantizedMatrixIaEEE16BackpropagateFncERKNS_12CuMatrixBaseIfEES8_S8_PS6_i, 
                       __ZN5kaldi5nnet113LstmComponentINS_15QuantizedMatrixIaEEE16RecurrentWeightsEv, 
                       __ZN5kaldi5nnet113LstmComponentINS_15QuantizedMatrixIaEEE17AllocateGradientsEv, 
                       __ZN5kaldi5nnet113LstmComponentINS_15QuantizedMatrixIaEEE17GetInternalMemoryEPNS_12CuMatrixBaseIfEEi, 
                       __ZN5kaldi5nnet113LstmComponentINS_15QuantizedMatrixIaEEE17ProjectionWeightsEv, 
                       __ZN5kaldi5nnet113LstmComponentINS_15QuantizedMatrixIaEEE17ResetHistoryStateERKNSt3__16vectorIbNS5_9allocatorIbEEEEPvi, 
                       __ZN5kaldi5nnet113LstmComponentINS_15QuantizedMatrixIaEEE17ResetHistoryStateEv, 
                       __ZN5kaldi5nnet113LstmComponentINS_15QuantizedMatrixIaEEE18NormalizeGradientsEfi, 
                       __ZN5kaldi5nnet113LstmComponentINS_15QuantizedMatrixIaEEE19SetInternalBoundaryERKNS_12CuVectorBaseIfEEi, 
                       __ZN5kaldi5nnet113LstmComponentINS_15QuantizedMatrixIaEEE20InputWeightsGradientEi, 
                       __ZN5kaldi5nnet113LstmComponentINS_15QuantizedMatrixIaEEE21EnsureTrainingBuffersEv, 
                       __ZN5kaldi5nnet113LstmComponentINS_15QuantizedMatrixIaEEE21VectorizeWeightsCorrsEPNS_11CuSubVectorIfEES7_PNSt3__16vectorIS6_NS8_9allocatorIS6_EEEE, 
                       __ZN5kaldi5nnet113LstmComponentINS_15QuantizedMatrixIaEEE22AllocateForwardBuffersEiiPv, 
                       __ZN5kaldi5nnet113LstmComponentINS_15QuantizedMatrixIaEEE22InitResidualAggregatorEPNS0_27QuantizerResidualAggregatorE, 
                       __ZN5kaldi5nnet113LstmComponentINS_15QuantizedMatrixIaEEE23AllocateBackwardBuffersEiiPv, 
                       __ZN5kaldi5nnet113LstmComponentINS_15QuantizedMatrixIaEEE23PeepholeWeightsGradientEi, 
                       __ZN5kaldi5nnet113LstmComponentINS_15QuantizedMatrixIaEEE24RecurrentWeightsGradientEi, 
                       __ZN5kaldi5nnet113LstmComponentINS_15QuantizedMatrixIaEEE24SetGradientNormalizationEfNS0_9Component16GradientNormTypeE, 
                       __ZN5kaldi5nnet113LstmComponentINS_15QuantizedMatrixIaEEE25ProjectionWeightsGradientEi, 
                       __ZN5kaldi5nnet113LstmComponentINS_15QuantizedMatrixIaEEE4BiasEv, 
                       __ZN5kaldi5nnet113LstmComponentINS_15QuantizedMatrixIaEEE8InitDataERNSt3__113basic_istreamIcNS5_11char_traitsIcEEEERNS_19UniformRandomNumberE, 
                       __ZN5kaldi5nnet113LstmComponentINS_15QuantizedMatrixIaEEE8ReadDataERNSt3__113basic_istreamIcNS5_11char_traitsIcEEEEbPKv, 
                       __ZN5kaldi5nnet113LstmComponentINS_15QuantizedMatrixIaEEE9ApplyCorrEfi, 
                       __ZN5kaldi5nnet113LstmComponentINS_15QuantizedMatrixIaEEE9SetParamsERKNS_10VectorBaseIfEE, 
                       __ZN5kaldi5nnet113LstmComponentINS_15QuantizedMatrixIaEEEC1ERKS4_, 
                       __ZN5kaldi5nnet113LstmComponentINS_15QuantizedMatrixIaEEEC1Eii, 
                       __ZN5kaldi5nnet113LstmComponentINS_15QuantizedMatrixIaEEEC1INS_12CuMatrixBaseIfEEEERKNS1_IT_EE, 
                       __ZN5kaldi5nnet113LstmComponentINS_15QuantizedMatrixIaEEEC2ERKS4_, 
                       __ZN5kaldi5nnet113LstmComponentINS_15QuantizedMatrixIaEEEC2Eii, 
                       __ZN5kaldi5nnet113LstmComponentINS_15QuantizedMatrixIaEEEC2INS_12CuMatrixBaseIfEEEERKNS1_IT_EE, 
                       __ZN5kaldi5nnet113LstmComponentINS_15QuantizedMatrixIaEEED0Ev, 
                       __ZN5kaldi5nnet113LstmComponentINS_15QuantizedMatrixIaEEED1Ev, 
                       __ZN5kaldi5nnet113LstmComponentINS_15QuantizedMatrixIaEEED2Ev, 
                       __ZN5kaldi5nnet113LstmComponentINS_15QuantizedMatrixIsEEE12BiasGradientEi, 
                       __ZN5kaldi5nnet113LstmComponentINS_15QuantizedMatrixIsEEE12InputWeightsEv, 
                       __ZN5kaldi5nnet113LstmComponentINS_15QuantizedMatrixIsEEE12PropagateFncERKNS_12CuMatrixBaseIfEEPS6_i, 
                       __ZN5kaldi5nnet113LstmComponentINS_15QuantizedMatrixIsEEE12PropagateFncERKNS_12CuVectorBaseIfEEPS6_, 
                       __ZN5kaldi5nnet113LstmComponentINS_15QuantizedMatrixIsEEE13CountZeroCorrEPiS5_, 
                       __ZN5kaldi5nnet113LstmComponentINS_15QuantizedMatrixIsEEE13EnsureBuffersEv, 
                       __ZN5kaldi5nnet113LstmComponentINS_15QuantizedMatrixIsEEE13PerturbParamsEf, 
                       __ZN5kaldi5nnet113LstmComponentINS_15QuantizedMatrixIsEEE13SaveLastStateEi, 
                       __ZN5kaldi5nnet113LstmComponentINS_15QuantizedMatrixIsEEE13UpdateWeightsEPvi, 
                       __ZN5kaldi5nnet113LstmComponentINS_15QuantizedMatrixIsEEE14AccumGradientsERKNS_12CuMatrixBaseIfEES8_Pvi, 
                       __ZN5kaldi5nnet113LstmComponentINS_15QuantizedMatrixIsEEE14AllocateParamsEi, 
                       __ZN5kaldi5nnet113LstmComponentINS_15QuantizedMatrixIsEEE15PeepholeWeightsEv, 
                       __ZN5kaldi5nnet113LstmComponentINS_15QuantizedMatrixIsEEE15SetHistoryStateERKNS_12CuMatrixBaseIfEEi, 
                       __ZN5kaldi5nnet113LstmComponentINS_15QuantizedMatrixIsEEE15SetHistoryStateERKNS_12CuVectorBaseIfEEii, 
                       __ZN5kaldi5nnet113LstmComponentINS_15QuantizedMatrixIsEEE15SetTrainOptionsERKNS0_16NnetTrainOptionsE, 
                       __ZN5kaldi5nnet113LstmComponentINS_15QuantizedMatrixIsEEE16BackpropagateFncERKNS_12CuMatrixBaseIfEES8_S8_PS6_i, 
                       __ZN5kaldi5nnet113LstmComponentINS_15QuantizedMatrixIsEEE16RecurrentWeightsEv, 
                       __ZN5kaldi5nnet113LstmComponentINS_15QuantizedMatrixIsEEE17AllocateGradientsEv, 
                       __ZN5kaldi5nnet113LstmComponentINS_15QuantizedMatrixIsEEE17GetInternalMemoryEPNS_12CuMatrixBaseIfEEi, 
                       __ZN5kaldi5nnet113LstmComponentINS_15QuantizedMatrixIsEEE17ProjectionWeightsEv, 
                       __ZN5kaldi5nnet113LstmComponentINS_15QuantizedMatrixIsEEE17ResetHistoryStateERKNSt3__16vectorIbNS5_9allocatorIbEEEEPvi, 
                       __ZN5kaldi5nnet113LstmComponentINS_15QuantizedMatrixIsEEE17ResetHistoryStateEv, 
                       __ZN5kaldi5nnet113LstmComponentINS_15QuantizedMatrixIsEEE18NormalizeGradientsEfi, 
                       __ZN5kaldi5nnet113LstmComponentINS_15QuantizedMatrixIsEEE19SetInternalBoundaryERKNS_12CuVectorBaseIfEEi, 
                       __ZN5kaldi5nnet113LstmComponentINS_15QuantizedMatrixIsEEE20InputWeightsGradientEi, 
                       __ZN5kaldi5nnet113LstmComponentINS_15QuantizedMatrixIsEEE21EnsureTrainingBuffersEv, 
                       __ZN5kaldi5nnet113LstmComponentINS_15QuantizedMatrixIsEEE21VectorizeWeightsCorrsEPNS_11CuSubVectorIfEES7_PNSt3__16vectorIS6_NS8_9allocatorIS6_EEEE, 
                       __ZN5kaldi5nnet113LstmComponentINS_15QuantizedMatrixIsEEE22AllocateForwardBuffersEiiPv, 
                       __ZN5kaldi5nnet113LstmComponentINS_15QuantizedMatrixIsEEE22InitResidualAggregatorEPNS0_27QuantizerResidualAggregatorE, 
                       __ZN5kaldi5nnet113LstmComponentINS_15QuantizedMatrixIsEEE23AllocateBackwardBuffersEiiPv, 
                       __ZN5kaldi5nnet113LstmComponentINS_15QuantizedMatrixIsEEE23PeepholeWeightsGradientEi, 
                       __ZN5kaldi5nnet113LstmComponentINS_15QuantizedMatrixIsEEE24RecurrentWeightsGradientEi, 
                       __ZN5kaldi5nnet113LstmComponentINS_15QuantizedMatrixIsEEE24SetGradientNormalizationEfNS0_9Component16GradientNormTypeE, 
                       __ZN5kaldi5nnet113LstmComponentINS_15QuantizedMatrixIsEEE25ProjectionWeightsGradientEi, 
                       __ZN5kaldi5nnet113LstmComponentINS_15QuantizedMatrixIsEEE4BiasEv, 
                       __ZN5kaldi5nnet113LstmComponentINS_15QuantizedMatrixIsEEE8InitDataERNSt3__113basic_istreamIcNS5_11char_traitsIcEEEERNS_19UniformRandomNumberE, 
                       __ZN5kaldi5nnet113LstmComponentINS_15QuantizedMatrixIsEEE8ReadDataERNSt3__113basic_istreamIcNS5_11char_traitsIcEEEEbPKv, 
                       __ZN5kaldi5nnet113LstmComponentINS_15QuantizedMatrixIsEEE9ApplyCorrEfi, 
                       __ZN5kaldi5nnet113LstmComponentINS_15QuantizedMatrixIsEEE9SetParamsERKNS_10VectorBaseIfEE, 
                       __ZN5kaldi5nnet113LstmComponentINS_15QuantizedMatrixIsEEEC1ERKS4_, 
                       __ZN5kaldi5nnet113LstmComponentINS_15QuantizedMatrixIsEEEC1Eii, 
                       __ZN5kaldi5nnet113LstmComponentINS_15QuantizedMatrixIsEEEC1INS_12CuMatrixBaseIfEEEERKNS1_IT_EE, 
                       __ZN5kaldi5nnet113LstmComponentINS_15QuantizedMatrixIsEEEC2ERKS4_, 
                       __ZN5kaldi5nnet113LstmComponentINS_15QuantizedMatrixIsEEEC2Eii, 
                       __ZN5kaldi5nnet113LstmComponentINS_15QuantizedMatrixIsEEEC2INS_12CuMatrixBaseIfEEEERKNS1_IT_EE, 
                       __ZN5kaldi5nnet113LstmComponentINS_15QuantizedMatrixIsEEED0Ev, 
                       __ZN5kaldi5nnet113LstmComponentINS_15QuantizedMatrixIsEEED1Ev, 
                       __ZN5kaldi5nnet113LstmComponentINS_15QuantizedMatrixIsEEED2Ev, 
                       __ZN5kaldi5nnet115LinearTransformINS_12CuMatrixBaseIfEEE11EnsureCorrsEv, 
                       __ZN5kaldi5nnet115LinearTransformINS_12CuMatrixBaseIfEEE12PropagateFncERKNS_12CuVectorBaseIfEEPS6_, 
                       __ZN5kaldi5nnet115LinearTransformINS_12CuMatrixBaseIfEEE12PropagateFncERKS3_PS3_i, 
                       __ZN5kaldi5nnet115LinearTransformINS_12CuMatrixBaseIfEEE12SetLinearityERKNS_10MatrixBaseIfEE, 
                       __ZN5kaldi5nnet115LinearTransformINS_12CuMatrixBaseIfEEE12SetLinearityERKS3_, 
                       __ZN5kaldi5nnet115LinearTransformINS_12CuMatrixBaseIfEEE13CountZeroCorrEPiS5_, 
                       __ZN5kaldi5nnet115LinearTransformINS_12CuMatrixBaseIfEEE13LinearityCorrEi, 
                       __ZN5kaldi5nnet115LinearTransformINS_12CuMatrixBaseIfEEE13PerturbParamsEf, 
                       __ZN5kaldi5nnet115LinearTransformINS_12CuMatrixBaseIfEEE14AccumGradientsERKS3_S6_Pvi, 
                       __ZN5kaldi5nnet115LinearTransformINS_12CuMatrixBaseIfEEE16BackpropagateFncERKS3_S6_S6_PS3_i, 
                       __ZN5kaldi5nnet115LinearTransformINS_12CuMatrixBaseIfEEE18NormalizeGradientsEfi, 
                       __ZN5kaldi5nnet115LinearTransformINS_12CuMatrixBaseIfEEE22InitResidualAggregatorEPNS0_27QuantizerResidualAggregatorE, 
                       __ZN5kaldi5nnet115LinearTransformINS_12CuMatrixBaseIfEEE24SetGradientNormalizationEfNS0_9Component16GradientNormTypeE, 
                       __ZN5kaldi5nnet115LinearTransformINS_12CuMatrixBaseIfEEE8InitDataERNSt3__113basic_istreamIcNS5_11char_traitsIcEEEERNS_19UniformRandomNumberE, 
                       __ZN5kaldi5nnet115LinearTransformINS_12CuMatrixBaseIfEEE8ReadDataERNSt3__113basic_istreamIcNS5_11char_traitsIcEEEEbPKv, 
                       __ZN5kaldi5nnet115LinearTransformINS_12CuMatrixBaseIfEEE9ApplyCorrEfi, 
                       __ZN5kaldi5nnet115LinearTransformINS_12CuMatrixBaseIfEEE9LinearityEv, 
                       __ZN5kaldi5nnet115LinearTransformINS_12CuMatrixBaseIfEEE9SetParamsERKNS_10VectorBaseIfEE, 
                       __ZN5kaldi5nnet115LinearTransformINS_12CuMatrixBaseIfEEEC1ERKS4_, 
                       __ZN5kaldi5nnet115LinearTransformINS_12CuMatrixBaseIfEEEC2ERKS4_, 
                       __ZN5kaldi5nnet115LinearTransformINS_12CuMatrixBaseIfEEED0Ev, 
                       __ZN5kaldi5nnet115LinearTransformINS_12CuMatrixBaseIfEEED1Ev, 
                       __ZN5kaldi5nnet115LinearTransformINS_12CuMatrixBaseIfEEED2Ev, 
                       __ZN5kaldi5nnet115LinearTransformINS_15QuantizedMatrixIaEEE11EnsureCorrsEv, 
                       __ZN5kaldi5nnet115LinearTransformINS_15QuantizedMatrixIaEEE12PropagateFncERKNS_12CuMatrixBaseIfEEPS6_i, 
                       __ZN5kaldi5nnet115LinearTransformINS_15QuantizedMatrixIaEEE12PropagateFncERKNS_12CuVectorBaseIfEEPS6_, 
                       __ZN5kaldi5nnet115LinearTransformINS_15QuantizedMatrixIaEEE12SetLinearityERKNS_10MatrixBaseIfEE, 
                       __ZN5kaldi5nnet115LinearTransformINS_15QuantizedMatrixIaEEE12SetLinearityERKS3_, 
                       __ZN5kaldi5nnet115LinearTransformINS_15QuantizedMatrixIaEEE13CountZeroCorrEPiS5_, 
                       __ZN5kaldi5nnet115LinearTransformINS_15QuantizedMatrixIaEEE13LinearityCorrEi, 
                       __ZN5kaldi5nnet115LinearTransformINS_15QuantizedMatrixIaEEE13PerturbParamsEf, 
                       __ZN5kaldi5nnet115LinearTransformINS_15QuantizedMatrixIaEEE13UpdateWeightsEPvi, 
                       __ZN5kaldi5nnet115LinearTransformINS_15QuantizedMatrixIaEEE14AccumGradientsERKNS_12CuMatrixBaseIfEES8_Pvi, 
                       __ZN5kaldi5nnet115LinearTransformINS_15QuantizedMatrixIaEEE16BackpropagateFncERKNS_12CuMatrixBaseIfEES8_S8_PS6_i, 
                       __ZN5kaldi5nnet115LinearTransformINS_15QuantizedMatrixIaEEE18NormalizeGradientsEfi, 
                       __ZN5kaldi5nnet115LinearTransformINS_15QuantizedMatrixIaEEE21VectorizeWeightsCorrsEPNS_11CuSubVectorIfEES7_PNSt3__16vectorIS6_NS8_9allocatorIS6_EEEE, 
                       __ZN5kaldi5nnet115LinearTransformINS_15QuantizedMatrixIaEEE22InitResidualAggregatorEPNS0_27QuantizerResidualAggregatorE, 
                       __ZN5kaldi5nnet115LinearTransformINS_15QuantizedMatrixIaEEE24SetGradientNormalizationEfNS0_9Component16GradientNormTypeE, 
                       __ZN5kaldi5nnet115LinearTransformINS_15QuantizedMatrixIaEEE8InitDataERNSt3__113basic_istreamIcNS5_11char_traitsIcEEEERNS_19UniformRandomNumberE, 
                       __ZN5kaldi5nnet115LinearTransformINS_15QuantizedMatrixIaEEE8ReadDataERNSt3__113basic_istreamIcNS5_11char_traitsIcEEEEbPKv, 
                       __ZN5kaldi5nnet115LinearTransformINS_15QuantizedMatrixIaEEE9ApplyCorrEfi, 
                       __ZN5kaldi5nnet115LinearTransformINS_15QuantizedMatrixIaEEE9LinearityEv, 
                       __ZN5kaldi5nnet115LinearTransformINS_15QuantizedMatrixIaEEE9SetParamsERKNS_10VectorBaseIfEE, 
                       __ZN5kaldi5nnet115LinearTransformINS_15QuantizedMatrixIaEEEC1ERKS4_, 
                       __ZN5kaldi5nnet115LinearTransformINS_15QuantizedMatrixIaEEEC1Eii, 
                       __ZN5kaldi5nnet115LinearTransformINS_15QuantizedMatrixIaEEEC2ERKS4_, 
                       __ZN5kaldi5nnet115LinearTransformINS_15QuantizedMatrixIaEEEC2Eii, 
                       __ZN5kaldi5nnet115LinearTransformINS_15QuantizedMatrixIaEEED0Ev, 
                       __ZN5kaldi5nnet115LinearTransformINS_15QuantizedMatrixIaEEED1Ev, 
                       __ZN5kaldi5nnet115LinearTransformINS_15QuantizedMatrixIaEEED2Ev, 
                       __ZN5kaldi5nnet115LinearTransformINS_15QuantizedMatrixIsEEE11EnsureCorrsEv, 
                       __ZN5kaldi5nnet115LinearTransformINS_15QuantizedMatrixIsEEE12PropagateFncERKNS_12CuMatrixBaseIfEEPS6_i, 
                       __ZN5kaldi5nnet115LinearTransformINS_15QuantizedMatrixIsEEE12PropagateFncERKNS_12CuVectorBaseIfEEPS6_, 
                       __ZN5kaldi5nnet115LinearTransformINS_15QuantizedMatrixIsEEE12SetLinearityERKNS_10MatrixBaseIfEE, 
                       __ZN5kaldi5nnet115LinearTransformINS_15QuantizedMatrixIsEEE12SetLinearityERKS3_, 
                       __ZN5kaldi5nnet115LinearTransformINS_15QuantizedMatrixIsEEE13CountZeroCorrEPiS5_, 
                       __ZN5kaldi5nnet115LinearTransformINS_15QuantizedMatrixIsEEE13LinearityCorrEi, 
                       __ZN5kaldi5nnet115LinearTransformINS_15QuantizedMatrixIsEEE13PerturbParamsEf, 
                       __ZN5kaldi5nnet115LinearTransformINS_15QuantizedMatrixIsEEE13UpdateWeightsEPvi, 
                       __ZN5kaldi5nnet115LinearTransformINS_15QuantizedMatrixIsEEE14AccumGradientsERKNS_12CuMatrixBaseIfEES8_Pvi, 
                       __ZN5kaldi5nnet115LinearTransformINS_15QuantizedMatrixIsEEE16BackpropagateFncERKNS_12CuMatrixBaseIfEES8_S8_PS6_i, 
                       __ZN5kaldi5nnet115LinearTransformINS_15QuantizedMatrixIsEEE18NormalizeGradientsEfi, 
                       __ZN5kaldi5nnet115LinearTransformINS_15QuantizedMatrixIsEEE21VectorizeWeightsCorrsEPNS_11CuSubVectorIfEES7_PNSt3__16vectorIS6_NS8_9allocatorIS6_EEEE, 
                       __ZN5kaldi5nnet115LinearTransformINS_15QuantizedMatrixIsEEE22InitResidualAggregatorEPNS0_27QuantizerResidualAggregatorE, 
                       __ZN5kaldi5nnet115LinearTransformINS_15QuantizedMatrixIsEEE24SetGradientNormalizationEfNS0_9Component16GradientNormTypeE, 
                       __ZN5kaldi5nnet115LinearTransformINS_15QuantizedMatrixIsEEE8InitDataERNSt3__113basic_istreamIcNS5_11char_traitsIcEEEERNS_19UniformRandomNumberE, 
                       __ZN5kaldi5nnet115LinearTransformINS_15QuantizedMatrixIsEEE8ReadDataERNSt3__113basic_istreamIcNS5_11char_traitsIcEEEEbPKv, 
                       __ZN5kaldi5nnet115LinearTransformINS_15QuantizedMatrixIsEEE9ApplyCorrEfi, 
                       __ZN5kaldi5nnet115LinearTransformINS_15QuantizedMatrixIsEEE9LinearityEv, 
                       __ZN5kaldi5nnet115LinearTransformINS_15QuantizedMatrixIsEEE9SetParamsERKNS_10VectorBaseIfEE, 
                       __ZN5kaldi5nnet115LinearTransformINS_15QuantizedMatrixIsEEEC1ERKS4_, 
                       __ZN5kaldi5nnet115LinearTransformINS_15QuantizedMatrixIsEEEC1Eii, 
                       __ZN5kaldi5nnet115LinearTransformINS_15QuantizedMatrixIsEEEC2ERKS4_, 
                       __ZN5kaldi5nnet115LinearTransformINS_15QuantizedMatrixIsEEEC2Eii, 
                       __ZN5kaldi5nnet115LinearTransformINS_15QuantizedMatrixIsEEED0Ev, 
                       __ZN5kaldi5nnet115LinearTransformINS_15QuantizedMatrixIsEEED1Ev, 
                       __ZN5kaldi5nnet115LinearTransformINS_15QuantizedMatrixIsEEED2Ev, 
                       __ZN5kaldi5nnet119StdVectorRandomizerINSt3__16vectorINS2_4pairIifEENS2_9allocatorIS5_EEEEE4InitERKNS0_25NnetDataRandomizerOptionsE, 
                       __ZN5kaldi5nnet119StdVectorRandomizerINSt3__16vectorINS2_4pairIifEENS2_9allocatorIS5_EEEEE4NextEv, 
                       __ZN5kaldi5nnet119StdVectorRandomizerINSt3__16vectorINS2_4pairIifEENS2_9allocatorIS5_EEEEE5ResetEv, 
                       __ZN5kaldi5nnet119StdVectorRandomizerINSt3__16vectorINS2_4pairIifEENS2_9allocatorIS5_EEEEE5ValueEiPv, 
                       __ZN5kaldi5nnet119StdVectorRandomizerINSt3__16vectorINS2_4pairIifEENS2_9allocatorIS5_EEEEE5ValueEv, 
                       __ZN5kaldi5nnet119StdVectorRandomizerINSt3__16vectorINS2_4pairIifEENS2_9allocatorIS5_EEEEE6IsFullEv, 
                       __ZN5kaldi5nnet119StdVectorRandomizerINSt3__16vectorINS2_4pairIifEENS2_9allocatorIS5_EEEEE7AddDataERKNS3_IS8_NS6_IS8_EEEE, 
                       __ZN5kaldi5nnet119StdVectorRandomizerINSt3__16vectorINS2_4pairIifEENS2_9allocatorIS5_EEEEE9NumFramesEv, 
                       __ZN5kaldi5nnet119StdVectorRandomizerINSt3__16vectorINS2_4pairIifEENS2_9allocatorIS5_EEEEE9RandomizeERKNS3_IiNS6_IiEEEE, 
                       __ZN5kaldi5nnet119StdVectorRandomizerINSt3__16vectorINS2_4pairIifEENS2_9allocatorIS5_EEEEEC1ERKNS0_25NnetDataRandomizerOptionsEi, 
                       __ZN5kaldi5nnet119StdVectorRandomizerINSt3__16vectorINS2_4pairIifEENS2_9allocatorIS5_EEEEEC1Ev, 
                       __ZN5kaldi5nnet119StdVectorRandomizerINSt3__16vectorINS2_4pairIifEENS2_9allocatorIS5_EEEEEC2ERKNS0_25NnetDataRandomizerOptionsEi, 
                       __ZN5kaldi5nnet119StdVectorRandomizerINSt3__16vectorINS2_4pairIifEENS2_9allocatorIS5_EEEEEC2Ev, 
                       __ZN5kaldi5nnet119StdVectorRandomizerIiE4InitERKNS0_25NnetDataRandomizerOptionsE, 
                       __ZN5kaldi5nnet119StdVectorRandomizerIiE4NextEv, __ZN5kaldi5nnet119StdVectorRandomizerIiE5ResetEv, 
                       __ZN5kaldi5nnet119StdVectorRandomizerIiE5ValueEiPv, __ZN5kaldi5nnet119StdVectorRandomizerIiE5ValueEv, 
                       __ZN5kaldi5nnet119StdVectorRandomizerIiE6IsFullEv, __ZN5kaldi5nnet119StdVectorRandomizerIiE7AddDataERKNSt3__16vectorIiNS3_9allocatorIiEEEE, 
                       __ZN5kaldi5nnet119StdVectorRandomizerIiE9NumFramesEv, __ZN5kaldi5nnet119StdVectorRandomizerIiE9RandomizeERKNSt3__16vectorIiNS3_9allocatorIiEEEE, 
                       __ZN5kaldi5nnet119StdVectorRandomizerIiEC1ERKNS0_25NnetDataRandomizerOptionsEi, 
                       __ZN5kaldi5nnet119StdVectorRandomizerIiEC1Ev, __ZN5kaldi5nnet119StdVectorRandomizerIiEC2ERKNS0_25NnetDataRandomizerOptionsEi, 
                       __ZN5kaldi5nnet119StdVectorRandomizerIiEC2Ev, __ZN5kaldi5nnet121WordMultiVecComponentINS_12CuMatrixBaseIfEEE11EnsureCorrsEv, 
                       __ZN5kaldi5nnet121WordMultiVecComponentINS_12CuMatrixBaseIfEEE12PropagateFncERKS3_PS3_i, 
                       __ZN5kaldi5nnet121WordMultiVecComponentINS_12CuMatrixBaseIfEEE13CountZeroCorrEPiS5_, 
                       __ZN5kaldi5nnet121WordMultiVecComponentINS_12CuMatrixBaseIfEEE15SetTrainOptionsERKNS0_16NnetTrainOptionsE, 
                       __ZN5kaldi5nnet121WordMultiVecComponentINS_12CuMatrixBaseIfEEE16BackpropagateFncERKS3_S6_S6_PS3_i, 
                       __ZN5kaldi5nnet121WordMultiVecComponentINS_12CuMatrixBaseIfEEE18NormalizeGradientsEfi, 
                       __ZN5kaldi5nnet121WordMultiVecComponentINS_12CuMatrixBaseIfEEE22InitResidualAggregatorEPNS0_27QuantizerResidualAggregatorE, 
                       __ZN5kaldi5nnet121WordMultiVecComponentINS_12CuMatrixBaseIfEEE24SetGradientNormalizationEfNS0_9Component16GradientNormTypeE, 
                       __ZN5kaldi5nnet121WordMultiVecComponentINS_12CuMatrixBaseIfEEE8InitDataERNSt3__113basic_istreamIcNS5_11char_traitsIcEEEERNS_19UniformRandomNumberE, 
                       __ZN5kaldi5nnet121WordMultiVecComponentINS_12CuMatrixBaseIfEEE8ReadDataERNSt3__113basic_istreamIcNS5_11char_traitsIcEEEEbPKv, 
                       __ZN5kaldi5nnet121WordMultiVecComponentINS_12CuMatrixBaseIfEEE9SetParamsERKNS_10VectorBaseIfEE, 
                       __ZN5kaldi5nnet121WordMultiVecComponentINS_12CuMatrixBaseIfEEEC1ERKS4_, 
                       __ZN5kaldi5nnet121WordMultiVecComponentINS_12CuMatrixBaseIfEEEC1Eii, 
                       __ZN5kaldi5nnet121WordMultiVecComponentINS_12CuMatrixBaseIfEEEC2ERKS4_, 
                       __ZN5kaldi5nnet121WordMultiVecComponentINS_12CuMatrixBaseIfEEEC2Eii, 
                       __ZN5kaldi5nnet121WordMultiVecComponentINS_12CuMatrixBaseIfEEED0Ev, 
                       __ZN5kaldi5nnet121WordMultiVecComponentINS_12CuMatrixBaseIfEEED1Ev, 
                       __ZN5kaldi5nnet121WordMultiVecComponentINS_12CuMatrixBaseIfEEED2Ev, 
                       __ZN5kaldi5nnet121WordMultiVecComponentINS_12CuMatrixBaseIfEEEaSERKS4_, 
                       __ZN5kaldi5nnet121WordMultiVecComponentINS_16CompressedMatrixEE11EnsureCorrsEv, 
                       __ZN5kaldi5nnet121WordMultiVecComponentINS_16CompressedMatrixEE12PropagateFncERKNS_12CuMatrixBaseIfEEPS5_i, 
                       __ZN5kaldi5nnet121WordMultiVecComponentINS_16CompressedMatrixEE13CountZeroCorrEPiS4_, 
                       __ZN5kaldi5nnet121WordMultiVecComponentINS_16CompressedMatrixEE13PerturbParamsEf, 
                       __ZN5kaldi5nnet121WordMultiVecComponentINS_16CompressedMatrixEE13UpdateWeightsEPvi, 
                       __ZN5kaldi5nnet121WordMultiVecComponentINS_16CompressedMatrixEE14AccumGradientsERKNS_12CuMatrixBaseIfEES7_Pvi, 
                       __ZN5kaldi5nnet121WordMultiVecComponentINS_16CompressedMatrixEE15SetTrainOptionsERKNS0_16NnetTrainOptionsE, 
                       __ZN5kaldi5nnet121WordMultiVecComponentINS_16CompressedMatrixEE16BackpropagateFncERKNS_12CuMatrixBaseIfEES7_S7_PS5_i, 
                       __ZN5kaldi5nnet121WordMultiVecComponentINS_16CompressedMatrixEE18NormalizeGradientsEfi, 
                       __ZN5kaldi5nnet121WordMultiVecComponentINS_16CompressedMatrixEE21VectorizeWeightsCorrsEPNS_11CuSubVectorIfEES6_PNSt3__16vectorIS5_NS7_9allocatorIS5_EEEE, 
                       __ZN5kaldi5nnet121WordMultiVecComponentINS_16CompressedMatrixEE22InitResidualAggregatorEPNS0_27QuantizerResidualAggregatorE, 
                       __ZN5kaldi5nnet121WordMultiVecComponentINS_16CompressedMatrixEE24SetGradientNormalizationEfNS0_9Component16GradientNormTypeE, 
                       __ZN5kaldi5nnet121WordMultiVecComponentINS_16CompressedMatrixEE8InitDataERNSt3__113basic_istreamIcNS4_11char_traitsIcEEEERNS_19UniformRandomNumberE, 
                       __ZN5kaldi5nnet121WordMultiVecComponentINS_16CompressedMatrixEE8ReadDataERNSt3__113basic_istreamIcNS4_11char_traitsIcEEEEbPKv, 
                       __ZN5kaldi5nnet121WordMultiVecComponentINS_16CompressedMatrixEE9SetParamsERKNS_10VectorBaseIfEE, 
                       __ZN5kaldi5nnet121WordMultiVecComponentINS_16CompressedMatrixEEC1ERKS3_, 
                       __ZN5kaldi5nnet121WordMultiVecComponentINS_16CompressedMatrixEEC1Eii, 
                       __ZN5kaldi5nnet121WordMultiVecComponentINS_16CompressedMatrixEEC2ERKS3_, 
                       __ZN5kaldi5nnet121WordMultiVecComponentINS_16CompressedMatrixEEC2Eii, 
                       __ZN5kaldi5nnet121WordMultiVecComponentINS_16CompressedMatrixEED0Ev, 
                       __ZN5kaldi5nnet121WordMultiVecComponentINS_16CompressedMatrixEED1Ev, 
                       __ZN5kaldi5nnet121WordMultiVecComponentINS_16CompressedMatrixEED2Ev, 
                       __ZN5kaldi5nnet121WordMultiVecComponentINS_16CompressedMatrixEEaSERKS3_, 
                       __ZN5kaldi5nnet124Convolutional2DComponentINS_12CuMatrixBaseIfEEE11EnsureCorrsEv, 
                       __ZN5kaldi5nnet124Convolutional2DComponentINS_12CuMatrixBaseIfEEE12PropagateCpuERKS3_PS3_i, 
                       __ZN5kaldi5nnet124Convolutional2DComponentINS_12CuMatrixBaseIfEEE12PropagateFncERKS3_PS3_i, 
                       __ZN5kaldi5nnet124Convolutional2DComponentINS_12CuMatrixBaseIfEEE13CountZeroCorrEPiS5_, 
                       __ZN5kaldi5nnet124Convolutional2DComponentINS_12CuMatrixBaseIfEEE13PerturbParamsEf, 
                       __ZN5kaldi5nnet124Convolutional2DComponentINS_12CuMatrixBaseIfEEE13PropagateBNNSERKS3_PS3_i, 
                       __ZN5kaldi5nnet124Convolutional2DComponentINS_12CuMatrixBaseIfEEE14AccumGradientsERKS3_S6_Pvi, 
                       __ZN5kaldi5nnet124Convolutional2DComponentINS_12CuMatrixBaseIfEEE14PropagateCuDNNERKS3_PS3_i, 
                       __ZN5kaldi5nnet124Convolutional2DComponentINS_12CuMatrixBaseIfEEE15WorkspaceMemoryEi, 
                       __ZN5kaldi5nnet124Convolutional2DComponentINS_12CuMatrixBaseIfEEE16BackpropagateCpuERKS3_S6_S6_PS3_i, 
                       __ZN5kaldi5nnet124Convolutional2DComponentINS_12CuMatrixBaseIfEEE16BackpropagateFncERKS3_S6_S6_PS3_i, 
                       __ZN5kaldi5nnet124Convolutional2DComponentINS_12CuMatrixBaseIfEEE16ResetInputConfigEiiii, 
                       __ZN5kaldi5nnet124Convolutional2DComponentINS_12CuMatrixBaseIfEEE16UpdateBNNSFilterEv, 
                       __ZN5kaldi5nnet124Convolutional2DComponentINS_12CuMatrixBaseIfEEE17AccumGradientsCpuERKS3_S6_Pvi, 
                       __ZN5kaldi5nnet124Convolutional2DComponentINS_12CuMatrixBaseIfEEE17BenchmarkCuDnnFwdEiPKvS6_PvS7_x, 
                       __ZN5kaldi5nnet124Convolutional2DComponentINS_12CuMatrixBaseIfEEE17DestroyBnnsFilterEv, 
                       __ZN5kaldi5nnet124Convolutional2DComponentINS_12CuMatrixBaseIfEEE18BackpropagateCuDnnERKS3_S6_S6_PS3_i, 
                       __ZN5kaldi5nnet124Convolutional2DComponentINS_12CuMatrixBaseIfEEE18CreateCudnnHandlesEi, 
                       __ZN5kaldi5nnet124Convolutional2DComponentINS_12CuMatrixBaseIfEEE18NormalizeGradientsEfi, 
                       __ZN5kaldi5nnet124Convolutional2DComponentINS_12CuMatrixBaseIfEEE19AccumGradientsCuDnnERKS3_S6_Pvi, 
                       __ZN5kaldi5nnet124Convolutional2DComponentINS_12CuMatrixBaseIfEEE19DestroyCudnnHandlesEv, 
                       __ZN5kaldi5nnet124Convolutional2DComponentINS_12CuMatrixBaseIfEEE21VectorizeWeightsCorrsEPNS_11CuSubVectorIfEES7_PNSt3__16vectorIS6_NS8_9allocatorIS6_EEEE, 
                       __ZN5kaldi5nnet124Convolutional2DComponentINS_12CuMatrixBaseIfEEE22BenchmarkCuDnnBackwardEiPKvS6_PvS7_x, 
                       __ZN5kaldi5nnet124Convolutional2DComponentINS_12CuMatrixBaseIfEEE22InitResidualAggregatorEPNS0_27QuantizerResidualAggregatorE, 
                       __ZN5kaldi5nnet124Convolutional2DComponentINS_12CuMatrixBaseIfEEE24SetGradientNormalizationEfNS0_9Component16GradientNormTypeE, 
                       __ZN5kaldi5nnet124Convolutional2DComponentINS_12CuMatrixBaseIfEEE28BenchmarkCuDnnBackwardFilterEiPKvS6_PvS7_x, 
                       __ZN5kaldi5nnet124Convolutional2DComponentINS_12CuMatrixBaseIfEEE8InitDataERNSt3__113basic_istreamIcNS5_11char_traitsIcEEEERNS_19UniformRandomNumberE, 
                       __ZN5kaldi5nnet124Convolutional2DComponentINS_12CuMatrixBaseIfEEE8ReadDataERNSt3__113basic_istreamIcNS5_11char_traitsIcEEEEbPKv, 
                       __ZN5kaldi5nnet124Convolutional2DComponentINS_12CuMatrixBaseIfEEE9SetParamsERKNS_10VectorBaseIfEE, 
                       __ZN5kaldi5nnet124Convolutional2DComponentINS_12CuMatrixBaseIfEEEC1ERKS4_, 
                       __ZN5kaldi5nnet124Convolutional2DComponentINS_12CuMatrixBaseIfEEEC1Eii, 
                       __ZN5kaldi5nnet124Convolutional2DComponentINS_12CuMatrixBaseIfEEEC2ERKS4_, 
                       __ZN5kaldi5nnet124Convolutional2DComponentINS_12CuMatrixBaseIfEEEC2Eii, 
                       __ZN5kaldi5nnet124Convolutional2DComponentINS_12CuMatrixBaseIfEEED0Ev, 
                       __ZN5kaldi5nnet124Convolutional2DComponentINS_12CuMatrixBaseIfEEED1Ev, 
                       __ZN5kaldi5nnet124Convolutional2DComponentINS_12CuMatrixBaseIfEEED2Ev, 
                       __ZN5kaldi5nnet124Convolutional2DComponentINS_12CuMatrixBaseIfEEEaSERKS4_, 
                       __ZN5kaldi5nnet124Convolutional2DComponentINS_15QuantizedMatrixIaEEE11EnsureCorrsEv, 
                       __ZN5kaldi5nnet124Convolutional2DComponentINS_15QuantizedMatrixIaEEE12PropagateCpuERKNS_12CuMatrixBaseIfEEPS6_i, 
                       __ZN5kaldi5nnet124Convolutional2DComponentINS_15QuantizedMatrixIaEEE12PropagateFncERKNS_12CuMatrixBaseIfEEPS6_i, 
                       __ZN5kaldi5nnet124Convolutional2DComponentINS_15QuantizedMatrixIaEEE13CountZeroCorrEPiS5_, 
                       __ZN5kaldi5nnet124Convolutional2DComponentINS_15QuantizedMatrixIaEEE13PerturbParamsEf, 
