--- !tapi-tbd
tbd-version:     4
targets:         [ x86_64-macos, arm64-macos, arm64e-macos ]
install-name:    '/System/Library/PrivateFrameworks/CorePhotogrammetry.framework/Versions/A/CorePhotogrammetry'
current-version: 3.9.4
compatibility-version: 3.9.4
exports:
  - targets:         [ x86_64-macos ]
    weak-symbols:    [ __ZTIFvvE, __ZTIN5boost9container12out_of_rangeE, __ZTIN5boost9container9exceptionE, 
                       __ZTINSt3__110__back_refIcEE, __ZTINSt3__110__function6__baseIFNS_12basic_stringIcNS_11char_traitsIcEENS_9allocatorIcEEEERKPKcEEE, 
                       __ZTINSt3__110__function6__baseIFNS_12basic_stringIcNS_11char_traitsIcEENS_9allocatorIcEEEERKcEEE, 
                       __ZTINSt3__110__function6__baseIFNS_12basic_stringIcNS_11char_traitsIcEENS_9allocatorIcEEEERKjEEE, 
                       __ZTINSt3__110__function6__baseIFvvEEE, __ZTINSt3__110__function6__funcIPFvvENS_9allocatorIS3_EES2_EE, 
                       __ZTINSt3__111__alternateIcEE, __ZTINSt3__111__end_stateIcEE, 
                       __ZTINSt3__111__lookaheadIcNS_12regex_traitsIcEEEE, __ZTINSt3__111__match_anyIcEE, 
                       __ZTINSt3__112__match_charIcEE, __ZTINSt3__112bad_weak_ptrE, 
                       __ZTINSt3__112basic_stringIcNS_11char_traitsIcEENS_9allocatorIcEEEE, 
                       __ZTINSt3__113__empty_stateIcEE, __ZTINSt3__115__has_one_stateIcEE, 
                       __ZTINSt3__115__word_boundaryIcNS_12regex_traitsIcEEEE, __ZTINSt3__116__back_ref_icaseIcNS_12regex_traitsIcEEEE, 
                       __ZTINSt3__116__owns_one_stateIcEE, __ZTINSt3__117__owns_two_statesIcEE, 
                       __ZTINSt3__117__repeat_one_loopIcEE, __ZTINSt3__117bad_function_callE, 
                       __ZTINSt3__118__back_ref_collateIcNS_12regex_traitsIcEEEE, 
                       __ZTINSt3__118__match_char_icaseIcNS_12regex_traitsIcEEEE, 
                       __ZTINSt3__120__bracket_expressionIcNS_12regex_traitsIcEEEE, 
                       __ZTINSt3__120__l_anchor_multilineIcEE, __ZTINSt3__120__match_char_collateIcNS_12regex_traitsIcEEEE, 
                       __ZTINSt3__120__r_anchor_multilineIcEE, __ZTINSt3__120__shared_ptr_emplaceINS_15recursive_mutexENS_9allocatorIS1_EEEE, 
                       __ZTINSt3__120__shared_ptr_emplaceINS_18basic_stringstreamIcNS_11char_traitsIcEENS_9allocatorIcEEEENS4_IS6_EEEE, 
                       __ZTINSt3__120__shared_ptr_emplaceINS_6vectorIhNS_9allocatorIhEEEENS2_IS4_EEEE, 
                       __ZTINSt3__120__shared_ptr_emplaceINS_8seed_seqENS_9allocatorIS1_EEEE, 
                       __ZTINSt3__120__shared_ptr_pointerIPNS_12basic_stringIcNS_11char_traitsIcEENS_9allocatorIcEEEENS_10shared_ptrIKS6_E27__shared_ptr_default_deleteIS9_S6_EENS4_IS6_EEEE, 
                       __ZTINSt3__120__shared_ptr_pointerIPNS_13__empty_stateIcEENS_10shared_ptrIS2_E27__shared_ptr_default_deleteIS2_S2_EENS_9allocatorIS2_EEEE, 
                       __ZTINSt3__120__shared_ptr_pointerIPNS_14basic_ifstreamIcNS_11char_traitsIcEEEENS_10shared_ptrIS4_E27__shared_ptr_default_deleteIS4_S4_EENS_9allocatorIS4_EEEE, 
                       __ZTINSt3__120__shared_ptr_pointerIPNS_14basic_ifstreamIcNS_11char_traitsIcEEEENS_14default_deleteIS4_EENS_9allocatorIS4_EEEE, 
                       __ZTINSt3__120__shared_ptr_pointerIPNS_14basic_ofstreamIcNS_11char_traitsIcEEEENS_10shared_ptrIS4_E27__shared_ptr_default_deleteIS4_S4_EENS_9allocatorIS4_EEEE, 
                       __ZTINSt3__120__shared_ptr_pointerIPNS_14basic_ofstreamIcNS_11char_traitsIcEEEENS_14default_deleteIS4_EENS_9allocatorIS4_EEEE, 
                       __ZTINSt3__120__shared_ptr_pointerIPNS_18basic_stringstreamIcNS_11char_traitsIcEENS_9allocatorIcEEEENS_10shared_ptrIS6_E27__shared_ptr_default_deleteIS6_S6_EENS4_IS6_EEEE, 
                       __ZTINSt3__121__empty_non_own_stateIcEE, __ZTINSt3__123__match_any_but_newlineIcEE, 
                       __ZTINSt3__126__end_marked_subexpressionIcEE, __ZTINSt3__128__begin_marked_subexpressionIcEE, 
                       __ZTINSt3__16__loopIcEE, __ZTINSt3__16__nodeIcEE, __ZTINSt3__16vectorIfNS_9allocatorIfEEEE, 
                       __ZTINSt3__16vectorIhNS_9allocatorIhEEEE, __ZTINSt3__16vectorItNS_9allocatorItEEEE, 
                       __ZTIPFvvE, __ZTISt11logic_error, __ZTISt11range_error, __ZTISt12length_error, 
                       __ZTISt12out_of_range, __ZTISt13runtime_error, __ZTISt16invalid_argument, 
                       __ZTISt18bad_variant_access, __ZTISt19bad_optional_access, 
                       __ZTISt20bad_array_new_length, __ZTISt9bad_alloc, __ZTISt9exception, 
                       __ZTSFvvE, __ZTSN5boost9container12out_of_rangeE, __ZTSN5boost9container9exceptionE, 
                       __ZTSNSt3__110__back_refIcEE, __ZTSNSt3__110__function6__baseIFNS_12basic_stringIcNS_11char_traitsIcEENS_9allocatorIcEEEERKPKcEEE, 
                       __ZTSNSt3__110__function6__baseIFNS_12basic_stringIcNS_11char_traitsIcEENS_9allocatorIcEEEERKcEEE, 
                       __ZTSNSt3__110__function6__baseIFNS_12basic_stringIcNS_11char_traitsIcEENS_9allocatorIcEEEERKjEEE, 
                       __ZTSNSt3__110__function6__baseIFvvEEE, __ZTSNSt3__110__function6__funcIPFvvENS_9allocatorIS3_EES2_EE, 
                       __ZTSNSt3__110shared_ptrIKNS_12basic_stringIcNS_11char_traitsIcEENS_9allocatorIcEEEEE27__shared_ptr_default_deleteIS7_S6_EE, 
                       __ZTSNSt3__110shared_ptrINS_13__empty_stateIcEEE27__shared_ptr_default_deleteIS2_S2_EE, 
                       __ZTSNSt3__110shared_ptrINS_14basic_ifstreamIcNS_11char_traitsIcEEEEE27__shared_ptr_default_deleteIS4_S4_EE, 
                       __ZTSNSt3__110shared_ptrINS_14basic_ofstreamIcNS_11char_traitsIcEEEEE27__shared_ptr_default_deleteIS4_S4_EE, 
                       __ZTSNSt3__110shared_ptrINS_18basic_stringstreamIcNS_11char_traitsIcEENS_9allocatorIcEEEEE27__shared_ptr_default_deleteIS6_S6_EE, 
                       __ZTSNSt3__111__alternateIcEE, __ZTSNSt3__111__end_stateIcEE, 
                       __ZTSNSt3__111__lookaheadIcNS_12regex_traitsIcEEEE, __ZTSNSt3__111__match_anyIcEE, 
                       __ZTSNSt3__112__match_charIcEE, __ZTSNSt3__112bad_weak_ptrE, 
                       __ZTSNSt3__112basic_stringIcNS_11char_traitsIcEENS_9allocatorIcEEEE, 
                       __ZTSNSt3__113__empty_stateIcEE, __ZTSNSt3__114default_deleteINS_14basic_ifstreamIcNS_11char_traitsIcEEEEEE, 
                       __ZTSNSt3__114default_deleteINS_14basic_ofstreamIcNS_11char_traitsIcEEEEEE, 
                       __ZTSNSt3__115__has_one_stateIcEE, __ZTSNSt3__115__word_boundaryIcNS_12regex_traitsIcEEEE, 
                       __ZTSNSt3__116__back_ref_icaseIcNS_12regex_traitsIcEEEE, __ZTSNSt3__116__owns_one_stateIcEE, 
                       __ZTSNSt3__117__owns_two_statesIcEE, __ZTSNSt3__117__repeat_one_loopIcEE, 
                       __ZTSNSt3__117bad_function_callE, __ZTSNSt3__118__back_ref_collateIcNS_12regex_traitsIcEEEE, 
                       __ZTSNSt3__118__match_char_icaseIcNS_12regex_traitsIcEEEE, 
                       __ZTSNSt3__120__bracket_expressionIcNS_12regex_traitsIcEEEE, 
                       __ZTSNSt3__120__l_anchor_multilineIcEE, __ZTSNSt3__120__match_char_collateIcNS_12regex_traitsIcEEEE, 
                       __ZTSNSt3__120__r_anchor_multilineIcEE, __ZTSNSt3__120__shared_ptr_emplaceINS_15recursive_mutexENS_9allocatorIS1_EEEE, 
                       __ZTSNSt3__120__shared_ptr_emplaceINS_18basic_stringstreamIcNS_11char_traitsIcEENS_9allocatorIcEEEENS4_IS6_EEEE, 
                       __ZTSNSt3__120__shared_ptr_emplaceINS_6vectorIhNS_9allocatorIhEEEENS2_IS4_EEEE, 
                       __ZTSNSt3__120__shared_ptr_emplaceINS_8seed_seqENS_9allocatorIS1_EEEE, 
                       __ZTSNSt3__120__shared_ptr_pointerIPNS_12basic_stringIcNS_11char_traitsIcEENS_9allocatorIcEEEENS_10shared_ptrIKS6_E27__shared_ptr_default_deleteIS9_S6_EENS4_IS6_EEEE, 
                       __ZTSNSt3__120__shared_ptr_pointerIPNS_13__empty_stateIcEENS_10shared_ptrIS2_E27__shared_ptr_default_deleteIS2_S2_EENS_9allocatorIS2_EEEE, 
                       __ZTSNSt3__120__shared_ptr_pointerIPNS_14basic_ifstreamIcNS_11char_traitsIcEEEENS_10shared_ptrIS4_E27__shared_ptr_default_deleteIS4_S4_EENS_9allocatorIS4_EEEE, 
                       __ZTSNSt3__120__shared_ptr_pointerIPNS_14basic_ifstreamIcNS_11char_traitsIcEEEENS_14default_deleteIS4_EENS_9allocatorIS4_EEEE, 
                       __ZTSNSt3__120__shared_ptr_pointerIPNS_14basic_ofstreamIcNS_11char_traitsIcEEEENS_10shared_ptrIS4_E27__shared_ptr_default_deleteIS4_S4_EENS_9allocatorIS4_EEEE, 
                       __ZTSNSt3__120__shared_ptr_pointerIPNS_14basic_ofstreamIcNS_11char_traitsIcEEEENS_14default_deleteIS4_EENS_9allocatorIS4_EEEE, 
                       __ZTSNSt3__120__shared_ptr_pointerIPNS_18basic_stringstreamIcNS_11char_traitsIcEENS_9allocatorIcEEEENS_10shared_ptrIS6_E27__shared_ptr_default_deleteIS6_S6_EENS4_IS6_EEEE, 
                       __ZTSNSt3__121__empty_non_own_stateIcEE, __ZTSNSt3__123__match_any_but_newlineIcEE, 
                       __ZTSNSt3__126__end_marked_subexpressionIcEE, __ZTSNSt3__128__begin_marked_subexpressionIcEE, 
                       __ZTSNSt3__16__loopIcEE, __ZTSNSt3__16__nodeIcEE, __ZTSNSt3__16vectorIfNS_9allocatorIfEEEE, 
                       __ZTSNSt3__16vectorIhNS_9allocatorIhEEEE, __ZTSNSt3__16vectorItNS_9allocatorItEEEE, 
                       __ZTSPFvvE, __ZTSSt11logic_error, __ZTSSt11range_error, __ZTSSt12length_error, 
                       __ZTSSt12out_of_range, __ZTSSt13runtime_error, __ZTSSt16invalid_argument, 
                       __ZTSSt18bad_variant_access, __ZTSSt19bad_optional_access, 
                       __ZTSSt20bad_array_new_length, __ZTSSt9bad_alloc, __ZTSSt9exception ]
  - targets:         [ x86_64-macos, arm64-macos, arm64e-macos ]
    symbols:         [ _CPGAddSampleCallbackBundleCreate, _CPGAddSampleCallbackBundleRelease, 
                       _CPGAddSampleCallbackBundleRetain, _CPGAddSampleCallbackBundleSetStreamProcessingCallback, 
                       _CPGAddSampleStreamProcessingOutputGetFeatureMatchability, 
                       _CPGAddSampleStreamProcessingOutputGetFlipRecommendation, 
                       _CPGAddSampleStreamProcessingOutputGetGaussian3D, _CPGAddSampleStreamProcessingOutputGetObjectMask, 
                       _CPGAddSampleStreamProcessingOutputRelease, _CPGAddSampleStreamProcessingOutputRetain, 
                       _CPGBoundingBoxContainsPoint, _CPGBoundingBoxCopyCorners, 
                       _CPGBoundingBoxCreateAxisAligned, _CPGBoundingBoxCreateFromTransform, 
                       _CPGBoundingBoxCreateMutableCopy, _CPGBoundingBoxCreateOriented, 
                       _CPGBoundingBoxGetCenter, _CPGBoundingBoxGetExtents, _CPGBoundingBoxGetMaxBounds, 
                       _CPGBoundingBoxGetMinBounds, _CPGBoundingBoxGetRotationMatrix, 
                       _CPGBoundingBoxGetTransform, _CPGBoundingBoxRelease, _CPGBoundingBoxRetain, 
                       _CPGBoundingBoxTransformBy, _CPGCameraCopyInverseLensDistortionData, 
                       _CPGCameraCopyLensDistortionData, _CPGCameraCreateWithIntrinsicsExtrinsicsResolution, 
                       _CPGCameraGetExtrinsics, _CPGCameraGetImageResolution, _CPGCameraGetIntrinsics, 
                       _CPGCameraGetTransform, _CPGCameraRelease, _CPGCameraRetain, 
                       _CPGCheckDeviceCompatibility, _CPGCheckDeviceCompatibilityForEnvironmentGS, 
                       _CPGCheckPhotogrammetryAssetsAvailability, _CPGDepthPointCloudAddPoint, 
                       _CPGDepthPointCloudCreate, _CPGDepthPointCloudCreateWithSensorConfig, 
                       _CPGDepthPointCloudGetNumberOfPoints, _CPGDepthPointCloudRelease, 
                       _CPGDepthPointCloudRetain, _CPGEnvironmentGSRequestDescriptionCreate, 
                       _CPGEnvironmentGSRequestDescriptionRelease, _CPGEnvironmentGSRequestDescriptionRetain, 
                       _CPGEnvironmentGSSessionOptionsCreate, _CPGEnvironmentGSSessionOptionsRelease, 
                       _CPGEnvironmentGSSessionOptionsRetain, _CPGEnvironmentGSSessionOptionsSetWorkingDirectory, 
                       _CPGFeatureMatcherResultCopyDifferenceScores, _CPGFeatureMatcherResultCopyPositions, 
                       _CPGFeatureMatcherResultRelease, _CPGFeatureMatcherResultRetain, 
                       _CPGFeatureMatcherSessionCreateWithOptions, _CPGFeatureMatcherSessionOptionsCreate, 
                       _CPGFeatureMatcherSessionOptionsRelease, _CPGFeatureMatcherSessionOptionsRetain, 
                       _CPGFeatureMatcherSessionOptionsSetDifferenceCriteria, _CPGFeatureMatcherSessionOptionsSetModelType, 
                       _CPGFeatureMatcherSessionRelease, _CPGFeatureMatcherSessionRetain, 
                       _CPGFeatureMatcherSessionRun, _CPGFinalizeInputCallbackBundleCreate, 
                       _CPGFinalizeInputCallbackBundleRelease, _CPGFinalizeInputCallbackBundleRetain, 
                       _CPGFinalizeInputCallbackBundleSetCompletionCallback, _CPGFinalizeInputResultGetErrorCode, 
                       _CPGFinalizeInputResultRelease, _CPGFinalizeInputResultRetain, 
                       _CPGGSOutputGetFailure, _CPGGSOutputGetGaussianSplattingPointCloudURL, 
                       _CPGGSOutputRelease, _CPGGSOutputRetain, _CPGGSProcessingCallbackBundleCreate, 
                       _CPGGSProcessingCallbackBundleRelease, _CPGGSProcessingCallbackBundleRetain, 
                       _CPGGSProcessingCallbackBundleSetCompleteOutputCallback, _CPGGSRequestCopyID, 
                       _CPGGSRequestCreateWithEnvironmentGSRequestDescription, _CPGGSRequestRelease, 
                       _CPGGSRequestRetain, _CPGGaussian3DGetColorDiffuse, _CPGGaussian3DGetColorRest, 
                       _CPGGaussian3DGetColorRestDimension, _CPGGaussian3DGetCoordinates, 
                       _CPGGaussian3DGetCountOfPoints, _CPGGaussian3DGetMutableColorDiffuse, 
                       _CPGGaussian3DGetMutableColorRest, _CPGGaussian3DGetMutableCoordinates, 
                       _CPGGaussian3DGetMutableOpacities, _CPGGaussian3DGetMutableQuaternions, 
                       _CPGGaussian3DGetMutableScales, _CPGGaussian3DGetOpacities, 
                       _CPGGaussian3DGetQuaternions, _CPGGaussian3DGetScales, _CPGGaussian3DGetSphericalHarmonicsDimension, 
                       _CPGGaussian3DGetStorageMode, _CPGGaussian3DLoadFromURL, _CPGGaussian3DMetadataCreate, 
                       _CPGGaussian3DMetadataGetColorSpace, _CPGGaussian3DMetadataGetDefaultExtrinsics, 
                       _CPGGaussian3DMetadataGetDefaultIntrinsics, _CPGGaussian3DMetadataGetSortingMode, 
                       _CPGGaussian3DMetadataGetSplattingMode, _CPGGaussian3DMetadataRelease, 
                       _CPGGaussian3DMetadataRetain, _CPGGaussian3DMetadataSetColorSpace, 
                       _CPGGaussian3DMetadataSetDefaultExtrinsics, _CPGGaussian3DMetadataSetDefaultIntrinsics, 
                       _CPGGaussian3DMetadataSetSortingMode, _CPGGaussian3DMetadataSetSplattingMode, 
                       _CPGGaussian3DRelease, _CPGGaussian3DRetain, _CPGGaussian3DSaveToURLWithMetadata, 
                       _CPGGaussianSplattingCallbackBundleCreate, _CPGGaussianSplattingCallbackBundleRelease, 
                       _CPGGaussianSplattingCallbackBundleRetain, _CPGGaussianSplattingCallbackBundleSetDataLoaderCallback, 
                       _CPGGaussianSplattingCallbackBundleSetIterationCallback, _CPGGaussianSplattingCallbackBundleSetMemoryDidChangeCallback, 
                       _CPGGaussianSplattingCallbackBundleSetMemoryWillChangeCallback, 
                       _CPGGaussianSplattingDataLoaderProgressCopyMessage, _CPGGaussianSplattingDataLoaderProgressGetPercentage, 
                       _CPGGaussianSplattingDataLoaderProgressRelease, _CPGGaussianSplattingDataLoaderProgressRetain, 
                       _CPGGaussianSplattingIterationResultGetLoss, _CPGGaussianSplattingIterationResultGetNumGaussians, 
                       _CPGGaussianSplattingIterationResultGetProgress, _CPGGaussianSplattingIterationResultGetStep, 
                       _CPGGaussianSplattingIterationResultGetStepTimeMS, _CPGGaussianSplattingIterationResultRelease, 
                       _CPGGaussianSplattingIterationResultRetain, _CPGGaussianSplattingOptionsCreate, 
                       _CPGGaussianSplattingOptionsGetAppearanceModelingEnabled, 
                       _CPGGaussianSplattingOptionsGetAppearanceModelingMethod, _CPGGaussianSplattingOptionsGetColorSpace, 
                       _CPGGaussianSplattingOptionsGetComputeBakingView, _CPGGaussianSplattingOptionsGetDensificationInterval, 
                       _CPGGaussianSplattingOptionsGetDensifyFromIter, _CPGGaussianSplattingOptionsGetDensifyUntilIter, 
                       _CPGGaussianSplattingOptionsGetEnableSparsification, _CPGGaussianSplattingOptionsGetEvalMode, 
                       _CPGGaussianSplattingOptionsGetIterations, _CPGGaussianSplattingOptionsGetLambdaSSIM, 
                       _CPGGaussianSplattingOptionsGetMaskedBackground, _CPGGaussianSplattingOptionsGetPositionFinalLearningRate, 
                       _CPGGaussianSplattingOptionsGetPositionInitialLearningRate, 
                       _CPGGaussianSplattingOptionsGetRenderDownsample, _CPGGaussianSplattingOptionsGetSHDegree, 
                       _CPGGaussianSplattingOptionsGetSortingMode, _CPGGaussianSplattingOptionsGetSparsificationInterval, 
                       _CPGGaussianSplattingOptionsGetSparsifyFromIter, _CPGGaussianSplattingOptionsGetSparsifyUntilIter, 
                       _CPGGaussianSplattingOptionsGetSphericalBackgroundLayers, 
                       _CPGGaussianSplattingOptionsGetUseMaskIfAvailable, _CPGGaussianSplattingOptionsGetVoxelSize, 
                       _CPGGaussianSplattingOptionsRelease, _CPGGaussianSplattingOptionsRetain, 
                       _CPGGaussianSplattingOptionsSetAppearanceModelingEnabled, 
                       _CPGGaussianSplattingOptionsSetAppearanceModelingMethod, _CPGGaussianSplattingOptionsSetColorSpace, 
                       _CPGGaussianSplattingOptionsSetComputeBakingView, _CPGGaussianSplattingOptionsSetDensificationInterval, 
                       _CPGGaussianSplattingOptionsSetDensifyFromIter, _CPGGaussianSplattingOptionsSetDensifyUntilIter, 
                       _CPGGaussianSplattingOptionsSetEnableSparsification, _CPGGaussianSplattingOptionsSetEvalMode, 
                       _CPGGaussianSplattingOptionsSetIterations, _CPGGaussianSplattingOptionsSetLambdaSSIM, 
                       _CPGGaussianSplattingOptionsSetMaskedBackground, _CPGGaussianSplattingOptionsSetPositionFinalLearningRate, 
                       _CPGGaussianSplattingOptionsSetPositionInitialLearningRate, 
                       _CPGGaussianSplattingOptionsSetRenderDownsample, _CPGGaussianSplattingOptionsSetSHDegree, 
                       _CPGGaussianSplattingOptionsSetSortingMode, _CPGGaussianSplattingOptionsSetSparsificationInterval, 
                       _CPGGaussianSplattingOptionsSetSparsifyFromIter, _CPGGaussianSplattingOptionsSetSparsifyUntilIter, 
                       _CPGGaussianSplattingOptionsSetSphericalBackgroundLayers, 
                       _CPGGaussianSplattingOptionsSetUseMaskIfAvailable, _CPGGaussianSplattingOptionsSetVoxelSize, 
                       _CPGGaussianSplattingOutputGetGaussian3D, _CPGGaussianSplattingOutputGetGaussian3DMetadata, 
                       _CPGGaussianSplattingOutputRelease, _CPGGaussianSplattingOutputRetain, 
                       _CPGGaussianSplattingSessionCreate, _CPGGaussianSplattingSessionPause, 
                       _CPGGaussianSplattingSessionRelease, _CPGGaussianSplattingSessionResume, 
                       _CPGGaussianSplattingSessionRetain, _CPGGaussianSplattingSessionRunWithInitialGaussianPoints, 
                       _CPGGaussianSplattingSessionRunWithInitialPointCloud, _CPGGaussianSplattingSessionStop, 
                       _CPGLensDistortionDataGetDistortionCenter, _CPGLensDistortionDataGetLUTData, 
                       _CPGLensDistortionDataGetLUTLength, _CPGLensDistortionDataRelease, 
                       _CPGLensDistortionDataRetain, _CPGLoadPhotogrammetryAssetsSync, 
                       _CPGLocalizationUpdatesGetCamera, _CPGLocalizationUpdatesGetObjectTransform, 
                       _CPGLocalizationUpdatesGetSfmCameraTracks, _CPGLocalizationUpdatesGetState, 
                       _CPGLocalizationUpdatesRelease, _CPGLocalizationUpdatesRetain, 
                       _CPGMaskingOptionsCreate, _CPGMaskingOptionsRelease, _CPGMaskingOptionsRetain, 
                       _CPGMaskingOptionsSetMaskingType, _CPGMeshCreate, _CPGMeshCreateWithNumberOfTrianglesAndVertices, 
                       _CPGMeshGetMutableTriangles, _CPGMeshGetMutableVertices, _CPGMeshGetNumberOfTriangles, 
                       _CPGMeshGetNumberOfVertices, _CPGMeshGetTriangles, _CPGMeshGetVertices, 
                       _CPGMeshLoadFromURL, _CPGMeshRelease, _CPGMeshRetain, _CPGMeshSaveToURL, 
                       _CPGMeshSetNumberOfTriangles, _CPGMeshSetNumberOfVertices, 
                       _CPGObjectSegmentationResultGetMaskBuffer, _CPGObjectSegmentationResultRelease, 
                       _CPGObjectSegmentationResultRetain, _CPGObjectSegmentationSessionCreateWithOptions, 
                       _CPGObjectSegmentationSessionOptionsCreate, _CPGObjectSegmentationSessionOptionsRelease, 
                       _CPGObjectSegmentationSessionOptionsRetain, _CPGObjectSegmentationSessionProcessSample, 
                       _CPGObjectSegmentationSessionRelease, _CPGObjectSegmentationSessionRetain, 
                       _CPGObjectTransformGetTransformMatrix, _CPGObjectTransformRelease, 
                       _CPGObjectTransformRetain, _CPGOutputCreateWithTransform, 
                       _CPGOutputGetFailure, _CPGOutputGetGaussianSplattingPointCloudURL, 
                       _CPGOutputGetModelURL, _CPGOutputGetObjAssetsURLs, _CPGOutputGetPointCloudURL, 
                       _CPGOutputGetProperties, _CPGOutputGetQuadMeshObjAssetsURLs, 
                       _CPGOutputGetQuadMeshUsdaAssetsURLs, _CPGOutputGetQuadMeshUsdzURL, 
                       _CPGOutputGetSfmMap, _CPGOutputGetUsdaAssetsURLs, _CPGOutputGetUsdzURL, 
                       _CPGOutputModelOptionsCreate, _CPGOutputModelOptionsGetMaxPolyCount, 
                       _CPGOutputModelOptionsGetMaxTextureResolution, _CPGOutputModelOptionsGetTextureDestination, 
                       _CPGOutputModelOptionsGetTextureFormat, _CPGOutputModelOptionsGetTextureLossyCompressionQuality, 
                       _CPGOutputModelOptionsRelease, _CPGOutputModelOptionsRetain, 
                       _CPGOutputModelOptionsSetMaxPolyCount, _CPGOutputModelOptionsSetMaxTextureResolution, 
                       _CPGOutputModelOptionsSetTextureDestination, _CPGOutputModelOptionsSetTextureFormat, 
                       _CPGOutputModelOptionsSetTextureLossyCompressionQuality, _CPGOutputRelease, 
                       _CPGOutputRetain, _CPGPointCloudGetColors, _CPGPointCloudGetNumberOfPoints, 
                       _CPGPointCloudGetPositions, _CPGPointCloudHasColor, _CPGPointCloudLoadFromURL, 
                       _CPGPointCloudRelease, _CPGPointCloudRetain, _CPGProcessingCallbackBundleCreate, 
                       _CPGProcessingCallbackBundleRelease, _CPGProcessingCallbackBundleRetain, 
                       _CPGProcessingCallbackBundleSetCompleteOutputCallback, _CPGProcessingCallbackBundleSetDensePointCloudBoundingBoxCallback, 
                       _CPGProcessingCallbackBundleSetGaussianSplattingCallback, 
                       _CPGProcessingCallbackBundleSetProgressCallback, _CPGProcessingCallbackBundleSetSfmOutputCallback, 
                       _CPGProcessingCallbackBundleSetWarningCallback, _CPGProcessingFailureGetCode, 
                       _CPGProcessingFailureRelease, _CPGProcessingFailureRetain, 
                       _CPGProcessingLimitsForCurrentDevice, _CPGProcessingLimitsGetMaxBakedOutputTriangleCount, 
                       _CPGProcessingLimitsGetMaxImageDimension, _CPGProcessingLimitsGetMaxNumberOfSamples, 
                       _CPGProcessingLimitsGetMaxTotalPixelCount, _CPGProcessingLimitsGetMinBakedOutputTriangleCount, 
                       _CPGProcessingLimitsRelease, _CPGProcessingLimitsRetain, _CPGProcessingWarningGetCode, 
                       _CPGProcessingWarningRelease, _CPGProcessingWarningRetain, 
                       _CPGProgressGetEstimatedRemainingTime, _CPGProgressGetFractionCompleted, 
                       _CPGProgressGetMessage, _CPGProgressGetProcessingStep, _CPGProgressRelease, 
                       _CPGProgressRetain, _CPGRequestCopyID, _CPGRequestCreate, 
                       _CPGRequestCreateWithDetail, _CPGRequestCreateWithDetailAndSfmMap, 
                       _CPGRequestGetDetail, _CPGRequestGetOutputQuadMeshEnabled, 
                       _CPGRequestListAdd, _CPGRequestListCreate, _CPGRequestListGetRequestAtIndex, 
                       _CPGRequestListGetSize, _CPGRequestListRelease, _CPGRequestListRetain, 
                       _CPGRequestRelease, _CPGRequestRetain, _CPGRequestSetCustomOutputModelOptions, 
                       _CPGRequestSetDetail, _CPGRequestSetFromCFDictionary, _CPGRequestSetOutputQuadMeshEnabled, 
                       _CPGSampleCameraTransformMapAddBySampleID, _CPGSampleCameraTransformMapCreate, 
                       _CPGSampleCameraTransformMapGetCameraTransformBySampleID, 
                       _CPGSampleCameraTransformMapRelease, _CPGSampleCameraTransformMapRetain, 
                       _CPGSampleCreateWithCVPixelBuffer, _CPGSampleGetID, _CPGSampleMetadataCreate, 
                       _CPGSampleMetadataRelease, _CPGSampleMetadataRetain, _CPGSampleMetadataSetCameraCenter, 
                       _CPGSampleMetadataSetCameraCenterWithCovariance, _CPGSampleMetadataSetCameraID, 
                       _CPGSampleMetadataSetCameraTransform, _CPGSampleMetadataSetCameraTransformWithCovariance, 
                       _CPGSampleMetadataSetDepthMapWithConfidence, _CPGSampleMetadataSetDepthPointCloudWithExtrinsics, 
                       _CPGSampleMetadataSetFocalLengthIn35mmFormatWithImageSize, 
                       _CPGSampleMetadataSetFocalLengthInPixel, _CPGSampleMetadataSetFromCFDictionary, 
                       _CPGSampleMetadataSetFromCGImageProperties, _CPGSampleMetadataSetFromImageFile, 
                       _CPGSampleMetadataSetGravity, _CPGSampleMetadataSetHeikkilaDistortion, 
                       _CPGSampleMetadataSetImageAttachment, _CPGSampleMetadataSetKannalaDistortion, 
                       _CPGSampleMetadataSetLUT256Distortion, _CPGSampleMetadataSetMaskWithCVPixelBuffer, 
                       _CPGSampleMetadataSetObjectBoundingBox, _CPGSampleMetadataSetObjectBoundingBoxWithTransform, 
                       _CPGSampleMetadataSetObjectTransform, _CPGSampleMetadataSetPortraitDepthMap, 
                       _CPGSampleMetadataSetPrincipalPoint, _CPGSampleMetadataSetSegmentID, 
                       _CPGSampleMetadataSetTimestamp, _CPGSampleRelease, _CPGSampleRetain, 
                       _CPGSessionAddSample, _CPGSessionAddSampleWithCallbacks, _CPGSessionAddTemporalDepthPointFrame, 
                       _CPGSessionCancelProcessing, _CPGSessionCopySampleImage, _CPGSessionCreate, 
                       _CPGSessionCreateWithEnvironmentGSOptions, _CPGSessionCreateWithSnapshotURL, 
                       _CPGSessionFinalizeInput, _CPGSessionGetEstimatedProcessingTime, 
                       _CPGSessionGetEstimatedProcessingTimeByNumberOfPixels, _CPGSessionLocalizeSample, 
                       _CPGSessionOptionsCreate, _CPGSessionOptionsRelease, _CPGSessionOptionsRetain, 
                       _CPGSessionOptionsSetAsyncIOThreadQoS, _CPGSessionOptionsSetAutoMaskingEnabled, 
                       _CPGSessionOptionsSetFromCFDictionary, _CPGSessionOptionsSetGPUs, 
                       _CPGSessionOptionsSetGaussianSplattingOptions, _CPGSessionOptionsSetMVSType, 
                       _CPGSessionOptionsSetMaskingOptions, _CPGSessionOptionsSetNumberOfThreads, 
                       _CPGSessionOptionsSetOutOfCoreEnabled, _CPGSessionOptionsSetReconstructionPowerSetting, 
                       _CPGSessionOptionsSetSampleImageAutoSavingEnabled, _CPGSessionOptionsSetSemanticMaskingEnabled, 
                       _CPGSessionOptionsSetSfmOptions, _CPGSessionOptionsSetSnapshotEnabled, 
                       _CPGSessionOptionsSetWorkingDirectory, _CPGSessionProcessGSRequestWithCallbacks, 
                       _CPGSessionProcessRequest, _CPGSessionProcessRequestWithCallbacks, 
                       _CPGSessionProcessRequests, _CPGSessionRelease, _CPGSessionResumeOptionsCreate, 
                       _CPGSessionResumeOptionsRelease, _CPGSessionResumeOptionsRetain, 
                       _CPGSessionResumeProcessingWithCallbacks, _CPGSessionRetain, 
                       _CPGSessionUpdateBoundingBoxBySegmentID, _CPGSessionUpdateSampleCameraTransforms, 
                       _CPGSfmCameraTracksGetColors, _CPGSfmCameraTracksGetCount, 
                       _CPGSfmCameraTracksGetIdentifiers, _CPGSfmCameraTracksGetPositions, 
                       _CPGSfmCameraTracksGetProjections, _CPGSfmCameraTracksRelease, 
                       _CPGSfmCameraTracksRetain, _CPGSfmMapCopyAllSampleIDs, _CPGSfmMapCopyBoundingBox, 
                       _CPGSfmMapCopyRegisteredSampleIDs, _CPGSfmMapCopyTracksInCameraCoordinateBySampleID, 
                       _CPGSfmMapCopyTracksInWorldCoordinate, _CPGSfmMapCopyTracksInsideBoundingBoxInWorldCoordinate, 
                       _CPGSfmMapCreate, _CPGSfmMapCreateMutableCopy, _CPGSfmMapGetCameraBySampleID, 
                       _CPGSfmMapIsSampleRegistered, _CPGSfmMapLoadFromURL, _CPGSfmMapRelease, 
                       _CPGSfmMapRemoveCameraBySampleID, _CPGSfmMapRetain, _CPGSfmMapRotateByQuaternion, 
                       _CPGSfmMapSetBoundingBox, _CPGSfmMapSetCameraBySampleID, _CPGSfmMapSetSampleIsRegistered, 
                       _CPGSfmMapTransformBy, _CPGSfmOptionsCreate, _CPGSfmOptionsGetBASolverLib, 
                       _CPGSfmOptionsGetFeatureSensitivity, _CPGSfmOptionsGetMatcherType, 
                       _CPGSfmOptionsGetPowerSetting, _CPGSfmOptionsGetProcessingMode, 
                       _CPGSfmOptionsGetSampleOrdering, _CPGSfmOptionsGetSampleOverlap, 
                       _CPGSfmOptionsGetSfMType, _CPGSfmOptionsRelease, _CPGSfmOptionsRetain, 
                       _CPGSfmOptionsSetBASolverLib, _CPGSfmOptionsSetBuildGaussianSplatting, 
                       _CPGSfmOptionsSetFeatureSensitivity, _CPGSfmOptionsSetFixIntrinsics, 
                       _CPGSfmOptionsSetMatcherType, _CPGSfmOptionsSetPoseUpdateCallback, 
                       _CPGSfmOptionsSetPowerSetting, _CPGSfmOptionsSetProcessingMode, 
                       _CPGSfmOptionsSetSampleOrdering, _CPGSfmOptionsSetSampleOverlap, 
                       _CPGSfmOptionsSetSfMType, _CPGSfmOptionsSetTrackUpdateCallback, 
                       _CPGSfmOptionsSetUseMasks, _CPGSfmOptionsSetUsePriors, _CPGSfmWorldTracksGetColors, 
                       _CPGSfmWorldTracksGetCount, _CPGSfmWorldTracksGetIdentifiers, 
                       _CPGSfmWorldTracksGetNormals, _CPGSfmWorldTracksGetPositions, 
                       _CPGSfmWorldTracksRelease, _CPGSfmWorldTracksRetain, _CPGSnapshotInfoCheckDeviceCompatibility, 
                       _CPGSnapshotInfoCheckSessionOptionsCompatibility, _CPGSnapshotInfoGetNumberOfSamples, 
                       _CPGSnapshotInfoLoadFromURL, _CPGSnapshotInfoRelease, _CPGSnapshotInfoRetain, 
                       _CPGTemporalDepthPointFrameCopyTimestamp, _CPGTemporalDepthPointFrameCreateWithSequenceIDTimeCameraAndPointCloud, 
                       _CPGTemporalDepthPointFrameCreateWithTimeCameraAndPointCloud, 
                       _CPGTemporalDepthPointFrameRelease, _CPGTemporalDepthPointFrameRetain, 
                       _CPGTexturedMeshCopyDiffuseMap, _CPGTexturedMeshCreate, _CPGTexturedMeshCreateWithNumberOfTrianglesAndVertices, 
                       _CPGTexturedMeshGetMutableTexCoords, _CPGTexturedMeshGetMutableTexIndices, 
                       _CPGTexturedMeshGetMutableTriangles, _CPGTexturedMeshGetMutableVertices, 
                       _CPGTexturedMeshGetNumberOfMaterials, _CPGTexturedMeshGetNumberOfTexCoords, 
                       _CPGTexturedMeshGetNumberOfTexIndices, _CPGTexturedMeshGetNumberOfTriangles, 
                       _CPGTexturedMeshGetNumberOfVertices, _CPGTexturedMeshGetTexCoords, 
                       _CPGTexturedMeshGetTexIndices, _CPGTexturedMeshGetTriangles, 
                       _CPGTexturedMeshGetVertices, _CPGTexturedMeshLoadFromURL, 
                       _CPGTexturedMeshRelease, _CPGTexturedMeshRetain, _CPGTexturedMeshSaveToURL, 
                       _CPGTexturedMeshSetDiffuseMap, _CPGTexturedMeshSetNumberOfMaterials, 
                       _CPGTexturedMeshSetNumberOfTexCoords, _CPGTexturedMeshSetNumberOfTexIndices, 
                       _CPGTexturedMeshSetNumberOfTriangles, _CPGTexturedMeshSetNumberOfVertices, 
                       _CPGTexturingOptionsCreate, _CPGTexturingOptionsRelease, _CPGTexturingOptionsRetain, 
                       _CPGTexturingOptionsSetContourMaskingPixels, _CPGTexturingOptionsSetUseMaskIfAvailable, 
                       _CPGTexturingOutputGetMutableTexturedMesh, _CPGTexturingOutputGetTexturedMesh, 
                       _CPGTexturingOutputRelease, _CPGTexturingOutputRetain, _CPGTexturingWithOptions, 
                       _CPGUpdatedPosesCopyCameraBySampleID, _CPGUpdatedPosesCopyObjectTransformBySampleID, 
                       _CPGUpdatedPosesCopySampleIDs, _CPGUpdatedPosesGetMapReadinessScore, 
                       _CPGUpdatedPosesGetStateBySampleID, _CPGUpdatedPosesRelease, 
                       _CPGUpdatedPosesRetain, _CPGVersionHash, _CPGVersionNumberMajor, 
                       _CPGVersionNumberMinor, _CPGVersionNumberPatch ]
  - targets:         [ arm64-macos, arm64e-macos ]
    symbols:         [ _BundleDidLoadNotification, _BundleResourceRequestLowDiskSpaceNotification, 
                       _CocoaErrorDomain, _CommandBufferEncoderInfoErrorKey, _CommonCounterClipperInvocations, 
                       _CommonCounterClipperPrimitivesOut, _CommonCounterComputeKernelInvocations, 
                       _CommonCounterFragmentCycles, _CommonCounterFragmentInvocations, 
                       _CommonCounterFragmentsPassed, _CommonCounterPostTessellationVertexCycles, 
                       _CommonCounterPostTessellationVertexInvocations, _CommonCounterRenderTargetWriteCycles, 
                       _CommonCounterSetStageUtilization, _CommonCounterSetStatistic, 
                       _CommonCounterSetTimestamp, _CommonCounterTessellationCycles, 
                       _CommonCounterTessellationInputPatches, _CommonCounterTimestamp, 
                       _CommonCounterTotalCycles, _CommonCounterVertexCycles, _CommonCounterVertexInvocations, 
                       _CounterErrorDomain, _DebugDescriptionErrorKey, _DeviceCertificationiPhonePerformanceGaming, 
                       _FilePathErrorKey, _HelpAnchorErrorKey, _LocalizedDescriptionKey, 
                       _LocalizedFailureErrorKey, _LocalizedFailureReasonErrorKey, 
                       _LocalizedRecoveryOptionsErrorKey, _LocalizedRecoverySuggestionErrorKey, 
                       _MachErrorDomain, _OSStatusErrorDomain, _POSIXErrorDomain, 
                       _ProcessInfoPerformanceProfileDidChangeNotification, _ProcessInfoPowerStateDidChangeNotification, 
                       _ProcessInfoThermalStateDidChangeNotification, _ProcessPerformanceProfileDefault, 
                       _ProcessPerformanceProfileSustained, _RecoveryAttempterErrorKey, 
                       _StringEncodingErrorKey, _URLErrorKey, _UnderlyingErrorKey, 
                       __ZN2NS7Private5Class10s_kNSArrayEv, __ZN2NS7Private5Class10s_kNSErrorEv, 
                       __ZN2NS7Private5Class10s_kNSValueEv, __ZN2NS7Private5Class11s_kNSBundleEv, 
                       __ZN2NS7Private5Class11s_kNSNumberEv, __ZN2NS7Private5Class11s_kNSObjectEv, 
                       __ZN2NS7Private5Class11s_kNSStringEv, __ZN2NS7Private5Class14s_kNSConditionEv, 
                       __ZN2NS7Private5Class15s_kNSDictionaryEv, __ZN2NS7Private5Class16s_kNSProcessInfoEv, 
                       __ZN2NS7Private5Class20s_kNSAutoreleasePoolEv, __ZN2NS7Private5Class23s_kNSNotificationCenterEv, 
                       __ZN2NS7Private5Class8s_kNSSetEv, __ZN2NS7Private5Class8s_kNSURLEv, 
                       __ZN2NS7Private5Class9s_kNSDateEv, __ZN2NS7Private8Selector10s_kreleaseEv, 
                       __ZN2NS7Private8Selector11s_kcompare_Ev, __ZN2NS7Private8Selector11s_khostNameEv, 
                       __ZN2NS7Private8Selector11s_kintValueEv, __ZN2NS7Private8Selector11s_kisEqual_Ev, 
                       __ZN2NS7Private8Selector11s_kisLoadedEv, __ZN2NS7Private8Selector11s_kobjCTypeEv, 
                       __ZN2NS7Private8Selector11s_kuserInfoEv, __ZN2NS7Private8Selector11s_kuserNameEv, 
                       __ZN2NS7Private8Selector12s_kargumentsEv, __ZN2NS7Private8Selector12s_kboolValueEv, 
                       __ZN2NS7Private8Selector12s_kbroadcastEv, __ZN2NS7Private8Selector12s_kbundleURLEv, 
                       __ZN2NS7Private8Selector12s_kcharValueEv, __ZN2NS7Private8Selector12s_klongValueEv, 
                       __ZN2NS7Private8Selector12s_kshowPoolsEv, __ZN2NS7Private8Selector13s_kUTF8StringEv, 
                       __ZN2NS7Private8Selector13s_kaddObject_Ev, __ZN2NS7Private8Selector13s_kallBundlesEv, 
                       __ZN2NS7Private8Selector13s_kallObjectsEv, __ZN2NS7Private8Selector13s_kbundlePathEv, 
                       __ZN2NS7Private8Selector13s_kdictionaryEv, __ZN2NS7Private8Selector13s_kfloatValueEv, 
                       __ZN2NS7Private8Selector13s_kmainBundleEv, __ZN2NS7Private8Selector13s_knextObjectEv, 
                       __ZN2NS7Private8Selector13s_kshortValueEv, __ZN2NS7Private8Selector14s_kautoreleaseEv, 
                       __ZN2NS7Private8Selector14s_kdescriptionEv, __ZN2NS7Private8Selector14s_kdoubleValueEv, 
                       __ZN2NS7Private8Selector14s_kenvironmentEv, __ZN2NS7Private8Selector14s_kprocessInfoEv, 
                       __ZN2NS7Private8Selector14s_kprocessNameEv, __ZN2NS7Private8Selector14s_kresourceURLEv, 
                       __ZN2NS7Private8Selector14s_kretainCountEv, __ZN2NS7Private8Selector14s_kstringValueEv, 
                       __ZN2NS7Private8Selector15s_kendActivity_Ev, __ZN2NS7Private8Selector15s_kfullUserNameEv, 
                       __ZN2NS7Private8Selector15s_kinitWithInt_Ev, __ZN2NS7Private8Selector15s_kinitWithURL_Ev, 
                       __ZN2NS7Private8Selector15s_kintegerValueEv, __ZN2NS7Private8Selector15s_kmutableBytesEv, 
                       __ZN2NS7Private8Selector15s_kpointerValueEv, __ZN2NS7Private8Selector15s_kresourcePathEv, 
                       __ZN2NS7Private8Selector15s_ksystemUptimeEv, __ZN2NS7Private8Selector15s_kthermalStateEv, 
                       __ZN2NS7Private8Selector16s_kallFrameworksEv, __ZN2NS7Private8Selector16s_kdefaultCenterEv, 
                       __ZN2NS7Private8Selector16s_kexecutableURLEv, __ZN2NS7Private8Selector16s_kinitWithBool_Ev, 
                       __ZN2NS7Private8Selector16s_kinitWithChar_Ev, __ZN2NS7Private8Selector16s_kinitWithLong_Ev, 
                       __ZN2NS7Private8Selector16s_kinitWithPath_Ev, __ZN2NS7Private8Selector16s_kisiOSAppOnMacEv, 
                       __ZN2NS7Private8Selector16s_kkeyEnumeratorEv, __ZN2NS7Private8Selector16s_klongLongValueEv, 
                       __ZN2NS7Private8Selector16s_kobjectForKey_Ev, __ZN2NS7Private8Selector17s_kbundleWithURL_Ev, 
                       __ZN2NS7Private8Selector17s_kexecutablePathEv, __ZN2NS7Private8Selector17s_kgetValue_size_Ev, 
                       __ZN2NS7Private8Selector17s_kinfoDictionaryEv, __ZN2NS7Private8Selector17s_kinitWithCoder_Ev, 
                       __ZN2NS7Private8Selector17s_kinitWithFloat_Ev, __ZN2NS7Private8Selector17s_kinitWithShort_Ev, 
                       __ZN2NS7Private8Selector17s_knumberWithInt_Ev, __ZN2NS7Private8Selector17s_kobjectAtIndex_Ev, 
                       __ZN2NS7Private8Selector17s_kphysicalMemoryEv, __ZN2NS7Private8Selector17s_kprocessorCountEv, 
                       __ZN2NS7Private8Selector17s_kwaitUntilDate_Ev, __ZN2NS7Private8Selector18s_kbundleWithPath_Ev, 
                       __ZN2NS7Private8Selector18s_kinitWithDouble_Ev, __ZN2NS7Private8Selector18s_kinitWithString_Ev, 
                       __ZN2NS7Private8Selector18s_kisEqualToValue_Ev, __ZN2NS7Private8Selector18s_knumberWithBool_Ev, 
                       __ZN2NS7Private8Selector18s_knumberWithChar_Ev, __ZN2NS7Private8Selector18s_knumberWithLong_Ev, 
                       __ZN2NS7Private8Selector18s_koperatingSystemEv, __ZN2NS7Private8Selector18s_kremoveObserver_Ev, 
                       __ZN2NS7Private8Selector18s_ksetProcessName_Ev, __ZN2NS7Private8Selector19s_karrayWithObject_Ev, 
                       __ZN2NS7Private8Selector19s_kbundleIdentifierEv, __ZN2NS7Private8Selector19s_kdebugDescriptionEv, 
                       __ZN2NS7Private8Selector19s_kfileURLWithPath_Ev, __ZN2NS7Private8Selector19s_kisEqualToNumber_Ev, 
                       __ZN2NS7Private8Selector19s_kisEqualToString_Ev, __ZN2NS7Private8Selector19s_kisMacCatalystAppEv, 
                       __ZN2NS7Private8Selector19s_knumberWithFloat_Ev, __ZN2NS7Private8Selector19s_knumberWithShort_Ev, 
                       __ZN2NS7Private8Selector19s_kobjectEnumeratorEv, __ZN2NS7Private8Selector19s_ksharedSupportURLEv, 
                       __ZN2NS7Private8Selector19s_kunsignedIntValueEv, __ZN2NS7Private8Selector20s_kbuiltInPlugInsURLEv, 
                       __ZN2NS7Private8Selector20s_kcharacterAtIndex_Ev, __ZN2NS7Private8Selector20s_kinitWithLongLong_Ev, 
                       __ZN2NS7Private8Selector20s_knumberWithDouble_Ev, __ZN2NS7Private8Selector20s_kprocessIdentifierEv, 
                       __ZN2NS7Private8Selector20s_ksharedSupportPathEv, __ZN2NS7Private8Selector20s_kstringWithString_Ev, 
                       __ZN2NS7Private8Selector20s_kunsignedCharValueEv, __ZN2NS7Private8Selector20s_kunsignedLongValueEv, 
                       __ZN2NS7Private8Selector20s_kvalueWithPointer_Ev, __ZN2NS7Private8Selector21s_kappStoreReceiptURLEv, 
                       __ZN2NS7Private8Selector21s_kbuiltInPlugInsPathEv, __ZN2NS7Private8Selector21s_kisDeviceCertified_Ev, 
                       __ZN2NS7Private8Selector21s_kunsignedShortValueEv, __ZN2NS7Private8Selector22s_kloadAndReturnError_Ev, 
                       __ZN2NS7Private8Selector22s_knumberWithLongLong_Ev, __ZN2NS7Private8Selector22s_krespondsToSelector_Ev, 
                       __ZN2NS7Private8Selector22s_ksharedFrameworksURLEv, __ZN2NS7Private8Selector23s_kactiveProcessorCountEv, 
                       __ZN2NS7Private8Selector23s_kgloballyUniqueStringEv, __ZN2NS7Private8Selector23s_kinitFileURLWithPath_Ev, 
                       __ZN2NS7Private8Selector23s_kinitWithUnsignedInt_Ev, __ZN2NS7Private8Selector23s_klocalizedDescriptionEv, 
                       __ZN2NS7Private8Selector23s_kprivateFrameworksURLEv, __ZN2NS7Private8Selector23s_ksharedFrameworksPathEv, 
                       __ZN2NS7Private8Selector23s_kunsignedIntegerValueEv, __ZN2NS7Private8Selector24s_kcStringUsingEncoding_Ev, 
                       __ZN2NS7Private8Selector24s_kinitWithUnsignedChar_Ev, __ZN2NS7Private8Selector24s_kinitWithUnsignedLong_Ev, 
                       __ZN2NS7Private8Selector24s_kisLowPowerModeEnabledEv, __ZN2NS7Private8Selector24s_kprivateFrameworksPathEv, 
                       __ZN2NS7Private8Selector24s_kunsignedLongLongValueEv, __ZN2NS7Private8Selector25s_kdescriptionWithLocale_Ev, 
                       __ZN2NS7Private8Selector25s_khasPerformanceProfile_Ev, __ZN2NS7Private8Selector25s_kinitWithObjects_count_Ev, 
                       __ZN2NS7Private8Selector25s_kinitWithUnsignedShort_Ev, __ZN2NS7Private8Selector25s_klocalizedFailureReasonEv, 
                       __ZN2NS7Private8Selector25s_knumberWithUnsignedInt_Ev, __ZN2NS7Private8Selector25s_koperatingSystemVersionEv, 
                       __ZN2NS7Private8Selector25s_krangeOfString_options_Ev, __ZN2NS7Private8Selector26s_karrayWithObjects_count_Ev, 
                       __ZN2NS7Private8Selector26s_kcaseInsensitiveCompare_Ev, __ZN2NS7Private8Selector26s_kenableSuddenTerminationEv, 
                       __ZN2NS7Private8Selector26s_kinitWithBytes_objCType_Ev, __ZN2NS7Private8Selector26s_klocalizedInfoDictionaryEv, 
                       __ZN2NS7Private8Selector26s_knumberWithUnsignedChar_Ev, __ZN2NS7Private8Selector26s_knumberWithUnsignedLong_Ev, 
                       __ZN2NS7Private8Selector27s_kdisableSuddenTerminationEv, __ZN2NS7Private8Selector27s_kfileSystemRepresentationEv, 
                       __ZN2NS7Private8Selector27s_klocalizedRecoveryOptionsEv, __ZN2NS7Private8Selector27s_knumberWithUnsignedShort_Ev, 
                       __ZN2NS7Private8Selector27s_kpreflightAndReturnError_Ev, __ZN2NS7Private8Selector27s_kstringByAppendingString_Ev, 
                       __ZN2NS7Private8Selector27s_kvalueWithBytes_objCType_Ev, __ZN2NS7Private8Selector28s_kinitWithCString_encoding_Ev, 
                       __ZN2NS7Private8Selector28s_kinitWithUnsignedLongLong_Ev, 
                       __ZN2NS7Private8Selector29s_kURLForAuxiliaryExecutable_Ev, 
                       __ZN2NS7Private8Selector30s_kenableAutomaticTermination_Ev, 
                       __ZN2NS7Private8Selector30s_klengthOfBytesUsingEncoding_Ev, 
                       __ZN2NS7Private8Selector30s_klocalizedRecoverySuggestionEv, 
                       __ZN2NS7Private8Selector30s_kmethodSignatureForSelector_Ev, 
                       __ZN2NS7Private8Selector30s_knumberWithUnsignedLongLong_Ev, 
                       __ZN2NS7Private8Selector30s_kobjectForInfoDictionaryKey_Ev, 
                       __ZN2NS7Private8Selector30s_kpathForAuxiliaryExecutable_Ev, 
                       __ZN2NS7Private8Selector30s_kstringWithCString_encoding_Ev, 
                       __ZN2NS7Private8Selector31s_kdictionaryWithObject_forKey_Ev, 
                       __ZN2NS7Private8Selector31s_kdisableAutomaticTermination_Ev, 
                       __ZN2NS7Private8Selector31s_koperatingSystemVersionStringEv, 
                       __ZN2NS7Private8Selector32s_kdateWithTimeIntervalSinceNow_Ev, 
                       __ZN2NS7Private8Selector32s_kinitWithDomain_code_userInfo_Ev, 
                       __ZN2NS7Private8Selector33s_kerrorWithDomain_code_userInfo_Ev, 
                       __ZN2NS7Private8Selector33s_kinitWithObjects_forKeys_count_Ev, 
                       __ZN2NS7Private8Selector35s_kbeginActivityWithOptions_reason_Ev, 
                       __ZN2NS7Private8Selector35s_kisOperatingSystemAtLeastVersion_Ev, 
                       __ZN2NS7Private8Selector37s_kautomaticTerminationSupportEnabledEv, 
                       __ZN2NS7Private8Selector37s_klocalizedStringForKey_value_table_Ev, 
                       __ZN2NS7Private8Selector37s_kmaximumLengthOfBytesUsingEncoding_Ev, 
                       __ZN2NS7Private8Selector38s_kaddObserverName_object_queue_block_Ev, 
                       __ZN2NS7Private8Selector39s_kdictionaryWithObjects_forKeys_count_Ev, 
                       __ZN2NS7Private8Selector41s_ksetAutomaticTerminationSupportEnabled_Ev, 
                       __ZN2NS7Private8Selector45s_kcountByEnumeratingWithState_objects_count_Ev, 
                       __ZN2NS7Private8Selector48s_kperformActivityWithOptions_reason_usingBlock_Ev, 
                       __ZN2NS7Private8Selector48s_kperformExpiringActivityWithReason_usingBlock_Ev, 
                       __ZN2NS7Private8Selector52s_kinitWithBytesNoCopy_length_encoding_freeWhenDone_Ev, 
                       __ZN2NS7Private8Selector7s_kcodeEv, __ZN2NS7Private8Selector7s_kcopyEv, 
                       __ZN2NS7Private8Selector7s_khashEv, __ZN2NS7Private8Selector7s_kinitEv, 
                       __ZN2NS7Private8Selector7s_kloadEv, __ZN2NS7Private8Selector7s_klockEv, 
                       __ZN2NS7Private8Selector7s_knameEv, __ZN2NS7Private8Selector7s_kwaitEv, 
                       __ZN2NS7Private8Selector8s_kallocEv, __ZN2NS7Private8Selector8s_karrayEv, 
                       __ZN2NS7Private8Selector8s_kcountEv, __ZN2NS7Private8Selector8s_kdrainEv, 
                       __ZN2NS7Private8Selector9s_kdomainEv, __ZN2NS7Private8Selector9s_klengthEv, 
                       __ZN2NS7Private8Selector9s_kobjectEv, __ZN2NS7Private8Selector9s_kretainEv, 
                       __ZN2NS7Private8Selector9s_ksignalEv, __ZN2NS7Private8Selector9s_kstringEv, 
                       __ZN2NS7Private8Selector9s_kunloadEv, __ZN2NS7Private8Selector9s_kunlockEv, 
                       __ZN3MTL14CopyAllDevicesEv, __ZN3MTL20RemoveDeviceObserverEPKN2NS6ObjectE, 
                       __ZN3MTL25CreateSystemDefaultDeviceEv, __ZN3MTL26CopyAllDevicesWithObserverEPPN2NS6ObjectERKNSt3__18functionIFvPNS_6DeviceEPNS0_6StringEEEE, 
                       __ZN3MTL26CopyAllDevicesWithObserverEPPN2NS6ObjectEU13block_pointerFvPNS_6DeviceEPNS0_6StringEE, 
                       __ZN3MTL7Private5Class10s_kMTLTypeEv, __ZN3MTL7Private5Class14s_kMTLArgumentEv, 
                       __ZN3MTL7Private5Class15s_kMTLArrayTypeEv, __ZN3MTL7Private5Class15s_kMTLAttributeEv, 
                       __ZN3MTL7Private5Class16s_kMTLStructTypeEv, __ZN3MTL7Private5Class17s_kMTLPointerTypeEv, 
                       __ZN3MTL7Private5Class18s_kMTLArchitectureEv, __ZN3MTL7Private5Class18s_kMTLStructMemberEv, 
                       __ZN3MTL7Private5Class20s_kMTLCaptureManagerEv, __ZN3MTL7Private5Class20s_kMTLCompileOptionsEv, 
                       __ZN3MTL7Private5Class20s_kMTLHeapDescriptorEv, __ZN3MTL7Private5Class21s_kMTLLinkedFunctionsEv, 
                       __ZN3MTL7Private5Class21s_kMTLVertexAttributeEv, __ZN3MTL7Private5Class22s_kMTLFunctionConstantEv, 
                       __ZN3MTL7Private5Class22s_kMTLVertexDescriptorEv, __ZN3MTL7Private5Class23s_kMTLCaptureDescriptorEv, 
                       __ZN3MTL7Private5Class23s_kMTLSamplerDescriptorEv, __ZN3MTL7Private5Class23s_kMTLSharedEventHandleEv, 
                       __ZN3MTL7Private5Class23s_kMTLStencilDescriptorEv, __ZN3MTL7Private5Class23s_kMTLTextureDescriptorEv, 
                       __ZN3MTL7Private5Class24s_kMTLArgumentDescriptorEv, __ZN3MTL7Private5Class24s_kMTLBlitPassDescriptorEv, 
                       __ZN3MTL7Private5Class24s_kMTLFunctionDescriptorEv, __ZN3MTL7Private5Class24s_kMTLLogStateDescriptorEv, 
                       __ZN3MTL7Private5Class24s_kMTLMotionKeyframeDataEv, __ZN3MTL7Private5Class25s_kMTLAttributeDescriptorEv, 
                       __ZN3MTL7Private5Class25s_kMTLSharedEventListenerEv, __ZN3MTL7Private5Class25s_kMTLSharedTextureHandleEv, 
                       __ZN3MTL7Private5Class26s_kMTLRenderPassDescriptorEv, __ZN3MTL7Private5Class26s_kMTLTextureReferenceTypeEv, 
                       __ZN3MTL7Private5Class27s_kMTLComputePassDescriptorEv, __ZN3MTL7Private5Class28s_kMTLBufferLayoutDescriptorEv, 
                       __ZN3MTL7Private5Class28s_kMTLCommandQueueDescriptorEv, __ZN3MTL7Private5Class28s_kMTLDepthStencilDescriptorEv, 
                       __ZN3MTL7Private5Class28s_kMTLFunctionConstantValuesEv, __ZN3MTL7Private5Class28s_kMTLFunctionStitchingGraphEv, 
                       __ZN3MTL7Private5Class28s_kMTLResidencySetDescriptorEv, __ZN3MTL7Private5Class29s_kMTLBinaryArchiveDescriptorEv, 
                       __ZN3MTL7Private5Class29s_kMTLCommandBufferDescriptorEv, __ZN3MTL7Private5Class30s_kMTLAttributeDescriptorArrayEv, 
                       __ZN3MTL7Private5Class30s_kMTLIOCommandQueueDescriptorEv, 
                       __ZN3MTL7Private5Class30s_kMTLPipelineBufferDescriptorEv, 
                       __ZN3MTL7Private5Class30s_kMTLRenderPipelineDescriptorEv, 
                       __ZN3MTL7Private5Class30s_kMTLRenderPipelineReflectionEv, 
                       __ZN3MTL7Private5Class31s_kMTLComputePipelineDescriptorEv, 
                       __ZN3MTL7Private5Class31s_kMTLComputePipelineReflectionEv, 
                       __ZN3MTL7Private5Class31s_kMTLStitchedLibraryDescriptorEv, 
                       __ZN3MTL7Private5Class31s_kMTLVertexAttributeDescriptorEv, 
                       __ZN3MTL7Private5Class32s_kMTLFunctionStitchingInputNodeEv, 
                       __ZN3MTL7Private5Class32s_kMTLStageInputOutputDescriptorEv, 
                       __ZN3MTL7Private5Class33s_kMTLBufferLayoutDescriptorArrayEv, 
                       __ZN3MTL7Private5Class33s_kMTLRasterizationRateLayerArrayEv, 
                       __ZN3MTL7Private5Class33s_kMTLResourceStatePassDescriptorEv, 
                       __ZN3MTL7Private5Class34s_kMTLMeshRenderPipelineDescriptorEv, 
                       __ZN3MTL7Private5Class34s_kMTLRasterizationRateSampleArrayEv, 
                       __ZN3MTL7Private5Class34s_kMTLTileRenderPipelineDescriptorEv, 
                       __ZN3MTL7Private5Class34s_kMTLVertexBufferLayoutDescriptorEv, 
                       __ZN3MTL7Private5Class35s_kMTLCounterSampleBufferDescriptorEv, 
                       __ZN3MTL7Private5Class35s_kMTLFunctionStitchingFunctionNodeEv, 
                       __ZN3MTL7Private5Class35s_kMTLPipelineBufferDescriptorArrayEv, 
                       __ZN3MTL7Private5Class36s_kMTLIntersectionFunctionDescriptorEv, 
                       __ZN3MTL7Private5Class36s_kMTLRasterizationRateMapDescriptorEv, 
                       __ZN3MTL7Private5Class36s_kMTLRenderPassAttachmentDescriptorEv, 
                       __ZN3MTL7Private5Class36s_kMTLVertexAttributeDescriptorArrayEv, 
                       __ZN3MTL7Private5Class36s_kMTLVisibleFunctionTableDescriptorEv, 
                       __ZN3MTL7Private5Class37s_kMTLAccelerationStructureDescriptorEv, 
                       __ZN3MTL7Private5Class37s_kMTLIndirectCommandBufferDescriptorEv, 
                       __ZN3MTL7Private5Class38s_kMTLRasterizationRateLayerDescriptorEv, 
                       __ZN3MTL7Private5Class39s_kMTLRenderPipelineFunctionsDescriptorEv, 
                       __ZN3MTL7Private5Class39s_kMTLVertexBufferLayoutDescriptorArrayEv, 
                       __ZN3MTL7Private5Class41s_kMTLAccelerationStructurePassDescriptorEv, 
                       __ZN3MTL7Private5Class41s_kMTLIntersectionFunctionTableDescriptorEv, 
                       __ZN3MTL7Private5Class41s_kMTLRenderPassColorAttachmentDescriptorEv, 
                       __ZN3MTL7Private5Class41s_kMTLRenderPassDepthAttachmentDescriptorEv, 
                       __ZN3MTL7Private5Class43s_kMTLRenderPassStencilAttachmentDescriptorEv, 
                       __ZN3MTL7Private5Class44s_kMTLFunctionStitchingAttributeAlwaysInlineEv, 
                       __ZN3MTL7Private5Class45s_kMTLAccelerationStructureGeometryDescriptorEv, 
                       __ZN3MTL7Private5Class45s_kMTLInstanceAccelerationStructureDescriptorEv, 
                       __ZN3MTL7Private5Class45s_kMTLRenderPipelineColorAttachmentDescriptorEv, 
                       __ZN3MTL7Private5Class46s_kMTLBlitPassSampleBufferAttachmentDescriptorEv, 
                       __ZN3MTL7Private5Class46s_kMTLPrimitiveAccelerationStructureDescriptorEv, 
                       __ZN3MTL7Private5Class46s_kMTLRenderPassColorAttachmentDescriptorArrayEv, 
                       __ZN3MTL7Private5Class48s_kMTLRenderPassSampleBufferAttachmentDescriptorEv, 
                       __ZN3MTL7Private5Class49s_kMTLComputePassSampleBufferAttachmentDescriptorEv, 
                       __ZN3MTL7Private5Class49s_kMTLTileRenderPipelineColorAttachmentDescriptorEv, 
                       __ZN3MTL7Private5Class50s_kMTLAccelerationStructureCurveGeometryDescriptorEv, 
                       __ZN3MTL7Private5Class50s_kMTLRenderPipelineColorAttachmentDescriptorArrayEv, 
                       __ZN3MTL7Private5Class51s_kMTLBlitPassSampleBufferAttachmentDescriptorArrayEv, 
                       __ZN3MTL7Private5Class53s_kMTLAccelerationStructureTriangleGeometryDescriptorEv, 
                       __ZN3MTL7Private5Class53s_kMTLIndirectInstanceAccelerationStructureDescriptorEv, 
                       __ZN3MTL7Private5Class53s_kMTLRenderPassSampleBufferAttachmentDescriptorArrayEv, 
                       __ZN3MTL7Private5Class54s_kMTLComputePassSampleBufferAttachmentDescriptorArrayEv, 
                       __ZN3MTL7Private5Class54s_kMTLTileRenderPipelineColorAttachmentDescriptorArrayEv, 
                       __ZN3MTL7Private5Class55s_kMTLResourceStatePassSampleBufferAttachmentDescriptorEv, 
                       __ZN3MTL7Private5Class56s_kMTLAccelerationStructureBoundingBoxGeometryDescriptorEv, 
                       __ZN3MTL7Private5Class56s_kMTLAccelerationStructureMotionCurveGeometryDescriptorEv, 
                       __ZN3MTL7Private5Class59s_kMTLAccelerationStructureMotionTriangleGeometryDescriptorEv, 
                       __ZN3MTL7Private5Class60s_kMTLResourceStatePassSampleBufferAttachmentDescriptorArrayEv, 
                       __ZN3MTL7Private5Class62s_kMTLAccelerationStructureMotionBoundingBoxGeometryDescriptorEv, 
                       __ZN3MTL7Private5Class63s_kMTLAccelerationStructurePassSampleBufferAttachmentDescriptorEv, 
                       __ZN3MTL7Private5Class68s_kMTLAccelerationStructurePassSampleBufferAttachmentDescriptorArrayEv, 
                       __ZN3MTL7Private8Protocol10s_kMTLHeapEv, __ZN3MTL7Private8Protocol11s_kMTLEventEv, 
                       __ZN3MTL7Private8Protocol11s_kMTLFenceEv, __ZN3MTL7Private8Protocol12s_kMTLBufferEv, 
                       __ZN3MTL7Private8Protocol12s_kMTLDeviceEv, __ZN3MTL7Private8Protocol13s_kMTLBindingEv, 
                       __ZN3MTL7Private8Protocol13s_kMTLCounterEv, __ZN3MTL7Private8Protocol13s_kMTLLibraryEv, 
                       __ZN3MTL7Private8Protocol13s_kMTLTextureEv, __ZN3MTL7Private8Protocol14s_kMTLDrawableEv, 
                       __ZN3MTL7Private8Protocol14s_kMTLFunctionEv, __ZN3MTL7Private8Protocol14s_kMTLLogStateEv, 
                       __ZN3MTL7Private8Protocol14s_kMTLResourceEv, __ZN3MTL7Private8Protocol16s_kMTLAllocationEv, 
                       __ZN3MTL7Private8Protocol16s_kMTLCounterSetEv, __ZN3MTL7Private8Protocol17s_kMTLFunctionLogEv, 
                       __ZN3MTL7Private8Protocol17s_kMTLSharedEventEv, __ZN3MTL7Private8Protocol18s_kMTLCommandQueueEv, 
                       __ZN3MTL7Private8Protocol18s_kMTLIOFileHandleEv, __ZN3MTL7Private8Protocol18s_kMTLLogContainerEv, 
                       __ZN3MTL7Private8Protocol18s_kMTLResidencySetEv, __ZN3MTL7Private8Protocol18s_kMTLSamplerStateEv, 
                       __ZN3MTL7Private8Protocol19s_kMTLBinaryArchiveEv, __ZN3MTL7Private8Protocol19s_kMTLBufferBindingEv, 
                       __ZN3MTL7Private8Protocol19s_kMTLCommandBufferEv, __ZN3MTL7Private8Protocol20s_kMTLCommandEncoderEv, 
                       __ZN3MTL7Private8Protocol20s_kMTLDynamicLibraryEv, __ZN3MTL7Private8Protocol20s_kMTLFunctionHandleEv, 
                       __ZN3MTL7Private8Protocol20s_kMTLIOCommandQueueEv, __ZN3MTL7Private8Protocol20s_kMTLTextureBindingEv, 
                       __ZN3MTL7Private8Protocol21s_kMTLArgumentEncoderEv, __ZN3MTL7Private8Protocol21s_kMTLIOCommandBufferEv, 
                       __ZN3MTL7Private8Protocol21s_kMTLIOScratchBufferEv, __ZN3MTL7Private8Protocol23s_kMTLDepthStencilStateEv, 
                       __ZN3MTL7Private8Protocol24s_kMTLBlitCommandEncoderEv, __ZN3MTL7Private8Protocol24s_kMTLThreadgroupBindingEv, 
                       __ZN3MTL7Private8Protocol25s_kMTLCounterSampleBufferEv, __ZN3MTL7Private8Protocol25s_kMTLRenderPipelineStateEv, 
                       __ZN3MTL7Private8Protocol26s_kMTLComputePipelineStateEv, __ZN3MTL7Private8Protocol26s_kMTLObjectPayloadBindingEv, 
                       __ZN3MTL7Private8Protocol26s_kMTLRasterizationRateMapEv, __ZN3MTL7Private8Protocol26s_kMTLRenderCommandEncoderEv, 
                       __ZN3MTL7Private8Protocol26s_kMTLVisibleFunctionTableEv, __ZN3MTL7Private8Protocol27s_kMTLAccelerationStructureEv, 
                       __ZN3MTL7Private8Protocol27s_kMTLComputeCommandEncoderEv, 
                       __ZN3MTL7Private8Protocol27s_kMTLFunctionStitchingNodeEv, 
                       __ZN3MTL7Private8Protocol27s_kMTLIndirectCommandBufferEv, 
                       __ZN3MTL7Private8Protocol27s_kMTLIndirectRenderCommandEv, 
                       __ZN3MTL7Private8Protocol28s_kMTLIndirectComputeCommandEv, 
                       __ZN3MTL7Private8Protocol30s_kMTLCommandBufferEncoderInfoEv, 
                       __ZN3MTL7Private8Protocol30s_kMTLFunctionLogDebugLocationEv, 
                       __ZN3MTL7Private8Protocol30s_kMTLIOScratchBufferAllocatorEv, 
                       __ZN3MTL7Private8Protocol31s_kMTLIntersectionFunctionTableEv, 
                       __ZN3MTL7Private8Protocol32s_kMTLFunctionStitchingAttributeEv, 
                       __ZN3MTL7Private8Protocol33s_kMTLResourceStateCommandEncoderEv, 
                       __ZN3MTL7Private8Protocol34s_kMTLParallelRenderCommandEncoderEv, 
                       __ZN3MTL7Private8Protocol41s_kMTLAccelerationStructureCommandEncoderEv, 
                       __ZN3MTL7Private8Selector100s_kgetTextureAccessCounters_region_mipLevel_slice_resetCounters_countersBuffer_countersBufferOffset_Ev, 
                       __ZN3MTL7Private8Selector101s_kdrawIndexedPrimitives_indexType_indexBuffer_indexBufferOffset_indirectBuffer_indirectBufferOffset_Ev, 
                       __ZN3MTL7Private8Selector104s_kdrawPatches_patchStart_patchCount_patchIndexBuffer_patchIndexBufferOffset_instanceCount_baseInstance_Ev, 
                       __ZN3MTL7Private8Selector109s_kcopyFromTexture_sourceSlice_sourceLevel_toTexture_destinationSlice_destinationLevel_sliceCount_levelCount_Ev, 
                       __ZN3MTL7Private8Selector10s_kbuffersEv, __ZN3MTL7Private8Selector10s_kdeallocEv, 
                       __ZN3MTL7Private8Selector10s_kenqueueEv, __ZN3MTL7Private8Selector10s_klayoutsEv, 
                       __ZN3MTL7Private8Selector10s_kmembersEv, __ZN3MTL7Private8Selector10s_koptionsEv, 
                       __ZN3MTL7Private8Selector10s_kpresentEv, __ZN3MTL7Private8Selector10s_ksetUrl_Ev, 
                       __ZN3MTL7Private8Selector10s_kswizzleEv, __ZN3MTL7Private8Selector10s_ktextureEv, 
                       __ZN3MTL7Private8Selector114s_kdrawIndexedPrimitives_indexCount_indexType_indexBuffer_indexBufferOffset_instanceCount_baseVertex_baseInstance_Ev, 
                       __ZN3MTL7Private8Selector117s_kdrawMeshThreadgroupsWithIndirectBuffer_indirectBufferOffset_threadsPerObjectThreadgroup_threadsPerMeshThreadgroup_Ev, 
                       __ZN3MTL7Private8Selector11s_kbindingsEv, __ZN3MTL7Private8Selector11s_kcontentsEv, 
                       __ZN3MTL7Private8Selector11s_kcountersEv, __ZN3MTL7Private8Selector11s_kdataSizeEv, 
                       __ZN3MTL7Private8Selector11s_kdataTypeEv, __ZN3MTL7Private8Selector11s_kendScopeEv, 
                       __ZN3MTL7Private8Selector11s_kfunctionEv, __ZN3MTL7Private8Selector11s_kisActiveEv, 
                       __ZN3MTL7Private8Selector11s_kisSparseEv, __ZN3MTL7Private8Selector11s_klocationEv, 
                       __ZN3MTL7Private8Selector11s_klogStateEv, __ZN3MTL7Private8Selector11s_kmathModeEv, 
                       __ZN3MTL7Private8Selector11s_knewEventEv, __ZN3MTL7Private8Selector11s_knewFenceEv, 
                       __ZN3MTL7Private8Selector11s_kpriorityEv, __ZN3MTL7Private8Selector11s_kreadMaskEv, 
                       __ZN3MTL7Private8Selector11s_krequiredEv, __ZN3MTL7Private8Selector11s_ksetName_Ev, 
                       __ZN3MTL7Private8Selector11s_ksetSize_Ev, __ZN3MTL7Private8Selector11s_ksetType_Ev, 
                       __ZN3MTL7Private8Selector11s_kstepRateEv, __ZN3MTL7Private8Selector11s_kuseHeap_Ev, 
                       __ZN3MTL7Private8Selector11s_kusedSizeEv, __ZN3MTL7Private8Selector11s_kverticalEv, 
                       __ZN3MTL7Private8Selector120s_kloadTexture_slice_level_size_sourceBytesPerRow_sourceBytesPerImage_destinationOrigin_sourceHandle_sourceHandleOffset_Ev, 
                       __ZN3MTL7Private8Selector129s_kcopyFromTexture_sourceSlice_sourceLevel_sourceOrigin_sourceSize_toTexture_destinationSlice_destinationLevel_destinationOrigin_Ev, 
                       __ZN3MTL7Private8Selector12s_kalignmentEv, __ZN3MTL7Private8Selector12s_kargumentsEv, 
                       __ZN3MTL7Private8Selector12s_karrayTypeEv, __ZN3MTL7Private8Selector12s_kcurveTypeEv, 
                       __ZN3MTL7Private8Selector12s_kfunctionsEv, __ZN3MTL7Private8Selector12s_kindexTypeEv, 
                       __ZN3MTL7Private8Selector12s_kiosurfaceEv, __ZN3MTL7Private8Selector12s_klibrariesEv, 
                       __ZN3MTL7Private8Selector12s_kmagFilterEv, __ZN3MTL7Private8Selector12s_kminFilterEv, 
                       __ZN3MTL7Private8Selector12s_kmipFilterEv, __ZN3MTL7Private8Selector12s_koutputURLEv, 
                       __ZN3MTL7Private8Selector12s_kpatchTypeEv, __ZN3MTL7Private8Selector12s_kpeerCountEv, 
                       __ZN3MTL7Private8Selector12s_kpeerIndexEv, __ZN3MTL7Private8Selector12s_ksetDepth_Ev, 
                       __ZN3MTL7Private8Selector12s_ksetIndex_Ev, __ZN3MTL7Private8Selector12s_ksetLabel_Ev, 
                       __ZN3MTL7Private8Selector12s_ksetLevel_Ev, __ZN3MTL7Private8Selector12s_ksetNodes_Ev, 
                       __ZN3MTL7Private8Selector12s_ksetSlice_Ev, __ZN3MTL7Private8Selector12s_ksetUsage_Ev, 
                       __ZN3MTL7Private8Selector12s_ksetWidth_Ev, __ZN3MTL7Private8Selector12s_ktileWidthEv, 
                       __ZN3MTL7Private8Selector12s_ktryCancelEv, __ZN3MTL7Private8Selector12s_kwriteMaskEv, 
                       __ZN3MTL7Private8Selector13s_kGPUEndTimeEv, __ZN3MTL7Private8Selector13s_kaddBarrierEv, 
                       __ZN3MTL7Private8Selector13s_kattributesEv, __ZN3MTL7Private8Selector13s_kbeginScopeEv, 
                       __ZN3MTL7Private8Selector13s_kbufferSizeEv, __ZN3MTL7Private8Selector13s_kclearColorEv, 
                       __ZN3MTL7Private8Selector13s_kclearDepthEv, __ZN3MTL7Private8Selector13s_kcounterSetEv, 
                       __ZN3MTL7Private8Selector13s_kcurveBasisEv, __ZN3MTL7Private8Selector13s_kdepthPlaneEv, 
                       __ZN3MTL7Private8Selector13s_kdescriptorEv, __ZN3MTL7Private8Selector13s_kdrawableIDEv, 
                       __ZN3MTL7Private8Selector13s_kerrorStateEv, __ZN3MTL7Private8Selector13s_kgpuAddressEv, 
                       __ZN3MTL7Private8Selector13s_kheapOffsetEv, __ZN3MTL7Private8Selector13s_khorizontalEv, 
                       __ZN3MTL7Private8Selector13s_kisArgumentEv, __ZN3MTL7Private8Selector13s_kisHeadlessEv, 
                       __ZN3MTL7Private8Selector13s_kisLowPowerEv, __ZN3MTL7Private8Selector13s_klayerCountEv, 
                       __ZN3MTL7Private8Selector13s_kloadActionEv, __ZN3MTL7Private8Selector13s_klodAverageEv, 
                       __ZN3MTL7Private8Selector13s_kmutabilityEv, __ZN3MTL7Private8Selector13s_koutputNodeEv, 
                       __ZN3MTL7Private8Selector13s_kregistryIDEv, __ZN3MTL7Private8Selector13s_kscreenSizeEv, 
                       __ZN3MTL7Private8Selector13s_ksetAccess_Ev, __ZN3MTL7Private8Selector13s_ksetBarrierEv, 
                       __ZN3MTL7Private8Selector13s_ksetBuffer_Ev, __ZN3MTL7Private8Selector13s_ksetFormat_Ev, 
                       __ZN3MTL7Private8Selector13s_ksetGroups_Ev, __ZN3MTL7Private8Selector13s_ksetHeight_Ev, 
                       __ZN3MTL7Private8Selector13s_ksetOffset_Ev, __ZN3MTL7Private8Selector13s_ksetOpaque_Ev, 
                       __ZN3MTL7Private8Selector13s_ksetStride_Ev, __ZN3MTL7Private8Selector13s_kstructTypeEv, 
                       __ZN3MTL7Private8Selector13s_ktileHeightEv, __ZN3MTL7Private8Selector142s_kcopyFromBuffer_sourceOffset_sourceBytesPerRow_sourceBytesPerImage_sourceSize_toTexture_destinationSlice_destinationLevel_destinationOrigin_Ev, 
                       __ZN3MTL7Private8Selector142s_kcopyFromTexture_sourceSlice_sourceLevel_sourceOrigin_sourceSize_toBuffer_destinationOffset_destinationBytesPerRow_destinationBytesPerImage_Ev, 
                       __ZN3MTL7Private8Selector144s_kmoveTextureMappingsFromTexture_sourceSlice_sourceLevel_sourceOrigin_sourceSize_toTexture_destinationSlice_destinationLevel_destinationOrigin_Ev, 
                       __ZN3MTL7Private8Selector14s_karrayLengthEv, __ZN3MTL7Private8Selector14s_kborderColorEv, 
                       __ZN3MTL7Private8Selector14s_kbufferIndexEv, __ZN3MTL7Private8Selector14s_kcounterSetsEv, 
                       __ZN3MTL7Private8Selector14s_kdestinationEv, __ZN3MTL7Private8Selector14s_kelementTypeEv, 
                       __ZN3MTL7Private8Selector14s_kendEncodingEv, __ZN3MTL7Private8Selector14s_kindexBufferEv, 
                       __ZN3MTL7Private8Selector14s_kinstallNameEv, __ZN3MTL7Private8Selector14s_kisAliasableEv, 
                       __ZN3MTL7Private8Selector14s_kisCapturingEv, __ZN3MTL7Private8Selector14s_kisPatchDataEv, 
                       __ZN3MTL7Private8Selector14s_kisRemovableEv, __ZN3MTL7Private8Selector14s_kisShareableEv, 
                       __ZN3MTL7Private8Selector14s_klibraryTypeEv, __ZN3MTL7Private8Selector14s_klodMaxClampEv, 
                       __ZN3MTL7Private8Selector14s_klodMinClampEv, __ZN3MTL7Private8Selector14s_kmeshBuffersEv, 
                       __ZN3MTL7Private8Selector14s_kpeerGroupIDEv, __ZN3MTL7Private8Selector14s_kpixelFormatEv, 
                       __ZN3MTL7Private8Selector14s_kpointerTypeEv, __ZN3MTL7Private8Selector14s_ksampleCountEv, 
                       __ZN3MTL7Private8Selector14s_ksetOptions_Ev, __ZN3MTL7Private8Selector14s_ksetSwizzle_Ev, 
                       __ZN3MTL7Private8Selector14s_ksetTexture_Ev, __ZN3MTL7Private8Selector14s_kstopCaptureEv, 
                       __ZN3MTL7Private8Selector14s_kstorageModeEv, __ZN3MTL7Private8Selector14s_kstoreActionEv, 
                       __ZN3MTL7Private8Selector14s_ktextureTypeEv, __ZN3MTL7Private8Selector14s_ktileBuffersEv, 
                       __ZN3MTL7Private8Selector150s_kcopyFromBuffer_sourceOffset_sourceBytesPerRow_sourceBytesPerImage_sourceSize_toTexture_destinationSlice_destinationLevel_destinationOrigin_options_Ev, 
                       __ZN3MTL7Private8Selector150s_kcopyFromTexture_sourceSlice_sourceLevel_sourceOrigin_sourceSize_toBuffer_destinationOffset_destinationBytesPerRow_destinationBytesPerImage_options_Ev, 
                       __ZN3MTL7Private8Selector152s_kdrawIndexedPatches_patchIndexBuffer_patchIndexBufferOffset_controlPointIndexBuffer_controlPointIndexBufferOffset_indirectBuffer_indirectBufferOffset_Ev, 
                       __ZN3MTL7Private8Selector15s_kGPUStartTimeEv, __ZN3MTL7Private8Selector15s_karchitectureEv, 
                       __ZN3MTL7Private8Selector15s_kbufferOffsetEv, __ZN3MTL7Private8Selector15s_kclearBarrierEv, 
                       __ZN3MTL7Private8Selector15s_kclearStencilEv, __ZN3MTL7Private8Selector15s_kcommandQueueEv, 
                       __ZN3MTL7Private8Selector15s_kcommandTypesEv, __ZN3MTL7Private8Selector15s_kcpuCacheModeEv, 
                       __ZN3MTL7Private8Selector15s_kcurveEndCapsEv, __ZN3MTL7Private8Selector15s_kdispatchTypeEv, 
                       __ZN3MTL7Private8Selector15s_kencoderLabelEv, __ZN3MTL7Private8Selector15s_kendResidencyEv, 
                       __ZN3MTL7Private8Selector15s_kerrorOptionsEv, __ZN3MTL7Private8Selector15s_kfunctionNameEv, 
                       __ZN3MTL7Private8Selector15s_kfunctionTypeEv, __ZN3MTL7Private8Selector15s_kmeshBindingsEv, 
                       __ZN3MTL7Private8Selector15s_kmeshFunctionEv, __ZN3MTL7Private8Selector15s_krAddressModeEv, 
                       __ZN3MTL7Private8Selector15s_kradiusBufferEv, __ZN3MTL7Private8Selector15s_kradiusFormatEv, 
                       __ZN3MTL7Private8Selector15s_kradiusStrideEv, __ZN3MTL7Private8Selector15s_kresolveLevelEv, 
                       __ZN3MTL7Private8Selector15s_kresolveSliceEv, __ZN3MTL7Private8Selector15s_krootResourceEv, 
                       __ZN3MTL7Private8Selector15s_ksAddressModeEv, __ZN3MTL7Private8Selector15s_ksampleBufferEv, 
                       __ZN3MTL7Private8Selector15s_ksegmentCountEv, __ZN3MTL7Private8Selector15s_ksetCullMode_Ev, 
                       __ZN3MTL7Private8Selector15s_ksetDataType_Ev, __ZN3MTL7Private8Selector15s_ksetLogState_Ev, 
                       __ZN3MTL7Private8Selector15s_ksetMathMode_Ev, __ZN3MTL7Private8Selector15s_ksetPriority_Ev, 
                       __ZN3MTL7Private8Selector15s_ksetReadMask_Ev, __ZN3MTL7Private8Selector15s_ksetStepRate_Ev, 
                       __ZN3MTL7Private8Selector15s_ksetViewport_Ev, __ZN3MTL7Private8Selector15s_kstepFunctionEv, 
                       __ZN3MTL7Private8Selector15s_ktAddressModeEv, __ZN3MTL7Private8Selector15s_ktileBindingsEv, 
                       __ZN3MTL7Private8Selector15s_ktileFunctionEv, __ZN3MTL7Private8Selector15s_kupdateFence_Ev, 
                       __ZN3MTL7Private8Selector15s_kvertexBufferEv, __ZN3MTL7Private8Selector15s_kvertexFormatEv, 
                       __ZN3MTL7Private8Selector15s_kvertexStrideEv, __ZN3MTL7Private8Selector165s_kdrawIndexedPatches_patchStart_patchCount_patchIndexBuffer_patchIndexBufferOffset_controlPointIndexBuffer_controlPointIndexBufferOffset_instanceCount_baseInstance_Ev, 
                       __ZN3MTL7Private8Selector16s_kallocatedSizeEv, __ZN3MTL7Private8Selector16s_kargumentIndexEv, 
                       __ZN3MTL7Private8Selector16s_kattributeTypeEv, __ZN3MTL7Private8Selector16s_kcaptureObjectEv, 
                       __ZN3MTL7Private8Selector16s_kcommandBufferEv, __ZN3MTL7Private8Selector16s_kdebugLocationEv, 
                       __ZN3MTL7Private8Selector16s_kdispatchQueueEv, __ZN3MTL7Private8Selector16s_kenableLoggingEv, 
                       __ZN3MTL7Private8Selector16s_kencodedLengthEv, __ZN3MTL7Private8Selector16s_kfunctionCountEv, 
                       __ZN3MTL7Private8Selector16s_kfunctionNamesEv, __ZN3MTL7Private8Selector16s_kgpuResourceIDEv, 
                       __ZN3MTL7Private8Selector16s_kinstanceCountEv, __ZN3MTL7Private8Selector16s_kkernelEndTimeEv, 
                       __ZN3MTL7Private8Selector16s_klayerAtIndex_Ev, __ZN3MTL7Private8Selector16s_kmakeAliasableEv, 
                       __ZN3MTL7Private8Selector16s_kmaxAnisotropyEv, __ZN3MTL7Private8Selector16s_kmemberByName_Ev, 
                       __ZN3MTL7Private8Selector16s_kmotionEndTimeEv, __ZN3MTL7Private8Selector16s_kobjectBuffersEv, 
                       __ZN3MTL7Private8Selector16s_kparentTextureEv, __ZN3MTL7Private8Selector16s_kpopDebugGroupEv, 
                       __ZN3MTL7Private8Selector16s_kpresentedTimeEv, __ZN3MTL7Private8Selector16s_kradiusBuffersEv, 
                       __ZN3MTL7Private8Selector16s_ksetArguments_Ev, __ZN3MTL7Private8Selector16s_ksetCurveType_Ev, 
                       __ZN3MTL7Private8Selector16s_ksetFunctions_Ev, __ZN3MTL7Private8Selector16s_ksetIndexType_Ev, 
                       __ZN3MTL7Private8Selector16s_ksetLibraries_Ev, __ZN3MTL7Private8Selector16s_ksetMagFilter_Ev, 
                       __ZN3MTL7Private8Selector16s_ksetMinFilter_Ev, __ZN3MTL7Private8Selector16s_ksetMipFilter_Ev, 
                       __ZN3MTL7Private8Selector16s_ksetOutputURL_Ev, __ZN3MTL7Private8Selector16s_ksetTileWidth_Ev, 
                       __ZN3MTL7Private8Selector16s_ksetWriteMask_Ev, __ZN3MTL7Private8Selector16s_ksignaledValueEv, 
                       __ZN3MTL7Private8Selector16s_ktileArgumentsEv, __ZN3MTL7Private8Selector16s_ktriangleCountEv, 
                       __ZN3MTL7Private8Selector16s_kvertexBuffersEv, __ZN3MTL7Private8Selector16s_kwaitForFence_Ev, 
                       __ZN3MTL7Private8Selector17s_kaddAllocation_Ev, __ZN3MTL7Private8Selector17s_kaddLogHandler_Ev, 
                       __ZN3MTL7Private8Selector17s_kallAllocationsEv, __ZN3MTL7Private8Selector17s_kattributeIndexEv, 
                       __ZN3MTL7Private8Selector17s_kbinaryArchivesEv, __ZN3MTL7Private8Selector17s_kbufferDataSizeEv, 
                       __ZN3MTL7Private8Selector17s_kbufferDataTypeEv, __ZN3MTL7Private8Selector17s_kconstantValuesEv, 
                       __ZN3MTL7Private8Selector17s_kdebugSignpostsEv, __ZN3MTL7Private8Selector17s_kenqueueBarrierEv, 
                       __ZN3MTL7Private8Selector17s_kfunctionGraphsEv, __ZN3MTL7Private8Selector17s_kinheritBuffersEv, 
                       __ZN3MTL7Private8Selector17s_kiosurfacePlaneEv, __ZN3MTL7Private8Selector17s_kisDepthTextureEv, 
                       __ZN3MTL7Private8Selector17s_klocationNumberEv, __ZN3MTL7Private8Selector17s_kmaxSampleCountEv, 
                       __ZN3MTL7Private8Selector17s_knewSharedEventEv, __ZN3MTL7Private8Selector17s_kobjectBindingsEv, 
                       __ZN3MTL7Private8Selector17s_kobjectFunctionEv, __ZN3MTL7Private8Selector17s_kpresentAtTime_Ev, 
                       __ZN3MTL7Private8Selector17s_kresolveTextureEv, __ZN3MTL7Private8Selector17s_ksetAttributes_Ev, 
                       __ZN3MTL7Private8Selector17s_ksetBufferSize_Ev, __ZN3MTL7Private8Selector17s_ksetClearColor_Ev, 
                       __ZN3MTL7Private8Selector17s_ksetClearDepth_Ev, __ZN3MTL7Private8Selector17s_ksetCounterSet_Ev, 
                       __ZN3MTL7Private8Selector17s_ksetCurveBasis_Ev, __ZN3MTL7Private8Selector17s_ksetDepthPlane_Ev, 
                       __ZN3MTL7Private8Selector17s_ksetLoadAction_Ev, __ZN3MTL7Private8Selector17s_ksetLodAverage_Ev, 
                       __ZN3MTL7Private8Selector17s_ksetMutability_Ev, __ZN3MTL7Private8Selector17s_ksetOutputNode_Ev, 
                       __ZN3MTL7Private8Selector17s_ksetScreenSize_Ev, __ZN3MTL7Private8Selector17s_ksetTileHeight_Ev, 
                       __ZN3MTL7Private8Selector17s_ksparsePageSizeEv, __ZN3MTL7Private8Selector17s_ktextureBarrierEv, 
                       __ZN3MTL7Private8Selector17s_kvertexBindingsEv, __ZN3MTL7Private8Selector17s_kvertexFunctionEv, 
                       __ZN3MTL7Private8Selector18s_kallocationCountEv, __ZN3MTL7Private8Selector18s_kbackFaceStencilEv, 
                       __ZN3MTL7Private8Selector18s_kbinaryFunctionsEv, __ZN3MTL7Private8Selector18s_kbufferAlignmentEv, 
                       __ZN3MTL7Private8Selector18s_kcompareFunctionEv, __ZN3MTL7Private8Selector18s_kcompressionTypeEv, 
                       __ZN3MTL7Private8Selector18s_kcomputeFunctionEv, __ZN3MTL7Private8Selector18s_kdepthAttachmentEv, 
                       __ZN3MTL7Private8Selector18s_kdidModifyRange_Ev, __ZN3MTL7Private8Selector18s_kfastMathEnabledEv, 
                       __ZN3MTL7Private8Selector18s_kfragmentBuffersEv, __ZN3MTL7Private8Selector18s_kinitialCapacityEv, 
                       __ZN3MTL7Private8Selector18s_kinsertLibrariesEv, __ZN3MTL7Private8Selector18s_kkernelStartTimeEv, 
                       __ZN3MTL7Private8Selector18s_klanguageVersionEv, __ZN3MTL7Private8Selector18s_klinkedFunctionsEv, 
                       __ZN3MTL7Private8Selector18s_kmaxBufferLengthEv, __ZN3MTL7Private8Selector18s_kmaxTransferRateEv, 
                       __ZN3MTL7Private8Selector18s_kmotionStartTimeEv, __ZN3MTL7Private8Selector18s_knewCommandQueueEv, 
                       __ZN3MTL7Private8Selector18s_kpushDebugGroup_Ev, __ZN3MTL7Private8Selector18s_kresetWithRange_Ev, 
                       __ZN3MTL7Private8Selector18s_kresourceOptionsEv, __ZN3MTL7Private8Selector18s_ksetArrayLength_Ev, 
                       __ZN3MTL7Private8Selector18s_ksetBorderColor_Ev, __ZN3MTL7Private8Selector18s_ksetBufferIndex_Ev, 
                       __ZN3MTL7Private8Selector18s_ksetDestination_Ev, __ZN3MTL7Private8Selector18s_ksetIndexBuffer_Ev, 
                       __ZN3MTL7Private8Selector18s_ksetInstallName_Ev, __ZN3MTL7Private8Selector18s_ksetLibraryType_Ev, 
                       __ZN3MTL7Private8Selector18s_ksetLodMaxClamp_Ev, __ZN3MTL7Private8Selector18s_ksetLodMinClamp_Ev, 
                       __ZN3MTL7Private8Selector18s_ksetPixelFormat_Ev, __ZN3MTL7Private8Selector18s_ksetSampleCount_Ev, 
                       __ZN3MTL7Private8Selector18s_ksetScissorRect_Ev, __ZN3MTL7Private8Selector18s_ksetStorageMode_Ev, 
                       __ZN3MTL7Private8Selector18s_ksetStoreAction_Ev, __ZN3MTL7Private8Selector18s_ksetTextureType_Ev, 
                       __ZN3MTL7Private8Selector18s_kspecializedNameEv, __ZN3MTL7Private8Selector18s_ksupportsFamily_Ev, 
                       __ZN3MTL7Private8Selector18s_ktailSizeInBytesEv, __ZN3MTL7Private8Selector18s_ktextureDataTypeEv, 
                       __ZN3MTL7Private8Selector18s_kuseHeap_stages_Ev, __ZN3MTL7Private8Selector18s_kuseHeaps_count_Ev, 
                       __ZN3MTL7Private8Selector18s_kvertexArgumentsEv, __ZN3MTL7Private8Selector199s_kdrawPatches_patchStart_patchCount_patchIndexBuffer_patchIndexBufferOffset_instanceCount_baseInstance_tessellationFactorBuffer_tessellationFactorBufferOffset_tessellationFactorBufferInstanceStride_Ev, 
                       __ZN3MTL7Private8Selector19s_kaddResidencySet_Ev, __ZN3MTL7Private8Selector19s_kboundingBoxCountEv, 
                       __ZN3MTL7Private8Selector19s_kbufferStructTypeEv, __ZN3MTL7Private8Selector19s_kcolorAttachmentsEv, 
                       __ZN3MTL7Private8Selector19s_kelementArrayTypeEv, __ZN3MTL7Private8Selector19s_kfragmentBindingsEv, 
                       __ZN3MTL7Private8Selector19s_kfragmentFunctionEv, __ZN3MTL7Private8Selector19s_kfrontFaceStencilEv, 
                       __ZN3MTL7Private8Selector19s_khasUnifiedMemoryEv, __ZN3MTL7Private8Selector19s_kindexBufferIndexEv, 
                       __ZN3MTL7Private8Selector19s_kmaxInstanceCountEv, __ZN3MTL7Private8Selector19s_kmipmapLevelCountEv, 
                       __ZN3MTL7Private8Selector19s_kpresentDrawable_Ev, __ZN3MTL7Private8Selector19s_kprivateFunctionsEv, 
                       __ZN3MTL7Private8Selector19s_krequestResidencyEv, __ZN3MTL7Private8Selector19s_ksetClearStencil_Ev, 
                       __ZN3MTL7Private8Selector19s_ksetCommandTypes_Ev, __ZN3MTL7Private8Selector19s_ksetCpuCacheMode_Ev, 
                       __ZN3MTL7Private8Selector19s_ksetCurveEndCaps_Ev, __ZN3MTL7Private8Selector19s_ksetDispatchType_Ev, 
                       __ZN3MTL7Private8Selector19s_ksetErrorOptions_Ev, __ZN3MTL7Private8Selector19s_ksetFunctionName_Ev, 
                       __ZN3MTL7Private8Selector19s_ksetMeshFunction_Ev, __ZN3MTL7Private8Selector19s_ksetRAddressMode_Ev, 
                       __ZN3MTL7Private8Selector19s_ksetRadiusBuffer_Ev, __ZN3MTL7Private8Selector19s_ksetRadiusFormat_Ev, 
                       __ZN3MTL7Private8Selector19s_ksetRadiusStride_Ev, __ZN3MTL7Private8Selector19s_ksetResolveLevel_Ev, 
                       __ZN3MTL7Private8Selector19s_ksetResolveSlice_Ev, __ZN3MTL7Private8Selector19s_ksetSAddressMode_Ev, 
                       __ZN3MTL7Private8Selector19s_ksetSampleBuffer_Ev, __ZN3MTL7Private8Selector19s_ksetSegmentCount_Ev, 
                       __ZN3MTL7Private8Selector19s_ksetStepFunction_Ev, __ZN3MTL7Private8Selector19s_ksetTAddressMode_Ev, 
                       __ZN3MTL7Private8Selector19s_ksetTileFunction_Ev, __ZN3MTL7Private8Selector19s_ksetVertexBuffer_Ev, 
                       __ZN3MTL7Private8Selector19s_ksetVertexFormat_Ev, __ZN3MTL7Private8Selector19s_ksetVertexStride_Ev, 
                       __ZN3MTL7Private8Selector19s_kshaderValidationEv, __ZN3MTL7Private8Selector19s_kuseResidencySet_Ev, 
                       __ZN3MTL7Private8Selector19s_kvertexAttributesEv, __ZN3MTL7Private8Selector19s_kvertexDescriptorEv, 
                       __ZN3MTL7Private8Selector20s_kboundingBoxBufferEv, __ZN3MTL7Private8Selector20s_kboundingBoxStrideEv, 
                       __ZN3MTL7Private8Selector20s_kbufferBytesPerRowEv, __ZN3MTL7Private8Selector20s_kbufferPointerTypeEv, 
                       __ZN3MTL7Private8Selector20s_kcontrolPointCountEv, __ZN3MTL7Private8Selector20s_kelementStructTypeEv, 
                       __ZN3MTL7Private8Selector20s_kfirstMipmapInTailEv, __ZN3MTL7Private8Selector20s_kfragmentArgumentsEv, 
                       __ZN3MTL7Private8Selector20s_kindexBufferOffsetEv, __ZN3MTL7Private8Selector20s_kisBlendingEnabledEv, 
                       __ZN3MTL7Private8Selector20s_kisFramebufferOnlyEv, __ZN3MTL7Private8Selector20s_kmaxCallStackDepthEv, 
                       __ZN3MTL7Private8Selector20s_knewDefaultLibraryEv, __ZN3MTL7Private8Selector20s_koptimizationLevelEv, 
                       __ZN3MTL7Private8Selector20s_krasterSampleCountEv, __ZN3MTL7Private8Selector20s_kremoveAllocation_Ev, 
                       __ZN3MTL7Private8Selector20s_krenderTargetWidthEv, __ZN3MTL7Private8Selector20s_kresolveDepthPlaneEv, 
                       __ZN3MTL7Private8Selector20s_krgbBlendOperationEv, __ZN3MTL7Private8Selector20s_ksetArgumentIndex_Ev, 
                       __ZN3MTL7Private8Selector20s_ksetCaptureObject_Ev, __ZN3MTL7Private8Selector20s_ksetDepthClipMode_Ev, 
                       __ZN3MTL7Private8Selector20s_ksetEnableLogging_Ev, __ZN3MTL7Private8Selector20s_ksetFunctionCount_Ev, 
                       __ZN3MTL7Private8Selector20s_ksetInstanceCount_Ev, __ZN3MTL7Private8Selector20s_ksetLayer_atIndex_Ev, 
                       __ZN3MTL7Private8Selector20s_ksetMaxAnisotropy_Ev, __ZN3MTL7Private8Selector20s_ksetMotionEndTime_Ev, 
                       __ZN3MTL7Private8Selector20s_ksetRadiusBuffers_Ev, __ZN3MTL7Private8Selector20s_ksetSignaledValue_Ev, 
                       __ZN3MTL7Private8Selector20s_ksetStageInRegion_Ev, __ZN3MTL7Private8Selector20s_ksetTriangleCount_Ev, 
                       __ZN3MTL7Private8Selector20s_ksetVertexBuffers_Ev, __ZN3MTL7Private8Selector20s_kstencilAttachmentEv, 
                       __ZN3MTL7Private8Selector20s_ksupportRayTracingEv, __ZN3MTL7Private8Selector20s_ksupports32BitMSAAEv, 
                       __ZN3MTL7Private8Selector21s_kargumentDescriptorEv, __ZN3MTL7Private8Selector21s_kblitCommandEncoderEv, 
                       __ZN3MTL7Private8Selector21s_kblitPassDescriptorEv, __ZN3MTL7Private8Selector21s_kboundingBoxBuffersEv, 
                       __ZN3MTL7Private8Selector21s_kcontrolPointBufferEv, __ZN3MTL7Private8Selector21s_kcontrolPointFormatEv, 
                       __ZN3MTL7Private8Selector21s_kcontrolPointStrideEv, __ZN3MTL7Private8Selector21s_kdepthResolveFilterEv, 
                       __ZN3MTL7Private8Selector21s_kelementPointerTypeEv, __ZN3MTL7Private8Selector21s_kfunctionDescriptorEv, 
                       __ZN3MTL7Private8Selector21s_khazardTrackingModeEv, __ZN3MTL7Private8Selector21s_kpreloadedLibrariesEv, 
                       __ZN3MTL7Private8Selector21s_kpreprocessorMacrosEv, __ZN3MTL7Private8Selector21s_kpreserveInvarianceEv, 
                       __ZN3MTL7Private8Selector21s_kradiusBufferOffsetEv, __ZN3MTL7Private8Selector21s_krenderTargetHeightEv, 
                       __ZN3MTL7Private8Selector21s_kretainedReferencesEv, __ZN3MTL7Private8Selector21s_ksetBinaryArchives_Ev, 
                       __ZN3MTL7Private8Selector21s_ksetConstantValues_Ev, __ZN3MTL7Private8Selector21s_ksetFunctionGraphs_Ev, 
                       __ZN3MTL7Private8Selector21s_ksetInheritBuffers_Ev, __ZN3MTL7Private8Selector21s_ksetObjectFunction_Ev, 
                       __ZN3MTL7Private8Selector21s_ksetPurgeableState_Ev, __ZN3MTL7Private8Selector21s_ksetResolveTexture_Ev, 
                       __ZN3MTL7Private8Selector21s_ksetSparsePageSize_Ev, __ZN3MTL7Private8Selector21s_ksetVertexFunction_Ev, 
                       __ZN3MTL7Private8Selector21s_ksignalEvent_value_Ev, __ZN3MTL7Private8Selector21s_kstoreActionOptionsEv, 
                       __ZN3MTL7Private8Selector21s_ksupportsRaytracingEv, __ZN3MTL7Private8Selector21s_kuseResource_usage_Ev, 
                       __ZN3MTL7Private8Selector21s_kvertexBufferOffsetEv, __ZN3MTL7Private8Selector21s_kwaitUntilCompletedEv, 
                       __ZN3MTL7Private8Selector21s_kwaitUntilScheduledEv, __ZN3MTL7Private8Selector22s_kalphaBlendOperationEv, 
                       __ZN3MTL7Private8Selector22s_kargumentIndexStrideEv, __ZN3MTL7Private8Selector22s_kcontainsAllocation_Ev, 
                       __ZN3MTL7Private8Selector22s_kcontrolDependenciesEv, __ZN3MTL7Private8Selector22s_kcontrolPointBuffersEv, 
                       __ZN3MTL7Private8Selector22s_kdefaultCaptureScopeEv, __ZN3MTL7Private8Selector22s_kgeometryDescriptorsEv, 
                       __ZN3MTL7Private8Selector22s_kinstanceCountBufferEv, __ZN3MTL7Private8Selector22s_kisAlphaToOneEnabledEv, 
                       __ZN3MTL7Private8Selector22s_kisDepthWriteEnabledEv, __ZN3MTL7Private8Selector22s_kmaxCommandsInFlightEv, 
                       __ZN3MTL7Private8Selector22s_kmeshLinkedFunctionsEv, __ZN3MTL7Private8Selector22s_kmotionEndBorderModeEv, 
                       __ZN3MTL7Private8Selector22s_kmotionKeyframeCountEv, __ZN3MTL7Private8Selector22s_kmotionTransformTypeEv, 
                       __ZN3MTL7Private8Selector22s_kparentRelativeLevelEv, __ZN3MTL7Private8Selector22s_kparentRelativeSliceEv, 
                       __ZN3MTL7Private8Selector22s_kpayloadMemoryLengthEv, __ZN3MTL7Private8Selector22s_kphysicalGranularityEv, 
                       __ZN3MTL7Private8Selector22s_kprimitiveDataBufferEv, __ZN3MTL7Private8Selector22s_kprimitiveDataStrideEv, 
                       __ZN3MTL7Private8Selector22s_kremoteStorageBufferEv, __ZN3MTL7Private8Selector22s_kremoveResidencySet_Ev, 
                       __ZN3MTL7Private8Selector22s_ksetBackFaceStencil_Ev, __ZN3MTL7Private8Selector22s_ksetBinaryFunctions_Ev, 
                       __ZN3MTL7Private8Selector22s_ksetBlendingEnabled_Ev, __ZN3MTL7Private8Selector22s_ksetCompareFunction_Ev, 
                       __ZN3MTL7Private8Selector22s_ksetCompressionType_Ev, __ZN3MTL7Private8Selector22s_ksetComputeFunction_Ev, 
                       __ZN3MTL7Private8Selector22s_ksetDepthAttachment_Ev, __ZN3MTL7Private8Selector22s_ksetFastMathEnabled_Ev, 
                       __ZN3MTL7Private8Selector22s_ksetInitialCapacity_Ev, __ZN3MTL7Private8Selector22s_ksetInsertLibraries_Ev, 
                       __ZN3MTL7Private8Selector22s_ksetLanguageVersion_Ev, __ZN3MTL7Private8Selector22s_ksetLinkedFunctions_Ev, 
                       __ZN3MTL7Private8Selector22s_ksetMotionStartTime_Ev, __ZN3MTL7Private8Selector22s_ksetResourceOptions_Ev, 
                       __ZN3MTL7Private8Selector22s_ksetSpecializedName_Ev, __ZN3MTL7Private8Selector22s_ksetTexture_atIndex_Ev, 
                       __ZN3MTL7Private8Selector22s_ksetViewports_count_Ev, __ZN3MTL7Private8Selector22s_ksupportsFeatureSet_Ev, 
                       __ZN3MTL7Private8Selector22s_kwaitForEvent_value_Ev, __ZN3MTL7Private8Selector23s_kaddCompletedHandler_Ev, 
                       __ZN3MTL7Private8Selector23s_kaddPresentedHandler_Ev, __ZN3MTL7Private8Selector23s_kaddScheduledHandler_Ev, 
                       __ZN3MTL7Private8Selector23s_kconstantDataAtIndex_Ev, __ZN3MTL7Private8Selector23s_kcurrentAllocatedSizeEv, 
                       __ZN3MTL7Private8Selector23s_kdepthCompareFunctionEv, __ZN3MTL7Private8Selector23s_kinheritPipelineStateEv, 
                       __ZN3MTL7Private8Selector23s_kinitWithSampleCount_Ev, __ZN3MTL7Private8Selector23s_kinsertDebugSignpost_Ev, 
                       __ZN3MTL7Private8Selector23s_kmotionTransformCountEv, __ZN3MTL7Private8Selector23s_knewFunctionWithName_Ev, 
                       __ZN3MTL7Private8Selector23s_knewSharedEventHandleEv, __ZN3MTL7Private8Selector23s_krasterizationRateMapEv, 
                       __ZN3MTL7Private8Selector23s_kremoteStorageTextureEv, __ZN3MTL7Private8Selector23s_kremoveAllAllocationsEv, 
                       __ZN3MTL7Private8Selector23s_krenderCommandEncoderEv, __ZN3MTL7Private8Selector23s_krenderPassDescriptorEv, 
                       __ZN3MTL7Private8Selector23s_kresolveCounterRange_Ev, __ZN3MTL7Private8Selector23s_ksetBoundingBoxCount_Ev, 
                       __ZN3MTL7Private8Selector23s_ksetDepthStoreAction_Ev, __ZN3MTL7Private8Selector23s_ksetFragmentFunction_Ev, 
                       __ZN3MTL7Private8Selector23s_ksetFrontFaceStencil_Ev, __ZN3MTL7Private8Selector23s_ksetFunction_atIndex_Ev, 
                       __ZN3MTL7Private8Selector23s_ksetIndexBufferIndex_Ev, __ZN3MTL7Private8Selector23s_ksetMaxInstanceCount_Ev, 
                       __ZN3MTL7Private8Selector23s_ksetMipmapLevelCount_Ev, __ZN3MTL7Private8Selector23s_ksetPrivateFunctions_Ev, 
                       __ZN3MTL7Private8Selector23s_ksetShaderValidation_Ev, __ZN3MTL7Private8Selector23s_ksetTriangleFillMode_Ev, 
                       __ZN3MTL7Private8Selector23s_ksetVertexDescriptor_Ev, __ZN3MTL7Private8Selector23s_ksharedCaptureManagerEv, 
                       __ZN3MTL7Private8Selector23s_ksourceRGBBlendFactorEv, __ZN3MTL7Private8Selector23s_kstageInputAttributesEv, 
                       __ZN3MTL7Private8Selector23s_kstageInputDescriptorEv, __ZN3MTL7Private8Selector23s_kstencilResolveFilterEv, 
                       __ZN3MTL7Private8Selector23s_ksupportsDestination_Ev, __ZN3MTL7Private8Selector23s_ksynchronizeResource_Ev, 
                       __ZN3MTL7Private8Selector23s_ktextureReferenceTypeEv, __ZN3MTL7Private8Selector23s_kthreadExecutionWidthEv, 
                       __ZN3MTL7Private8Selector24s_kaddAllocations_count_Ev, __ZN3MTL7Private8Selector24s_kaddDebugMarker_range_Ev, 
                       __ZN3MTL7Private8Selector24s_kcomputeCommandEncoderEv, __ZN3MTL7Private8Selector24s_kcomputePassDescriptorEv, 
                       __ZN3MTL7Private8Selector24s_kdepthFailureOperationEv, __ZN3MTL7Private8Selector24s_kmaxCommandBufferCountEv, 
                       __ZN3MTL7Private8Selector24s_kmaxTessellationFactorEv, __ZN3MTL7Private8Selector24s_kmotionStartBorderModeEv, 
                       __ZN3MTL7Private8Selector24s_kmotionTransformBufferEv, __ZN3MTL7Private8Selector24s_kmotionTransformStrideEv, 
                       __ZN3MTL7Private8Selector24s_knormalizedCoordinatesEv, __ZN3MTL7Private8Selector24s_kobjectLinkedFunctionsEv, 
                       __ZN3MTL7Private8Selector24s_kobjectPayloadDataSizeEv, __ZN3MTL7Private8Selector24s_kphysicalSizeForLayer_Ev, 
                       __ZN3MTL7Private8Selector24s_kremoveAllDebugMarkersEv, __ZN3MTL7Private8Selector24s_kserializeToURL_error_Ev, 
                       __ZN3MTL7Private8Selector24s_ksetAlphaToOneEnabled_Ev, __ZN3MTL7Private8Selector24s_ksetBoundingBoxBuffer_Ev, 
                       __ZN3MTL7Private8Selector24s_ksetBoundingBoxStride_Ev, __ZN3MTL7Private8Selector24s_ksetControlPointCount_Ev, 
                       __ZN3MTL7Private8Selector24s_ksetDepthStencilState_Ev, __ZN3MTL7Private8Selector24s_ksetDepthWriteEnabled_Ev, 
                       __ZN3MTL7Private8Selector24s_ksetIndexBufferOffset_Ev, __ZN3MTL7Private8Selector24s_ksetMaxCallStackDepth_Ev, 
                       __ZN3MTL7Private8Selector24s_ksetOptimizationLevel_Ev, __ZN3MTL7Private8Selector24s_ksetOwnerWithIdentity_Ev, 
                       __ZN3MTL7Private8Selector24s_ksetRasterSampleCount_Ev, __ZN3MTL7Private8Selector24s_ksetRenderTargetWidth_Ev, 
                       __ZN3MTL7Private8Selector24s_ksetResolveDepthPlane_Ev, __ZN3MTL7Private8Selector24s_ksetRgbBlendOperation_Ev, 
                       __ZN3MTL7Private8Selector24s_ksetStencilAttachment_Ev, __ZN3MTL7Private8Selector24s_ksetSupportRayTracing_Ev, 
                       __ZN3MTL7Private8Selector24s_ksparseTileSizeInBytesEv, __ZN3MTL7Private8Selector24s_kvertexLinkedFunctionsEv, 
                       __ZN3MTL7Private8Selector24s_kverticalSampleStorageEv, __ZN3MTL7Private8Selector25s_kargumentBuffersSupportEv, 
                       __ZN3MTL7Private8Selector25s_kconstantBlockAlignmentEv, __ZN3MTL7Private8Selector25s_kendOfVertexSampleIndexEv, 
                       __ZN3MTL7Private8Selector25s_kimageblockSampleLengthEv, __ZN3MTL7Private8Selector25s_kinitWithArgumentIndex_Ev, 
                       __ZN3MTL7Private8Selector25s_kinitWithDispatchQueue_Ev, __ZN3MTL7Private8Selector25s_kinputPrimitiveTopologyEv, 
                       __ZN3MTL7Private8Selector25s_kinstanceDescriptorTypeEv, __ZN3MTL7Private8Selector25s_kisRasterizationEnabledEv, 
                       __ZN3MTL7Private8Selector25s_kmaxMeshBufferBindCountEv, __ZN3MTL7Private8Selector25s_knewHeapWithDescriptor_Ev, 
                       __ZN3MTL7Private8Selector25s_knewSharedTextureHandleEv, __ZN3MTL7Private8Selector25s_kobjectPayloadAlignmentEv, 
                       __ZN3MTL7Private8Selector25s_kpatchControlPointCountEv, __ZN3MTL7Private8Selector25s_kscratchBufferAllocatorEv, 
                       __ZN3MTL7Private8Selector25s_ksetBoundingBoxBuffers_Ev, __ZN3MTL7Private8Selector25s_ksetControlPointBuffer_Ev, 
                       __ZN3MTL7Private8Selector25s_ksetControlPointFormat_Ev, __ZN3MTL7Private8Selector25s_ksetControlPointStride_Ev, 
                       __ZN3MTL7Private8Selector25s_ksetDepthResolveFilter_Ev, __ZN3MTL7Private8Selector25s_ksetFrontFacingWinding_Ev, 
                       __ZN3MTL7Private8Selector25s_ksetHazardTrackingMode_Ev, __ZN3MTL7Private8Selector25s_ksetPreloadedLibraries_Ev, 
                       __ZN3MTL7Private8Selector25s_ksetPreprocessorMacros_Ev, __ZN3MTL7Private8Selector25s_ksetPreserveInvariance_Ev, 
                       __ZN3MTL7Private8Selector25s_ksetRadiusBufferOffset_Ev, __ZN3MTL7Private8Selector25s_ksetRenderTargetHeight_Ev, 
                       __ZN3MTL7Private8Selector25s_ksetRetainedReferences_Ev, __ZN3MTL7Private8Selector25s_ksetScissorRects_count_Ev, 
                       __ZN3MTL7Private8Selector25s_ksetStencilStoreAction_Ev, __ZN3MTL7Private8Selector25s_ksetStoreActionOptions_Ev, 
                       __ZN3MTL7Private8Selector25s_ksetTextures_withRange_Ev, __ZN3MTL7Private8Selector25s_ksetVertexBufferOffset_Ev, 
                       __ZN3MTL7Private8Selector25s_ksourceAlphaBlendFactorEv, __ZN3MTL7Private8Selector25s_kstartCaptureWithScope_Ev, 
                       __ZN3MTL7Private8Selector25s_kstencilCompareFunctionEv, __ZN3MTL7Private8Selector25s_ksupportArgumentBuffersEv, 
                       __ZN3MTL7Private8Selector25s_kuseHeaps_count_stages_Ev, __ZN3MTL7Private8Selector25s_kvisibilityResultBufferEv, 
                       __ZN3MTL7Private8Selector260s_kdrawIndexedPatches_patchStart_patchCount_patchIndexBuffer_patchIndexBufferOffset_controlPointIndexBuffer_controlPointIndexBufferOffset_instanceCount_baseInstance_tessellationFactorBuffer_tessellationFactorBufferOffset_tessellationFactorBufferInstanceStride_Ev, 
                       __ZN3MTL7Private8Selector26s_kaddResidencySets_count_Ev, __ZN3MTL7Private8Selector26s_kboundingBoxBufferOffsetEv, 
                       __ZN3MTL7Private8Selector26s_kcompileSymbolVisibilityEv, __ZN3MTL7Private8Selector26s_kdispatchThreadsPerTile_Ev, 
                       __ZN3MTL7Private8Selector26s_kelementIsArgumentBufferEv, __ZN3MTL7Private8Selector26s_kendOfEncoderSampleIndexEv, 
                       __ZN3MTL7Private8Selector26s_kfillBuffer_range_value_Ev, __ZN3MTL7Private8Selector26s_kfragmentLinkedFunctionsEv, 
                       __ZN3MTL7Private8Selector26s_khorizontalSampleStorageEv, __ZN3MTL7Private8Selector26s_kisPatchControlPointDataEv, 
                       __ZN3MTL7Private8Selector26s_kmaxMotionTransformCountEv, __ZN3MTL7Private8Selector26s_kmaxVertexCallStackDepthEv, 
                       __ZN3MTL7Private8Selector26s_kmemoryBarrierWithScope_Ev, __ZN3MTL7Private8Selector26s_kpresentDrawable_atTime_Ev, 
                       __ZN3MTL7Private8Selector26s_kreadWriteTextureSupportEv, __ZN3MTL7Private8Selector26s_krenderTargetArrayLengthEv, 
                       __ZN3MTL7Private8Selector26s_ksampleBufferAttachmentsEv, __ZN3MTL7Private8Selector26s_ksetAlphaBlendOperation_Ev, 
                       __ZN3MTL7Private8Selector26s_ksetControlDependencies_Ev, __ZN3MTL7Private8Selector26s_ksetControlPointBuffers_Ev, 
                       __ZN3MTL7Private8Selector26s_ksetDefaultCaptureScope_Ev, __ZN3MTL7Private8Selector26s_ksetFunctions_withRange_Ev, 
                       __ZN3MTL7Private8Selector26s_ksetGeometryDescriptors_Ev, __ZN3MTL7Private8Selector26s_ksetInstanceCountBuffer_Ev, 
                       __ZN3MTL7Private8Selector26s_ksetMaxCommandsInFlight_Ev, __ZN3MTL7Private8Selector26s_ksetMeshLinkedFunctions_Ev, 
                       __ZN3MTL7Private8Selector26s_ksetMeshTexture_atIndex_Ev, __ZN3MTL7Private8Selector26s_ksetMotionEndBorderMode_Ev, 
                       __ZN3MTL7Private8Selector26s_ksetMotionKeyframeCount_Ev, __ZN3MTL7Private8Selector26s_ksetMotionTransformType_Ev, 
                       __ZN3MTL7Private8Selector26s_ksetPayloadMemoryLength_Ev, __ZN3MTL7Private8Selector26s_ksetPrimitiveDataBuffer_Ev, 
                       __ZN3MTL7Private8Selector26s_ksetPrimitiveDataStride_Ev, __ZN3MTL7Private8Selector26s_ksetRenderPipelineState_Ev, 
                       __ZN3MTL7Private8Selector26s_ksetTileTexture_atIndex_Ev, __ZN3MTL7Private8Selector26s_kstartCaptureWithDevice_Ev, 
                       __ZN3MTL7Private8Selector26s_kstencilFailureOperationEv, __ZN3MTL7Private8Selector26s_ksupportsQueryTextureLODEv, 
                       __ZN3MTL7Private8Selector26s_kthreadgroupMemoryLengthEv, __ZN3MTL7Private8Selector26s_kuseResidencySets_count_Ev, 
                       __ZN3MTL7Private8Selector27s_kcontrolPointBufferOffsetEv, 
                       __ZN3MTL7Private8Selector27s_kdefaultRasterSampleCountEv, 
                       __ZN3MTL7Private8Selector27s_kencodeSignalEvent_value_Ev, 
                       __ZN3MTL7Private8Selector27s_kendOfFragmentSampleIndexEv, 
                       __ZN3MTL7Private8Selector27s_kinstanceDescriptorBufferEv, 
                       __ZN3MTL7Private8Selector27s_kinstanceDescriptorStrideEv, 
                       __ZN3MTL7Private8Selector27s_kisAlphaToCoverageEnabledEv, 
                       __ZN3MTL7Private8Selector27s_kmaxKernelBufferBindCountEv, 
                       __ZN3MTL7Private8Selector27s_kmaxObjectBufferBindCountEv, 
                       __ZN3MTL7Private8Selector27s_kmaxThreadsPerThreadgroupEv, 
                       __ZN3MTL7Private8Selector27s_kmaxVertexBufferBindCountEv, 
                       __ZN3MTL7Private8Selector27s_kmeshThreadExecutionWidthEv, 
                       __ZN3MTL7Private8Selector27s_knewDynamicLibrary_error_Ev, 
                       __ZN3MTL7Private8Selector27s_knewLibraryWithURL_error_Ev, 
                       __ZN3MTL7Private8Selector27s_kprimitiveDataElementSizeEv, 
                       __ZN3MTL7Private8Selector27s_kremoveAllocations_count_Ev, 
                       __ZN3MTL7Private8Selector27s_ksegmentControlPointCountEv, 
                       __ZN3MTL7Private8Selector27s_ksetBufferOffset_atIndex_Ev, 
                       __ZN3MTL7Private8Selector27s_ksetBytes_length_atIndex_Ev, 
                       __ZN3MTL7Private8Selector27s_ksetComputePipelineState_Ev, 
                       __ZN3MTL7Private8Selector27s_ksetDepthCompareFunction_Ev, 
                       __ZN3MTL7Private8Selector27s_ksetInheritPipelineState_Ev, 
                       __ZN3MTL7Private8Selector27s_ksetMotionTransformCount_Ev, 
                       __ZN3MTL7Private8Selector27s_ksetRasterizationEnabled_Ev, 
                       __ZN3MTL7Private8Selector27s_ksetRasterizationRateMap_Ev, 
                       __ZN3MTL7Private8Selector27s_ksetSamplerState_atIndex_Ev, 
                       __ZN3MTL7Private8Selector27s_ksetSourceRGBBlendFactor_Ev, 
                       __ZN3MTL7Private8Selector27s_ksetStageInputDescriptor_Ev, 
                       __ZN3MTL7Private8Selector27s_ksetStencilResolveFilter_Ev, 
                       __ZN3MTL7Private8Selector27s_kstartOfVertexSampleIndexEv, 
                       __ZN3MTL7Private8Selector27s_ksupportsCounterSampling_Ev, 
                       __ZN3MTL7Private8Selector27s_ksupportsDynamicLibrariesEv, 
                       __ZN3MTL7Private8Selector27s_ksupportsFunctionPointersEv, 
                       __ZN3MTL7Private8Selector27s_ktessellationFactorFormatEv, 
                       __ZN3MTL7Private8Selector27s_kupdateFence_afterStages_Ev, 
                       __ZN3MTL7Private8Selector27s_kvertexPreloadedLibrariesEv, 
                       __ZN3MTL7Private8Selector28s_kallowGPUOptimizedContentsEv, 
                       __ZN3MTL7Private8Selector28s_kdepthStencilPassOperationEv, 
                       __ZN3MTL7Private8Selector28s_kdestinationRGBBlendFactorEv, 
                       __ZN3MTL7Private8Selector28s_kencodeWaitForEvent_value_Ev, 
                       __ZN3MTL7Private8Selector28s_kgetSamplePositions_count_Ev, 
                       __ZN3MTL7Private8Selector28s_kinstanceCountBufferOffsetEv, 
                       __ZN3MTL7Private8Selector28s_kmaxFragmentCallStackDepthEv, 
                       __ZN3MTL7Private8Selector28s_knewIOHandleWithURL_error_Ev, 
                       __ZN3MTL7Private8Selector28s_knewLibraryWithData_error_Ev, 
                       __ZN3MTL7Private8Selector28s_knewLibraryWithFile_error_Ev, 
                       __ZN3MTL7Private8Selector28s_knewSharedEventWithHandle_Ev, 
                       __ZN3MTL7Private8Selector28s_knewTextureWithDescriptor_Ev, 
                       __ZN3MTL7Private8Selector28s_kobjectAtIndexedSubscript_Ev, 
                       __ZN3MTL7Private8Selector28s_kprimitiveDataBufferOffsetEv, 
                       __ZN3MTL7Private8Selector28s_ksetArgumentBuffer_offset_Ev, 
                       __ZN3MTL7Private8Selector28s_ksetBuffer_offset_atIndex_Ev, 
                       __ZN3MTL7Private8Selector28s_ksetDepthFailureOperation_Ev, 
                       __ZN3MTL7Private8Selector28s_ksetMaxCommandBufferCount_Ev, 
                       __ZN3MTL7Private8Selector28s_ksetMaxTessellationFactor_Ev, 
                       __ZN3MTL7Private8Selector28s_ksetMotionStartBorderMode_Ev, 
                       __ZN3MTL7Private8Selector28s_ksetMotionTransformBuffer_Ev, 
                       __ZN3MTL7Private8Selector28s_ksetMotionTransformStride_Ev, 
                       __ZN3MTL7Private8Selector28s_ksetNormalizedCoordinates_Ev, 
                       __ZN3MTL7Private8Selector28s_ksetObjectLinkedFunctions_Ev, 
                       __ZN3MTL7Private8Selector28s_ksetObjectTexture_atIndex_Ev, 
                       __ZN3MTL7Private8Selector28s_ksetSamplePositions_count_Ev, 
                       __ZN3MTL7Private8Selector28s_ksetStencilReferenceValue_Ev, 
                       __ZN3MTL7Private8Selector28s_ksetVertexLinkedFunctions_Ev, 
                       __ZN3MTL7Private8Selector28s_ksetVertexTexture_atIndex_Ev, 
                       __ZN3MTL7Private8Selector28s_kstartOfEncoderSampleIndexEv, 
                       __ZN3MTL7Private8Selector28s_ktessellationPartitionModeEv, 
                       __ZN3MTL7Private8Selector28s_kthreadgroupMemoryDataSizeEv, 
                       __ZN3MTL7Private8Selector28s_kuseResource_usage_stages_Ev, 
                       __ZN3MTL7Private8Selector28s_kuseResources_count_usage_Ev, 
                       __ZN3MTL7Private8Selector29s_kcopyFromTexture_toTexture_Ev, 
                       __ZN3MTL7Private8Selector29s_kcopyStatusToBuffer_offset_Ev, 
                       __ZN3MTL7Private8Selector29s_kdepthAttachmentPixelFormatEv, 
                       __ZN3MTL7Private8Selector29s_kfragmentPreloadedLibrariesEv, 
                       __ZN3MTL7Private8Selector29s_kgenerateMipmapsForTexture_Ev, 
                       __ZN3MTL7Private8Selector29s_kinsertDebugCaptureBoundaryEv, 
                       __ZN3MTL7Private8Selector29s_kmathFloatingPointFunctionsEv, 
                       __ZN3MTL7Private8Selector29s_kmaxFragmentBufferBindCountEv, 
                       __ZN3MTL7Private8Selector29s_kmaxThreadgroupMemoryLengthEv, 
                       __ZN3MTL7Private8Selector29s_kmotionTransformCountBufferEv, 
                       __ZN3MTL7Private8Selector29s_knewCaptureScopeWithDevice_Ev, 
                       __ZN3MTL7Private8Selector29s_kobjectThreadExecutionWidthEv, 
                       __ZN3MTL7Private8Selector29s_kremoveResidencySets_count_Ev, 
                       __ZN3MTL7Private8Selector29s_ksetAlphaToCoverageEnabled_Ev, 
                       __ZN3MTL7Private8Selector29s_ksetConstantBlockAlignment_Ev, 
                       __ZN3MTL7Private8Selector29s_ksetEndOfVertexSampleIndex_Ev, 
                       __ZN3MTL7Private8Selector29s_ksetImageblockSampleLength_Ev, 
                       __ZN3MTL7Private8Selector29s_ksetImageblockWidth_height_Ev, 
                       __ZN3MTL7Private8Selector29s_ksetInputPrimitiveTopology_Ev, 
                       __ZN3MTL7Private8Selector29s_ksetInstanceDescriptorType_Ev, 
                       __ZN3MTL7Private8Selector29s_ksetMaxMeshBufferBindCount_Ev, 
                       __ZN3MTL7Private8Selector29s_ksetMeshTextures_withRange_Ev, 
                       __ZN3MTL7Private8Selector29s_ksetScratchBufferAllocator_Ev, 
                       __ZN3MTL7Private8Selector29s_ksetSourceAlphaBlendFactor_Ev, 
                       __ZN3MTL7Private8Selector29s_ksetStencilCompareFunction_Ev, 
                       __ZN3MTL7Private8Selector29s_ksetSupportArgumentBuffers_Ev, 
                       __ZN3MTL7Private8Selector29s_ksetTileTextures_withRange_Ev, 
                       __ZN3MTL7Private8Selector29s_ksetVisibilityResultBuffer_Ev, 
                       __ZN3MTL7Private8Selector29s_kstageInputOutputDescriptorEv, 
                       __ZN3MTL7Private8Selector29s_kstartOfFragmentSampleIndexEv, 
                       __ZN3MTL7Private8Selector29s_kthreadgroupMemoryAlignmentEv, 
                       __ZN3MTL7Private8Selector29s_ktransformationMatrixBufferEv, 
                       __ZN3MTL7Private8Selector29s_ktransformationMatrixLayoutEv, 
                       __ZN3MTL7Private8Selector29s_kwaitForFence_beforeStages_Ev, 
                       __ZN3MTL7Private8Selector30s_kdestinationAlphaBlendFactorEv, 
                       __ZN3MTL7Private8Selector30s_kelementTextureReferenceTypeEv, 
                       __ZN3MTL7Private8Selector30s_kfunctionConstantsDictionaryEv, 
                       __ZN3MTL7Private8Selector30s_kfunctionHandleWithFunction_Ev, 
                       __ZN3MTL7Private8Selector30s_kmaxVertexAmplificationCountEv, 
                       __ZN3MTL7Private8Selector30s_kmotionTransformBufferOffsetEv, 
                       __ZN3MTL7Private8Selector30s_knewSharedTextureWithHandle_Ev, 
                       __ZN3MTL7Private8Selector30s_kparameterBufferSizeAndAlignEv, 
                       __ZN3MTL7Private8Selector30s_kresourceStateCommandEncoderEv, 
                       __ZN3MTL7Private8Selector30s_kresourceStatePassDescriptorEv, 
                       __ZN3MTL7Private8Selector30s_ksetBoundingBoxBufferOffset_Ev, 
                       __ZN3MTL7Private8Selector30s_ksetCompileSymbolVisibility_Ev, 
                       __ZN3MTL7Private8Selector30s_ksetDepthStoreActionOptions_Ev, 
                       __ZN3MTL7Private8Selector30s_ksetEndOfEncoderSampleIndex_Ev, 
                       __ZN3MTL7Private8Selector30s_ksetFragmentLinkedFunctions_Ev, 
                       __ZN3MTL7Private8Selector30s_ksetFragmentTexture_atIndex_Ev, 
                       __ZN3MTL7Private8Selector30s_ksetMaxMotionTransformCount_Ev, 
                       __ZN3MTL7Private8Selector30s_ksetMaxVertexCallStackDepth_Ev, 
                       __ZN3MTL7Private8Selector30s_ksetRenderTargetArrayLength_Ev, 
                       __ZN3MTL7Private8Selector30s_ksetSamplerStates_withRange_Ev, 
                       __ZN3MTL7Private8Selector30s_ksetStencilFailureOperation_Ev, 
                       __ZN3MTL7Private8Selector30s_ksetTessellationFactorScale_Ev, 
                       __ZN3MTL7Private8Selector30s_ksetThreadgroupMemoryLength_Ev, 
                       __ZN3MTL7Private8Selector30s_ksupports32BitFloatFilteringEv, 
                       __ZN3MTL7Private8Selector30s_ksupportsPrimitiveMotionBlurEv, 
                       __ZN3MTL7Private8Selector30s_ksupportsTextureSampleCount_Ev, 
                       __ZN3MTL7Private8Selector31s_kcommandBufferWithDescriptor_Ev, 
                       __ZN3MTL7Private8Selector31s_knewBufferWithLength_options_Ev, 
                       __ZN3MTL7Private8Selector31s_kpresentAfterMinimumDuration_Ev, 
                       __ZN3MTL7Private8Selector31s_krecommendedMaxWorkingSetSizeEv, 
                       __ZN3MTL7Private8Selector31s_ksetColorStoreAction_atIndex_Ev, 
                       __ZN3MTL7Private8Selector31s_ksetControlPointBufferOffset_Ev, 
                       __ZN3MTL7Private8Selector31s_ksetDefaultRasterSampleCount_Ev, 
                       __ZN3MTL7Private8Selector31s_ksetEndOfFragmentSampleIndex_Ev, 
                       __ZN3MTL7Private8Selector31s_ksetInstanceDescriptorBuffer_Ev, 
                       __ZN3MTL7Private8Selector31s_ksetInstanceDescriptorStride_Ev, 
                       __ZN3MTL7Private8Selector31s_ksetMaxKernelBufferBindCount_Ev, 
                       __ZN3MTL7Private8Selector31s_ksetMaxObjectBufferBindCount_Ev, 
                       __ZN3MTL7Private8Selector31s_ksetMaxVertexBufferBindCount_Ev, 
                       __ZN3MTL7Private8Selector31s_ksetMeshBufferOffset_atIndex_Ev, 
                       __ZN3MTL7Private8Selector31s_ksetMeshBytes_length_atIndex_Ev, 
                       __ZN3MTL7Private8Selector31s_ksetMeshSamplerState_atIndex_Ev, 
                       __ZN3MTL7Private8Selector31s_ksetObjectTextures_withRange_Ev, 
                       __ZN3MTL7Private8Selector31s_ksetPrimitiveDataElementSize_Ev, 
                       __ZN3MTL7Private8Selector31s_ksetSegmentControlPointCount_Ev, 
                       __ZN3MTL7Private8Selector31s_ksetStartOfVertexSampleIndex_Ev, 
                       __ZN3MTL7Private8Selector31s_ksetTessellationFactorFormat_Ev, 
                       __ZN3MTL7Private8Selector31s_ksetTileBufferOffset_atIndex_Ev, 
                       __ZN3MTL7Private8Selector31s_ksetTileBytes_length_atIndex_Ev, 
                       __ZN3MTL7Private8Selector31s_ksetTileSamplerState_atIndex_Ev, 
                       __ZN3MTL7Private8Selector31s_ksetVertexPreloadedLibraries_Ev, 
                       __ZN3MTL7Private8Selector31s_ksetVertexTextures_withRange_Ev, 
                       __ZN3MTL7Private8Selector31s_kstencilAttachmentPixelFormatEv, 
                       __ZN3MTL7Private8Selector31s_ksupportAddingBinaryFunctionsEv, 
                       __ZN3MTL7Private8Selector31s_ksupportsBCTextureCompressionEv, 
                       __ZN3MTL7Private8Selector31s_ksupportsRaytracingFromRenderEv, 
                       __ZN3MTL7Private8Selector32s_kareBarycentricCoordsSupportedEv, 
                       __ZN3MTL7Private8Selector32s_kareRasterOrderGroupsSupportedEv, 
                       __ZN3MTL7Private8Selector32s_kindirectRenderCommandAtIndex_Ev, 
                       __ZN3MTL7Private8Selector32s_kmaxArgumentBufferSamplerCountEv, 
                       __ZN3MTL7Private8Selector32s_kmaxTotalThreadsPerThreadgroupEv, 
                       __ZN3MTL7Private8Selector32s_knewIOFileHandleWithURL_error_Ev, 
                       __ZN3MTL7Private8Selector32s_knewRemoteBufferViewForDevice_Ev, 
                       __ZN3MTL7Private8Selector32s_knotifyListener_atValue_block_Ev, 
                       __ZN3MTL7Private8Selector32s_koptimizeContentsForCPUAccess_Ev, 
                       __ZN3MTL7Private8Selector32s_koptimizeContentsForGPUAccess_Ev, 
                       __ZN3MTL7Private8Selector32s_ksetAllowGPUOptimizedContents_Ev, 
                       __ZN3MTL7Private8Selector32s_ksetBuffers_offsets_withRange_Ev, 
                       __ZN3MTL7Private8Selector32s_ksetDepthStencilPassOperation_Ev, 
                       __ZN3MTL7Private8Selector32s_ksetDestinationRGBBlendFactor_Ev, 
                       __ZN3MTL7Private8Selector32s_ksetInstanceCountBufferOffset_Ev, 
                       __ZN3MTL7Private8Selector32s_ksetMaxFragmentCallStackDepth_Ev, 
                       __ZN3MTL7Private8Selector32s_ksetMeshBuffer_offset_atIndex_Ev, 
                       __ZN3MTL7Private8Selector32s_ksetObject_atIndexedSubscript_Ev, 
                       __ZN3MTL7Private8Selector32s_ksetPrimitiveDataBufferOffset_Ev, 
                       __ZN3MTL7Private8Selector32s_ksetStartOfEncoderSampleIndex_Ev, 
                       __ZN3MTL7Private8Selector32s_ksetStencilStoreActionOptions_Ev, 
                       __ZN3MTL7Private8Selector32s_ksetTessellationPartitionMode_Ev, 
                       __ZN3MTL7Private8Selector32s_ksetTileBuffer_offset_atIndex_Ev, 
                       __ZN3MTL7Private8Selector32s_kstartCaptureWithCommandQueue_Ev, 
                       __ZN3MTL7Private8Selector32s_kstaticThreadgroupMemoryLengthEv, 
                       __ZN3MTL7Private8Selector32s_ksupportDynamicAttributeStrideEv, 
                       __ZN3MTL7Private8Selector32s_ksupportIndirectCommandBuffersEv, 
                       __ZN3MTL7Private8Selector32s_ktileAdditionalBinaryFunctionsEv, 
                       __ZN3MTL7Private8Selector33s_kindirectComputeCommandAtIndex_Ev, 
                       __ZN3MTL7Private8Selector33s_kinstanceDescriptorBufferOffsetEv, 
                       __ZN3MTL7Private8Selector33s_kmaxAvailableSizeWithAlignment_Ev, 
                       __ZN3MTL7Private8Selector33s_knewCommandQueueWithDescriptor_Ev, 
                       __ZN3MTL7Private8Selector33s_knewRemoteTextureViewForDevice_Ev, 
                       __ZN3MTL7Private8Selector33s_knewSamplerStateWithDescriptor_Ev, 
                       __ZN3MTL7Private8Selector33s_knewTextureViewWithPixelFormat_Ev, 
                       __ZN3MTL7Private8Selector33s_ksampleTimestamps_gpuTimestamp_Ev, 
                       __ZN3MTL7Private8Selector33s_ksetConstantValue_type_atIndex_Ev, 
                       __ZN3MTL7Private8Selector33s_ksetDepthAttachmentPixelFormat_Ev, 
                       __ZN3MTL7Private8Selector33s_ksetDepthBias_slopeScale_clamp_Ev, 
                       __ZN3MTL7Private8Selector33s_ksetFragmentPreloadedLibraries_Ev, 
                       __ZN3MTL7Private8Selector33s_ksetFragmentTextures_withRange_Ev, 
                       __ZN3MTL7Private8Selector33s_ksetMathFloatingPointFunctions_Ev, 
                       __ZN3MTL7Private8Selector33s_ksetMaxFragmentBufferBindCount_Ev, 
                       __ZN3MTL7Private8Selector33s_ksetMotionTransformCountBuffer_Ev, 
                       __ZN3MTL7Private8Selector33s_ksetObjectBufferOffset_atIndex_Ev, 
                       __ZN3MTL7Private8Selector33s_ksetObjectBytes_length_atIndex_Ev, 
                       __ZN3MTL7Private8Selector33s_ksetObjectSamplerState_atIndex_Ev, 
                       __ZN3MTL7Private8Selector33s_ksetStartOfFragmentSampleIndex_Ev, 
                       __ZN3MTL7Private8Selector33s_ksetTransformationMatrixBuffer_Ev, 
                       __ZN3MTL7Private8Selector33s_ksetTransformationMatrixLayout_Ev, 
                       __ZN3MTL7Private8Selector33s_ksetVertexBufferOffset_atIndex_Ev, 
                       __ZN3MTL7Private8Selector33s_ksetVertexBytes_length_atIndex_Ev, 
                       __ZN3MTL7Private8Selector33s_ksetVertexSamplerState_atIndex_Ev, 
                       __ZN3MTL7Private8Selector33s_ksupportsPullModelInterpolationEv, 
                       __ZN3MTL7Private8Selector33s_ksupportsRenderDynamicLibrariesEv, 
                       __ZN3MTL7Private8Selector33s_ktessellationFactorStepFunctionEv, 
                       __ZN3MTL7Private8Selector33s_ktessellationOutputWindingOrderEv, 
                       __ZN3MTL7Private8Selector33s_kthreadgroupSizeMatchesTileSizeEv, 
                       __ZN3MTL7Private8Selector33s_kvisibleFunctionTableDescriptorEv, 
                       __ZN3MTL7Private8Selector34s_kaddLibraryWithDescriptor_error_Ev, 
                       __ZN3MTL7Private8Selector34s_kinstancedAccelerationStructuresEv, 
                       __ZN3MTL7Private8Selector34s_kintersectionFunctionTableOffsetEv, 
                       __ZN3MTL7Private8Selector34s_kmaxTotalThreadgroupsPerMeshGridEv, 
                       __ZN3MTL7Private8Selector34s_knewDynamicLibraryWithURL_error_Ev, 
                       __ZN3MTL7Private8Selector34s_knewSharedTextureWithDescriptor_Ev, 
                       __ZN3MTL7Private8Selector34s_ksetConstantValue_type_withName_Ev, 
                       __ZN3MTL7Private8Selector34s_ksetDestinationAlphaBlendFactor_Ev, 
                       __ZN3MTL7Private8Selector34s_ksetKernelBuffer_offset_atIndex_Ev, 
                       __ZN3MTL7Private8Selector34s_ksetMaxVertexAmplificationCount_Ev, 
                       __ZN3MTL7Private8Selector34s_ksetMeshSamplerStates_withRange_Ev, 
                       __ZN3MTL7Private8Selector34s_ksetMotionTransformBufferOffset_Ev, 
                       __ZN3MTL7Private8Selector34s_ksetObjectBuffer_offset_atIndex_Ev, 
                       __ZN3MTL7Private8Selector34s_ksetRenderPipelineState_atIndex_Ev, 
                       __ZN3MTL7Private8Selector34s_ksetTileSamplerStates_withRange_Ev, 
                       __ZN3MTL7Private8Selector34s_ksetVertexBuffer_offset_atIndex_Ev, 
                       __ZN3MTL7Private8Selector34s_ksetVisibilityResultMode_offset_Ev, 
                       __ZN3MTL7Private8Selector34s_ksynchronizeTexture_slice_level_Ev, 
                       __ZN3MTL7Private8Selector34s_kvertexAdditionalBinaryFunctionsEv, 
                       __ZN3MTL7Private8Selector35s_kallowReferencingUndefinedSymbolsEv, 
                       __ZN3MTL7Private8Selector35s_kgetDefaultSamplePositions_count_Ev, 
                       __ZN3MTL7Private8Selector35s_kisTessellationFactorScaleEnabledEv, 
                       __ZN3MTL7Private8Selector35s_kmotionTransformCountBufferOffsetEv, 
                       __ZN3MTL7Private8Selector35s_knewArgumentEncoderWithArguments_Ev, 
                       __ZN3MTL7Private8Selector35s_knewCaptureScopeWithCommandQueue_Ev, 
                       __ZN3MTL7Private8Selector35s_knewFunctionWithDescriptor_error_Ev, 
                       __ZN3MTL7Private8Selector35s_knewLogStateWithDescriptor_error_Ev, 
                       __ZN3MTL7Private8Selector35s_knewScratchBufferWithMinimumSize_Ev, 
                       __ZN3MTL7Private8Selector35s_knewTextureWithDescriptor_offset_Ev, 
                       __ZN3MTL7Private8Selector35s_kresetCommandsInBuffer_withRange_Ev, 
                       __ZN3MTL7Private8Selector35s_ksetComputePipelineState_atIndex_Ev, 
                       __ZN3MTL7Private8Selector35s_ksetFragmentBufferOffset_atIndex_Ev, 
                       __ZN3MTL7Private8Selector35s_ksetFragmentBytes_length_atIndex_Ev, 
                       __ZN3MTL7Private8Selector35s_ksetFragmentSamplerState_atIndex_Ev, 
                       __ZN3MTL7Private8Selector35s_ksetStencilAttachmentPixelFormat_Ev, 
                       __ZN3MTL7Private8Selector35s_ksetSupportAddingBinaryFunctions_Ev, 
                       __ZN3MTL7Private8Selector35s_ksetVisibleFunctionTable_atIndex_Ev, 
                       __ZN3MTL7Private8Selector35s_ktransformationMatrixBufferOffsetEv, 
                       __ZN3MTL7Private8Selector35s_kuseResources_count_usage_stages_Ev, 
                       __ZN3MTL7Private8Selector36s_kblitCommandEncoderWithDescriptor_Ev, 
                       __ZN3MTL7Private8Selector36s_kcopyParameterDataToBuffer_offset_Ev, 
                       __ZN3MTL7Private8Selector36s_kfragmentAdditionalBinaryFunctionsEv, 
                       __ZN3MTL7Private8Selector36s_kfunctionHandleWithFunction_stage_Ev, 
                       __ZN3MTL7Private8Selector36s_kmaxTotalThreadsPerMeshThreadgroupEv, 
                       __ZN3MTL7Private8Selector36s_kmemoryBarrierWithResources_count_Ev, 
                       __ZN3MTL7Private8Selector36s_knewAccelerationStructureWithSize_Ev, 
                       __ZN3MTL7Private8Selector36s_ksetAccelerationStructure_atIndex_Ev, 
                       __ZN3MTL7Private8Selector36s_ksetConstantValues_type_withRange_Ev, 
                       __ZN3MTL7Private8Selector36s_ksetFragmentBuffer_offset_atIndex_Ev, 
                       __ZN3MTL7Private8Selector36s_ksetIndirectCommandBuffer_atIndex_Ev, 
                       __ZN3MTL7Private8Selector36s_ksetMaxTotalThreadsPerThreadgroup_Ev, 
                       __ZN3MTL7Private8Selector36s_ksetMeshBuffers_offsets_withRange_Ev, 
                       __ZN3MTL7Private8Selector36s_ksetObjectSamplerStates_withRange_Ev, 
                       __ZN3MTL7Private8Selector36s_ksetSupportDynamicAttributeStride_Ev, 
                       __ZN3MTL7Private8Selector36s_ksetSupportIndirectCommandBuffers_Ev, 
                       __ZN3MTL7Private8Selector36s_ksetTileAdditionalBinaryFunctions_Ev, 
                       __ZN3MTL7Private8Selector36s_ksetTileBuffers_offsets_withRange_Ev, 
                       __ZN3MTL7Private8Selector36s_ksetVertexSamplerStates_withRange_Ev, 
                       __ZN3MTL7Private8Selector36s_kstartCaptureWithDescriptor_error_Ev, 
                       __ZN3MTL7Private8Selector36s_ksupportsVertexAmplificationCount_Ev, 
                       __ZN3MTL7Private8Selector36s_ktessellationControlPointIndexTypeEv, 
                       __ZN3MTL7Private8Selector36s_kwaitUntilSignaledValue_timeoutMS_Ev, 
                       __ZN3MTL7Private8Selector37s_kexecuteCommandsInBuffer_withRange_Ev, 
                       __ZN3MTL7Private8Selector37s_kinstanceTransformationMatrixLayoutEv, 
                       __ZN3MTL7Private8Selector37s_knewArgumentEncoderWithBufferIndex_Ev, 
                       __ZN3MTL7Private8Selector37s_knewBufferWithBytes_length_options_Ev, 
                       __ZN3MTL7Private8Selector37s_knewDefaultLibraryWithBundle_error_Ev, 
                       __ZN3MTL7Private8Selector37s_ksetBlendColorRed_green_blue_alpha_Ev, 
                       __ZN3MTL7Private8Selector37s_ksetInstanceDescriptorBufferOffset_Ev, 
                       __ZN3MTL7Private8Selector37s_ksetRenderPipelineStates_withRange_Ev, 
                       __ZN3MTL7Private8Selector37s_ksetTessellationFactorScaleEnabled_Ev, 
                       __ZN3MTL7Private8Selector37s_ksetTessellationFactorStepFunction_Ev, 
                       __ZN3MTL7Private8Selector37s_ksetTessellationOutputWindingOrder_Ev, 
                       __ZN3MTL7Private8Selector37s_ksetThreadgroupSizeMatchesTileSize_Ev, 
                       __ZN3MTL7Private8Selector37s_ksupportAddingVertexBinaryFunctionsEv, 
                       __ZN3MTL7Private8Selector37s_ksupportsFunctionPointersFromRenderEv, 
                       __ZN3MTL7Private8Selector38s_kaccelerationStructureCommandEncoderEv, 
                       __ZN3MTL7Private8Selector38s_kaccelerationStructurePassDescriptorEv, 
                       __ZN3MTL7Private8Selector38s_kintersectionFunctionTableDescriptorEv, 
                       __ZN3MTL7Private8Selector38s_kmaxKernelThreadgroupMemoryBindCountEv, 
                       __ZN3MTL7Private8Selector38s_kmaxObjectThreadgroupMemoryBindCountEv, 
                       __ZN3MTL7Private8Selector38s_kmaxTotalThreadsPerObjectThreadgroupEv, 
                       __ZN3MTL7Private8Selector38s_knewArgumentEncoderForBufferAtIndex_Ev, 
                       __ZN3MTL7Private8Selector38s_knewBufferWithLength_options_offset_Ev, 
                       __ZN3MTL7Private8Selector38s_knewDepthStencilStateWithDescriptor_Ev, 
                       __ZN3MTL7Private8Selector38s_knewLibraryWithSource_options_error_Ev, 
                       __ZN3MTL7Private8Selector38s_krenderCommandEncoderWithDescriptor_Ev, 
                       __ZN3MTL7Private8Selector38s_ksetColorStoreActionOptions_atIndex_Ev, 
                       __ZN3MTL7Private8Selector38s_ksetComputePipelineStates_withRange_Ev, 
                       __ZN3MTL7Private8Selector38s_ksetFragmentSamplerStates_withRange_Ev, 
                       __ZN3MTL7Private8Selector38s_ksetInstancedAccelerationStructures_Ev, 
                       __ZN3MTL7Private8Selector38s_ksetIntersectionFunctionTableOffset_Ev, 
                       __ZN3MTL7Private8Selector38s_ksetMaxTotalThreadgroupsPerMeshGrid_Ev, 
                       __ZN3MTL7Private8Selector38s_ksetObjectBuffers_offsets_withRange_Ev, 
                       __ZN3MTL7Private8Selector38s_ksetThreadgroupMemoryLength_atIndex_Ev, 
                       __ZN3MTL7Private8Selector38s_ksetVertexAdditionalBinaryFunctions_Ev, 
                       __ZN3MTL7Private8Selector38s_ksetVertexBuffers_offsets_withRange_Ev, 
                       __ZN3MTL7Private8Selector38s_ksetVisibleFunctionTables_withRange_Ev, 
                       __ZN3MTL7Private8Selector38s_kshouldMaximizeConcurrentCompilationEv, 
                       __ZN3MTL7Private8Selector39s_kcomputeCommandEncoderWithDescriptor_Ev, 
                       __ZN3MTL7Private8Selector39s_kimageblockMemoryLengthForDimensions_Ev, 
                       __ZN3MTL7Private8Selector39s_knewArgumentEncoderWithBufferBinding_Ev, 
                       __ZN3MTL7Private8Selector39s_knewResidencySetWithDescriptor_error_Ev, 
                       __ZN3MTL7Private8Selector39s_ksetAllowReferencingUndefinedSymbols_Ev, 
                       __ZN3MTL7Private8Selector39s_ksetIndirectCommandBuffers_withRange_Ev, 
                       __ZN3MTL7Private8Selector39s_ksetMotionTransformCountBufferOffset_Ev, 
                       __ZN3MTL7Private8Selector39s_ksetTransformationMatrixBufferOffset_Ev, 
                       __ZN3MTL7Private8Selector39s_ksupportAddingFragmentBinaryFunctionsEv, 
                       __ZN3MTL7Private8Selector39s_ksupportsShaderBarycentricCoordinatesEv, 
                       __ZN3MTL7Private8Selector40s_kcommandBufferWithUnretainedReferencesEv, 
                       __ZN3MTL7Private8Selector40s_kisDepth24Stencil8PixelFormatSupportedEv, 
                       __ZN3MTL7Private8Selector40s_kmaximumConcurrentCompilationTaskCountEv, 
                       __ZN3MTL7Private8Selector40s_knewBinaryArchiveWithDescriptor_error_Ev, 
                       __ZN3MTL7Private8Selector40s_kpresentDrawable_afterMinimumDuration_Ev, 
                       __ZN3MTL7Private8Selector40s_ksetFragmentAdditionalBinaryFunctions_Ev, 
                       __ZN3MTL7Private8Selector40s_ksetFragmentBuffers_offsets_withRange_Ev, 
                       __ZN3MTL7Private8Selector40s_ksetIntersectionFunctionTable_atIndex_Ev, 
                       __ZN3MTL7Private8Selector40s_ksetMaxTotalThreadsPerMeshThreadgroup_Ev, 
                       __ZN3MTL7Private8Selector40s_ksetTessellationControlPointIndexType_Ev, 
                       __ZN3MTL7Private8Selector41s_kcomputeCommandEncoderWithDispatchType_Ev, 
                       __ZN3MTL7Private8Selector41s_kdispatchThreads_threadsPerThreadgroup_Ev, 
                       __ZN3MTL7Private8Selector41s_kheapTextureSizeAndAlignWithDescriptor_Ev, 
                       __ZN3MTL7Private8Selector41s_knewIOCommandQueueWithDescriptor_error_Ev, 
                       __ZN3MTL7Private8Selector41s_knewRasterizationRateMapWithDescriptor_Ev, 
                       __ZN3MTL7Private8Selector41s_knewVisibleFunctionTableWithDescriptor_Ev, 
                       __ZN3MTL7Private8Selector41s_ksetInstanceTransformationMatrixLayout_Ev, 
                       __ZN3MTL7Private8Selector41s_ksetSupportAddingVertexBinaryFunctions_Ev, 
                       __ZN3MTL7Private8Selector41s_ksetVisibleFunctionTable_atBufferIndex_Ev, 
                       __ZN3MTL7Private8Selector42s_kareProgrammableSamplePositionsSupportedEv, 
                       __ZN3MTL7Private8Selector42s_kdrawPrimitives_vertexStart_vertexCount_Ev, 
                       __ZN3MTL7Private8Selector42s_knewAccelerationStructureWithDescriptor_Ev, 
                       __ZN3MTL7Private8Selector42s_knewLibraryWithStitchedDescriptor_error_Ev, 
                       __ZN3MTL7Private8Selector42s_ksetAccelerationStructure_atBufferIndex_Ev, 
                       __ZN3MTL7Private8Selector42s_ksetMaxKernelThreadgroupMemoryBindCount_Ev, 
                       __ZN3MTL7Private8Selector42s_ksetMaxObjectThreadgroupMemoryBindCount_Ev, 
                       __ZN3MTL7Private8Selector42s_ksetMaxTotalThreadsPerObjectThreadgroup_Ev, 
                       __ZN3MTL7Private8Selector42s_ksetShouldMaximizeConcurrentCompilation_Ev, 
                       __ZN3MTL7Private8Selector42s_ksparseTileSizeInBytesForSparsePageSize_Ev, 
                       __ZN3MTL7Private8Selector43s_kaddFunctionWithDescriptor_library_error_Ev, 
                       __ZN3MTL7Private8Selector43s_kinitWithSampleCount_horizontal_vertical_Ev, 
                       __ZN3MTL7Private8Selector43s_kmapPhysicalToScreenCoordinates_forLayer_Ev, 
                       __ZN3MTL7Private8Selector43s_kmapScreenToPhysicalCoordinates_forLayer_Ev, 
                       __ZN3MTL7Private8Selector43s_knewAccelerationStructureWithSize_offset_Ev, 
                       __ZN3MTL7Private8Selector43s_koptimizeIndirectCommandBuffer_withRange_Ev, 
                       __ZN3MTL7Private8Selector43s_ksetBufferOffset_attributeStride_atIndex_Ev, 
                       __ZN3MTL7Private8Selector43s_ksetBytes_length_attributeStride_atIndex_Ev, 
                       __ZN3MTL7Private8Selector43s_ksetIntersectionFunctionTables_withRange_Ev, 
                       __ZN3MTL7Private8Selector43s_ksetSupportAddingFragmentBinaryFunctions_Ev, 
                       __ZN3MTL7Private8Selector44s_kaccelerationStructureSizesWithDescriptor_Ev, 
                       __ZN3MTL7Private8Selector44s_kheapBufferSizeAndAlignWithLength_options_Ev, 
                       __ZN3MTL7Private8Selector44s_knewCommandQueueWithMaxCommandBufferCount_Ev, 
                       __ZN3MTL7Private8Selector44s_knewFunctionWithName_constantValues_error_Ev, 
                       __ZN3MTL7Private8Selector44s_knewTextureWithDescriptor_iosurface_plane_Ev, 
                       __ZN3MTL7Private8Selector44s_koptimizeContentsForCPUAccess_slice_level_Ev, 
                       __ZN3MTL7Private8Selector44s_koptimizeContentsForGPUAccess_slice_level_Ev, 
                       __ZN3MTL7Private8Selector44s_ksetBuffer_offset_attributeStride_atIndex_Ev, 
                       __ZN3MTL7Private8Selector44s_ksetObjectThreadgroupMemoryLength_atIndex_Ev, 
                       __ZN3MTL7Private8Selector44s_ksetVertexAmplificationCount_viewMappings_Ev, 
                       __ZN3MTL7Private8Selector44s_ksetVisibleFunctionTables_withBufferRange_Ev, 
                       __ZN3MTL7Private8Selector45s_knewComputePipelineStateWithFunction_error_Ev, 
                       __ZN3MTL7Private8Selector45s_kresourceStateCommandEncoderWithDescriptor_Ev, 
                       __ZN3MTL7Private8Selector45s_ksetThreadgroupMemoryLength_offset_atIndex_Ev, 
                       __ZN3MTL7Private8Selector45s_ksetTileVisibleFunctionTable_atBufferIndex_Ev, 
                       __ZN3MTL7Private8Selector46s_kdispatchThreadgroups_threadsPerThreadgroup_Ev, 
                       __ZN3MTL7Private8Selector46s_kinitWithName_arguments_controlDependencies_Ev, 
                       __ZN3MTL7Private8Selector46s_knewCounterSampleBufferWithDescriptor_error_Ev, 
                       __ZN3MTL7Private8Selector46s_knewIOHandleWithURL_compressionMethod_error_Ev, 
                       __ZN3MTL7Private8Selector46s_knewIntersectionFunctionTableWithDescriptor_Ev, 
                       __ZN3MTL7Private8Selector46s_knewRenderPipelineStateWithDescriptor_error_Ev, 
                       __ZN3MTL7Private8Selector46s_kparallelRenderCommandEncoderWithDescriptor_Ev, 
                       __ZN3MTL7Private8Selector46s_ksetArgumentBuffer_startOffset_arrayElement_Ev, 
                       __ZN3MTL7Private8Selector46s_ksetIntersectionFunctionTable_atBufferIndex_Ev, 
                       __ZN3MTL7Private8Selector46s_ksetTileAccelerationStructure_atBufferIndex_Ev, 
                       __ZN3MTL7Private8Selector46s_ksupportsRasterizationRateMapWithLayerCount_Ev, 
                       __ZN3MTL7Private8Selector47s_kallowDuplicateIntersectionFunctionInvocationEv, 
                       __ZN3MTL7Private8Selector47s_kgetBytes_bytesPerRow_fromRegion_mipmapLevel_Ev, 
                       __ZN3MTL7Private8Selector47s_kminimumLinearTextureAlignmentForPixelFormat_Ev, 
                       __ZN3MTL7Private8Selector47s_kminimumTextureBufferAlignmentForPixelFormat_Ev, 
                       __ZN3MTL7Private8Selector47s_knewFunctionWithDescriptor_completionHandler_Ev, 
                       __ZN3MTL7Private8Selector47s_knewIntersectionFunctionWithDescriptor_error_Ev, 
                       __ZN3MTL7Private8Selector47s_knewTextureWithDescriptor_offset_bytesPerRow_Ev, 
                       __ZN3MTL7Private8Selector47s_knewVisibleFunctionTableWithDescriptor_stage_Ev, 
                       __ZN3MTL7Private8Selector47s_ksetVertexVisibleFunctionTable_atBufferIndex_Ev, 
                       __ZN3MTL7Private8Selector48s_knewArgumentEncoderWithBufferIndex_reflection_Ev, 
                       __ZN3MTL7Private8Selector48s_krasterizationRateMapDescriptorWithScreenSize_Ev, 
                       __ZN3MTL7Private8Selector48s_ksetTileVisibleFunctionTables_withBufferRange_Ev, 
                       __ZN3MTL7Private8Selector48s_ksetVertexAccelerationStructure_atBufferIndex_Ev, 
                       __ZN3MTL7Private8Selector49s_kheapAccelerationStructureSizeAndAlignWithSize_Ev, 
                       __ZN3MTL7Private8Selector49s_knewAccelerationStructureWithDescriptor_offset_Ev, 
                       __ZN3MTL7Private8Selector49s_ksetBuffers_offsets_attributeStrides_withRange_Ev, 
                       __ZN3MTL7Private8Selector49s_ksetFragmentVisibleFunctionTable_atBufferIndex_Ev, 
                       __ZN3MTL7Private8Selector49s_ksetIntersectionFunctionTables_withBufferRange_Ev, 
                       __ZN3MTL7Private8Selector49s_ksetVertexBufferOffset_attributeStride_atIndex_Ev, 
                       __ZN3MTL7Private8Selector49s_ksetVertexBytes_length_attributeStride_atIndex_Ev, 
                       __ZN3MTL7Private8Selector50s_kaddRenderPipelineFunctionsWithDescriptor_error_Ev, 
                       __ZN3MTL7Private8Selector50s_kloadBytes_size_sourceHandle_sourceHandleOffset_Ev, 
                       __ZN3MTL7Private8Selector50s_knewIOFileHandleWithURL_compressionMethod_error_Ev, 
                       __ZN3MTL7Private8Selector50s_knewLibraryWithSource_options_completionHandler_Ev, 
                       __ZN3MTL7Private8Selector50s_ksetFragmentAccelerationStructure_atBufferIndex_Ev, 
                       __ZN3MTL7Private8Selector50s_ksetKernelBuffer_offset_attributeStride_atIndex_Ev, 
                       __ZN3MTL7Private8Selector50s_ksetTileIntersectionFunctionTable_atBufferIndex_Ev, 
                       __ZN3MTL7Private8Selector50s_ksetVertexBuffer_offset_attributeStride_atIndex_Ev, 
                       __ZN3MTL7Private8Selector50s_ksetVertexVisibleFunctionTables_withBufferRange_Ev, 
                       __ZN3MTL7Private8Selector50s_kthreadGroupSizeIsMultipleOfThreadExecutionWidthEv, 
                       __ZN3MTL7Private8Selector51s_kaddComputePipelineFunctionsWithDescriptor_error_Ev, 
                       __ZN3MTL7Private8Selector51s_kconcurrentDispatchThreads_threadsPerThreadgroup_Ev, 
                       __ZN3MTL7Private8Selector51s_kmemoryBarrierWithScope_afterStages_beforeStages_Ev, 
                       __ZN3MTL7Private8Selector51s_kreplaceRegion_mipmapLevel_withBytes_bytesPerRow_Ev, 
                       __ZN3MTL7Private8Selector51s_ksetAllowDuplicateIntersectionFunctionInvocation_Ev, 
                       __ZN3MTL7Private8Selector51s_ksetSamplerState_lodMinClamp_lodMaxClamp_atIndex_Ev, 
                       __ZN3MTL7Private8Selector51s_kupdateTextureMapping_mode_region_mipLevel_slice_Ev, 
                       __ZN3MTL7Private8Selector52s_kinitWithFunctionName_nodes_outputNode_attributes_Ev, 
                       __ZN3MTL7Private8Selector52s_knewIntersectionFunctionTableWithDescriptor_stage_Ev, 
                       __ZN3MTL7Private8Selector52s_kresetTextureAccessCounters_region_mipLevel_slice_Ev, 
                       __ZN3MTL7Private8Selector52s_ksampleCountersInBuffer_atSampleIndex_withBarrier_Ev, 
                       __ZN3MTL7Private8Selector52s_ksetFragmentVisibleFunctionTables_withBufferRange_Ev, 
                       __ZN3MTL7Private8Selector52s_ksetStencilFrontReferenceValue_backReferenceValue_Ev, 
                       __ZN3MTL7Private8Selector52s_ksetVertexIntersectionFunctionTable_atBufferIndex_Ev, 
                       __ZN3MTL7Private8Selector53s_kaccelerationStructureCommandEncoderWithDescriptor_Ev, 
                       __ZN3MTL7Private8Selector53s_kcopyAccelerationStructure_toAccelerationStructure_Ev, 
                       __ZN3MTL7Private8Selector53s_ksetTessellationFactorBuffer_offset_instanceStride_Ev, 
                       __ZN3MTL7Private8Selector53s_ksetTileIntersectionFunctionTables_withBufferRange_Ev, 
                       __ZN3MTL7Private8Selector54s_kaddMeshRenderPipelineFunctionsWithDescriptor_error_Ev, 
                       __ZN3MTL7Private8Selector54s_kaddTileRenderPipelineFunctionsWithDescriptor_error_Ev, 
                       __ZN3MTL7Private8Selector54s_kdrawPrimitives_indirectBuffer_indirectBufferOffset_Ev, 
                       __ZN3MTL7Private8Selector54s_kmeshThreadgroupSizeIsMultipleOfThreadExecutionWidthEv, 
                       __ZN3MTL7Private8Selector54s_knewLibraryWithStitchedDescriptor_completionHandler_Ev, 
                       __ZN3MTL7Private8Selector54s_krasterizationRateMapDescriptorWithScreenSize_layer_Ev, 
                       __ZN3MTL7Private8Selector54s_ksetFragmentIntersectionFunctionTable_atBufferIndex_Ev, 
                       __ZN3MTL7Private8Selector54s_ksetThreadGroupSizeIsMultipleOfThreadExecutionWidth_Ev, 
                       __ZN3MTL7Private8Selector55s_kheapAccelerationStructureSizeAndAlignWithDescriptor_Ev, 
                       __ZN3MTL7Private8Selector55s_knewBufferWithBytesNoCopy_length_options_deallocator_Ev, 
                       __ZN3MTL7Private8Selector55s_ksetMeshSamplerState_lodMinClamp_lodMaxClamp_atIndex_Ev, 
                       __ZN3MTL7Private8Selector55s_ksetTileSamplerState_lodMinClamp_lodMaxClamp_atIndex_Ev, 
                       __ZN3MTL7Private8Selector55s_ksetVertexBuffers_offsets_attributeStrides_withRange_Ev, 
                       __ZN3MTL7Private8Selector55s_ksetVertexIntersectionFunctionTables_withBufferRange_Ev, 
                       __ZN3MTL7Private8Selector55s_ktextureCubeDescriptorWithPixelFormat_size_mipmapped_Ev, 
                       __ZN3MTL7Private8Selector56s_kconcurrentDispatchThreadgroups_threadsPerThreadgroup_Ev, 
                       __ZN3MTL7Private8Selector56s_kdrawPrimitives_vertexStart_vertexCount_instanceCount_Ev, 
                       __ZN3MTL7Private8Selector56s_knewFunctionWithName_constantValues_completionHandler_Ev, 
                       __ZN3MTL7Private8Selector56s_kobjectThreadgroupSizeIsMultipleOfThreadExecutionWidthEv, 
                       __ZN3MTL7Private8Selector56s_ksetSamplerStates_lodMinClamps_lodMaxClamps_withRange_Ev, 
                       __ZN3MTL7Private8Selector57s_knewComputePipelineStateWithFunction_completionHandler_Ev, 
                       __ZN3MTL7Private8Selector57s_ksetFragmentIntersectionFunctionTables_withBufferRange_Ev, 
                       __ZN3MTL7Private8Selector57s_ksetObjectSamplerState_lodMinClamp_lodMaxClamp_atIndex_Ev, 
                       __ZN3MTL7Private8Selector57s_ksetVertexSamplerState_lodMinClamp_lodMaxClamp_atIndex_Ev, 
                       __ZN3MTL7Private8Selector57s_ksparseTileSizeWithTextureType_pixelFormat_sampleCount_Ev, 
                       __ZN3MTL7Private8Selector58s_kloadBuffer_offset_size_sourceHandle_sourceHandleOffset_Ev, 
                       __ZN3MTL7Private8Selector58s_knewRenderPipelineStateWithDescriptor_completionHandler_Ev, 
                       __ZN3MTL7Private8Selector58s_ksetMeshThreadgroupSizeIsMultipleOfThreadExecutionWidth_Ev, 
                       __ZN3MTL7Private8Selector59s_knewIntersectionFunctionWithDescriptor_completionHandler_Ev, 
                       __ZN3MTL7Private8Selector59s_knewTextureViewWithPixelFormat_textureType_levels_slices_Ev, 
                       __ZN3MTL7Private8Selector59s_ksetFragmentSamplerState_lodMinClamp_lodMaxClamp_atIndex_Ev, 
                       __ZN3MTL7Private8Selector59s_ksetOpaqueCurveIntersectionFunctionWithSignature_atIndex_Ev, 
                       __ZN3MTL7Private8Selector59s_ksetStageInRegionWithIndirectBuffer_indirectBufferOffset_Ev, 
                       __ZN3MTL7Private8Selector59s_kwriteCompactedAccelerationStructureSize_toBuffer_offset_Ev, 
                       __ZN3MTL7Private8Selector60s_ksetMeshSamplerStates_lodMinClamps_lodMaxClamps_withRange_Ev, 
                       __ZN3MTL7Private8Selector60s_ksetObjectThreadgroupSizeIsMultipleOfThreadExecutionWidth_Ev, 
                       __ZN3MTL7Private8Selector60s_ksetTileSamplerStates_lodMinClamps_lodMaxClamps_withRange_Ev, 
                       __ZN3MTL7Private8Selector61s_kmemoryBarrierWithResources_count_afterStages_beforeStages_Ev, 
                       __ZN3MTL7Private8Selector61s_knewRenderPipelineStateWithAdditionalBinaryFunctions_error_Ev, 
                       __ZN3MTL7Private8Selector61s_ksetOpaqueCurveIntersectionFunctionWithSignature_withRange_Ev, 
                       __ZN3MTL7Private8Selector61s_ktexture2DDescriptorWithPixelFormat_width_height_mipmapped_Ev, 
                       __ZN3MTL7Private8Selector62s_knewComputePipelineStateWithAdditionalBinaryFunctions_error_Ev, 
                       __ZN3MTL7Private8Selector62s_ksetObjectSamplerStates_lodMinClamps_lodMaxClamps_withRange_Ev, 
                       __ZN3MTL7Private8Selector62s_ksetOpaqueTriangleIntersectionFunctionWithSignature_atIndex_Ev, 
                       __ZN3MTL7Private8Selector62s_ksetVertexSamplerStates_lodMinClamps_lodMaxClamps_withRange_Ev, 
                       __ZN3MTL7Private8Selector63s_kcopyAndCompactAccelerationStructure_toAccelerationStructure_Ev, 
                       __ZN3MTL7Private8Selector63s_kcopyFromBuffer_sourceOffset_toBuffer_destinationOffset_size_Ev, 
                       __ZN3MTL7Private8Selector63s_kexecuteCommandsInBuffer_indirectBuffer_indirectBufferOffset_Ev, 
                       __ZN3MTL7Private8Selector63s_kresolveCounters_inRange_destinationBuffer_destinationOffset_Ev, 
                       __ZN3MTL7Private8Selector64s_knewComputePipelineStateWithFunction_options_reflection_error_Ev, 
                       __ZN3MTL7Private8Selector64s_ksetFragmentSamplerStates_lodMinClamps_lodMaxClamps_withRange_Ev, 
                       __ZN3MTL7Private8Selector64s_ksetOpaqueTriangleIntersectionFunctionWithSignature_withRange_Ev, 
                       __ZN3MTL7Private8Selector65s_knewComputePipelineStateWithFunction_options_completionHandler_Ev, 
                       __ZN3MTL7Private8Selector65s_knewRenderPipelineStateWithDescriptor_options_reflection_error_Ev, 
                       __ZN3MTL7Private8Selector65s_kupdateTextureMapping_mode_indirectBuffer_indirectBufferOffset_Ev, 
                       __ZN3MTL7Private8Selector66s_knewComputePipelineStateWithDescriptor_options_reflection_error_Ev, 
                       __ZN3MTL7Private8Selector66s_knewIndirectCommandBufferWithDescriptor_maxCommandCount_options_Ev, 
                       __ZN3MTL7Private8Selector66s_knewRenderPipelineStateWithDescriptor_options_completionHandler_Ev, 
                       __ZN3MTL7Private8Selector66s_krasterizationRateMapDescriptorWithScreenSize_layerCount_layers_Ev, 
                       __ZN3MTL7Private8Selector66s_kupdateTextureMappings_mode_regions_mipLevels_slices_numRegions_Ev, 
                       __ZN3MTL7Private8Selector67s_kconvertSparseTileRegions_toPixelRegions_withTileSize_numRegions_Ev, 
                       __ZN3MTL7Private8Selector67s_kgetBytes_bytesPerRow_bytesPerImage_fromRegion_mipmapLevel_slice_Ev, 
                       __ZN3MTL7Private8Selector67s_knewComputePipelineStateWithDescriptor_options_completionHandler_Ev, 
                       __ZN3MTL7Private8Selector67s_knewTextureViewWithPixelFormat_textureType_levels_slices_swizzle_Ev, 
                       __ZN3MTL7Private8Selector69s_kdrawPrimitives_vertexStart_vertexCount_instanceCount_baseInstance_Ev, 
                       __ZN3MTL7Private8Selector69s_knewRenderPipelineStateWithMeshDescriptor_options_reflection_error_Ev, 
                       __ZN3MTL7Private8Selector69s_knewRenderPipelineStateWithTileDescriptor_options_reflection_error_Ev, 
                       __ZN3MTL7Private8Selector6s_kURLEv, __ZN3MTL7Private8Selector6s_kurlEv, 
                       __ZN3MTL7Private8Selector70s_kcopyIndirectCommandBuffer_sourceRange_destination_destinationIndex_Ev, 
                       __ZN3MTL7Private8Selector70s_knewRenderPipelineStateWithMeshDescriptor_options_completionHandler_Ev, 
                       __ZN3MTL7Private8Selector70s_knewRenderPipelineStateWithTileDescriptor_options_completionHandler_Ev, 
                       __ZN3MTL7Private8Selector70s_ktextureBufferDescriptorWithPixelFormat_width_resourceOptions_usage_Ev, 
                       __ZN3MTL7Private8Selector71s_kreplaceRegion_mipmapLevel_slice_withBytes_bytesPerRow_bytesPerImage_Ev, 
                       __ZN3MTL7Private8Selector72s_ksparseTileSizeWithTextureType_pixelFormat_sampleCount_sparsePageSize_Ev, 
                       __ZN3MTL7Private8Selector72s_kwriteCompactedAccelerationStructureSize_toBuffer_offset_sizeDataType_Ev, 
                       __ZN3MTL7Private8Selector73s_kdrawMeshThreads_threadsPerObjectThreadgroup_threadsPerMeshThreadgroup_Ev, 
                       __ZN3MTL7Private8Selector75s_kbuildAccelerationStructure_descriptor_scratchBuffer_scratchBufferOffset_Ev, 
                       __ZN3MTL7Private8Selector76s_kdrawIndexedPrimitives_indexCount_indexType_indexBuffer_indexBufferOffset_Ev, 
                       __ZN3MTL7Private8Selector78s_kdrawMeshThreadgroups_threadsPerObjectThreadgroup_threadsPerMeshThreadgroup_Ev, 
                       __ZN3MTL7Private8Selector7s_kdataEv, __ZN3MTL7Private8Selector7s_kheapEv, 
                       __ZN3MTL7Private8Selector7s_kinitEv, __ZN3MTL7Private8Selector7s_klineEv, 
                       __ZN3MTL7Private8Selector7s_klogsEv, __ZN3MTL7Private8Selector7s_knameEv, 
                       __ZN3MTL7Private8Selector7s_ksizeEv, __ZN3MTL7Private8Selector7s_ktypeEv, 
                       __ZN3MTL7Private8Selector81s_kconvertSparsePixelRegions_toTileRegions_withTileSize_alignmentMode_numRegions_Ev, 
                       __ZN3MTL7Private8Selector85s_kdispatchThreadgroupsWithIndirectBuffer_indirectBufferOffset_threadsPerThreadgroup_Ev, 
                       __ZN3MTL7Private8Selector87s_krefitAccelerationStructure_descriptor_destination_scratchBuffer_scratchBufferOffset_Ev, 
                       __ZN3MTL7Private8Selector8s_kdepthEv, __ZN3MTL7Private8Selector8s_kerrorEv, 
                       __ZN3MTL7Private8Selector8s_kindexEv, __ZN3MTL7Private8Selector8s_klabelEv, 
                       __ZN3MTL7Private8Selector8s_klevelEv, __ZN3MTL7Private8Selector8s_knodesEv, 
                       __ZN3MTL7Private8Selector8s_kresetEv, __ZN3MTL7Private8Selector8s_ksliceEv, 
                       __ZN3MTL7Private8Selector8s_kusageEv, __ZN3MTL7Private8Selector8s_kwidthEv, 
                       __ZN3MTL7Private8Selector90s_kdrawIndexedPrimitives_indexCount_indexType_indexBuffer_indexBufferOffset_instanceCount_Ev, 
                       __ZN3MTL7Private8Selector91s_kdrawPatches_patchIndexBuffer_patchIndexBufferOffset_indirectBuffer_indirectBufferOffset_Ev, 
                       __ZN3MTL7Private8Selector95s_krefitAccelerationStructure_descriptor_destination_scratchBuffer_scratchBufferOffset_options_Ev, 
                       __ZN3MTL7Private8Selector9s_kaccessEv, __ZN3MTL7Private8Selector9s_kbufferEv, 
                       __ZN3MTL7Private8Selector9s_kcolumnEv, __ZN3MTL7Private8Selector9s_kcommitEv, 
                       __ZN3MTL7Private8Selector9s_kdeviceEv, __ZN3MTL7Private8Selector9s_kformatEv, 
                       __ZN3MTL7Private8Selector9s_kgroupsEv, __ZN3MTL7Private8Selector9s_kheightEv, 
                       __ZN3MTL7Private8Selector9s_kisUsedEv, __ZN3MTL7Private8Selector9s_klayersEv, 
                       __ZN3MTL7Private8Selector9s_klengthEv, __ZN3MTL7Private8Selector9s_koffsetEv, 
                       __ZN3MTL7Private8Selector9s_kopaqueEv, __ZN3MTL7Private8Selector9s_kstatusEv, 
                       __ZN3MTL7Private8Selector9s_kstrideEv ]
...
