--- !tapi-tbd
tbd-version:     4
targets:         [ x86_64-macos, arm64-macos, arm64e-macos ]
install-name:    '/System/Library/PrivateFrameworks/CoreRE3DGSFoundation.framework/Versions/A/CoreRE3DGSFoundation'
current-version: 1.3.1
compatibility-version: 1.3.1
exports:
  - targets:         [ x86_64-macos ]
    weak-symbols:    [ __ZTIN4avir13CImageResizerINS_11fpclass_defIffNS_27CImageResizerDithererDefINLIfEEEEE11CThreadDataIhhEE, 
                       __ZTIN4avir23CImageResizerThreadPool9CWorkloadE, __ZTIN4avir23CImageResizerThreadPoolE, 
                       __ZTIN6happly13TypedPropertyIaEE, __ZTIN6happly13TypedPropertyIdEE, 
                       __ZTIN6happly13TypedPropertyIfEE, __ZTIN6happly13TypedPropertyIhEE, 
                       __ZTIN6happly13TypedPropertyIiEE, __ZTIN6happly13TypedPropertyIjEE, 
                       __ZTIN6happly13TypedPropertyIsEE, __ZTIN6happly13TypedPropertyItEE, 
                       __ZTIN6happly17TypedListPropertyIaEE, __ZTIN6happly17TypedListPropertyIdEE, 
                       __ZTIN6happly17TypedListPropertyIfEE, __ZTIN6happly17TypedListPropertyIhEE, 
                       __ZTIN6happly17TypedListPropertyIiEE, __ZTIN6happly17TypedListPropertyIjEE, 
                       __ZTIN6happly17TypedListPropertyIsEE, __ZTIN6happly17TypedListPropertyItEE, 
                       __ZTIN6happly8PropertyE, __ZTIN8nlohmann16json_abi_v3_11_26detail10type_errorE, 
                       __ZTIN8nlohmann16json_abi_v3_11_26detail11parse_errorE, __ZTIN8nlohmann16json_abi_v3_11_26detail12out_of_rangeE, 
                       __ZTIN8nlohmann16json_abi_v3_11_26detail16invalid_iteratorE, 
                       __ZTIN8nlohmann16json_abi_v3_11_26detail21output_string_adapterIcNSt3__112basic_stringIcNS3_11char_traitsIcEENS3_9allocatorIcEEEEEE, 
                       __ZTIN8nlohmann16json_abi_v3_11_26detail23output_adapter_protocolIcEE, 
                       __ZTIN8nlohmann16json_abi_v3_11_26detail9exceptionE, __ZTIN9apple3dgs12DeferredPassE, 
                       __ZTIN9apple3dgs7ISorterE, __ZTINSt3__110__function6__baseIFbPU34objcproto23MTLRenderCommandEncoder11objc_objectN9apple3dgs18DeferredUniformsFSEjPU15__autoreleasingP7NSErrorEEE, 
                       __ZTINSt3__110__function6__baseIFvPU27objcproto16MTLCommandBuffer11objc_objectjN9apple3dgs14ConvertMXIFaceEPU21objcproto10MTLTexture11objc_objectS7_N4simd8float4x4EEEE, 
                       __ZTINSt3__110__function6__baseIFvRN4cv3d9aspenbase11concurrency12AsyncManager13ThreadContextEEEE, 
                       __ZTINSt3__110__function6__baseIFvmEEE, __ZTINSt3__110__function6__baseIFvmRN4cv3d9aspenbase11concurrency12AsyncManager13ThreadContextEEEE, 
                       __ZTINSt3__110__function6__funcINS_6__bindIRNS_8functionIFvmRN4cv3d9aspenbase11concurrency12AsyncManager13ThreadContextEEEEJRmRKNS_12placeholders4__phILi1EEEEEENS_9allocatorISJ_EEFvS9_EEE, 
                       __ZTINSt3__117bad_function_callE, __ZTINSt3__118__weak_result_typeINS_8functionIFvmRN4cv3d9aspenbase11concurrency12AsyncManager13ThreadContextEEEEEE, 
                       __ZTINSt3__120__shared_ptr_emplaceIN4cv3d9aspenbase11concurrency12AsyncManager13ThreadContextENS_9allocatorIS5_EEEE, 
                       __ZTINSt3__120__shared_ptr_emplaceIN4cv3d9aspenbase11concurrency6ThreadENS_9allocatorIS4_EEEE, 
                       __ZTINSt3__120__shared_ptr_emplaceIN4cv3d9aspenbase11concurrency7ChannelINS_8functionIFvRNS3_12AsyncManager13ThreadContextEEEEEENS_9allocatorISB_EEEE, 
                       __ZTINSt3__120__shared_ptr_emplaceIN4cv3d9aspenbase11concurrency7ChannelIbEENS_9allocatorIS5_EEEE, 
                       __ZTINSt3__120__shared_ptr_emplaceIN8nlohmann16json_abi_v3_11_26detail21output_string_adapterIcNS_12basic_stringIcNS_11char_traitsIcEENS_9allocatorIcEEEEEENS8_ISB_EEEE, 
                       __ZTINSt3__120__shared_ptr_emplaceIN9apple3dgs14PostAlphaBlendENS_9allocatorIS2_EEEE, 
                       __ZTINSt3__120__shared_ptr_emplaceIN9apple3dgs16RenderDescriptorENS_9allocatorIS2_EEEE, 
                       __ZTINSt3__120__shared_ptr_emplaceIN9apple3dgs16SorterDescriptorENS_9allocatorIS2_EEEE, 
                       __ZTINSt3__120__shared_ptr_emplaceIN9apple3dgs17MultiLayerOptionsENS_9allocatorIS2_EEEE, 
                       __ZTINSt3__120__shared_ptr_emplaceIN9apple3dgs18MultiLayerRendererENS_9allocatorIS2_EEEE, 
                       __ZTINSt3__120__shared_ptr_emplaceIN9apple3dgs5AssetENS_9allocatorIS2_EEEE, 
                       __ZTINSt3__120__shared_ptr_emplaceIN9apple3dgs6SorterENS_9allocatorIS2_EEEE, 
                       __ZTINSt3__120__shared_ptr_emplaceIN9apple3dgs8RendererENS_9allocatorIS2_EEEE, 
                       __ZTINSt3__122__weak_result_type_impINS_8functionIFvmRN4cv3d9aspenbase11concurrency12AsyncManager13ThreadContextEEEELb1EEE, 
                       __ZTINSt3__134__binary_function_keep_layout_baseImRN4cv3d9aspenbase11concurrency12AsyncManager13ThreadContextEvEE, 
                       __ZTINSt3__134__maybe_derive_from_unary_functionINS_8functionIFvmRN4cv3d9aspenbase11concurrency12AsyncManager13ThreadContextEEEELb0EEE, 
                       __ZTINSt3__135__maybe_derive_from_binary_functionINS_8functionIFvmRN4cv3d9aspenbase11concurrency12AsyncManager13ThreadContextEEEELb1EEE, 
                       __ZTINSt3__16__bindIRNS_8functionIFvmRN4cv3d9aspenbase11concurrency12AsyncManager13ThreadContextEEEEJRmRKNS_12placeholders4__phILi1EEEEEE, 
                       __ZTSN4avir13CImageResizerINS_11fpclass_defIffNS_27CImageResizerDithererDefINLIfEEEEE11CThreadDataIhhEE, 
                       __ZTSN4avir23CImageResizerThreadPool9CWorkloadE, __ZTSN4avir23CImageResizerThreadPoolE, 
                       __ZTSN6happly13TypedPropertyIaEE, __ZTSN6happly13TypedPropertyIdEE, 
                       __ZTSN6happly13TypedPropertyIfEE, __ZTSN6happly13TypedPropertyIhEE, 
                       __ZTSN6happly13TypedPropertyIiEE, __ZTSN6happly13TypedPropertyIjEE, 
                       __ZTSN6happly13TypedPropertyIsEE, __ZTSN6happly13TypedPropertyItEE, 
                       __ZTSN6happly17TypedListPropertyIaEE, __ZTSN6happly17TypedListPropertyIdEE, 
                       __ZTSN6happly17TypedListPropertyIfEE, __ZTSN6happly17TypedListPropertyIhEE, 
                       __ZTSN6happly17TypedListPropertyIiEE, __ZTSN6happly17TypedListPropertyIjEE, 
                       __ZTSN6happly17TypedListPropertyIsEE, __ZTSN6happly17TypedListPropertyItEE, 
                       __ZTSN6happly8PropertyE, __ZTSN8nlohmann16json_abi_v3_11_26detail10type_errorE, 
                       __ZTSN8nlohmann16json_abi_v3_11_26detail11parse_errorE, __ZTSN8nlohmann16json_abi_v3_11_26detail12out_of_rangeE, 
                       __ZTSN8nlohmann16json_abi_v3_11_26detail16invalid_iteratorE, 
                       __ZTSN8nlohmann16json_abi_v3_11_26detail21output_string_adapterIcNSt3__112basic_stringIcNS3_11char_traitsIcEENS3_9allocatorIcEEEEEE, 
                       __ZTSN8nlohmann16json_abi_v3_11_26detail23output_adapter_protocolIcEE, 
                       __ZTSN8nlohmann16json_abi_v3_11_26detail9exceptionE, __ZTSN9apple3dgs12DeferredPassE, 
                       __ZTSN9apple3dgs7ISorterE, __ZTSNSt3__110__function6__baseIFbPU34objcproto23MTLRenderCommandEncoder11objc_objectN9apple3dgs18DeferredUniformsFSEjPU15__autoreleasingP7NSErrorEEE, 
                       __ZTSNSt3__110__function6__baseIFvPU27objcproto16MTLCommandBuffer11objc_objectjN9apple3dgs14ConvertMXIFaceEPU21objcproto10MTLTexture11objc_objectS7_N4simd8float4x4EEEE, 
                       __ZTSNSt3__110__function6__baseIFvRN4cv3d9aspenbase11concurrency12AsyncManager13ThreadContextEEEE, 
                       __ZTSNSt3__110__function6__baseIFvmEEE, __ZTSNSt3__110__function6__baseIFvmRN4cv3d9aspenbase11concurrency12AsyncManager13ThreadContextEEEE, 
                       __ZTSNSt3__110__function6__funcINS_6__bindIRNS_8functionIFvmRN4cv3d9aspenbase11concurrency12AsyncManager13ThreadContextEEEEJRmRKNS_12placeholders4__phILi1EEEEEENS_9allocatorISJ_EEFvS9_EEE, 
                       __ZTSNSt3__117bad_function_callE, __ZTSNSt3__118__weak_result_typeINS_8functionIFvmRN4cv3d9aspenbase11concurrency12AsyncManager13ThreadContextEEEEEE, 
                       __ZTSNSt3__120__shared_ptr_emplaceIN4cv3d9aspenbase11concurrency12AsyncManager13ThreadContextENS_9allocatorIS5_EEEE, 
                       __ZTSNSt3__120__shared_ptr_emplaceIN4cv3d9aspenbase11concurrency6ThreadENS_9allocatorIS4_EEEE, 
                       __ZTSNSt3__120__shared_ptr_emplaceIN4cv3d9aspenbase11concurrency7ChannelINS_8functionIFvRNS3_12AsyncManager13ThreadContextEEEEEENS_9allocatorISB_EEEE, 
                       __ZTSNSt3__120__shared_ptr_emplaceIN4cv3d9aspenbase11concurrency7ChannelIbEENS_9allocatorIS5_EEEE, 
                       __ZTSNSt3__120__shared_ptr_emplaceIN8nlohmann16json_abi_v3_11_26detail21output_string_adapterIcNS_12basic_stringIcNS_11char_traitsIcEENS_9allocatorIcEEEEEENS8_ISB_EEEE, 
                       __ZTSNSt3__120__shared_ptr_emplaceIN9apple3dgs14PostAlphaBlendENS_9allocatorIS2_EEEE, 
                       __ZTSNSt3__120__shared_ptr_emplaceIN9apple3dgs16RenderDescriptorENS_9allocatorIS2_EEEE, 
                       __ZTSNSt3__120__shared_ptr_emplaceIN9apple3dgs16SorterDescriptorENS_9allocatorIS2_EEEE, 
                       __ZTSNSt3__120__shared_ptr_emplaceIN9apple3dgs17MultiLayerOptionsENS_9allocatorIS2_EEEE, 
                       __ZTSNSt3__120__shared_ptr_emplaceIN9apple3dgs18MultiLayerRendererENS_9allocatorIS2_EEEE, 
                       __ZTSNSt3__120__shared_ptr_emplaceIN9apple3dgs5AssetENS_9allocatorIS2_EEEE, 
                       __ZTSNSt3__120__shared_ptr_emplaceIN9apple3dgs6SorterENS_9allocatorIS2_EEEE, 
                       __ZTSNSt3__120__shared_ptr_emplaceIN9apple3dgs8RendererENS_9allocatorIS2_EEEE, 
                       __ZTSNSt3__122__weak_result_type_impINS_8functionIFvmRN4cv3d9aspenbase11concurrency12AsyncManager13ThreadContextEEEELb1EEE, 
                       __ZTSNSt3__134__binary_function_keep_layout_baseImRN4cv3d9aspenbase11concurrency12AsyncManager13ThreadContextEvEE, 
                       __ZTSNSt3__134__maybe_derive_from_unary_functionINS_8functionIFvmRN4cv3d9aspenbase11concurrency12AsyncManager13ThreadContextEEEELb0EEE, 
                       __ZTSNSt3__135__maybe_derive_from_binary_functionINS_8functionIFvmRN4cv3d9aspenbase11concurrency12AsyncManager13ThreadContextEEEELb1EEE, 
                       __ZTSNSt3__16__bindIRNS_8functionIFvmRN4cv3d9aspenbase11concurrency12AsyncManager13ThreadContextEEEEJRmRKNS_12placeholders4__phILi1EEEEEE ]
  - targets:         [ x86_64-macos, arm64-macos, arm64e-macos ]
    symbols:         [ __Z13GSVersionHashv, __Z20GSVersionNumberMajorv, __Z20GSVersionNumberMinorv, 
                       __Z20GSVersionNumberPatchv, __ZN12MetalContext19renderPipelineStateERKNSt3__112basic_stringIcNS0_11char_traitsIcEENS0_9allocatorIcEEEES8_, 
                       __ZN12MetalContext20computePipelineStateERKNSt3__112basic_stringIcNS0_11char_traitsIcEENS0_9allocatorIcEEEENS0_8optionalIU8__strongP29MTLStageInputOutputDescriptorEENS9_IU8__strongP25MTLFunctionConstantValuesEE, 
                       __ZN12MetalContextC1EPU19objcproto9MTLDevice11objc_objectb, 
                       __ZN12MetalContextC2EPU19objcproto9MTLDevice11objc_objectb, 
                       __ZN4cv3d9aspenbase11concurrency10ThreadPool4WaitEv, __ZN4cv3d9aspenbase11concurrency10ThreadPoolD1Ev, 
                       __ZN4cv3d9aspenbase11concurrency10ThreadPoolD2Ev, __ZN4cv3d9aspenbase11concurrency12AsyncManager6ConfigC1ERKNS1_6Thread6ConfigE, 
                       __ZN4cv3d9aspenbase11concurrency12AsyncManager6ConfigC1Em, 
                       __ZN4cv3d9aspenbase11concurrency12AsyncManager6ConfigC1EmRKNS1_6Thread6ConfigE, 
                       __ZN4cv3d9aspenbase11concurrency12AsyncManager6ConfigC1EmmRKNS1_6Thread6ConfigE, 
                       __ZN4cv3d9aspenbase11concurrency12AsyncManager6ConfigC2ERKNS1_6Thread6ConfigE, 
                       __ZN4cv3d9aspenbase11concurrency12AsyncManager6ConfigC2Em, 
                       __ZN4cv3d9aspenbase11concurrency12AsyncManager6ConfigC2EmRKNS1_6Thread6ConfigE, 
                       __ZN4cv3d9aspenbase11concurrency12AsyncManager6ConfigC2EmmRKNS1_6Thread6ConfigE, 
                       __ZN4cv3d9aspenbase11concurrency12AsyncManagerC1ERKNS2_6ConfigE, 
                       __ZN4cv3d9aspenbase11concurrency12AsyncManagerC1Ejm, __ZN4cv3d9aspenbase11concurrency12AsyncManagerC2ERKNS2_6ConfigE, 
                       __ZN4cv3d9aspenbase11concurrency12AsyncManagerC2Ejm, __ZN4cv3d9aspenbase11concurrency12AsyncManagerD1Ev, 
                       __ZN4cv3d9aspenbase11concurrency12AsyncManagerD2Ev, __ZN4cv3d9aspenbase11concurrency18GetLogicalCPUCountEv, 
                       __ZN4cv3d9aspenbase11concurrency5Mutex11CreateMutexEv, __ZN4cv3d9aspenbase11concurrency5Mutex4LockEv, 
                       __ZN4cv3d9aspenbase11concurrency5Mutex6UnlockEv, __ZN4cv3d9aspenbase11concurrency5Mutex7TryLockEv, 
                       __ZN4cv3d9aspenbase11concurrency5MutexC1Ev, __ZN4cv3d9aspenbase11concurrency5MutexC2Ev, 
                       __ZN4cv3d9aspenbase11concurrency5MutexD1Ev, __ZN4cv3d9aspenbase11concurrency5MutexD2Ev, 
                       __ZN4cv3d9aspenbase11concurrency6Locker4LockEv, __ZN4cv3d9aspenbase11concurrency6Locker5RlockEv, 
                       __ZN4cv3d9aspenbase11concurrency6Locker6UnlockEv, __ZN4cv3d9aspenbase11concurrency6Locker7UnrlockEv, 
                       __ZN4cv3d9aspenbase11concurrency6LockerC1Ev, __ZN4cv3d9aspenbase11concurrency6LockerC2Ev, 
                       __ZN4cv3d9aspenbase11concurrency6LockerD1Ev, __ZN4cv3d9aspenbase11concurrency6LockerD2Ev, 
                       __ZN4cv3d9aspenbase11concurrency6Thread11thread_funcEPv, __ZN4cv3d9aspenbase11concurrency6Thread19StartOnCallerThreadEv, 
                       __ZN4cv3d9aspenbase11concurrency6Thread19ThreadFuncInterfaceD0Ev, 
                       __ZN4cv3d9aspenbase11concurrency6Thread19ThreadFuncInterfaceD1Ev, 
                       __ZN4cv3d9aspenbase11concurrency6Thread19ThreadFuncInterfaceD2Ev, 
                       __ZN4cv3d9aspenbase11concurrency6Thread3RunEv, __ZN4cv3d9aspenbase11concurrency6Thread4WaitEv, 
                       __ZN4cv3d9aspenbase11concurrency6Thread5SleepEm, __ZN4cv3d9aspenbase11concurrency6Thread5StartEv, 
                       __ZN4cv3d9aspenbase11concurrency6ThreadC1ERKNS2_6ConfigE, 
                       __ZN4cv3d9aspenbase11concurrency6ThreadC1ERKNSt3__112basic_stringIcNS3_11char_traitsIcEENS3_9allocatorIcEEEE, 
                       __ZN4cv3d9aspenbase11concurrency6ThreadC1Ev, __ZN4cv3d9aspenbase11concurrency6ThreadC2ERKNS2_6ConfigE, 
                       __ZN4cv3d9aspenbase11concurrency6ThreadC2ERKNSt3__112basic_stringIcNS3_11char_traitsIcEENS3_9allocatorIcEEEE, 
                       __ZN4cv3d9aspenbase11concurrency6ThreadC2Ev, __ZN4cv3d9aspenbase11concurrency6ThreadD0Ev, 
                       __ZN4cv3d9aspenbase11concurrency6ThreadD1Ev, __ZN4cv3d9aspenbase11concurrency6ThreadD2Ev, 
                       __ZN4cv3d9aspenbase11concurrency8SpinLock4LockEv, __ZN4cv3d9aspenbase11concurrency8SpinLock6UnlockEv, 
                       __ZN4cv3d9aspenbase11concurrency8SpinLock7TryLockEv, __ZN4cv3d9aspenbase11concurrency8SpinLockC1Ev, 
                       __ZN4cv3d9aspenbase11concurrency8SpinLockC2Ev, __ZN4cv3d9aspenbase11concurrency8SpinLockD1Ev, 
                       __ZN4cv3d9aspenbase11concurrency8SpinLockD2Ev, __ZN4cv3d9aspenbase11concurrency9Semaphore4InitEj, 
                       __ZN4cv3d9aspenbase11concurrency9Semaphore4PostEj, __ZN4cv3d9aspenbase11concurrency9Semaphore4PostEv, 
                       __ZN4cv3d9aspenbase11concurrency9Semaphore4WaitEd, __ZN4cv3d9aspenbase11concurrency9Semaphore4WaitEv, 
                       __ZN4cv3d9aspenbase11concurrency9Semaphore7TryWaitEv, __ZN4cv3d9aspenbase11concurrency9SemaphoreC1Ej, 
                       __ZN4cv3d9aspenbase11concurrency9SemaphoreC1Ev, __ZN4cv3d9aspenbase11concurrency9SemaphoreC2Ej, 
                       __ZN4cv3d9aspenbase11concurrency9SemaphoreC2Ev, __ZN4cv3d9aspenbase11concurrency9SemaphoreD1Ev, 
                       __ZN4cv3d9aspenbase11concurrency9SemaphoreD2Ev, __ZN9apple3dgs10CheckAllocEPU8__strongPU19objcproto9MTLBuffer11objc_objectmPU19objcproto9MTLDevice11objc_objectm, 
                       __ZN9apple3dgs10CheckAllocEPU8__strongPU21objcproto10MTLTexture11objc_object14MTLPixelFormatjjmPU19objcproto9MTLDevice11objc_object, 
                       __ZN9apple3dgs10SortWorker11StopCPUSortEv, __ZN9apple3dgs10SortWorker12StartCPUSortEv, 
                       __ZN9apple3dgs10SortWorker12StartRunningEv, __ZN9apple3dgs10SortWorker16SetInstanceCountEj, 
                       __ZN9apple3dgs10SortWorker19GetRenderingBuffersEv, __ZN9apple3dgs10SortWorker20UpdateIndirectBufferEPU27objcproto16MTLCommandBuffer11objc_objectRK13simd_float4x4RKDv2_f, 
                       __ZN9apple3dgs10SortWorker4LockEv, __ZN9apple3dgs10SortWorker4SortEPU27objcproto16MTLCommandBuffer11objc_objectNS0_3JobE, 
                       __ZN9apple3dgs10SortWorker6UnlockEv, __ZN9apple3dgs10SortWorker7ProcessERKNS0_3JobE, 
                       __ZN9apple3dgs10SortWorker8AllocateEj, __ZN9apple3dgs10SortWorker9AddJobCPUERKNS0_3JobE, 
                       __ZN9apple3dgs10SortWorker9CommitGPUEPU27objcproto16MTLCommandBuffer11objc_objectRKNS0_3JobE, 
                       __ZN9apple3dgs10SortWorkerC1EPU19objcproto9MTLDevice11objc_objectRKNS0_10ParametersEj, 
                       __ZN9apple3dgs10SortWorkerC2EPU19objcproto9MTLDevice11objc_objectRKNS0_10ParametersEj, 
                       __ZN9apple3dgs10SortWorkerD1Ev, __ZN9apple3dgs10SortWorkerD2Ev, 
                       __ZN9apple3dgs10ToCIFormatE14MTLPixelFormat, __ZN9apple3dgs10scaleImageEfjRNSt3__16vectorIhNS0_9allocatorIhEEEERjS6_, 
                       __ZN9apple3dgs11ErrorDomainEv, __ZN9apple3dgs11RadixSorter11ClearBufferEPU35objcproto24MTLComputeCommandEncoder11objc_objectPU19objcproto9MTLBuffer11objc_objectjj, 
                       __ZN9apple3dgs11RadixSorter11InitIndicesEPU35objcproto24MTLComputeCommandEncoder11objc_objectPU19objcproto9MTLBuffer11objc_objectj, 
                       __ZN9apple3dgs11RadixSorter16ComputeHistogramEPU35objcproto24MTLComputeCommandEncoder11objc_objectPU19objcproto9MTLBuffer11objc_objectS4_jj, 
                       __ZN9apple3dgs11RadixSorter22CheckInternalDataAllocEj, __ZN9apple3dgs11RadixSorter4SortEPU27objcproto16MTLCommandBuffer11objc_objectPU19objcproto9MTLBuffer11objc_objectS4_j, 
                       __ZN9apple3dgs11RadixSorter7ReorderEPU35objcproto24MTLComputeCommandEncoder11objc_objectPU19objcproto9MTLBuffer11objc_objectS4_S4_S4_S4_jj, 
                       __ZN9apple3dgs11RadixSorter9PrefixSumEPU35objcproto24MTLComputeCommandEncoder11objc_objectPU19objcproto9MTLBuffer11objc_objectS4_S4_S4_j, 
                       __ZN9apple3dgs11RadixSorterC1EPU19objcproto9MTLDevice11objc_objectjbb, 
                       __ZN9apple3dgs11RadixSorterC2EPU19objcproto9MTLDevice11objc_objectjbb, 
                       __ZN9apple3dgs11StopCaptureEPU26objcproto15MTLCaptureScope11objc_object, 
                       __ZN9apple3dgs11ToMTLFormatEi, __ZN9apple3dgs12ComputeEigenERKN4simd8float3x3E, 
                       __ZN9apple3dgs12StartCaptureEPU8__strongPU26objcproto15MTLCaptureScope11objc_object, 
                       __ZN9apple3dgs12UniqueSorter13EncodeSortingEPU27objcproto16MTLCommandBuffer11objc_objectNSt3__14spanIKNS3_10shared_ptrIKNS_5AssetEEELm18446744073709551615EEENS5_IKNS_16SorterDescriptorEEENS5_IKNS_16RenderDescriptorEEEPU15__autoreleasingP7NSError, 
                       __ZN9apple3dgs12UniqueSorterC1EPU19objcproto9MTLDevice11objc_objectRKNS_10SortWorker10ParametersEj, 
                       __ZN9apple3dgs12UniqueSorterC2EPU19objcproto9MTLDevice11objc_objectRKNS_10SortWorker10ParametersEj, 
                       __ZN9apple3dgs12updateFromTvERNS_5AssetERKNSt3__14__fs10filesystem4pathEjPU15__autoreleasingP7NSError, 
                       __ZN9apple3dgs13GetFileFormatERKNSt3__14__fs10filesystem4pathE, 
                       __ZN9apple3dgs13MinAreaFilterER12MetalContextPU35objcproto24MTLComputeCommandEncoder11objc_objectPU21objcproto10MTLTexture11objc_objectS5_i, 
                       __ZN9apple3dgs13NdcProjectionERKN4simd8float3x3Eff, __ZN9apple3dgs13RGBDPanoToMPIER12MetalContextPU27objcproto16MTLCommandBuffer11objc_objectRKNS_8RGBDPanoERKN4simd8float4x4EfRNS_8DenseMPIE, 
                       __ZN9apple3dgs13ReadNDCDepthsEPU19objcproto9MTLBuffer11objc_objectm, 
                       __ZN9apple3dgs14CFStringEqualsEPK10__CFStringS2_, __ZN9apple3dgs14EstimateCameraEPU19objcproto9MTLBuffer11objc_objectj, 
                       __ZN9apple3dgs14FindDepthIndexERKNSt3__16vectorIfNS0_9allocatorIfEEEEfRfS7_, 
                       __ZN9apple3dgs14MultiLayerData22GetTexture2DDescriptorEjj14MTLPixelFormatm, 
                       __ZN9apple3dgs14MultiLayerData27GetTexture2DArrayDescriptorEjjj14MTLPixelFormatm, 
                       __ZN9apple3dgs14MultiLayerDataC1EPU19objcproto9MTLDevice11objc_objectRKNS_17MultiLayerOptionsE14MTLPixelFormatS6_, 
                       __ZN9apple3dgs14MultiLayerDataC2EPU19objcproto9MTLDevice11objc_objectRKNS_17MultiLayerOptionsE14MTLPixelFormatS6_, 
                       __ZN9apple3dgs14PowerIterationERKN4simd8float3x3Ej, __ZN9apple3dgs15CheckAllocArrayEPU8__strongPU21objcproto10MTLTexture11objc_object14MTLPixelFormatjjjmPU19objcproto9MTLDevice11objc_object, 
                       __ZN9apple3dgs15LinearRGBToSRGBEDv3_f, __ZN9apple3dgs15SHCoeffToDegreeEj, 
                       __ZN9apple3dgs15SRGBToLinearRGBEDv3_f, __ZN9apple3dgs16ComputeQuantilesERKNSt3__16vectorIfNS0_9allocatorIfEEEES6_, 
                       __ZN9apple3dgs16GetFrustumPlanesERKN4simd8float4x4E, __ZN9apple3dgs16GetMinimumStrideE18MTLAttributeFormat, 
                       __ZN9apple3dgs17CreateSimpleAssetEPU26objcproto15MTLCommandQueue11objc_objectRKNS_5Asset19AttributeDescriptorEjb, 
                       __ZN9apple3dgs17GetDefaultArchiveEPU19objcproto9MTLDevice11objc_objectPU15__autoreleasingP7NSError, 
                       __ZN9apple3dgs17GetDefaultLibraryEPU19objcproto9MTLDevice11objc_objectPU15__autoreleasingP7NSError, 
                       __ZN9apple3dgs18ComputeColorFromSHER12MetalContextjPU27objcproto16MTLCommandBuffer11objc_objectPU19objcproto9MTLBuffer11objc_objectS5_Dv3_fjjS5_, 
                       __ZN9apple3dgs18ComputeColorFromSHERKNSt3__16vectorIDv3_fNS0_9allocatorIS2_EEEERKS2_S9_j, 
                       __ZN9apple3dgs18GetDepthBoundariesENS_27AdaptiveLayerSamplingMethodEjRKN4simd8float4x4EPU19objcproto9MTLBuffer11objc_objectmff, 
                       __ZN9apple3dgs18MultiLayerRenderer10CheckAllocERKNS_17MultiLayerOptionsE, 
                       __ZN9apple3dgs18MultiLayerRenderer10RenderFaceEPU27objcproto16MTLCommandBuffer11objc_objectNSt3__110shared_ptrIKNS_5AssetEEERKNS_17MultiLayerOptionsENS3_8functionIFvS2_jNS_14ConvertMXIFaceEPU21objcproto10MTLTexture11objc_objectSE_N4simd8float4x4EEEESC_NS4_INS_16RenderDescriptorEEENS4_INS_16SorterDescriptorEEEP23MTLRenderPassDescriptorSO_RKNS_8DenseMPIESE_SE_SE_PU19objcproto9MTLBuffer11objc_objectSE_SE_PU15__autoreleasingP7NSError, 
                       __ZN9apple3dgs18MultiLayerRenderer16StopWarmUpThreadEv, __ZN9apple3dgs18MultiLayerRenderer17StartWarmUpThreadEPU26objcproto15MTLCommandQueue11objc_objectNSt3__18functionIFvPU27objcproto16MTLCommandBuffer11objc_objectjNS_14ConvertMXIFaceEPU21objcproto10MTLTexture11objc_objectS9_N4simd8float4x4EEEENS3_6chrono8durationIxNS3_5ratioILl1ELl1000EEEEE, 
                       __ZN9apple3dgs18MultiLayerRenderer6RenderEPU27objcproto16MTLCommandBuffer11objc_objectNSt3__110shared_ptrIKNS_5AssetEEENS_17MultiLayerOptionsENS3_8functionIFvS2_jNS_14ConvertMXIFaceEPU21objcproto10MTLTexture11objc_objectSC_N4simd8float4x4EEEEPU15__autoreleasingP7NSError, 
                       __ZN9apple3dgs18MultiLayerRendererC1EPU19objcproto9MTLDevice11objc_object14MTLPixelFormatS3_PU15__autoreleasingP7NSError, 
                       __ZN9apple3dgs18MultiLayerRendererC1EPU19objcproto9MTLDevice11objc_objectNS_17MultiLayerOptionsE14MTLPixelFormatS4_PU15__autoreleasingP7NSError, 
                       __ZN9apple3dgs18MultiLayerRendererC2EPU19objcproto9MTLDevice11objc_object14MTLPixelFormatS3_PU15__autoreleasingP7NSError, 
                       __ZN9apple3dgs18MultiLayerRendererC2EPU19objcproto9MTLDevice11objc_objectNS_17MultiLayerOptionsE14MTLPixelFormatS4_PU15__autoreleasingP7NSError, 
                       __ZN9apple3dgs18MultiLayerRendererD1Ev, __ZN9apple3dgs18MultiLayerRendererD2Ev, 
                       __ZN9apple3dgs18RowMajorToColMajorERKNSt3__16vectorIfNS0_9allocatorIfEEEERN4simd8float3x3E, 
                       __ZN9apple3dgs18RowMajorToColMajorERKNSt3__16vectorIfNS0_9allocatorIfEEEERN4simd8float4x4E, 
                       __ZN9apple3dgs18ToLinearColorSpaceEDv3_fNS_16TransferFunctionE, 
                       __ZN9apple3dgs18TransformGaussiansERDv3_fRDv4_fS1_RKN4simd8float4x4E, 
                       __ZN9apple3dgs18TransformGaussiansERKNS_9AttributeES2_S2_mRKN4simd8float4x4ENS_14ActivationTypeERS0_S8_S8_, 
                       __ZN9apple3dgs19CFDictionaryGetBoolEPK14__CFDictionaryPKv, 
                       __ZN9apple3dgs19EstimateBoundingBoxEPU19objcproto9MTLBuffer11objc_objectjRDv3_fS3_, 
                       __ZN9apple3dgs19FlipYAxisMTLTextureEPU21objcproto10MTLTexture11objc_objectS1_R12MetalContextPU27objcproto16MTLCommandBuffer11objc_object, 
                       __ZN9apple3dgs19NDCDepthToRealDepthEPU21objcproto10MTLTexture11objc_objectS1_RK13simd_float4x4R12MetalContextPU27objcproto16MTLCommandBuffer11objc_object, 
                       __ZN9apple3dgs19NDCDepthToRealDepthEfRK13simd_float4x4, __ZN9apple3dgs19RealDepthToNDCDepthEfRK13simd_float4x4, 
                       __ZN9apple3dgs19SetHalfTextureValueEPU21objcproto10MTLTexture11objc_objectDv4_DF16_R12MetalContextPU27objcproto16MTLCommandBuffer11objc_object, 
                       __ZN9apple3dgs20CFDictionaryGetFloatEPK14__CFDictionaryPKv, 
                       __ZN9apple3dgs20SetFloatTextureValueEPU21objcproto10MTLTexture11objc_objectDv4_fR12MetalContextPU27objcproto16MTLCommandBuffer11objc_object, 
                       __ZN9apple3dgs20UpdateIndirectBufferER12MetalContextPU27objcproto16MTLCommandBuffer11objc_objectPU19objcproto9MTLBuffer11objc_objectRK34MTLDrawPrimitivesIndirectArguments, 
                       __ZN9apple3dgs20UpdateIndirectBufferER12MetalContextPU27objcproto16MTLCommandBuffer11objc_objectPU19objcproto9MTLBuffer11objc_objectS5_, 
                       __ZN9apple3dgs21CFDictionaryGetStringEPK14__CFDictionaryPKv, 
                       __ZN9apple3dgs21GetTemporaryDirectoryEv, __ZN9apple3dgs22FrontWeightedQuantilesEjff, 
                       __ZN9apple3dgs23ComputePrimitiveIndicesER12MetalContextPU27objcproto16MTLCommandBuffer11objc_objectPU19objcproto9MTLBuffer11objc_objectS5_j, 
                       __ZN9apple3dgs23ComputeRefinementWeightER12MetalContextPU27objcproto16MTLCommandBuffer11objc_objectPU21objcproto10MTLTexture11objc_objectS5_S5_RKN4simd8float3x3E, 
                       __ZN9apple3dgs23CreateMemoryLessTextureEPU19objcproto9MTLDevice11objc_object14MTLPixelFormatDv2_jj, 
                       __ZN9apple3dgs25TransformGaussiansInPlaceERNS_9AttributeES1_S1_mRKN4simd8float4x4ENS_14ActivationTypeE, 
                       __ZN9apple3dgs26PrecomputeDistanceAndColorER12MetalContextPU27objcproto16MTLCommandBuffer11objc_objectRKNS_5AssetERKNS_16RenderDescriptorERKNS_16SorterDescriptorEPU19objcproto9MTLBuffer11objc_objectPU21objcproto10MTLTexture11objc_object, 
                       __ZN9apple3dgs29ComputeFrontWeightedQuantilesEjRKNSt3__16vectorIfNS0_9allocatorIfEEEE, 
                       __ZN9apple3dgs30ComputeFrontWeightedBoundariesEjRKN4simd8float4x4EPU19objcproto9MTLBuffer11objc_objectm, 
                       __ZN9apple3dgs31CGColorSpaceGetTransferFunctionEP12CGColorSpace, 
                       __ZN9apple3dgs32CreateDepthBoundaryNearFarPlanesERKNSt3__16vectorIfNS0_9allocatorIfEEEE, 
                       __ZN9apple3dgs34CGColorSpaceCreateCopyWithSameNameEP12CGColorSpace, 
                       __ZN9apple3dgs35ComputeDepthBoundariesFromQuantilesEjRKN4simd8float4x4EPU19objcproto9MTLBuffer11objc_objectm, 
                       __ZN9apple3dgs36GetPixelTransformationFromMPIToImageERKN4simd8float3x3ES3_RKDv2_fS6_, 
                       __ZN9apple3dgs40ComputeDepthBoundariesFromHybridSamplingEjRKN4simd8float4x4EPU19objcproto9MTLBuffer11objc_objectmff, 
                       __ZN9apple3dgs41ComputeDepthBoundariesFromUniformSamplingEjRKN4simd8float4x4E, 
                       __ZN9apple3dgs44ComputeDepthBoundariesFromImportanceSamplingEjRKN4simd8float4x4EPU19objcproto9MTLBuffer11objc_objectmff, 
                       __ZN9apple3dgs47CGColorSpaceCreateSRGBGamutWithTransferFunctionENS_16TransferFunctionE, 
                       __ZN9apple3dgs49ComputeDepthBoundariesFromUniformNonEmptySamplingEjRKN4simd8float4x4EPU19objcproto9MTLBuffer11objc_objectm, 
                       __ZN9apple3dgs4det2Effff, __ZN9apple3dgs5Asset15ComputeCentroidEv, 
                       __ZN9apple3dgs5Asset17ComputeCovarianceEPU27objcproto16MTLCommandBuffer11objc_objectPU15__autoreleasingP7NSError, 
                       __ZN9apple3dgs5Asset22UpdateFromCachedTvDataEv, __ZN9apple3dgs5Asset9TransformEPU27objcproto16MTLCommandBuffer11objc_objectRKN4simd8float4x4EPU15__autoreleasingP7NSError, 
                       __ZN9apple3dgs5scopeE, __ZN9apple3dgs6Sorter13EncodeSortingEPU27objcproto16MTLCommandBuffer11objc_objectNSt3__14spanIKNS3_10shared_ptrIKNS_5AssetEEELm18446744073709551615EEENS5_IKNS_16SorterDescriptorEEENS5_IKNS_16RenderDescriptorEEEPU15__autoreleasingP7NSError, 
                       __ZN9apple3dgs6SorterC1EPU19objcproto9MTLDevice11objc_objectNSt3__14spanIKNS3_10shared_ptrIKNS_5AssetEEELm18446744073709551615EEERKNS_10SortWorker10ParametersE, 
                       __ZN9apple3dgs6SorterC2EPU19objcproto9MTLDevice11objc_objectNSt3__14spanIKNS3_10shared_ptrIKNS_5AssetEEELm18446744073709551615EEERKNS_10SortWorker10ParametersE, 
                       __ZN9apple3dgs6TVData7ParseTvERNSt3__113basic_istreamIcNS1_11char_traitsIcEEEEbb, 
                       __ZN9apple3dgs6TVData9LoadFrameEjPc, __ZN9apple3dgs6TVDataC1ERKNSt3__112basic_stringIcNS1_11char_traitsIcEENS1_9allocatorIcEEEEbib, 
                       __ZN9apple3dgs6TVDataC1ERKNSt3__112basic_stringIcNS1_11char_traitsIcEENS1_9allocatorIcEEEEjj, 
                       __ZN9apple3dgs6TVDataC2ERKNSt3__112basic_stringIcNS1_11char_traitsIcEENS1_9allocatorIcEEEEbib, 
                       __ZN9apple3dgs6TVDataC2ERKNSt3__112basic_stringIcNS1_11char_traitsIcEENS1_9allocatorIcEEEEjj, 
                       __ZN9apple3dgs6loadTvERKNSt3__14__fs10filesystem4pathEjPU19objcproto9MTLDevice11objc_objectRKNS_5Asset19AttributeDescriptorEPU15__autoreleasingP7NSError, 
                       __ZN9apple3dgs6resizeERKNSt3__16vectorIhNS0_9allocatorIhEEEEjjjjjRS4_, 
                       __ZN9apple3dgs7details23CreateMemoryLessTextureEPU21objcproto10MTLTexture11objc_object14MTLPixelFormatm, 
                       __ZN9apple3dgs7loadPlyERKNSt3__14__fs10filesystem4pathEPU19objcproto9MTLDevice11objc_objectRKNS_5Asset19AttributeDescriptorEPU15__autoreleasingP7NSError, 
                       __ZN9apple3dgs7savePlyERKNSt3__14__fs10filesystem4pathERKNS_5AssetE, 
                       __ZN9apple3dgs8Renderer21BuildBlendingPipelineEPU21objcproto10MTLLibrary11objc_objectPU27objcproto16MTLBinaryArchive11objc_objectRKNSt3__16vectorINS_15BlendingVariantENS5_9allocatorIS7_EEEE14MTLPixelFormatSD_PU15__autoreleasingP7NSErrorm, 
                       __ZN9apple3dgs8RendererC1EPU19objcproto9MTLDevice11objc_object14MTLPixelFormatS3_mPU15__autoreleasingP7NSError, 
                       __ZN9apple3dgs8RendererC1EPU19objcproto9MTLDevice11objc_objectRKNSt3__16vectorINS_15BlendingVariantENS3_9allocatorIS5_EEEERKNS0_10ParametersEPU15__autoreleasingP7NSError, 
                       __ZN9apple3dgs8RendererC2EPU19objcproto9MTLDevice11objc_object14MTLPixelFormatS3_mPU15__autoreleasingP7NSError, 
                       __ZN9apple3dgs8RendererC2EPU19objcproto9MTLDevice11objc_objectRKNSt3__16vectorINS_15BlendingVariantENS3_9allocatorIS5_EEEERKNS0_10ParametersEPU15__autoreleasingP7NSError, 
                       __ZN9apple3dgs9BoxFilterER12MetalContextPU35objcproto24MTLComputeCommandEncoder11objc_objectPU21objcproto10MTLTexture11objc_objectS5_i, 
                       __ZN9apple3dgs9LoadImageENSt3__14__fs10filesystem4pathEPU19objcproto9MTLDevice11objc_object14MTLPixelFormat, 
                       __ZN9apple3dgs9RefineMPIER12MetalContextPU27objcproto16MTLCommandBuffer11objc_objectPU19objcproto9MTLBuffer11objc_objectPU21objcproto10MTLTexture11objc_objectS7_S7_S7_S7_N4simd8float4x4EjNS_16TransferFunctionERKNS8_8float3x3E, 
                       __ZN9apple3dgs9SaveImageEPU21objcproto10MTLTexture11objc_objectP5NSURLNS_11kFileFormatEP12CGColorSpaceP7NSError, 
                       __ZN9apple3dgs9SaveImageEPU21objcproto10MTLTexture11objc_objectRKNSt3__14__fs10filesystem4pathEP12CGColorSpaceP7NSError, 
                       __ZN9apple3dgs9TVBuilder8SaveFileERKNSt3__112basic_stringIcNS1_11char_traitsIcEENS1_9allocatorIcEEEEj, 
                       __ZN9apple3dgs9TVBuilderC1Ejjj, __ZN9apple3dgs9TVBuilderC2Ejjj, 
                       __ZN9apple3dgslsERNSt3__113basic_ostreamIcNS0_11char_traitsIcEEEERKDv3_DF16_, 
                       __ZN9apple3dgslsERNSt3__113basic_ostreamIcNS0_11char_traitsIcEEEERKDv3_f, 
                       __ZN9apple3dgslsERNSt3__113basic_ostreamIcNS0_11char_traitsIcEEEERKDv4_DF16_, 
                       __ZN9apple3dgslsERNSt3__113basic_ostreamIcNS0_11char_traitsIcEEEERKDv4_f, 
                       __ZN9apple3dgslsERNSt3__113basic_ostreamIcNS0_11char_traitsIcEEEERKN4simd8float3x3E, 
                       __ZN9apple3dgslsERNSt3__113basic_ostreamIcNS0_11char_traitsIcEEEERKN4simd8float4x4E, 
                       __ZN9apple3dgslsERNSt3__113basic_ostreamIcNS0_11char_traitsIcEEEERKNS_16RenderDescriptorE, 
                       __ZN9apple3dgslsERNSt3__113basic_ostreamIcNS0_11char_traitsIcEEEERKNS_16SorterDescriptorE, 
                       __ZN9apple3dgslsERNSt3__113basic_ostreamIcNS0_11char_traitsIcEEEERKNS_17MultiLayerOptionsE, 
                       __ZN9apple3dgslsERNSt3__113basic_ostreamIcNS0_11char_traitsIcEEEERKNS_5Asset10PropertiesE, 
                       __ZN9apple3dgslsERNSt3__113basic_ostreamIcNS0_11char_traitsIcEEEERKNS_5Asset8DefaultsE, 
                       __ZN9apple3dgslsERNSt3__113basic_ostreamIcNS0_11char_traitsIcEEEERKNS_5AssetE, 
                       __ZNK4cv3d9aspenbase11concurrency12AsyncManager3ForEmNSt3__18functionIFvmEEEm, 
                       __ZNK4cv3d9aspenbase11concurrency12AsyncManager3ForEmNSt3__18functionIFvmRNS2_13ThreadContextEEEEm, 
                       __ZNK4cv3d9aspenbase11concurrency12AsyncManager4WaitEv, __ZNK4cv3d9aspenbase11concurrency12AsyncManager5FlushEv, 
                       __ZNK4cv3d9aspenbase11concurrency12AsyncManager5StartEm, __ZNK4cv3d9aspenbase11concurrency12AsyncManager8AsyncForEmNSt3__18functionIFvmEEEm, 
                       __ZNK4cv3d9aspenbase11concurrency12AsyncManager8AsyncForEmNSt3__18functionIFvmRNS2_13ThreadContextEEEEm, 
                       __ZNK9apple3dgs10SortWorker16GetInstanceCountEv, __ZNK9apple3dgs14MultiLayerData12GetRealDepthEjj, 
                       __ZNK9apple3dgs14MultiLayerData13GetColorArrayEjjj, __ZNK9apple3dgs14MultiLayerData13GetDepthArrayEjjj, 
                       __ZNK9apple3dgs14MultiLayerData14GetRenderedRGBEjj, __ZNK9apple3dgs14MultiLayerData16GetRenderedDepthEjj, 
                       __ZNK9apple3dgs14MultiLayerData16GetTransmittanceEjj, __ZNK9apple3dgs14MultiLayerData17GetHeapDescriptorERKNS_17MultiLayerOptionsE, 
                       __ZNK9apple3dgs14MultiLayerData20GetColorIntermediateEjj, 
                       __ZNK9apple3dgs14MultiLayerData20GetDepthIntermediateEjj, 
                       __ZNK9apple3dgs14MultiLayerData22GetRGBAArrayDescriptorEjjj, 
                       __ZNK9apple3dgs14MultiLayerData22GetRealDepthDescriptorEjj, 
                       __ZNK9apple3dgs14MultiLayerData22GetRefinementWeightmapEjj, 
                       __ZNK9apple3dgs14MultiLayerData23GetDepthArrayDescriptorEjjj, 
                       __ZNK9apple3dgs14MultiLayerData24GetRenderedRGBDescriptorEjj, 
                       __ZNK9apple3dgs14MultiLayerData25GetColorArrayIntermediateEjjj, 
                       __ZNK9apple3dgs14MultiLayerData25GetDepthArrayIntermediateEjjj, 
                       __ZNK9apple3dgs14MultiLayerData26GetRenderedDepthDescriptorEjj, 
                       __ZNK9apple3dgs14MultiLayerData26GetTransmittanceDescriptorEjj, 
                       __ZNK9apple3dgs14MultiLayerData29GetRGBAIntermediateDescriptorEjj, 
                       __ZNK9apple3dgs14MultiLayerData30GetDepthIntermediateDescriptorEjj, 
                       __ZNK9apple3dgs14MultiLayerData32GetRefinementWeightmapDescriptorEjj, 
                       __ZNK9apple3dgs14MultiLayerData34GetRGBAIntermediateArrayDescriptorEjjj, 
                       __ZNK9apple3dgs14MultiLayerData35GetDepthIntermediateArrayDescriptorEjjj, 
                       __ZNK9apple3dgs14PostAlphaBlend6EncodeEPU34objcproto23MTLRenderCommandEncoder11objc_objectRKNS_18DeferredUniformsFSEjPU15__autoreleasingP7NSError, 
                       __ZNK9apple3dgs15BlendingVariant20GetFunctionConstantsEv, 
                       __ZNK9apple3dgs7Refiner6EncodeEPU34objcproto23MTLRenderCommandEncoder11objc_objectRKNS_18DeferredUniformsFSEjPU15__autoreleasingP7NSError, 
                       __ZNK9apple3dgs8Renderer12EncodeRenderEPU34objcproto23MTLRenderCommandEncoder11objc_objectRNS_7ISorterEP23MTLRenderPassDescriptorRKNS_16RenderDescriptorEPU15__autoreleasingP7NSError, 
                       __ZNK9apple3dgs8Renderer15EncodeSplattingEPU27objcproto16MTLCommandBuffer11objc_objectRNS_7ISorterEP23MTLRenderPassDescriptorRKNS_16RenderDescriptorEPU15__autoreleasingP7NSError, 
                       __ZNK9apple3dgs8Renderer16EncodePostRenderEPU34objcproto23MTLRenderCommandEncoder11objc_objectRNS_7ISorterEP23MTLRenderPassDescriptorRKNS_16RenderDescriptorEPU15__autoreleasingP7NSError, 
                       __ZNK9apple3dgs8Renderer17UpdateSorterRangeEPU27objcproto16MTLCommandBuffer11objc_objectRNS_7ISorterERKNS_16RenderDescriptorE, 
                       __ZNK9apple3dgs8Renderer26CreateRenderPassDescriptorEPU21objcproto10MTLTexture11objc_objectS2_PU34objcproto23MTLRasterizationRateMap11objc_object, 
                       __ZNK9apple3dgs8Renderer26CreateRenderPassDescriptorEPU21objcproto10MTLTexture11objc_objectS2_S2_S2_PU34objcproto23MTLRasterizationRateMap11objc_object, 
                       __ZNK9apple3dgs8Renderer28CreateDeferredRenderPipelineEPU27objcproto16MTLBinaryArchive11objc_objectPU22objcproto11MTLFunction11objc_objectS4_PU15__autoreleasingP7NSError, 
                       __ZNK9apple3dgs9TVBuilder14GetFrameDataV1Ejj, __ZNK9apple3dgs9TVBuilder14GetFrameDataV2Ejj, 
                       __ZNK9apple3dgs9TVBuilder18GetStaticColorDataEj, __ZTIN4cv3d9aspenbase11concurrency6Thread19ThreadFuncInterfaceE, 
                       __ZTIN4cv3d9aspenbase11concurrency6ThreadE, __ZTIN9apple3dgs12UniqueSorterE, 
                       __ZTIN9apple3dgs14PostAlphaBlendE, __ZTIN9apple3dgs6SorterE, 
                       __ZTIN9apple3dgs7RefinerE, __ZTSN4cv3d9aspenbase11concurrency6Thread19ThreadFuncInterfaceE, 
                       __ZTSN4cv3d9aspenbase11concurrency6ThreadE, __ZTSN9apple3dgs12UniqueSorterE, 
                       __ZTSN9apple3dgs14PostAlphaBlendE, __ZTSN9apple3dgs6SorterE, 
                       __ZTSN9apple3dgs7RefinerE, __ZTVN4cv3d9aspenbase11concurrency6Thread19ThreadFuncInterfaceE, 
                       __ZTVN4cv3d9aspenbase11concurrency6ThreadE, __ZTVN9apple3dgs12UniqueSorterE, 
                       __ZTVN9apple3dgs14PostAlphaBlendE, __ZTVN9apple3dgs6SorterE, 
                       __ZTVN9apple3dgs7RefinerE, __gs_log ]
    objc-classes:    [ GSAsset, GSConvertMXIOption, GSMultiLayerRenderer, GSRenderDescriptor, 
                       GSRenderer, GSSorter, GSSorterDescriptor, MetalContextDummy, 
                       RendererDummy ]
    weak-symbols:    [ __ZN9apple3dgs3SVDIdEENSt3__15tupleIJN4simd6MatrixIT_Lm3ELm3EE4typeENS3_6VectorIS5_Lm3EE4typeES7_EEERKS7_, 
                       __ZN9apple3dgs3SVDIfEENSt3__15tupleIJN4simd6MatrixIT_Lm3ELm3EE4typeENS3_6VectorIS5_Lm3EE4typeES7_EEERKS7_, 
                       __ZNSt3__119piecewise_constructE ]
...
