--- !tapi-tbd
tbd-version:     4
targets:         [ x86_64-macos, arm64-macos, arm64e-macos ]
install-name:    '/System/Library/PrivateFrameworks/CoreAudioOrchestration.framework/Versions/A/CoreAudioOrchestration'
swift-abi-version: 7
exports:
  - targets:         [ x86_64-macos ]
    weak-symbols:    [ __ZTI14IOProcCallable, __ZTI17ADMIOConfigurable, __ZTI20LapseHandlerCallable, 
                       __ZTS14IOProcCallable, __ZTS17ADMIOConfigurable, __ZTS20LapseHandlerCallable ]
  - targets:         [ x86_64-macos, arm64-macos, arm64e-macos ]
    symbols:         [ '_$s22CoreAudioOrchestration08IsolatedaB12ClientServerC13StartIOAtTime04hostI0s5Int32Vs6UInt64V_tFZ', 
                       '_$s22CoreAudioOrchestration08IsolatedaB12ClientServerC15InstallCallback6ioProc10clientDatas5Int32VAHs6UInt64V_AJSvSgtXCSg_SvtFZ', 
                       '_$s22CoreAudioOrchestration08IsolatedaB12ClientServerC17UninstallCallbacks5Int32VyFZ', 
                       '_$s22CoreAudioOrchestration08IsolatedaB12ClientServerC19InstallLapseHandler05lapseI010clientDatas5Int32VyAH_SvSgtXCSg_SvtFZ', 
                       '_$s22CoreAudioOrchestration08IsolatedaB12ClientServerC6StopIOs5Int32VyFZ', 
                       '_$s22CoreAudioOrchestration08IsolatedaB12ClientServerC7StartIOs5Int32VyFZ', 
                       '_$s22CoreAudioOrchestration08IsolatedaB12ClientServerCACycfC', 
                       '_$s22CoreAudioOrchestration08IsolatedaB12ClientServerCACycfc', 
                       '_$s22CoreAudioOrchestration08IsolatedaB12ClientServerCMa', 
                       '_$s22CoreAudioOrchestration08IsolatedaB12ClientServerCMn', 
                       '_$s22CoreAudioOrchestration08IsolatedaB12ClientServerCMo', 
                       '_$s22CoreAudioOrchestration08IsolatedaB12ClientServerCN', 
                       '_$s22CoreAudioOrchestration08IsolatedaB12ClientServerCfD', 
                       '_$s22CoreAudioOrchestration0aB19OrchestratorFactoryC03GetD0SoAA_pyFZ', 
                       '_$s22CoreAudioOrchestration0aB19OrchestratorFactoryCACycfC', 
                       '_$s22CoreAudioOrchestration0aB19OrchestratorFactoryCACycfc', 
                       '_$s22CoreAudioOrchestration0aB19OrchestratorFactoryCMa', 
                       '_$s22CoreAudioOrchestration0aB19OrchestratorFactoryCMn', 
                       '_$s22CoreAudioOrchestration0aB19OrchestratorFactoryCMo', 
                       '_$s22CoreAudioOrchestration0aB19OrchestratorFactoryCN', '_$s22CoreAudioOrchestration0aB19OrchestratorFactoryCfD', 
                       '_$s22CoreAudioOrchestration36CreateOrchestratorClientPortalForHADyyF', 
                       _CoreAudioOrchestrationVersionNumber, _CoreAudioOrchestrationVersionString, 
                       _GetCoreAudioOrchestrator, _InstallCallbackForOrchestratorIsolatedAudio, 
                       _InstallCallbackForOrchestratorLapseHandling, _StartOrchestratorIsolatedAudio, 
                       _StartOrchestratorIsolatedAudioAtTime, _StopOrchestratorIsolatedAudio, 
                       _UninstallCallbackForOrchestratorIsolatedAudio, __Z10StopIOProcjPFijPK14AudioTimeStampPK15AudioBufferListS1_PS2_S1_PvE, 
                       __Z11LapseEventsv, __Z11StartIOProcjPFijPK14AudioTimeStampPK15AudioBufferListS1_PS2_S1_PvE, 
                       __Z12ADMContextIDv, __Z12CreateIOProcjPPFijPK14AudioTimeStampPK15AudioBufferListS1_PS2_S1_PvEP14IOProcCallable, 
                       __Z13DestroyIOProcjPFijPK14AudioTimeStampPK15AudioBufferListS1_PS2_S1_PvE, 
                       __Z17StartIOProcAtTimejPFijPK14AudioTimeStampPK15AudioBufferListS1_PS2_S1_PvEy, 
                       __Z33CreateLapseHandlingEventListenersjP20LapseHandlerCallable, 
                       __Z34DestroyLapseHandlingEventListenersj, __ZN11IOProcBrain10doClientIOE15IOProcArguments, 
                       __ZN11IOProcBrain10doDSPInputE15IOProcArguments, __ZN11IOProcBrain14configureADMIOERK18ADMIOConfiguration, 
                       __ZN11IOProcBrain19installClientIOProcEPFiyyPvES0_, __ZN11IOProcBrain21uninstallClientIOProcEv, 
                       __ZN11IOProcBrain4doIOE15IOProcArguments, __ZN11IOProcBrainC1Ev, 
                       __ZN11IOProcBrainC2Ev, __ZN11IOProcBrainD1Ev, __ZN11IOProcBrainD2Ev, 
                       __ZN14IOLapseHandler15setIOHasStartedEb, __ZN14IOLapseHandlerC1EPFviPvES0_, 
                       __ZN14IOLapseHandlerC2EPFviPvES0_, __ZN14IOLapseHandlerD1Ev, 
                       __ZN14IOLapseHandlerD2Ev, __ZN5ADMIO14configureADMIOERK18ADMIOConfiguration, 
                       __ZN5ADMIO17ADMStreamsAndABLsC1Emm, __ZN5ADMIO17ADMStreamsAndABLsC2Emm, 
                       __ZN5ADMIO26translateABLsToProc_StreamEPK15AudioBufferListN2CA9TimeStampERKNSt3__16vectorImNS5_9allocatorImEEEERNS6_IN4AMCP11Proc_StreamENS7_ISD_EEEE, 
                       __ZN5ADMIO26translateABLsToProc_StreamERK15IOProcArguments, 
                       __ZN5ADMIO4doIOE15IOProcArguments, __ZN5ADMIO9timeStampEPK14AudioTimeStamp, 
                       __ZNK14IOLapseHandler11handleLapseEi, __ZTI11IOProcBrain, 
                       __ZTI14IOLapseHandler, __ZTI5ADMIO, __ZTS11IOProcBrain, __ZTS14IOLapseHandler, 
                       __ZTS5ADMIO, __ZTV11IOProcBrain, __ZTV14IOLapseHandler, __ZTV5ADMIO, 
                       __ZThn8_N11IOProcBrain14configureADMIOERK18ADMIOConfiguration, 
                       __ZThn8_N5ADMIO14configureADMIOERK18ADMIOConfiguration ]
    objc-classes:    [ CoreAudioOrchestration_ADM_Loader, DSPController, OrchestratorClientIOLapseHandler, 
                       OrchestratorClientIOProc, _TtC22CoreAudioOrchestration28CoreAudioOrchestratorFactory, 
                       _TtC22CoreAudioOrchestration29IsolatedCoreAudioClientServer ]
...
