--- !tapi-tbd
tbd-version:     4
targets:         [ x86_64-macos, arm64-macos, arm64e-macos ]
install-name:    '/System/Library/PrivateFrameworks/ISPExclaveKitServices.framework/Versions/A/ISPExclaveKitServices'
exports:
  - targets:         [ x86_64-macos, arm64-macos, arm64e-macos ]
    symbols:         [ _ISPExclaveKitServicesVersionNumber, _ISPExclaveKitServicesVersionString, 
                       __Z14_getDeviceTypev, __Z15channelStateGetj, __Z17channelStateResetv, 
                       __Z18channelStateUpdatej22eIspExclaveKitChSignal, __Z20exclaveKitDefaultGetP21ISPExclaveKitDefaults19eExclaveKitDefaults, 
                       __Z20getConfigurationType27ISPExclaveConfigurationType, __Z20ispExclaveKitCommandP20sExclaveKitIspCmdHdr, 
                       __Z21exclaveKitReadDefaultPK10__CFStringS1_i, __Z22exclaveKitDefaultsInitP21ISPExclaveKitDefaults, 
                       __Z23exclaveKitDefaultsResetP21ISPExclaveKitDefaults, __Z24ispExclaveKitCommandChOnP20sExclaveKitIspCmdHdr, 
                       __Z25ispExclaveKitCommandChOffP20sExclaveKitIspCmdHdr, __Z26ispExclaveKitCommandChStopP20sExclaveKitIspCmdHdr, 
                       __Z27ispExclaveKitCommandChRunAdP20sExclaveKitIspCmdHdr, __Z27ispExclaveKitCommandChRunAeP20sExclaveKitIspCmdHdr, 
                       __Z27ispExclaveKitCommandChRunErP20sExclaveKitIspCmdHdr, __Z27ispExclaveKitCommandChRunFdP20sExclaveKitIspCmdHdr, 
                       __Z27ispExclaveKitCommandChRunMdP20sExclaveKitIspCmdHdr, __Z27ispExclaveKitCommandChStartP20sExclaveKitIspCmdHdr, 
                       __Z28_generateIdlAlgoEnableBitMap25eIspExclaveKitServiceTypePb, 
                       __Z28_generateIdlAlgoEnableBitMapPb, __Z28isUsingSearApprovedInterfacej, 
                       __Z28ispExclaveKitCommandChDpcSetP20sExclaveKitIspCmdHdr, 
                       __Z28ispExclaveKitCommandChLscSetP20sExclaveKitIspCmdHdr, 
                       __Z28ispExclaveKitCommandChPdpSetP20sExclaveKitIspCmdHdr, 
                       __Z28ispExclaveKitCommandChRunIspP20sExclaveKitIspCmdHdr, 
                       __Z29ispExclaveKitCommandChInfoSetP20sExclaveKitIspCmdHdr, 
                       __Z29ispExclaveKitCommandChRunAndkP20sExclaveKitIspCmdHdr, 
                       __Z29ispExclaveKitCommandChRunAnstP20sExclaveKitIspCmdHdr, 
                       __Z31_ispExclaveKitCommandAlgoEnablej25eIspExclaveKitServiceType, 
                       __Z32ispExclaveKitCommandChAlgoEnableP20sExclaveKitIspCmdHdr, 
                       __Z32ispExclavePrivatePropertiesResetv, __Z33ispExclaveGetServiceTypeFromChIdxj, 
                       __Z33ispExclaveKitCommandChAdConfigSetP20sExclaveKitIspCmdHdr, 
                       __Z33ispExclaveKitCommandDeviceInfoGetP20sExclaveKitIspCmdHdr, 
                       __Z33ispExclaveKitCommandFrameworkInitP20sExclaveKitIspCmdHdr, 
                       __Z34_ispExclaveKitCommandChAdConfigSetj, __Z34ispExclaveKitCommandChAeGainCapSetP20sExclaveKitIspCmdHdr, 
                       __Z34ispExclaveKitCommandChExfiltrationP20sExclaveKitIspCmdHdr, 
                       __Z34ispExclaveKitCommandChInfiltrationP20sExclaveKitIspCmdHdr, 
                       __Z34ispExclaveKitCommandChPropertyReadP20sExclaveKitIspCmdHdr, 
                       __Z34ispExclaveKitCommandChSendMetadataP20sExclaveKitIspCmdHdr, 
                       __Z35ispExclaveKitCommandChPropertyWriteP20sExclaveKitIspCmdHdr, 
                       __Z35ispExclaveKitCommandChRunPerceptionP20sExclaveKitIspCmdHdr, 
                       __Z35searApprovedInterfaceSwitcherUpdateb, __Z36ispExclaveKitCommandChAeUpdateResumeP20sExclaveKitIspCmdHdr, 
                       __Z36ispExclaveKitCommandChOnSearApprovedP20sExclaveKitIspCmdHdr, 
                       __Z37ispExclaveKitCommandChAeUpdateSuspendP20sExclaveKitIspCmdHdr, 
                       __Z37ispExclaveKitCommandChCameraConfigSetP20sExclaveKitIspCmdHdr, 
                       __Z37ispExclaveKitCommandChDebugCapabilityP20sExclaveKitIspCmdHdr, 
                       __Z37ispExclaveKitCommandChOffSearApprovedP20sExclaveKitIspCmdHdr, 
                       __Z38ispExclaveKitCommandChAeFlickerFreqSetP20sExclaveKitIspCmdHdr, 
                       __Z38ispExclaveKitCommandChAeInitSettingGetP20sExclaveKitIspCmdHdr, 
                       __Z38ispExclaveKitCommandChFacekitConfigSetP20sExclaveKitIspCmdHdr, 
                       __Z38ispExclaveKitCommandChFrameRateControlP20sExclaveKitIspCmdHdr, 
                       __Z38ispExclaveKitCommandChStopSearApprovedP20sExclaveKitIspCmdHdr, 
                       __Z39_ispExclaveKitCommandChFacekitConfigSetj, __Z39_ispExclaveKitCommandChFrameRateControlj25eIspExclaveKitServiceType, 
                       __Z39ispExclaveKitCommandChAeFrameRateMaxGetP20sExclaveKitIspCmdHdr, 
                       __Z39ispExclaveKitCommandChAeFrameRateMaxSetP20sExclaveKitIspCmdHdr, 
                       __Z39ispExclaveKitCommandChAeFrameRateMinGetP20sExclaveKitIspCmdHdr, 
                       __Z39ispExclaveKitCommandChAeFrameRateMinSetP20sExclaveKitIspCmdHdr, 
                       __Z39ispExclaveKitCommandChConcurrentFlagSetP20sExclaveKitIspCmdHdr, 
                       __Z39ispExclaveKitCommandChRunAdSearApprovedP20sExclaveKitIspCmdHdr, 
                       __Z39ispExclaveKitCommandChRunAeSearApprovedP20sExclaveKitIspCmdHdr, 
                       __Z39ispExclaveKitCommandChRunErSearApprovedP20sExclaveKitIspCmdHdr, 
                       __Z39ispExclaveKitCommandChRunFdSearApprovedP20sExclaveKitIspCmdHdr, 
                       __Z39ispExclaveKitCommandChRunMdSearApprovedP20sExclaveKitIspCmdHdr, 
                       __Z39ispExclaveKitCommandChStartSearApprovedP20sExclaveKitIspCmdHdr, 
                       __Z40ispExclaveKitCommandChFacekitConfigSetV2P20sExclaveKitIspCmdHdr, 
                       __Z40ispExclaveKitCommandChLscSetSearApprovedP20sExclaveKitIspCmdHdr, 
                       __Z40ispExclaveKitCommandChPdpSetSearApprovedP20sExclaveKitIspCmdHdr, 
                       __Z40ispExclaveKitCommandChRunIspSearApprovedP20sExclaveKitIspCmdHdr, 
                       __Z41_ispExclaveKitCommandChFacekitConfigSetV2j, __Z41ispExclaveKitCommandChInfoSetSearApprovedP20sExclaveKitIspCmdHdr, 
                       __Z41ispExclaveKitCommandChPerceptionConfigSetP20sExclaveKitIspCmdHdr, 
                       __Z41ispExclaveKitCommandChRunAndkSearApprovedP20sExclaveKitIspCmdHdr, 
                       __Z41ispExclaveKitCommandChRunAnstSearApprovedP20sExclaveKitIspCmdHdr, 
                       __Z41ispExclaveKitCommandChRunFacekitFirstPassP20sExclaveKitIspCmdHdr, 
                       __Z42_ispExclaveKitCommandChPerceptionConfigSetj, __Z42ispExclaveKitCommandChAeIntegrationGainSetP20sExclaveKitIspCmdHdr, 
                       __Z42ispExclaveKitCommandChRunFacekitSecondPassP20sExclaveKitIspCmdHdr, 
                       __Z43_ispExclaveKitCommandAlgoEnableSearApprovedj, __Z43ispExclaveKitCommandChRunFacekitFirstPassV2P20sExclaveKitIspCmdHdr, 
                       __Z44ispExclaveKitCommandChRunFacekitSecondPassV2P20sExclaveKitIspCmdHdr, 
                       __Z45ispExclaveKitCommandChAdConfigSetSearApprovedP20sExclaveKitIspCmdHdr, 
                       __Z45ispExclaveKitCommandChAeIntegrationTimeMaxSetP20sExclaveKitIspCmdHdr, 
                       __Z45ispExclaveKitCommandChConfigurationStatusReadP20sExclaveKitIspCmdHdr, 
                       __Z46ispExclaveKitCommandChExfiltrationSearApprovedP20sExclaveKitIspCmdHdr, 
                       __Z46ispExclaveKitCommandChInfiltrationSearApprovedP20sExclaveKitIspCmdHdr, 
                       __Z46ispExclaveKitCommandChPropertyReadSearApprovedP20sExclaveKitIspCmdHdr, 
                       __Z46ispExclaveKitCommandChSendMetadataSearApprovedP20sExclaveKitIspCmdHdr, 
                       __Z47ispExclaveKitCommandChPropertyWriteSearApprovedP20sExclaveKitIspCmdHdr, 
                       __Z47ispExclaveKitCommandChRunPerceptionSearApprovedP20sExclaveKitIspCmdHdr, 
                       __Z49ispExclaveKitCommandChCameraConfigSetSearApprovedP20sExclaveKitIspCmdHdr, 
                       __Z49ispExclaveKitCommandChDebugCapabilitySearApprovedP20sExclaveKitIspCmdHdr, 
                       __Z50ispExclaveKitCommandChAeFlickerFreqSetSearApprovedP20sExclaveKitIspCmdHdr, 
                       __Z50ispExclaveKitCommandChAeInitSettingGetSearApprovedP20sExclaveKitIspCmdHdr, 
                       __Z50ispExclaveKitCommandChFrameRateControlSearApprovedP20sExclaveKitIspCmdHdr, 
                       __Z51ispExclaveKitCommandChAeFrameRateMaxGetSearApprovedP20sExclaveKitIspCmdHdr, 
                       __Z51ispExclaveKitCommandChAeFrameRateMaxSetSearApprovedP20sExclaveKitIspCmdHdr, 
                       __Z51ispExclaveKitCommandChAeFrameRateMinGetSearApprovedP20sExclaveKitIspCmdHdr, 
                       __Z51ispExclaveKitCommandChAeFrameRateMinSetSearApprovedP20sExclaveKitIspCmdHdr, 
                       __Z51ispExclaveKitCommandChConcurrentFlagSetSearApprovedP20sExclaveKitIspCmdHdr, 
                       __Z54_ispExclaveKitCommandChPerceptionConfigSetSearApprovedj, 
                       __Z57ispExclaveKitCommandChConfigurationStatusReadSearApprovedP20sExclaveKitIspCmdHdr, 
                       __Z59ispExclavePrivatePropertiesReset_algoFrameRateControlCachedbb, 
                       _algorithmTypeAvailablePerDevice, _algorithmTypeToConclaveName, 
                       _algorithmTypeToServiceType, _exclaveKitDefaultsNameList, 
                       _properties, _usingSearApprovedHandler ]
...
