--- !tapi-tbd
tbd-version:     4
targets:         [ x86_64-macos, x86_64-maccatalyst, arm64-macos, arm64-maccatalyst, 
                   arm64e-macos, arm64e-maccatalyst ]
install-name:    '/System/Library/PrivateFrameworks/ANSTKit.framework/Versions/A/ANSTKit'
current-version: 2.5.28
exports:
  - targets:         [ x86_64-macos, x86_64-maccatalyst ]
    weak-symbols:    [ __ZTIN9KCFHelper16KalmanFilterXYAHE, __ZTIN9KCFHelper9BaseTrackE, 
                       __ZTINSt3__120__shared_ptr_emplaceIN9KCFHelper6STrackENS_9allocatorIS2_EEEE, 
                       __ZTSN9KCFHelper16KalmanFilterXYAHE, __ZTSN9KCFHelper9BaseTrackE, 
                       __ZTSNSt3__120__shared_ptr_emplaceIN9KCFHelper6STrackENS_9allocatorIS2_EEEE ]
  - targets:         [ x86_64-macos, x86_64-maccatalyst, arm64-macos, arm64-maccatalyst, 
                       arm64e-macos, arm64e-maccatalyst ]
    symbols:         [ _ANSTActionClassifierVersionToNSString, _ANSTActionDetectorVersionToNSString, 
                       _ANSTActionToNSString, _ANSTActionTypeClap, _ANSTActionTypeHeartOneHand, 
                       _ANSTActionTypeHeartTwoHands, _ANSTActionTypeHighKnee, _ANSTActionTypeJogging, 
                       _ANSTActionTypeJumping, _ANSTActionTypeJumpingJack, _ANSTActionTypeLunge, 
                       _ANSTActionTypeNoAction, _ANSTActionTypeNoGesture, _ANSTActionTypePushUp, 
                       _ANSTActionTypeReadBook, _ANSTActionTypeRock, _ANSTActionTypeRunning, 
                       _ANSTActionTypeShaka, _ANSTActionTypeShrug, _ANSTActionTypeSitUp, 
                       _ANSTActionTypeSitting, _ANSTActionTypeSquat, _ANSTActionTypeStanding, 
                       _ANSTActionTypeTalkOnPhone, _ANSTActionTypeTextOnPhone, _ANSTActionTypeThanks, 
                       _ANSTActionTypeThumbsDown, _ANSTActionTypeThumbsUp, _ANSTActionTypeUnknown, 
                       _ANSTActionTypeUseLaptop, _ANSTActionTypeUseTablet, _ANSTActionTypeVictory, 
                       _ANSTActionTypeWalking, _ANSTAssetTypeToNSString, _ANSTErrorDomain, 
                       _ANSTExclaveAlgorithmResolutionToNSString, _ANSTExclaveAlgorithmVersionToNSString, 
                       _ANSTFaceAttributeAlgorithmVersionToNSString, _ANSTForegroundSegmentationResolutionToNSString, 
                       _ANSTForegroundSegmentationVersionToNSString, _ANSTFrameRateToNSString, 
                       _ANSTISPAlgorithmResolutionToNSString, _ANSTISPAlgorithmRunningFrameRateToNSString, 
                       _ANSTISPAlgorithmVersionToNSString, _ANSTISPInferenceFrameRateToNSString, 
                       _ANSTISPInferenceResolutionToNSString, _ANSTISPInferenceVersionToNSString, 
                       _ANSTImageOrientationToNSString, _ANSTInputModalityToNSString, 
                       _ANSTKitVersionNumber, _ANSTKitVersionString, _ANSTLabelDetectionFrameRateToNSString, 
                       _ANSTLabelDetectionResolutionToNSString, _ANSTLabelDetectionVersionToNSString, 
                       _ANSTObjectCategoryAction, _ANSTObjectCategoryBody, _ANSTObjectCategoryCatBody, 
                       _ANSTObjectCategoryCatHead, _ANSTObjectCategoryDogBody, _ANSTObjectCategoryDogHead, 
                       _ANSTObjectCategoryFace, _ANSTObjectCategoryFromAcDetCategory, 
                       _ANSTObjectCategoryFullBody, _ANSTObjectCategoryHand, _ANSTObjectCategoryLabel, 
                       _ANSTObjectCategoryOtherAnimal, _ANSTObjectCategorySaliency, 
                       _ANSTObjectCategorySportsball, _ANSTPersonInstanceSegmentationResolutionToNSString, 
                       _ANSTPersonInstanceSegmentationVersionToNSString, _ANSTSemanticCategoryHair, 
                       _ANSTSemanticCategoryPerson, _ANSTSemanticCategorySaliency, 
                       _ANSTSemanticCategorySalientPerson, _ANSTSemanticCategorySkin, 
                       _ANSTSemanticCategorySky, _ANSTTensorDataTypeGetPreferredAlignment, 
                       _ANSTTensorDataTypeGetSize, _ANSTTensorDataTypeIsFloatingPoint, 
                       _ANSTTensorDataTypeToNSString, _ANSTViSegHQInferenceResolutionToNSString, 
                       _ANSTViSegHQInferenceVersionToNSString, _ANSTVideoFeatureExtractorVersionToNSString, 
                       _ANSTVideoFoundationModelVersionToNSString, _ANSTVideoMaskRefineAlgorithmVersionToNSString, 
                       _ANSTVideoMaskRefinerHQResolutionToNSString, _ANSTVideoMaskRefinerHQVersionToNSString, 
                       _AcANSTCreate, _AcANSTDestroy, _AcANSTGetParams, _AcANSTPostProcess, 
                       _AcANSTPostProcessEKv1, _AcANSTPostProcessMultiNetOutputs, 
                       _AcANSTPostProcessNetOutputs, _AcANSTPreProcessRef, _AcANSTSetRunSaliency, 
                       _AcANSTSetRunSaliencyObjectDetection, _AcANSTSetRunViSeg, 
                       _AcANSTStart, _AcANSTStop, _AcANSTUseLowThresholds, _AcAttrCreate, 
                       _AcAttrDestroy, _AcAttrGetParams, _AcAttrPostProcess, _AcAttrPostProcessNetOutputs, 
                       _AcAttrPreProcess, _AcAttrPreProcessCropResizeRef, _AcAttrStart, 
                       _AcAttrStop, _AcCommitHash, _AcImageOrientationFromANSTImageOrientation, 
                       _AcV1CommitHash, __ANSTLoggingGetOSLogForCategoryANSTKit, 
                       __Z10acFaceNullv, __Z10bmSoftmax2ff, __Z10performNMSRNSt3__16vectorI12AcObjectMaskNS_9allocatorIS1_EEEEf, 
                       __Z10performNMSRNSt3__16vectorI9AcDetRectNS_9allocatorIS1_EEEERNS0_IiNS2_IiEEEEf, 
                       __Z10vectorNormPKfj, __Z11_carr_densejPPdjPiS1_S1_S_, __Z11_find_densejjPdPiS0_, 
                       __Z11_scan_densejPPdPjS1_S_PiS2_S2_S_, __Z11acFaceResetR6AcFace, 
                       __Z12_ccrrt_densejPPdPiS1_S1_S_, __Z12acAttrEyeLocPKfRK6AcRect, 
                       __Z13acDetRectAreaRK9AcDetRect, __Z13acDetRectNullv, __Z13acNMSFaceHeadPK9AcDetRectjPS_Rjf, 
                       __Z13getInitialPosRK8BmBufferRK8AcObjectPvmhR6AcRectRb, __Z14acDetRectWidthRK9AcDetRect, 
                       __Z14acObjectToFaceRK8AcObject, __Z14cosineDistancePKfS0_j, 
                       __Z14lapjv_internaljPPdPiS1_, __Z15acAssoPointNullv, __Z15acAttrReduceYawPK8BmBufferPKfj, 
                       __Z15acDetRectHeightRK9AcDetRect, __Z15find_path_densejPPdiPiS_S1_, 
                       __Z16acAttrReduceRollPK8BmBufferPKfS3_j, __Z16acDetRectCenterXRK9AcDetRect, 
                       __Z16acDetRectCenterYRK9AcDetRect, __Z16acDetRectOverlapRK9AcDetRectS1_, 
                       __Z16acObjectFromFaceRK6AcFace, __Z16acTrkGroupAssignP11AcTrkObjectjS0_j18sCIspAcDetCategoryS1_RK22AcTrkGroupAssignParamsRjP22AcTrkGroupTemporalInfoS5_Phj, 
                       __Z16acTrkProcGroupIDPK11AcTrkObjectjS1_jS1_jPKjS3_S3_S3_S3_S3_PjS4_S4_Rj, 
                       __Z16partialFaceCheckRK6AcFacejjf, __Z16simResizeVisPipeRK8BmBufferRS_S2_ff22SimResizeVisPipeMethodffj, 
                       __Z17acAssoPostProcessP13AcANSTContextPK13AcANSTControl8BmBufferP8AcResultP11AcANSTState, 
                       __Z17acAttrReduceBlinkPK8BmBufferjjRb, __Z17acAttrReducePitchPK8BmBufferPKfj, 
                       __Z17acAttrReduceSmilePK8BmBufferj, __Z17acCheckOverlapBoxP9AcDetRectjS_ff, 
                       __Z17acClassASuppressBPK9AcDetRectjPS_Rjf, __Z17acDetRectFromFaceRK6AcFace, 
                       __Z17acLGroupHandFbodyP11AcTrkObjectjS0_jP11AcAssoPointS2_Pf18sCIspAcDetCategoryPjRjS5_S6_jjPhjRK27AcLearningGroupAssignParams, 
                       __Z17acTrkHandbyLGroupP11AcTrkObjectjP14AcFaceInternaljS2_jP11AcAssoPointS4_S4_PKfRjP14AcTrackbyGroupjS7_jjPhjRK27AcLearningGroupAssignParamsRK22AcTrkObjectAssocParams, 
                       __Z17bmBufferResizeCHWRK8BmBuffer18BmBufferResizeModejRS_, 
                       __Z17faceValidJudgmentRK6AcFacejfffff, __Z18acAcObjectMaskNullv, 
                       __Z18acDetRectIntersectRK9AcDetRectS1_, __Z18acFaceInternalNullv, 
                       __Z18acTrkGetTrackGroupPK14AcTrackbyGroupjjRj, __Z18acTrkLGroupIoUCostP11AcAssoPointjPKS_jPfjjj18sCIspAcDetCategoryPjRK27AcLearningGroupAssignParams, 
                       __Z18acTrkObjectAgeCompPKvS0_, __Z18acTrkObjectPickDetjjP11AcTrkObjectjjPK14AcFaceInternaljPjRjP22AcTrkObjectDetPriorityjS4_jbj, 
                       __Z18bmMunkresTempBytesj, __Z18updateEmbeddedFeatPKfPfj, __Z18vectorScaleInPlacePffj, 
                       __Z19acDetNodeConfigEKv1v, __Z19acFaceInternalResetR14AcFaceInternal, 
                       __Z19acGenealizedOverlapRK9AcDetRectS1_, __Z19acNonMaxSuppressionP9AcDetRectjffPij, 
                       __Z19acTrkLGroupHandAssoP11AcTrkObjectjS0_jP11AcAssoPointS2_S2_jjPhjRK27AcLearningGroupAssignParams, 
                       __Z19acTrkObjectPriorityjjRK14AcFaceInternal, __Z19acTrkTermClassIndex18sCIspAcDetCategory, 
                       __Z19deleteObjectsWithIdPjjjj, __Z19pythonModuloForAssoii, 
                       __Z20AcANSTGetProcedureIdP13AcANSTContextRj, __Z20acAssoNodeConfigEKv1v, 
                       __Z20acDetNodeConfigISPv3v, __Z20acDetRectSizeComparePKvS0_, 
                       __Z20acFaceInternalToFaceRK14AcFaceInternalRK16AcFacailLandmarkS4_b, 
                       __Z20acRemoveOverlapBoxesP9AcDetRectjfPhj, __Z20acTrkHandAssocTrkDetjjP11AcTrkObjectjjP14AcFaceInternaljRK22AcTrkObjectAssocParamsRK21AcSlowBootAccocParamsRjS9_S9_P17AcTentativeObjectS9_PKfPKiPKS_jPjjPhj, 
                       __Z20acTrkObjectRearrangeP11AcTrkObjectPKjPhj, __Z20computeIntegralImageRK8BmBufferRS_, 
                       __Z20simResizeVisPipeAreaRK8BmBufferRS_ffffS2_, __Z21acAssoNodeConfigISPv3v, 
                       __Z21acDetRectClassComparePKvS0_, __Z21acDetRectScoreComparePKvS0_, 
                       __Z21acFaceSkinToneMappingR6AcFace, __Z21mapBoxCenterToFeatMapRK6AcRect8BmBufferjjjRf, 
                       __Z22AcANSTPostProcessISPV2P13AcANSTContextP13AcANSTControlPK23AcANSTNetBufferPointersP11AcANSTStateP17AcANSTISPv2Result, 
                       __Z22AcANSTPostProcessISPV3P13AcANSTContextP13AcANSTControlPK23AcANSTNetBufferPointersP11AcANSTStateP17AcANSTISPv3Result, 
                       __Z22acCheckHeadOverlapFacePK9AcDetRectjS_f, __Z22acDetRectFilterByScoreP9AcDetRectjPf, 
                       __Z22acObjectToFaceInternalRK8AcObject, __Z22acSmallestEnclosingBoxRK9AcDetRectS1_, 
                       __Z22acTrkObjectAssocTrkDetjjP11AcTrkObjectjjP14AcFaceInternaljRK22AcTrkObjectAssocParamsRK21AcSlowBootAccocParamsRjS9_S9_P17AcTentativeObjectS9_PKfPKiPjjPhj, 
                       __Z23AcANSTPostProcessCommonP13AcANSTContextPK13AcANSTControlPK23AcANSTNetBufferPointersP11AcANSTStateP8AcResult, 
                       __Z23AcTrkObjectGroupIdCountPK11AcTrkObjectjPj, __Z23AcTrkProcLearnedGroupIDPK11AcTrkObjectjS1_jS1_jPKjS3_S3_S3_PjS4_S4_S4_RjS5_, 
                       __Z23acCheckOverlapBoxNormalPK9AcDetRectjS_f, __Z23acNonMaxSuppressionHandP9AcDetRectjff, 
                       __Z23acNonMaxSuppressionHeadP9AcDetRectjf, __Z23acTrkObjectIoUAssocCoreP11AcTrkObjectjP14AcFaceInternaljPKjPKfRK22AcTrkObjectAssocParamsRK20AcTrkFeatAssocParamsPjRjSD_jSD_S6_S2_j18AcImageOrientation, 
                       __Z23acTrkObjectRemoveKilledP11AcTrkObjectj19AcTrkObjectKillFlag, 
                       __Z23simResizeVisPipeBinningRK8BmBufferRS_ffff, __Z24acDetRectOverlapFirstBoxRK9AcDetRectS1_, 
                       __Z24acDetRectOverlapSmallboxRK9AcDetRectS1_, __Z24acObjectFromFaceInternalRK14AcFaceInternal, 
                       __Z24acRectIntersectOverUnionRK6AcRectS1_, __Z24acRemoveHeadOverlapBoxesP9AcDetRectjfPhj, 
                       __Z24acTrkFullBodyAssocTrkDetjj18AcImageOrientationP11AcTrkObjectjjP14AcFaceInternaljRK22AcTrkObjectAssocParamsRK21AcSlowBootAccocParamsRK20AcTrkFeatAssocParamsRjSD_SD_P17AcTentativeObjectSD_PKfPKiS3_jPhj, 
                       __Z24acTrkGroupCheckNewArgminPKfjjjjPj, __Z24bmBufferPartialResizeCHWRK8BmBuffer18BmBufferResizeModejjjjjRS_, 
                       __Z24simResizeVisPipeBilinearRK8BmBufferRS_ffff, __Z25AcANSTResultDecodeForEKv1P8AcResultP16AcANSTEKv1Result, 
                       __Z25acDetRectFromFaceInternalRK14AcFaceInternal, __Z25acDetRectOverlapSecondBoxRK9AcDetRectS1_, 
                       __Z25acTrkGroupAssignTempBytesj, __Z25acTrkObectSurplusExchangePKjPj, 
                       __Z25acTrkObjectAgeCompReversePKvS0_, __Z25getLargestConnectedRegionRK8BmBufferRS_PiP6AcRectS3_jhRS4_, 
                       __Z26AcANSTResultDecodeForISPv2P8AcResultP17AcANSTISPv2Result, 
                       __Z26AcANSTResultDecodeForISPv3P8AcResultP17AcANSTISPv3Result, 
                       __Z26_esopBindInputBufferObjectP31e5rt_execution_stream_operationP8NSStringP18e5rt_buffer_objectPU15__autoreleasingP7NSError, 
                       __Z26acAssoNodeConfigEKv1CommonR16AcAssoNodeConfig, __Z26acCropResizeGenerateConfigjjRK18AcInputPyramidInfojjffffjR15AcCropResizeCfg, 
                       __Z26acDetRectFromAcSalientFaceRK20AcDetSalientFaceRect, __Z26bmBufferResizeCoordConvertjjjj17BmBufferResizePadffRfS0_, 
                       __Z27acDetGetBmBufferFromVersionPK8BmBufferPK13AcANSTControl25AcANSTDetTaskOutputCommon, 
                       __Z27acDetNodeConfigEKv1_HighResv, __Z27acFbodyHlogitSuppressLlogitPK9AcDetRectjPS_Rjff, 
                       __Z27acNonMaxSuppressionFirstBoxP9AcDetRectjf, __Z27acNonMaxSuppressionSmallBoxP9AcDetRectjf, 
                       __Z27acTrkGroupTemporalInfoResetR22AcTrkGroupTemporalInfo, 
                       __Z27acTrkObjectFeatureAssocCoreP11AcTrkObjectjP14AcFaceInternaljPKjPKfRK20AcTrkFeatAssocParamsRK22AcTrkObjectAssocParamsPjRjSD_jS6_jjS2_j18AcImageOrientation, 
                       __Z28acAssoNodeConfigEKv1_HighResv, __Z28acCheckOverlapSecondFullBodyPK9AcDetRectjS_ff, 
                       __Z28acDetNodeConfigISPv2_LowFreqv, __Z28acDetRectClassCompareReversePKvS0_, 
                       __Z28acFilterMultiFaceinSameUbodyP11AcTrkObjectjP9AcDetRectPK14AcFaceInternalPjRjPKfS6_jj, 
                       __Z28acLGroupIDDominanPersonPatchPK11AcTrkObjectjS1_jPS_j, 
                       __Z28acNonMaxSuppressionHandIntraP9AcDetRectjffbfS0_jj, __Z28acTrkCategoryLimitationIndex18sCIspAcDetCategory, 
                       __Z28acTrkFilterFPHandinSameFbodyPK11AcTrkObjectjS1_jPS_jf, 
                       __Z29acAssoNodeConfigISPv2_LowFreqv, __Z29acDetNodeConfigISPv2_HighFreqv, 
                       __Z29acNonMaxSuppressionAnimalHeadP9AcDetRectjf, __Z29acRemoveUpperBodyOverlapBoxesP9AcDetRectjfPhj, 
                       __Z29acTrkLabelCenterSizeSmoothingR11AcTrkObjectR14AcFaceInternalPKS_jRK22AcTrkObjectAssocParamsjjjRfS8_S8_S8_, 
                       __Z30acAssoNodeConfigISPv2_HighFreqv, __Z30acTrkGroupAssignGetTempBuffersjPhjP21AcTrkGroupTempBuffers, 
                       __Z30acTrkObjectSetUpIoUMunkresCostPK11AcTrkObjectjPK14AcFaceInternaljPfjRK20AcTrkFeatAssocParams, 
                       __Z30largeFaceSuppressSameSizeUBodyP11AcTrkObjectjjjPjS1_, 
                       __Z31acTrkObjectAssocTrkDetTempBytesj, __Z32acANSTControlToNetworkInputWidthPK13AcANSTControl, 
                       __Z32acNonMaxSuppressionLowLogitFbodyP9AcDetRectjff, __Z32acTrkFacialAttrTemporalSmoothingR11AcTrkObject14AcFaceInternalfiRK22AcTrkObjectAssocParamsPjjjj, 
                       __Z32acTrkFilterMultiUbodyinSameFbodyP11AcTrkObjectRjS0_jPKfPjS1_S4_, 
                       __Z33acANSTControlToNetworkInputHeightPK13AcANSTControl, __Z33acTrkObjectRectIntersectOverUnionRK6AcRectS1_f, 
                       __Z33convertSaliencyMapToBoundingBoxesRK8BmBufferR8AcResultPhjhffRK8AcObjectj, 
                       __Z34acDetNodeConfigEKv1_HighRes_v1Dot9v, __Z34acTrkHandRemoveYoungOverlapObjectsP11AcTrkObjectjfjjf, 
                       __Z34acTrkObjectRemoveOldOverlapObjectsP11AcTrkObjectjfPj, 
                       __Z34acTrkObjectSetUpFeatureMunkresCostPK11AcTrkObjectjPK14AcFaceInternaljPfjRK22AcTrkObjectAssocParamsRK20AcTrkFeatAssocParamsS5_18AcImageOrientation, 
                       __Z34bmBufferResizeCoordConvertReversedjjjj17BmBufferResizePadffRfS0_, 
                       __Z35acAssoNodeConfigEKv1_HighRes_v1Dot9v, __Z35acTrkHandChiralityTemporalSmoothingR11AcTrkObjectRK14AcFaceInternal18sCIspAcDetCategoryjjbjb, 
                       __Z35acTrkObjectRectIntersectOverSmallerRK6AcRectS1_f, __Z36acDetRectOverlapFirstBoxWithDistanceRK9AcDetRectS1_, 
                       __Z36acTrkCheckBoxCornerNearImageBoundary6AcRectjj, __Z36acTrkObjectAssocTrkDetGetTempBuffersjPhjP22AcTrkObjectTempBuffers, 
                       __Z36acTrkObjectRemoveYoungOverlapObjectsP11AcTrkObjectjfPj, 
                       __Z38acDetNodeConfigEKv1_HighRes_v1Dot9Dot1v, __Z38acTrkFullBodyRemoveYoungOverlapObjectsP11AcTrkObjectjf, 
                       __Z39espressoPlanPriorityForQualityOfService11qos_class_t, 
                       __Z42acDetNodeConfigEKv1_HighRes_v1Dot9Dot1Dot1v, __Z43acAssoNodeConfigEKv1_HighRes_v1Dot9Dot1Dot1v, 
                       __Z44acTrkObjectRemoveOldCrossClassOverlapObjectsP11AcTrkObjectjf, 
                       __Z6bmCeilf, __Z6l2NormPKfj, __Z7bmClampfff, __Z7bmClampiii, 
                       __Z8bmArgMaxPKajj, __Z8ceil_modjj, __Z9_ca_densejPPdjPiS1_S1_S_, 
                       __Z9bmMaximumff, __Z9bmMaximumii, __Z9bmMaximumjj, __Z9bmMinimumff, 
                       __Z9bmMinimumii, __Z9bmMinimumjj, __Z9bmMunkresPfjPhjPjjS1_, 
                       __Z9bmSoftmaxPKfPfj, __Z9bmSoftmaxPKfPfjj, __Z9floor_modjj, 
                       __Z9vectorAddPKffS0_fPfj, __ZN10AcAssoNode12clipANSTBboxE11AcTrkObjectjj, 
                       __ZN10AcAssoNode18associationPreProcEjj18AcImageOrientationPK13AcANSTControlPK13AcObjectsTempjR15AcAssoNodeState, 
                       __ZN10AcAssoNode18procLearnedGroupIDER15AcAssoNodeStatejj, 
                       __ZN10AcAssoNode19associationPostProcEjjPK13AcANSTControlj8BmBufferR15AcAssoNodeStatePK13AcObjectsTempP8AcResult, 
                       __ZN10AcAssoNode19detUseLowThresholdsEb, __ZN10AcAssoNode21handGroupIdProcessingER15AcAssoNodeState, 
                       __ZN10AcAssoNode22m_kFacePoseRollCentersE, __ZN10AcAssoNode24filterANSTBboxforBESCropER11AcTrkObject6AcRectjj, 
                       __ZN10AcAssoNode7restartER15AcAssoNodeState, __ZN10AcAssoNode8sec_initEPK13AcANSTControlR15AcAssoNodeState, 
                       __ZN10AcAssoNodeC1ER15AcAssoNodeState, __ZN10AcAssoNodeC2ER15AcAssoNodeState, 
                       __ZN10AcAssoNodeD1Ev, __ZN10AcAssoNodeD2Ev, __ZN10AcAttrNode10preProcessEjjRK18AcInputPyramidInfoPK6AcFacejR15AcAttrNodeStateR16AcAttrNetBuffersR26AcAttrNetInputCropControls, 
                       __ZN10AcAttrNode11postProcessEPK8BmBufferjR15AcAttrNodeStateR6AcFacej, 
                       __ZN10AcAttrNode14initBinCentersEPfffj, __ZN10AcAttrNode14releaseBuffersEv, 
                       __ZN10AcAttrNode15setUpNetBuffersEjRK23AcAttrNetBufferPointersRK12AcAttrParamsR16AcAttrNetBuffers, 
                       __ZN10AcAttrNode4initEPK16AcAttrNodeConfigR15AcAttrNodeState, 
                       __ZN10AcAttrNodeC1ER15AcAttrNodeState, __ZN10AcAttrNodeC2ER15AcAttrNodeState, 
                       __ZN10AcAttrNodeD1Ev, __ZN10AcAttrNodeD2Ev, __ZN14AcSaliencyNode11postProcessEPK8BmBufferjR19AcSaliencyNodeStateP8AcResult, 
                       __ZN14AcSaliencyNode19postProcessSaliencyEPK8BmBufferjR19AcSaliencyNodeStateP8AcResult, 
                       __ZN14AcSaliencyNode4initER19AcSaliencyNodeState, __ZN14AcSaliencyNodeC1ER19AcSaliencyNodeState, 
                       __ZN14AcSaliencyNodeC2ER19AcSaliencyNodeState, __ZN14AcSaliencyNodeD1Ev, 
                       __ZN14AcSaliencyNodeD2Ev, __ZN14BmMixedBufSizeC1Ev, __ZN14BmMixedBufSizeC2Ev, 
                       __ZN16ANSTTrackingNode21outputTrackingObjectsEv, __ZN16ANSTTrackingNode4initEv, 
                       __ZN16ANSTTrackingNode7processERNSt3__16vectorI12AcObjectMaskNS0_9allocatorIS2_EEEE, 
                       __ZN16ANSTTrackingNodeC1Ev, __ZN16ANSTTrackingNodeC2Ev, __ZN16ANSTTrackingNodeD1Ev, 
                       __ZN16ANSTTrackingNodeD2Ev, __ZN19ANSTKCFTrackingNode11sub_stracksERKNSt3__16vectorINS0_10shared_ptrIN9KCFHelper6STrackEEENS0_9allocatorIS5_EEEESA_, 
                       __ZN19ANSTKCFTrackingNode12mult_predictERNSt3__16vectorINS0_10shared_ptrIN9KCFHelper6STrackEEENS0_9allocatorIS5_EEEE, 
                       __ZN19ANSTKCFTrackingNode13joint_stracksERKNSt3__16vectorINS0_10shared_ptrIN9KCFHelper6STrackEEENS0_9allocatorIS5_EEEESA_, 
                       __ZN19ANSTKCFTrackingNode18process_new_objectERNSt3__16vectorI12AcObjectMaskNS0_9allocatorIS2_EEEERNS0_3mapIjS2_NS0_4lessIjEENS3_INS0_4pairIKjS2_EEEEEE, 
                       __ZN19ANSTKCFTrackingNode24remove_duplicate_stracksERKNSt3__16vectorINS0_10shared_ptrIN9KCFHelper6STrackEEENS0_9allocatorIS5_EEEESA_, 
                       __ZN19ANSTKCFTrackingNode4initEv, __ZN19ANSTKCFTrackingNode5resetEv, 
                       __ZN19ANSTKCFTrackingNode7processERNSt3__16vectorI12AcObjectMaskNS0_9allocatorIS2_EEEERNS0_3mapIjS2_NS0_4lessIjEENS3_INS0_4pairIKjS2_EEEEEE, 
                       __ZN19ANSTKCFTrackingNode9get_distsERKNSt3__16vectorINS0_10shared_ptrIN9KCFHelper6STrackEEENS0_9allocatorIS5_EEEESA_, 
                       __ZN19ANSTKCFTrackingNodeC1Eii, __ZN19ANSTKCFTrackingNodeC1Ev, 
                       __ZN19ANSTKCFTrackingNodeC2Eii, __ZN19ANSTKCFTrackingNodeC2Ev, 
                       __ZN19ANSTKCFTrackingNodeD1Ev, __ZN19ANSTKCFTrackingNodeD2Ev, 
                       __ZN4rtcv13simCropResizeEPKvjjjNS_20SimResizePixelFormatEfffNS_14SimResizeModelENS_16SimResizeStretchEPvjjj, 
                       __ZN4rtcv9simResizeEPKvjjjNS_20SimResizePixelFormatENS_14SimResizeModelENS_16SimResizeStretchEPvjjj, 
                       __ZN4rtcv9simResizeEPKvjjjNS_20SimResizePixelFormatENS_14SimResizeModelEffPvjjjff, 
                       __ZN7fastBPE11process_bpeERNSt3__16vectorINS0_12basic_stringIcNS0_11char_traitsIcEENS0_9allocatorIcEEEENS5_IS7_EEEERNS0_13unordered_mapINS0_4pairIS7_S7_EEjNS_9pair_hashENS0_8equal_toISD_EENS5_INSC_IKSD_jEEEEEERNSB_IS7_jNS0_4hashIS7_EENSF_IS7_EENS5_INSC_IKS7_jEEEEEE, 
                       __ZN7fastBPE11utf8_encodeEPcj, __ZN7fastBPE12tokenize_strERKNSt3__113unordered_mapINS0_12basic_stringIcNS0_11char_traitsIcEENS0_9allocatorIcEEEEjNS0_4hashIS7_EENS0_8equal_toIS7_EENS5_INS0_4pairIKS7_jEEEEEERNS1_IS7_NS0_6vectorIS7_NS5_IS7_EEEES9_SB_NS5_INSC_ISD_SL_EEEEEE, 
                       __ZN7fastBPE15applybpe_streamEPKc, __ZN7fastBPE16bytes_to_unicodeEv, 
                       __ZN7fastBPE18imagenet_templatesEv, __ZN7fastBPE5splitERNSt3__16vectorINS0_12basic_stringIcNS0_11char_traitsIcEENS0_9allocatorIcEEEENS5_IS7_EEEERKS7_c, 
                       __ZN7fastBPE8kEndWordE, __ZN7fastBPE8safeOpenEPKcit, __ZN7fastBPE9readCodesEPKcRNSt3__113unordered_mapINS2_4pairINS2_12basic_stringIcNS2_11char_traitsIcEENS2_9allocatorIcEEEESA_EEjNS_9pair_hashENS2_8equal_toISB_EENS8_INS4_IKSB_jEEEEEERNS3_ISA_jNS2_4hashISA_EENSD_ISA_EENS8_INS4_IKSA_jEEEEEE, 
                       __ZN9AcDetNode11postProcessEPK8BmBufferjR14AcDetNodeStatePK13AcANSTControlP13AcObjectsTemp, 
                       __ZN9AcDetNode14postProcessDetEPK8BmBufferjPK13AcANSTControlR14AcDetNodeState, 
                       __ZN9AcDetNode15postProcessFaceEP13AcObjectsTemp, __ZN9AcDetNode16useLowThresholdsEb, 
                       __ZN9AcDetNode17postProcessObjectEP13AcObjectsTemp, __ZN9AcDetNode17postProcessSmudgeEPK8BmBufferP13AcObjectsTemp, 
                       __ZN9AcDetNode18postProcessDetHandEPK8BmBufferjPK13AcANSTControlR14AcDetNodeState, 
                       __ZN9AcDetNode19postProcessBodyAssoEPK8BmBufferP13AcObjectsTemp, 
                       __ZN9AcDetNode19postProcessDistanceEPK8BmBufferPK13AcANSTControlP13AcObjectsTemp, 
                       __ZN9AcDetNode19postProcessFaceAttrEPK8BmBufferP13AcObjectsTemp, 
                       __ZN9AcDetNode19postProcessFacePoseEPK8BmBufferP13AcObjectsTemp, 
                       __ZN9AcDetNode19processSubjectIDMapEPK8BmBufferP14AcFaceInternalRj18sCIspAcDetCategory, 
                       __ZN9AcDetNode21generateFCOSLocationsEjjjPfS0_, __ZN9AcDetNode21m_kFacePoseYawCentersE, 
                       __ZN9AcDetNode22m_kFacePoseRollCentersE, __ZN9AcDetNode22postProcessDetHandAssoEPK8BmBufferP13AcObjectsTemp, 
                       __ZN9AcDetNode23postProcessFaceSkinToneEPK8BmBufferP13AcObjectsTemp, 
                       __ZN9AcDetNode24internalUseLowThresholdsEb, __ZN9AcDetNode24postProcessDetHandObjectEP13AcObjectsTemp, 
                       __ZN9AcDetNode25postProcessFacialLandmarkEPK8BmBufferPK13AcANSTControlP13AcObjectsTemp, 
                       __ZN9AcDetNode4initEPK15AcDetNodeConfigPK13AcANSTControlR14AcDetNodeState, 
                       __ZN9AcDetNodeC1ER14AcDetNodeState, __ZN9AcDetNodeC2ER14AcDetNodeState, 
                       __ZN9AcDetNodeD1Ev, __ZN9AcDetNodeD2Ev, __ZN9KCFHelper13multi_predictERNSt3__16vectorINS0_10shared_ptrINS_6STrackEEENS0_9allocatorIS4_EEEERNS_16KalmanFilterXYAHE, 
                       __ZN9KCFHelper16KalmanFilterXYAH13multi_predictERKNSt3__16vectorIfNS1_9allocatorIfEEEES7_i, 
                       __ZN9KCFHelper16KalmanFilterXYAH15gating_distanceERKNSt3__16vectorIfNS1_9allocatorIfEEEES7_RKDv4_fbNS_12KalmanMetricE, 
                       __ZN9KCFHelper16KalmanFilterXYAH6updateERKNSt3__16vectorIfNS1_9allocatorIfEEEES7_RKDv4_f, 
                       __ZN9KCFHelper16KalmanFilterXYAH7predictERKNSt3__16vectorIfNS1_9allocatorIfEEEES7_, 
                       __ZN9KCFHelper16KalmanFilterXYAH7projectERKNSt3__16vectorIfNS1_9allocatorIfEEEES7_, 
                       __ZN9KCFHelper16KalmanFilterXYAH8initiateERKDv4_f, __ZN9KCFHelper6STrack11re_activateERKS0_iRjb, 
                       __ZN9KCFHelper6STrack12tlwh_to_xyahERKDv4_f, __ZN9KCFHelper6STrack14convert_coordsERKDv4_f, 
                       __ZN9KCFHelper6STrack4initERK12AcObjectMask, __ZN9KCFHelper6STrack6updateERKS0_i, 
                       __ZN9KCFHelper6STrack8activateEiRjb, __ZN9KCFHelper6STrackC1Ev, 
                       __ZN9KCFHelper6STrackC2Ev, __ZN9KCFHelper6STrackD0Ev, __ZN9KCFHelper6STrackD1Ev, 
                       __ZN9KCFHelper6STrackD2Ev, __ZN9KCFHelper8matching10fuse_scoreERKNSt3__16vectorINS2_IfNS1_9allocatorIfEEEENS3_IS5_EEEERKNS2_INS1_10shared_ptrINS_6STrackEEENS3_ISC_EEEE, 
                       __ZN9KCFHelper8matching12iou_distanceERKNSt3__16vectorINS1_10shared_ptrINS_6STrackEEENS1_9allocatorIS5_EEEESA_, 
                       __ZN9KCFHelper8matching17linear_assignmentERKNSt3__16vectorINS2_IfNS1_9allocatorIfEEEENS3_IS5_EEEEfmmb, 
                       __ZN9KCFHelper8matching9bbox_iousERKDv4_fS3_f, __ZNK10AcAssoNode6configEv, 
                       __ZNK10AcAssoNode9getParamsERK15AcAssoNodeStateR12AcANSTParams, 
                       __ZNK10AcAttrNode6configEv, __ZNK10AcAttrNode9getParamsERK15AcAttrNodeStateR12AcAttrParams, 
                       __ZNK14AcSaliencyNode17computeConfidenceEf, __ZNK14AcSaliencyNode9getParamsERK19AcSaliencyNodeStateR12AcANSTParams, 
                       __ZNK9AcDetNode16getParamsForEKv1ER12AcANSTParams, __ZNK9AcDetNode17getParamsForISPv2ER12AcANSTParams, 
                       __ZNK9AcDetNode17getParamsForISPv3ER12AcANSTParams, __ZNK9AcDetNode9getParamsEPK13AcANSTControlRK14AcDetNodeStateR12AcANSTParams, 
                       __ZTIN9KCFHelper6STrackE, __ZTSN9KCFHelper6STrackE, __ZTVN9KCFHelper6STrackE, 
                       _bmHeapsort, _bmQsort, _isort_internal, _kANSTForegroundSegmentationUpdateIter, 
                       _kANSTNetworkInputLastMaskName, _kANSTNetworkInputName, _kANSTNetworkInputSalientMaskName, 
                       _kANSTNetworkOutputExtraSalientMaskName, _kANSTNetworkOutputSemanticStride, 
                       _kANSTRefinerNetworkInputNames, _kANSTRefinerNetworkOutputNames, 
                       _kANSTVMTrackerNetworkInputHiddenStateTensorName, _kANSTVMTrackerNetworkInputKeyTensorName, 
                       _kANSTVMTrackerNetworkInputMaskTensorName, _kANSTVMTrackerNetworkInputMattingTensorName, 
                       _kANSTVMTrackerNetworkInputProbTensorName, _kANSTVMTrackerNetworkInputTensorName, 
                       _kANSTVMTrackerNetworkInputValueTensorName, _kANSTVMTrackerNetworkOutputHiddenTensorName, 
                       _kANSTVMTrackerNetworkOutputKeyTensorName, _kANSTVMTrackerNetworkOutputMattingTensorName, 
                       _kANSTVMTrackerNetworkOutputQualityTensorName, _kANSTVMTrackerNetworkOutputTensorName, 
                       _kANSTVMTrackerNetworkOutputValueTensorName, _kAcAttrNodeConfigDefaultRawData, 
                       _kAcAttrNodeConfigDefaultRawData_len, _kAcSaliencyNodeConfigDefaultRawData, 
                       _kAcSaliencyNodeConfigDefaultRawData_len, _kFeatureLength, 
                       _kInputHeight, _kInputPixelFormatType, _kInputWidth ]
    objc-classes:    [ ANST3DPoseEstimate, ANSTActionClassifier, ANSTActionClassifierConfiguration, 
                       ANSTActionDetector, ANSTActionDetectorConfiguration, ANSTActionDetectorResult, 
                       ANSTActionDistribution, ANSTActionHighlightModel, ANSTActionPrediction, 
                       ANSTAlgorithm, ANSTBaseNetworkEspresso, ANSTConfiguration, 
                       ANSTDescriptor, ANSTE5MLNetwork, ANSTExclaveAlgorithm, ANSTExclaveAlgorithmConfiguration, 
                       ANSTExclaveAlgorithmResult, ANSTExclaveAlgorithmV1, ANSTEyeBlinkEstimate, 
                       ANSTEyeRectEstimate, ANSTFace, ANSTFaceAttributeAlgorithm, 
                       ANSTFaceAttributeAlgorithmConfiguration, ANSTForegroundSegmentation, 
                       ANSTForegroundSegmentationConfiguration, ANSTForegroundSegmentationResult, 
                       ANSTForegroundSegmentation_Internal, ANSTHand, ANSTISPAlgorithm, 
                       ANSTISPAlgorithmConfiguration, ANSTISPAlgorithmResult, ANSTISPAlgorithmV1, 
                       ANSTISPAlgorithmV3, ANSTISPInferenceConfiguration, ANSTISPInferenceDescriptor, 
                       ANSTISPInferenceDescriptorV1, ANSTISPInferenceDescriptorV3, 
                       ANSTISPInferencePostprocessor, ANSTISPInferencePostprocessorV3, 
                       ANSTInferenceDescriptor, ANSTInferencePostprocessor, ANSTLabelDetection, 
                       ANSTLabelDetectionConfiguration, ANSTLabelDetectionResult, 
                       ANSTLabelObject, ANSTObject, ANSTPersonInstanceSegmentation, 
                       ANSTPersonInstanceSegmentationConfiguration, ANSTPixelBuffer, 
                       ANSTPixelBufferDescriptor, ANSTResult, ANSTSkinToneEstimate, 
                       ANSTSmileEstimate, ANSTTensorData, ANSTTensorDescriptor, ANSTTensorSurface, 
                       ANSTUtility, ANSTVMTrackerEspresso, ANSTViSegHQInferenceConfiguration, 
                       ANSTViSegHQInitialFrameInferenceDescriptor, ANSTViSegHQRegularFrameInferenceDescriptor, 
                       ANSTViSegHQUpdateFrameInferenceDescriptor, ANSTViSegHQUpdateFramePostProcessor, 
                       ANSTVideoCaptionAlgorithm, ANSTVideoCaptionAlgorithmCaptionState, 
                       ANSTVideoCaptionAlgorithmConfiguration, ANSTVideoFeatureExtractor, 
                       ANSTVideoFeatureExtractorConfiguration, ANSTVideoFoundationModel, 
                       ANSTVideoFoundationModelConfiguration, ANSTVideoMaskRefineAlgorithm, 
                       ANSTVideoMaskRefineAlgorithmConfiguration, ANSTVideoMaskRefineAlgorithmResult, 
                       ANSTVideoMaskRefineAlgorithmV1, ANSTVideoMaskRefinerHQ, ANSTVideoMaskRefinerHQConfiguration, 
                       _ANSTE5MLNetworkStateTensorTuple, _ANSTISPInferencePostprocessorV1, 
                       _ANSTViSegHQUtility ]
    weak-symbols:    [ __ZNSt3__119piecewise_constructE ]
...
