--- !tapi-tbd
tbd-version:     4
targets:         [ x86_64-macos, arm64-macos, arm64e-macos ]
uuids:
  - target:          x86_64-macos
    value:           511613D3-B292-341B-9C1E-275C1F744A5D
  - target:          arm64-macos
    value:           00000000-0000-0000-0000-000000000000
  - target:          arm64e-macos
    value:           2D3A0644-1C5E-3F92-BF55-C08C61A56115
install-name:    '/usr/lib/usd/libImath.dylib'
current-version: 20.102.2
compatibility-version: 0
exports:
  - targets:         [ x86_64-macos ]
    weak-symbols:    [ __ZTIN7Iex_2_37MathExcE, __ZTIN9Imath_2_310NullVecExcE, __ZTIN9Imath_2_318IntVecNormalizeExcE, 
                       __ZTSN7Iex_2_37MathExcE, __ZTSN9Imath_2_310NullVecExcE, __ZTSN9Imath_2_318IntVecNormalizeExcE ]
  - targets:         [ x86_64-macos, arm64-macos, arm64e-macos ]
    symbols:         [ __ZN9Imath_2_34Vec2IiE12normalizeExcEv, __ZN9Imath_2_34Vec2IiE16normalizeNonNullEv, 
                       __ZN9Imath_2_34Vec2IiE9normalizeEv, __ZN9Imath_2_34Vec2IsE12normalizeExcEv, 
                       __ZN9Imath_2_34Vec2IsE16normalizeNonNullEv, __ZN9Imath_2_34Vec2IsE9normalizeEv, 
                       __ZN9Imath_2_34Vec3IiE12normalizeExcEv, __ZN9Imath_2_34Vec3IiE16normalizeNonNullEv, 
                       __ZN9Imath_2_34Vec3IiE9normalizeEv, __ZN9Imath_2_34Vec3IsE12normalizeExcEv, 
                       __ZN9Imath_2_34Vec3IsE16normalizeNonNullEv, __ZN9Imath_2_34Vec3IsE9normalizeEv, 
                       __ZN9Imath_2_34Vec4IiE12normalizeExcEv, __ZN9Imath_2_34Vec4IiE16normalizeNonNullEv, 
                       __ZN9Imath_2_34Vec4IiE9normalizeEv, __ZN9Imath_2_34Vec4IsE12normalizeExcEv, 
                       __ZN9Imath_2_34Vec4IsE16normalizeNonNullEv, __ZN9Imath_2_34Vec4IsE9normalizeEv, 
                       __ZN9Imath_2_35preddEd, __ZN9Imath_2_35predfEf, __ZN9Imath_2_35succdEd, 
                       __ZN9Imath_2_35succfEf, __ZN9Imath_2_36Rand325nextfEv, __ZN9Imath_2_37drand48Ev, 
                       __ZN9Imath_2_37erand48EPt, __ZN9Imath_2_37lrand48Ev, __ZN9Imath_2_37nrand48EPt, 
                       __ZN9Imath_2_37srand48El, __ZN9Imath_2_39hsv2rgb_dERKNS_4Vec3IdEE, 
                       __ZN9Imath_2_39hsv2rgb_dERKNS_6Color4IdEE, __ZN9Imath_2_39rgb2hsv_dERKNS_4Vec3IdEE, 
                       __ZN9Imath_2_39rgb2hsv_dERKNS_6Color4IdEE, __ZNK9Imath_2_34Vec2IiE10normalizedEv, 
                       __ZNK9Imath_2_34Vec2IiE13normalizedExcEv, __ZNK9Imath_2_34Vec2IiE17normalizedNonNullEv, 
                       __ZNK9Imath_2_34Vec2IiE6lengthEv, __ZNK9Imath_2_34Vec2IsE10normalizedEv, 
                       __ZNK9Imath_2_34Vec2IsE13normalizedExcEv, __ZNK9Imath_2_34Vec2IsE17normalizedNonNullEv, 
                       __ZNK9Imath_2_34Vec2IsE6lengthEv, __ZNK9Imath_2_34Vec3IiE10normalizedEv, 
                       __ZNK9Imath_2_34Vec3IiE13normalizedExcEv, __ZNK9Imath_2_34Vec3IiE17normalizedNonNullEv, 
                       __ZNK9Imath_2_34Vec3IiE6lengthEv, __ZNK9Imath_2_34Vec3IsE10normalizedEv, 
                       __ZNK9Imath_2_34Vec3IsE13normalizedExcEv, __ZNK9Imath_2_34Vec3IsE17normalizedNonNullEv, 
                       __ZNK9Imath_2_34Vec3IsE6lengthEv, __ZNK9Imath_2_34Vec4IiE10normalizedEv, 
                       __ZNK9Imath_2_34Vec4IiE13normalizedExcEv, __ZNK9Imath_2_34Vec4IiE17normalizedNonNullEv, 
                       __ZNK9Imath_2_34Vec4IiE6lengthEv, __ZNK9Imath_2_34Vec4IsE10normalizedEv, 
                       __ZNK9Imath_2_34Vec4IsE13normalizedExcEv, __ZNK9Imath_2_34Vec4IsE17normalizedNonNullEv, 
                       __ZNK9Imath_2_34Vec4IsE6lengthEv ]
    weak-symbols:    [ __ZN9Imath_2_314maxEigenVectorINS_8Matrix33IdEENS_4Vec3IdEEEEvRT_RT0_, 
                       __ZN9Imath_2_314maxEigenVectorINS_8Matrix33IfEENS_4Vec3IfEEEEvRT_RT0_, 
                       __ZN9Imath_2_314maxEigenVectorINS_8Matrix44IdEENS_4Vec4IdEEEEvRT_RT0_, 
                       __ZN9Imath_2_314maxEigenVectorINS_8Matrix44IfEENS_4Vec4IfEEEEvRT_RT0_, 
                       __ZN9Imath_2_314minEigenVectorINS_8Matrix33IdEENS_4Vec3IdEEEEvRT_RT0_, 
                       __ZN9Imath_2_314minEigenVectorINS_8Matrix33IfEENS_4Vec3IfEEEEvRT_RT0_, 
                       __ZN9Imath_2_314minEigenVectorINS_8Matrix44IdEENS_4Vec4IdEEEEvRT_RT0_, 
                       __ZN9Imath_2_314minEigenVectorINS_8Matrix44IfEENS_4Vec4IfEEEEvRT_RT0_, 
                       __ZN9Imath_2_317jacobiEigenSolverIdEEvRNS_8Matrix33IT_EERNS_4Vec3IS2_EES4_S2_, 
                       __ZN9Imath_2_317jacobiEigenSolverIdEEvRNS_8Matrix44IT_EERNS_4Vec4IS2_EES4_S2_, 
                       __ZN9Imath_2_317jacobiEigenSolverIfEEvRNS_8Matrix33IT_EERNS_4Vec3IS2_EES4_S2_, 
                       __ZN9Imath_2_317jacobiEigenSolverIfEEvRNS_8Matrix44IT_EERNS_4Vec4IS2_EES4_S2_, 
                       __ZN9Imath_2_332procrustesRotationAndTranslationIdEENS_8Matrix44IdEEPKNS_4Vec3IT_EES7_PKS4_mb, 
                       __ZN9Imath_2_332procrustesRotationAndTranslationIdEENS_8Matrix44IdEEPKNS_4Vec3IT_EES7_mb, 
                       __ZN9Imath_2_332procrustesRotationAndTranslationIfEENS_8Matrix44IdEEPKNS_4Vec3IT_EES7_PKS4_mb, 
                       __ZN9Imath_2_332procrustesRotationAndTranslationIfEENS_8Matrix44IdEEPKNS_4Vec3IT_EES7_mb, 
                       __ZN9Imath_2_39jacobiSVDIdEEvRKNS_8Matrix33IT_EERS3_RNS_4Vec3IS2_EES6_S2_b, 
                       __ZN9Imath_2_39jacobiSVDIdEEvRKNS_8Matrix44IT_EERS3_RNS_4Vec4IS2_EES6_S2_b, 
                       __ZN9Imath_2_39jacobiSVDIfEEvRKNS_8Matrix33IT_EERS3_RNS_4Vec3IS2_EES6_S2_b, 
                       __ZN9Imath_2_39jacobiSVDIfEEvRKNS_8Matrix44IT_EERS3_RNS_4Vec4IS2_EES6_S2_b ]
...
