--- !tapi-tbd
tbd-version:     4
targets:         [ x86_64-macos, arm64-macos, arm64e-macos ]
uuids:
  - target:          x86_64-macos
    value:           DB8C2E51-7C27-3DFC-8718-75AB2F13FF18
  - target:          arm64-macos
    value:           00000000-0000-0000-0000-000000000000
  - target:          arm64e-macos
    value:           BB57B8B7-7B15-34F9-B9C2-04073194311F
install-name:    '/usr/lib/usd/libMaterialXFormat.dylib'
current-version: 0
compatibility-version: 0
exports:
  - targets:         [ x86_64-macos ]
    weak-symbols:    [ __ZTIFvNSt3__110shared_ptrIN9MaterialX8DocumentEEENS1_8FilePathENS1_14FileSearchPathEPKNS1_14XmlReadOptionsEE, 
                       __ZTIN4pugi10xml_writerE, __ZTIN9MaterialX12TypedElementE, 
                       __ZTIN9MaterialX19ExceptionParseErrorE, __ZTIN9MaterialX20ExceptionFileMissingE, 
                       __ZTIN9MaterialX9ExceptionE, __ZTINSt3__110__function6__baseIFvNS_10shared_ptrIN9MaterialX8DocumentEEERKNS3_8FilePathERKNS3_14FileSearchPathEPKNS3_14XmlReadOptionsEEEE, 
                       __ZTINSt3__110__function6__funcIPFvNS_10shared_ptrIN9MaterialX8DocumentEEENS3_8FilePathENS3_14FileSearchPathEPKNS3_14XmlReadOptionsEENS_9allocatorISC_EEFvS5_RKS6_RKS7_SA_EEE, 
                       __ZTINSt3__117bad_function_callE, __ZTINSt3__120__shared_ptr_emplaceIN9MaterialX4NodeENS_9allocatorIS2_EEEE, 
                       __ZTIPFvNSt3__110shared_ptrIN9MaterialX8DocumentEEENS1_8FilePathENS1_14FileSearchPathEPKNS1_14XmlReadOptionsEE, 
                       __ZTSFvNSt3__110shared_ptrIN9MaterialX8DocumentEEENS1_8FilePathENS1_14FileSearchPathEPKNS1_14XmlReadOptionsEE, 
                       __ZTSN4pugi10xml_writerE, __ZTSN9MaterialX12TypedElementE, 
                       __ZTSN9MaterialX19ExceptionParseErrorE, __ZTSN9MaterialX20ExceptionFileMissingE, 
                       __ZTSN9MaterialX9ExceptionE, __ZTSNSt3__110__function6__baseIFvNS_10shared_ptrIN9MaterialX8DocumentEEERKNS3_8FilePathERKNS3_14FileSearchPathEPKNS3_14XmlReadOptionsEEEE, 
                       __ZTSNSt3__110__function6__funcIPFvNS_10shared_ptrIN9MaterialX8DocumentEEENS3_8FilePathENS3_14FileSearchPathEPKNS3_14XmlReadOptionsEENS_9allocatorISC_EEFvS5_RKS6_RKS7_SA_EEE, 
                       __ZTSNSt3__117bad_function_callE, __ZTSNSt3__120__shared_ptr_emplaceIN9MaterialX4NodeENS_9allocatorIS2_EEEE, 
                       __ZTSPFvNSt3__110shared_ptrIN9MaterialX8DocumentEEENS1_8FilePathENS1_14FileSearchPathEPKNS1_14XmlReadOptionsEE ]
  - targets:         [ x86_64-macos, arm64-macos, arm64e-macos ]
    symbols:         [ __ZN4pugi10xpath_nodeC1ERKNS_13xml_attributeERKNS_8xml_nodeE, 
                       __ZN4pugi10xpath_nodeC1ERKNS_8xml_nodeE, __ZN4pugi10xpath_nodeC1Ev, 
                       __ZN4pugi10xpath_nodeC2ERKNS_13xml_attributeERKNS_8xml_nodeE, 
                       __ZN4pugi10xpath_nodeC2ERKNS_8xml_nodeE, __ZN4pugi10xpath_nodeC2Ev, 
                       __ZN4pugi11xpath_queryC1EOS0_, __ZN4pugi11xpath_queryC1EPKcPNS_18xpath_variable_setE, 
                       __ZN4pugi11xpath_queryC1Ev, __ZN4pugi11xpath_queryC2EOS0_, 
                       __ZN4pugi11xpath_queryC2EPKcPNS_18xpath_variable_setE, __ZN4pugi11xpath_queryC2Ev, 
                       __ZN4pugi11xpath_queryD1Ev, __ZN4pugi11xpath_queryD2Ev, __ZN4pugi11xpath_queryaSEOS0_, 
                       __ZN4pugi12xml_document11load_bufferEPKvmjNS_12xml_encodingE, 
                       __ZN4pugi12xml_document11load_stringEPKcj, __ZN4pugi12xml_document19load_buffer_inplaceEPvmjNS_12xml_encodingE, 
                       __ZN4pugi12xml_document23load_buffer_inplace_ownEPvmjNS_12xml_encodingE, 
                       __ZN4pugi12xml_document4loadEPKcj, __ZN4pugi12xml_document4loadERNSt3__113basic_istreamIcNS1_11char_traitsIcEEEEjNS_12xml_encodingE, 
                       __ZN4pugi12xml_document4loadERNSt3__113basic_istreamIwNS1_11char_traitsIwEEEEj, 
                       __ZN4pugi12xml_document5_moveERS0_, __ZN4pugi12xml_document5resetERKS0_, 
                       __ZN4pugi12xml_document5resetEv, __ZN4pugi12xml_document7_createEv, 
                       __ZN4pugi12xml_document8_destroyEv, __ZN4pugi12xml_document9load_fileEPKcjNS_12xml_encodingE, 
                       __ZN4pugi12xml_document9load_fileEPKwjNS_12xml_encodingE, 
                       __ZN4pugi12xml_documentC1EOS0_, __ZN4pugi12xml_documentC1Ev, 
                       __ZN4pugi12xml_documentC2EOS0_, __ZN4pugi12xml_documentC2Ev, 
                       __ZN4pugi12xml_documentD1Ev, __ZN4pugi12xml_documentD2Ev, 
                       __ZN4pugi12xml_documentaSEOS0_, __ZN4pugi13xml_attribute8set_nameEPKc, 
                       __ZN4pugi13xml_attribute9set_valueEPKc, __ZN4pugi13xml_attribute9set_valueEb, 
                       __ZN4pugi13xml_attribute9set_valueEd, __ZN4pugi13xml_attribute9set_valueEf, 
                       __ZN4pugi13xml_attribute9set_valueEi, __ZN4pugi13xml_attribute9set_valueEj, 
                       __ZN4pugi13xml_attribute9set_valueEl, __ZN4pugi13xml_attribute9set_valueEm, 
                       __ZN4pugi13xml_attribute9set_valueEx, __ZN4pugi13xml_attribute9set_valueEy, 
                       __ZN4pugi13xml_attributeC1EPNS_20xml_attribute_structE, __ZN4pugi13xml_attributeC1Ev, 
                       __ZN4pugi13xml_attributeC2EPNS_20xml_attribute_structE, __ZN4pugi13xml_attributeC2Ev, 
                       __ZN4pugi13xml_attributeaSEPKc, __ZN4pugi13xml_attributeaSEb, 
                       __ZN4pugi13xml_attributeaSEd, __ZN4pugi13xml_attributeaSEf, 
                       __ZN4pugi13xml_attributeaSEi, __ZN4pugi13xml_attributeaSEj, 
                       __ZN4pugi13xml_attributeaSEl, __ZN4pugi13xml_attributeaSEm, 
                       __ZN4pugi13xml_attributeaSEx, __ZN4pugi13xml_attributeaSEy, 
                       __ZN4pugi14xpath_node_set4sortEb, __ZN4pugi14xpath_node_set5_moveERS0_, 
                       __ZN4pugi14xpath_node_set7_assignEPKNS_10xpath_nodeES3_NS0_6type_tE, 
                       __ZN4pugi14xpath_node_setC1EOS0_, __ZN4pugi14xpath_node_setC1EPKNS_10xpath_nodeES3_NS0_6type_tE, 
                       __ZN4pugi14xpath_node_setC1ERKS0_, __ZN4pugi14xpath_node_setC1Ev, 
                       __ZN4pugi14xpath_node_setC2EOS0_, __ZN4pugi14xpath_node_setC2EPKNS_10xpath_nodeES3_NS0_6type_tE, 
                       __ZN4pugi14xpath_node_setC2ERKS0_, __ZN4pugi14xpath_node_setC2Ev, 
                       __ZN4pugi14xpath_node_setD1Ev, __ZN4pugi14xpath_node_setD2Ev, 
                       __ZN4pugi14xpath_node_setaSEOS0_, __ZN4pugi14xpath_node_setaSERKS0_, 
                       __ZN4pugi14xpath_variable3setEPKc, __ZN4pugi14xpath_variable3setERKNS_14xpath_node_setE, 
                       __ZN4pugi14xpath_variable3setEb, __ZN4pugi14xpath_variable3setEd, 
                       __ZN4pugi14xpath_variableC1ENS_16xpath_value_typeE, __ZN4pugi14xpath_variableC2ENS_16xpath_value_typeE, 
                       __ZN4pugi15xml_tree_walker3endERNS_8xml_nodeE, __ZN4pugi15xml_tree_walker5beginERNS_8xml_nodeE, 
                       __ZN4pugi15xml_tree_walkerC2Ev, __ZN4pugi15xml_tree_walkerD0Ev, 
                       __ZN4pugi15xml_tree_walkerD1Ev, __ZN4pugi15xml_tree_walkerD2Ev, 
                       __ZN4pugi15xml_writer_file5writeEPKvm, __ZN4pugi15xml_writer_fileC1EPv, 
                       __ZN4pugi15xml_writer_fileC2EPv, __ZN4pugi15xpath_exceptionC1ERKNS_18xpath_parse_resultE, 
                       __ZN4pugi15xpath_exceptionC2ERKNS_18xpath_parse_resultE, __ZN4pugi16xml_parse_resultC1Ev, 
                       __ZN4pugi16xml_parse_resultC2Ev, __ZN4pugi17xml_node_iteratorC1EPNS_15xml_node_structES2_, 
                       __ZN4pugi17xml_node_iteratorC1ERKNS_8xml_nodeE, __ZN4pugi17xml_node_iteratorC1Ev, 
                       __ZN4pugi17xml_node_iteratorC2EPNS_15xml_node_structES2_, 
                       __ZN4pugi17xml_node_iteratorC2ERKNS_8xml_nodeE, __ZN4pugi17xml_node_iteratorC2Ev, 
                       __ZN4pugi17xml_node_iteratormmEi, __ZN4pugi17xml_node_iteratormmEv, 
                       __ZN4pugi17xml_node_iteratorppEi, __ZN4pugi17xml_node_iteratorppEv, 
                       __ZN4pugi17xml_writer_stream5writeEPKvm, __ZN4pugi17xml_writer_streamC1ERNSt3__113basic_ostreamIcNS1_11char_traitsIcEEEE, 
                       __ZN4pugi17xml_writer_streamC1ERNSt3__113basic_ostreamIwNS1_11char_traitsIwEEEE, 
                       __ZN4pugi17xml_writer_streamC2ERNSt3__113basic_ostreamIcNS1_11char_traitsIcEEEE, 
                       __ZN4pugi17xml_writer_streamC2ERNSt3__113basic_ostreamIwNS1_11char_traitsIwEEEE, 
                       __ZN4pugi18xpath_parse_resultC1Ev, __ZN4pugi18xpath_parse_resultC2Ev, 
                       __ZN4pugi18xpath_variable_set3addEPKcNS_16xpath_value_typeE, 
                       __ZN4pugi18xpath_variable_set3getEPKc, __ZN4pugi18xpath_variable_set3setEPKcRKNS_14xpath_node_setE, 
                       __ZN4pugi18xpath_variable_set3setEPKcS2_, __ZN4pugi18xpath_variable_set3setEPKcb, 
                       __ZN4pugi18xpath_variable_set3setEPKcd, __ZN4pugi18xpath_variable_set5_swapERS0_, 
                       __ZN4pugi18xpath_variable_set6_cloneEPNS_14xpath_variableEPS2_, 
                       __ZN4pugi18xpath_variable_set7_assignERKS0_, __ZN4pugi18xpath_variable_set8_destroyEPNS_14xpath_variableE, 
                       __ZN4pugi18xpath_variable_setC1EOS0_, __ZN4pugi18xpath_variable_setC1ERKS0_, 
                       __ZN4pugi18xpath_variable_setC1Ev, __ZN4pugi18xpath_variable_setC2EOS0_, 
                       __ZN4pugi18xpath_variable_setC2ERKS0_, __ZN4pugi18xpath_variable_setC2Ev, 
                       __ZN4pugi18xpath_variable_setD1Ev, __ZN4pugi18xpath_variable_setD2Ev, 
                       __ZN4pugi18xpath_variable_setaSEOS0_, __ZN4pugi18xpath_variable_setaSERKS0_, 
                       __ZN4pugi22xml_attribute_iteratorC1EPNS_20xml_attribute_structEPNS_15xml_node_structE, 
                       __ZN4pugi22xml_attribute_iteratorC1ERKNS_13xml_attributeERKNS_8xml_nodeE, 
                       __ZN4pugi22xml_attribute_iteratorC1Ev, __ZN4pugi22xml_attribute_iteratorC2EPNS_20xml_attribute_structEPNS_15xml_node_structE, 
                       __ZN4pugi22xml_attribute_iteratorC2ERKNS_13xml_attributeERKNS_8xml_nodeE, 
                       __ZN4pugi22xml_attribute_iteratorC2Ev, __ZN4pugi22xml_attribute_iteratormmEi, 
                       __ZN4pugi22xml_attribute_iteratormmEv, __ZN4pugi22xml_attribute_iteratorppEi, 
                       __ZN4pugi22xml_attribute_iteratorppEv, __ZN4pugi23xml_named_node_iteratorC1EPNS_15xml_node_structES2_PKc, 
                       __ZN4pugi23xml_named_node_iteratorC1ERKNS_8xml_nodeEPKc, __ZN4pugi23xml_named_node_iteratorC1Ev, 
                       __ZN4pugi23xml_named_node_iteratorC2EPNS_15xml_node_structES2_PKc, 
                       __ZN4pugi23xml_named_node_iteratorC2ERKNS_8xml_nodeEPKc, __ZN4pugi23xml_named_node_iteratorC2Ev, 
                       __ZN4pugi23xml_named_node_iteratormmEi, __ZN4pugi23xml_named_node_iteratormmEv, 
                       __ZN4pugi23xml_named_node_iteratorppEi, __ZN4pugi23xml_named_node_iteratorppEv, 
                       __ZN4pugi30get_memory_allocation_functionEv, __ZN4pugi31set_memory_management_functionsEPFPvmEPFvS0_E, 
                       __ZN4pugi32get_memory_deallocation_functionEv, __ZN4pugi7as_utf8EPKw, 
                       __ZN4pugi7as_utf8ERKNSt3__112basic_stringIwNS0_11char_traitsIwEENS0_9allocatorIwEEEE, 
                       __ZN4pugi7as_wideEPKc, __ZN4pugi7as_wideERKNSt3__112basic_stringIcNS0_11char_traitsIcEENS0_9allocatorIcEEEE, 
                       __ZN4pugi8xml_node11append_copyERKNS_13xml_attributeE, __ZN4pugi8xml_node11append_copyERKS0_, 
                       __ZN4pugi8xml_node11append_moveERKS0_, __ZN4pugi8xml_node12append_childENS_13xml_node_typeE, 
                       __ZN4pugi8xml_node12append_childEPKc, __ZN4pugi8xml_node12prepend_copyERKNS_13xml_attributeE, 
                       __ZN4pugi8xml_node12prepend_copyERKS0_, __ZN4pugi8xml_node12prepend_moveERKS0_, 
                       __ZN4pugi8xml_node12remove_childEPKc, __ZN4pugi8xml_node12remove_childERKS0_, 
                       __ZN4pugi8xml_node13append_bufferEPKvmjNS_12xml_encodingE, 
                       __ZN4pugi8xml_node13prepend_childENS_13xml_node_typeE, __ZN4pugi8xml_node13prepend_childEPKc, 
                       __ZN4pugi8xml_node16append_attributeEPKc, __ZN4pugi8xml_node16remove_attributeEPKc, 
                       __ZN4pugi8xml_node16remove_attributeERKNS_13xml_attributeE, 
                       __ZN4pugi8xml_node17insert_copy_afterERKNS_13xml_attributeES3_, 
                       __ZN4pugi8xml_node17insert_copy_afterERKS0_S2_, __ZN4pugi8xml_node17insert_move_afterERKS0_S2_, 
                       __ZN4pugi8xml_node17prepend_attributeEPKc, __ZN4pugi8xml_node18insert_child_afterENS_13xml_node_typeERKS0_, 
                       __ZN4pugi8xml_node18insert_child_afterEPKcRKS0_, __ZN4pugi8xml_node18insert_copy_beforeERKNS_13xml_attributeES3_, 
                       __ZN4pugi8xml_node18insert_copy_beforeERKS0_S2_, __ZN4pugi8xml_node18insert_move_beforeERKS0_S2_, 
                       __ZN4pugi8xml_node19insert_child_beforeENS_13xml_node_typeERKS0_, 
                       __ZN4pugi8xml_node19insert_child_beforeEPKcRKS0_, __ZN4pugi8xml_node22insert_attribute_afterEPKcRKNS_13xml_attributeE, 
                       __ZN4pugi8xml_node23insert_attribute_beforeEPKcRKNS_13xml_attributeE, 
                       __ZN4pugi8xml_node8set_nameEPKc, __ZN4pugi8xml_node8traverseERNS_15xml_tree_walkerE, 
                       __ZN4pugi8xml_node9set_valueEPKc, __ZN4pugi8xml_nodeC1EPNS_15xml_node_structE, 
                       __ZN4pugi8xml_nodeC1Ev, __ZN4pugi8xml_nodeC2EPNS_15xml_node_structE, 
                       __ZN4pugi8xml_nodeC2Ev, __ZN4pugi8xml_text3setEPKc, __ZN4pugi8xml_text3setEb, 
                       __ZN4pugi8xml_text3setEd, __ZN4pugi8xml_text3setEf, __ZN4pugi8xml_text3setEi, 
                       __ZN4pugi8xml_text3setEj, __ZN4pugi8xml_text3setEl, __ZN4pugi8xml_text3setEm, 
                       __ZN4pugi8xml_text3setEx, __ZN4pugi8xml_text3setEy, __ZN4pugi8xml_text9_data_newEv, 
                       __ZN4pugi8xml_textC1EPNS_15xml_node_structE, __ZN4pugi8xml_textC1Ev, 
                       __ZN4pugi8xml_textC2EPNS_15xml_node_structE, __ZN4pugi8xml_textC2Ev, 
                       __ZN4pugi8xml_textaSEPKc, __ZN4pugi8xml_textaSEb, __ZN4pugi8xml_textaSEd, 
                       __ZN4pugi8xml_textaSEf, __ZN4pugi8xml_textaSEi, __ZN4pugi8xml_textaSEj, 
                       __ZN4pugi8xml_textaSEl, __ZN4pugi8xml_textaSEm, __ZN4pugi8xml_textaSEx, 
                       __ZN4pugi8xml_textaSEy, __ZN9MaterialX10getEnvironERKNSt3__112basic_stringIcNS0_11char_traitsIcEENS0_9allocatorIcEEEE, 
                       __ZN9MaterialX10setEnvironERKNSt3__112basic_stringIcNS0_11char_traitsIcEENS0_9allocatorIcEEEES8_, 
                       __ZN9MaterialX11loadLibraryERKNS_8FilePathENSt3__110shared_ptrINS_8DocumentEEERKNS_14FileSearchPathEPKNS_14XmlReadOptionsE, 
                       __ZN9MaterialX13loadDocumentsERKNS_8FilePathERKNS_14FileSearchPathERKNSt3__13setINS6_12basic_stringIcNS6_11char_traitsIcEENS6_9allocatorIcEEEENS6_4lessISD_EENSB_ISD_EEEESJ_RNS6_6vectorINS6_10shared_ptrINS_8DocumentEEENSB_ISN_EEEERNSK_ISD_SG_EEPKNS_14XmlReadOptionsEPSR_, 
                       __ZN9MaterialX13loadLibrariesERKNSt3__16vectorINS_8FilePathENS0_9allocatorIS2_EEEERKNS_14FileSearchPathENS0_10shared_ptrINS_8DocumentEEERKNS0_3setINS0_12basic_stringIcNS0_11char_traitsIcEENS3_IcEEEENS0_4lessISJ_EENS3_ISJ_EEEEPKNS_14XmlReadOptionsE, 
                       __ZN9MaterialX13removeEnvironERKNSt3__112basic_stringIcNS0_11char_traitsIcEENS0_9allocatorIcEEEE, 
                       __ZN9MaterialX14MTLX_EXTENSIONE, __ZN9MaterialX14XmlReadOptionsC1Ev, 
                       __ZN9MaterialX14XmlReadOptionsC2Ev, __ZN9MaterialX14writeToXmlFileENSt3__110shared_ptrINS_8DocumentEEERKNS_8FilePathEPKNS_15XmlWriteOptionsE, 
                       __ZN9MaterialX15XmlWriteOptionsC1Ev, __ZN9MaterialX15XmlWriteOptionsC2Ev, 
                       __ZN9MaterialX15prependXIncludeENSt3__110shared_ptrINS_8DocumentEEERKNS_8FilePathE, 
                       __ZN9MaterialX15readFromXmlFileENSt3__110shared_ptrINS_8DocumentEEENS_8FilePathENS_14FileSearchPathEPKNS_14XmlReadOptionsE, 
                       __ZN9MaterialX16VALID_SEPARATORSE, __ZN9MaterialX16flattenFilenamesENSt3__110shared_ptrINS_8DocumentEEERKNS_14FileSearchPathENS1_INS_14StringResolverEEE, 
                       __ZN9MaterialX16writeToXmlStreamENSt3__110shared_ptrINS_8DocumentEEERNS0_13basic_ostreamIcNS0_11char_traitsIcEEEEPKNS_15XmlWriteOptionsE, 
                       __ZN9MaterialX16writeToXmlStringENSt3__110shared_ptrINS_8DocumentEEEPKNS_15XmlWriteOptionsE, 
                       __ZN9MaterialX17getSubdirectoriesERKNSt3__16vectorINS_8FilePathENS0_9allocatorIS2_EEEERKNS_14FileSearchPathERS5_, 
                       __ZN9MaterialX17readFromXmlBufferENSt3__110shared_ptrINS_8DocumentEEEPKcPKNS_14XmlReadOptionsE, 
                       __ZN9MaterialX17readFromXmlStreamENSt3__110shared_ptrINS_8DocumentEEERNS0_13basic_istreamIcNS0_11char_traitsIcEEEEPKNS_14XmlReadOptionsE, 
                       __ZN9MaterialX17readFromXmlStringENSt3__110shared_ptrINS_8DocumentEEERKNS0_12basic_stringIcNS0_11char_traitsIcEENS0_9allocatorIcEEEEPKNS_14XmlReadOptionsE, 
                       __ZN9MaterialX18getEnvironmentPathERKNSt3__112basic_stringIcNS0_11char_traitsIcEENS0_9allocatorIcEEEE, 
                       __ZN9MaterialX19PATH_LIST_SEPARATORE, __ZN9MaterialX29MATERIALX_SEARCH_PATH_ENV_VARE, 
                       __ZN9MaterialX8FilePath13getModulePathEv, __ZN9MaterialX8FilePath14getCurrentPathEv, 
                       __ZN9MaterialX8FilePath6assignERKNSt3__112basic_stringIcNS1_11char_traitsIcEENS1_9allocatorIcEEEE, 
                       __ZN9MaterialX8readFileERKNS_8FilePathE, __ZNK4pugi10xpath_node4nodeEv, 
                       __ZNK4pugi10xpath_node6parentEv, __ZNK4pugi10xpath_node9attributeEv, 
                       __ZNK4pugi10xpath_nodecvPFvPPPS0_EEv, __ZNK4pugi10xpath_nodeeqERKS0_, 
                       __ZNK4pugi10xpath_nodeneERKS0_, __ZNK4pugi10xpath_nodentEv, 
                       __ZNK4pugi11xpath_query11return_typeEv, __ZNK4pugi11xpath_query13evaluate_nodeERKNS_10xpath_nodeE, 
                       __ZNK4pugi11xpath_query15evaluate_numberERKNS_10xpath_nodeE, 
                       __ZNK4pugi11xpath_query15evaluate_stringEPcmRKNS_10xpath_nodeE, 
                       __ZNK4pugi11xpath_query15evaluate_stringERKNS_10xpath_nodeE, 
                       __ZNK4pugi11xpath_query16evaluate_booleanERKNS_10xpath_nodeE, 
                       __ZNK4pugi11xpath_query17evaluate_node_setERKNS_10xpath_nodeE, 
                       __ZNK4pugi11xpath_query6resultEv, __ZNK4pugi11xpath_querycvPFvPPPS0_EEv, 
                       __ZNK4pugi11xpath_queryntEv, __ZNK4pugi12xml_document16document_elementEv, 
                       __ZNK4pugi12xml_document4saveERNS_10xml_writerEPKcjNS_12xml_encodingE, 
                       __ZNK4pugi12xml_document4saveERNSt3__113basic_ostreamIcNS1_11char_traitsIcEEEEPKcjNS_12xml_encodingE, 
                       __ZNK4pugi12xml_document4saveERNSt3__113basic_ostreamIwNS1_11char_traitsIwEEEEPKcj, 
                       __ZNK4pugi12xml_document9save_fileEPKcS2_jNS_12xml_encodingE, 
                       __ZNK4pugi12xml_document9save_fileEPKwPKcjNS_12xml_encodingE, 
                       __ZNK4pugi13xml_attribute10hash_valueEv, __ZNK4pugi13xml_attribute14next_attributeEv, 
                       __ZNK4pugi13xml_attribute15internal_objectEv, __ZNK4pugi13xml_attribute18previous_attributeEv, 
                       __ZNK4pugi13xml_attribute4nameEv, __ZNK4pugi13xml_attribute5emptyEv, 
                       __ZNK4pugi13xml_attribute5valueEv, __ZNK4pugi13xml_attribute6as_intEi, 
                       __ZNK4pugi13xml_attribute7as_boolEb, __ZNK4pugi13xml_attribute7as_uintEj, 
                       __ZNK4pugi13xml_attribute8as_floatEf, __ZNK4pugi13xml_attribute8as_llongEx, 
                       __ZNK4pugi13xml_attribute9as_doubleEd, __ZNK4pugi13xml_attribute9as_stringEPKc, 
                       __ZNK4pugi13xml_attribute9as_ullongEy, __ZNK4pugi13xml_attributecvPFvPPPS0_EEv, 
                       __ZNK4pugi13xml_attributeeqERKS0_, __ZNK4pugi13xml_attributegeERKS0_, 
                       __ZNK4pugi13xml_attributegtERKS0_, __ZNK4pugi13xml_attributeleERKS0_, 
                       __ZNK4pugi13xml_attributeltERKS0_, __ZNK4pugi13xml_attributeneERKS0_, 
                       __ZNK4pugi13xml_attributentEv, __ZNK4pugi14xpath_node_set3endEv, 
                       __ZNK4pugi14xpath_node_set4sizeEv, __ZNK4pugi14xpath_node_set4typeEv, 
                       __ZNK4pugi14xpath_node_set5beginEv, __ZNK4pugi14xpath_node_set5emptyEv, 
                       __ZNK4pugi14xpath_node_set5firstEv, __ZNK4pugi14xpath_node_setixEm, 
                       __ZNK4pugi14xpath_variable10get_numberEv, __ZNK4pugi14xpath_variable10get_stringEv, 
                       __ZNK4pugi14xpath_variable11get_booleanEv, __ZNK4pugi14xpath_variable12get_node_setEv, 
                       __ZNK4pugi14xpath_variable4nameEv, __ZNK4pugi14xpath_variable4typeEv, 
                       __ZNK4pugi15xml_tree_walker5depthEv, __ZNK4pugi15xpath_exception4whatEv, 
                       __ZNK4pugi15xpath_exception6resultEv, __ZNK4pugi16xml_parse_result11descriptionEv, 
                       __ZNK4pugi16xml_parse_resultcvbEv, __ZNK4pugi17xml_node_iteratordeEv, 
                       __ZNK4pugi17xml_node_iteratoreqERKS0_, __ZNK4pugi17xml_node_iteratorneERKS0_, 
                       __ZNK4pugi17xml_node_iteratorptEv, __ZNK4pugi18xpath_parse_result11descriptionEv, 
                       __ZNK4pugi18xpath_parse_resultcvbEv, __ZNK4pugi18xpath_variable_set3getEPKc, 
                       __ZNK4pugi18xpath_variable_set5_findEPKc, __ZNK4pugi22xml_attribute_iteratordeEv, 
                       __ZNK4pugi22xml_attribute_iteratoreqERKS0_, __ZNK4pugi22xml_attribute_iteratorneERKS0_, 
                       __ZNK4pugi22xml_attribute_iteratorptEv, __ZNK4pugi23xml_named_node_iteratordeEv, 
                       __ZNK4pugi23xml_named_node_iteratoreqERKS0_, __ZNK4pugi23xml_named_node_iteratorneERKS0_, 
                       __ZNK4pugi23xml_named_node_iteratorptEv, __ZNK4pugi8xml_node10attributesEv, 
                       __ZNK4pugi8xml_node10hash_valueEv, __ZNK4pugi8xml_node10last_childEv, 
                       __ZNK4pugi8xml_node11child_valueEPKc, __ZNK4pugi8xml_node11child_valueEv, 
                       __ZNK4pugi8xml_node11first_childEv, __ZNK4pugi8xml_node11select_nodeEPKcPNS_18xpath_variable_setE, 
                       __ZNK4pugi8xml_node11select_nodeERKNS_11xpath_queryE, __ZNK4pugi8xml_node12next_siblingEPKc, 
                       __ZNK4pugi8xml_node12next_siblingEv, __ZNK4pugi8xml_node12offset_debugEv, 
                       __ZNK4pugi8xml_node12select_nodesEPKcPNS_18xpath_variable_setE, 
                       __ZNK4pugi8xml_node12select_nodesERKNS_11xpath_queryE, __ZNK4pugi8xml_node14attributes_endEv, 
                       __ZNK4pugi8xml_node14last_attributeEv, __ZNK4pugi8xml_node15first_attributeEv, 
                       __ZNK4pugi8xml_node15internal_objectEv, __ZNK4pugi8xml_node16attributes_beginEv, 
                       __ZNK4pugi8xml_node16previous_siblingEPKc, __ZNK4pugi8xml_node16previous_siblingEv, 
                       __ZNK4pugi8xml_node18select_single_nodeEPKcPNS_18xpath_variable_setE, 
                       __ZNK4pugi8xml_node18select_single_nodeERKNS_11xpath_queryE, 
                       __ZNK4pugi8xml_node21first_element_by_pathEPKcc, __ZNK4pugi8xml_node23find_child_by_attributeEPKcS2_, 
                       __ZNK4pugi8xml_node23find_child_by_attributeEPKcS2_S2_, __ZNK4pugi8xml_node3endEv, 
                       __ZNK4pugi8xml_node4nameEv, __ZNK4pugi8xml_node4pathEc, __ZNK4pugi8xml_node4rootEv, 
                       __ZNK4pugi8xml_node4textEv, __ZNK4pugi8xml_node4typeEv, __ZNK4pugi8xml_node5beginEv, 
                       __ZNK4pugi8xml_node5childEPKc, __ZNK4pugi8xml_node5emptyEv, 
                       __ZNK4pugi8xml_node5printERNS_10xml_writerEPKcjNS_12xml_encodingEj, 
                       __ZNK4pugi8xml_node5printERNSt3__113basic_ostreamIcNS1_11char_traitsIcEEEEPKcjNS_12xml_encodingEj, 
                       __ZNK4pugi8xml_node5printERNSt3__113basic_ostreamIwNS1_11char_traitsIwEEEEPKcjj, 
                       __ZNK4pugi8xml_node5valueEv, __ZNK4pugi8xml_node6parentEv, 
                       __ZNK4pugi8xml_node8childrenEPKc, __ZNK4pugi8xml_node8childrenEv, 
                       __ZNK4pugi8xml_node9attributeEPKc, __ZNK4pugi8xml_node9attributeEPKcRNS_13xml_attributeE, 
                       __ZNK4pugi8xml_nodecvPFvPPPS0_EEv, __ZNK4pugi8xml_nodeeqERKS0_, 
                       __ZNK4pugi8xml_nodegeERKS0_, __ZNK4pugi8xml_nodegtERKS0_, 
                       __ZNK4pugi8xml_nodeleERKS0_, __ZNK4pugi8xml_nodeltERKS0_, 
                       __ZNK4pugi8xml_nodeneERKS0_, __ZNK4pugi8xml_nodentEv, __ZNK4pugi8xml_text3getEv, 
                       __ZNK4pugi8xml_text4dataEv, __ZNK4pugi8xml_text5_dataEv, __ZNK4pugi8xml_text5emptyEv, 
                       __ZNK4pugi8xml_text6as_intEi, __ZNK4pugi8xml_text7as_boolEb, 
                       __ZNK4pugi8xml_text7as_uintEj, __ZNK4pugi8xml_text8as_floatEf, 
                       __ZNK4pugi8xml_text8as_llongEx, __ZNK4pugi8xml_text9as_doubleEd, 
                       __ZNK4pugi8xml_text9as_stringEPKc, __ZNK4pugi8xml_text9as_ullongEy, 
                       __ZNK4pugi8xml_textcvPFvPPPS0_EEv, __ZNK4pugi8xml_textntEv, 
                       __ZNK9MaterialX8FilePath11isDirectoryEv, __ZNK9MaterialX8FilePath15createDirectoryEv, 
                       __ZNK9MaterialX8FilePath17getSubDirectoriesEv, __ZNK9MaterialX8FilePath19getFilesInDirectoryERKNSt3__112basic_stringIcNS1_11char_traitsIcEENS1_9allocatorIcEEEE, 
                       __ZNK9MaterialX8FilePath6existsEv, __ZNK9MaterialX8FilePath8asStringENS0_6FormatE, 
                       __ZNK9MaterialX8FilePathdvERKS0_, __ZTIN4pugi15xml_tree_walkerE, 
                       __ZTIN4pugi15xml_writer_fileE, __ZTIN4pugi15xpath_exceptionE, 
                       __ZTIN4pugi17xml_writer_streamE, __ZTSN4pugi15xml_tree_walkerE, 
                       __ZTSN4pugi15xml_writer_fileE, __ZTSN4pugi15xpath_exceptionE, 
                       __ZTSN4pugi17xml_writer_streamE, __ZTVN4pugi15xml_tree_walkerE, 
                       __ZTVN4pugi15xml_writer_fileE, __ZTVN4pugi15xpath_exceptionE, 
                       __ZTVN4pugi17xml_writer_streamE ]
...
