--- !tapi-tbd
tbd-version:     4
targets:         [ x86_64-macos, arm64-macos, arm64e-macos ]
uuids:
  - target:          x86_64-macos
    value:           FE6B4C6A-A3A7-32F3-B55E-CA333C8E803D
  - target:          arm64-macos
    value:           00000000-0000-0000-0000-000000000000
  - target:          arm64e-macos
    value:           4CE5B5F5-015A-30F2-9C5D-3F1FC9F2D9D4
install-name:    '/usr/lib/usd/libosdCPU.dylib'
current-version: 20.102.2
compatibility-version: 0
exports:
  - targets:         [ x86_64-macos, arm64-macos, arm64e-macos ]
    symbols:         [ __ZN10OpenSubdiv6v3_4_43Far10PatchTable13getFVarValuesEi, 
                       __ZN10OpenSubdiv6v3_4_43Far10PatchTable14findPatchArrayENS1_15PatchDescriptorE, 
                       __ZN10OpenSubdiv6v3_4_43Far10PatchTable14getPatchParamsEi, 
                       __ZN10OpenSubdiv6v3_4_43Far10PatchTable14pushPatchArrayENS1_15PatchDescriptorEiPiS4_S4_, 
                       __ZN10OpenSubdiv6v3_4_43Far10PatchTable18getFVarPatchParamsEi, 
                       __ZN10OpenSubdiv6v3_4_43Far10PatchTable18getSharpnessValuesEi, 
                       __ZN10OpenSubdiv6v3_4_43Far10PatchTable18reservePatchArraysEi, 
                       __ZN10OpenSubdiv6v3_4_43Far10PatchTable19getSharpnessIndicesEi, 
                       __ZN10OpenSubdiv6v3_4_43Far10PatchTable21getPatchArrayVerticesEi, 
                       __ZN10OpenSubdiv6v3_4_43Far10PatchTable23allocateVaryingVerticesENS1_15PatchDescriptorEi, 
                       __ZN10OpenSubdiv6v3_4_43Far10PatchTable23populateVaryingVerticesEv, 
                       __ZN10OpenSubdiv6v3_4_43Far10PatchTable25allocateFVarPatchChannelsEi, 
                       __ZN10OpenSubdiv6v3_4_43Far10PatchTable28getPatchArrayVaryingVerticesEi, 
                       __ZN10OpenSubdiv6v3_4_43Far10PatchTable30allocateFVarPatchChannelValuesENS1_15PatchDescriptorES3_ii, 
                       __ZN10OpenSubdiv6v3_4_43Far10PatchTable38setFVarPatchChannelLinearInterpolationENS0_3Sdc7Options23FVarLinearInterpolationEi, 
                       __ZN10OpenSubdiv6v3_4_43Far10PatchTableC1ERKS2_, __ZN10OpenSubdiv6v3_4_43Far10PatchTableC1Ei, 
                       __ZN10OpenSubdiv6v3_4_43Far10PatchTableC2ERKS2_, __ZN10OpenSubdiv6v3_4_43Far10PatchTableC2Ei, 
                       __ZN10OpenSubdiv6v3_4_43Far10PatchTableD1Ev, __ZN10OpenSubdiv6v3_4_43Far10PatchTableD2Ev, 
                       __ZN10OpenSubdiv6v3_4_43Far11PtexIndices21initializePtexIndicesERKNS1_15TopologyRefinerE, 
                       __ZN10OpenSubdiv6v3_4_43Far11PtexIndicesC1ERKNS1_15TopologyRefinerE, 
                       __ZN10OpenSubdiv6v3_4_43Far11PtexIndicesC2ERKNS1_15TopologyRefinerE, 
                       __ZN10OpenSubdiv6v3_4_43Far11PtexIndicesD1Ev, __ZN10OpenSubdiv6v3_4_43Far11PtexIndicesD2Ev, 
                       __ZN10OpenSubdiv6v3_4_43Far15PatchDescriptor27GetAdaptivePatchDescriptorsENS0_3Sdc10SchemeTypeE, 
                       __ZN10OpenSubdiv6v3_4_43Far15TopologyRefiner11appendLevelERNS0_3Vtr8internal5LevelE, 
                       __ZN10OpenSubdiv6v3_4_43Far15TopologyRefiner13RefineUniformENS2_14UniformOptionsE, 
                       __ZN10OpenSubdiv6v3_4_43Far15TopologyRefiner14RefineAdaptiveENS2_15AdaptiveOptionsENS0_3Vtr10ConstArrayIiEE, 
                       __ZN10OpenSubdiv6v3_4_43Far15TopologyRefiner15updateInventoryERKNS0_3Vtr8internal5LevelE, 
                       __ZN10OpenSubdiv6v3_4_43Far15TopologyRefiner16appendRefinementERNS0_3Vtr8internal10RefinementE, 
                       __ZN10OpenSubdiv6v3_4_43Far15TopologyRefiner17assembleFarLevelsEv, 
                       __ZN10OpenSubdiv6v3_4_43Far15TopologyRefiner19initializeInventoryEv, 
                       __ZN10OpenSubdiv6v3_4_43Far15TopologyRefiner26selectLinearIrregularFacesERNS0_3Vtr8internal14SparseSelectorENS3_10ConstArrayIiEE, 
                       __ZN10OpenSubdiv6v3_4_43Far15TopologyRefiner31selectFeatureAdaptiveComponentsERNS0_3Vtr8internal14SparseSelectorERKNS1_8internal11FeatureMaskENS3_10ConstArrayIiEE, 
                       __ZN10OpenSubdiv6v3_4_43Far15TopologyRefiner8UnrefineEv, __ZN10OpenSubdiv6v3_4_43Far15TopologyRefinerC1ENS0_3Sdc10SchemeTypeENS3_7OptionsE, 
                       __ZN10OpenSubdiv6v3_4_43Far15TopologyRefinerC1ERKS2_, __ZN10OpenSubdiv6v3_4_43Far15TopologyRefinerC2ENS0_3Sdc10SchemeTypeENS3_7OptionsE, 
                       __ZN10OpenSubdiv6v3_4_43Far15TopologyRefinerC2ERKS2_, __ZN10OpenSubdiv6v3_4_43Far15TopologyRefinerD1Ev, 
                       __ZN10OpenSubdiv6v3_4_43Far15TopologyRefinerD2Ev, __ZN10OpenSubdiv6v3_4_43Far16SetErrorCallbackEPFvNS1_9ErrorTypeEPKcE, 
                       __ZN10OpenSubdiv6v3_4_43Far17PatchTableFactory12PatchFaceTag36assignBoundaryPropertiesFromEdgeMaskEi, 
                       __ZN10OpenSubdiv6v3_4_43Far17PatchTableFactory12PatchFaceTag38assignBoundaryPropertiesFromVertexMaskEi, 
                       __ZN10OpenSubdiv6v3_4_43Far17PatchTableFactory12PatchFaceTag38assignTransitionPropertiesFromEdgeMaskEi, 
                       __ZN10OpenSubdiv6v3_4_43Far17PatchTableFactory12PatchFaceTag5clearEv, 
                       __ZN10OpenSubdiv6v3_4_43Far17PatchTableFactory6CreateERKNS1_15TopologyRefinerENS2_7OptionsENS0_3Vtr10ConstArrayIiEE, 
                       __ZN10OpenSubdiv6v3_4_43Far18SetWarningCallbackEPFvPKcE, __ZN10OpenSubdiv6v3_4_43Far18TopologyDescriptorC1Ev, 
                       __ZN10OpenSubdiv6v3_4_43Far18TopologyDescriptorC2Ev, __ZN10OpenSubdiv6v3_4_43Far22TopologyRefinerFactoryINS1_18TopologyDescriptorEE19assignComponentTagsERNS1_15TopologyRefinerERKS3_, 
                       __ZN10OpenSubdiv6v3_4_43Far22TopologyRefinerFactoryINS1_18TopologyDescriptorEE21reportInvalidTopologyENS0_3Vtr8internal5Level13TopologyErrorEPKcRKS3_, 
                       __ZN10OpenSubdiv6v3_4_43Far22TopologyRefinerFactoryINS1_18TopologyDescriptorEE23assignComponentTopologyERNS1_15TopologyRefinerERKS3_, 
                       __ZN10OpenSubdiv6v3_4_43Far22TopologyRefinerFactoryINS1_18TopologyDescriptorEE23resizeComponentTopologyERNS1_15TopologyRefinerERKS3_, 
                       __ZN10OpenSubdiv6v3_4_43Far22TopologyRefinerFactoryINS1_18TopologyDescriptorEE25assignFaceVaryingTopologyERNS1_15TopologyRefinerERKS3_, 
                       __ZN10OpenSubdiv6v3_4_43Far26TopologyRefinerFactoryBase26prepareFaceVaryingChannelsERNS1_15TopologyRefinerE, 
                       __ZN10OpenSubdiv6v3_4_43Far26TopologyRefinerFactoryBase30prepareComponentTopologySizingERNS1_15TopologyRefinerE, 
                       __ZN10OpenSubdiv6v3_4_43Far26TopologyRefinerFactoryBase32prepareComponentTagsAndSharpnessERNS1_15TopologyRefinerE, 
                       __ZN10OpenSubdiv6v3_4_43Far26TopologyRefinerFactoryBase34prepareComponentTopologyAssignmentERNS1_15TopologyRefinerEbPFvNS0_3Vtr8internal5Level13TopologyErrorEPKcPKvESC_, 
                       __ZN10OpenSubdiv6v3_4_43Far5ErrorENS1_9ErrorTypeEPKcz, __ZN10OpenSubdiv6v3_4_43Far7WarningEPKcz, 
                       __ZN10OpenSubdiv6v3_4_43Far8PatchMap17initializeHandlesERKNS1_10PatchTableE, 
                       __ZN10OpenSubdiv6v3_4_43Far8PatchMap18initializeQuadtreeERKNS1_10PatchTableE, 
                       __ZN10OpenSubdiv6v3_4_43Far8PatchMapC1ERKNS1_10PatchTableE, 
                       __ZN10OpenSubdiv6v3_4_43Far8PatchMapC2ERKNS1_10PatchTableE, 
                       __ZN10OpenSubdiv6v3_4_43Osd12CpuEvaluator11EvalPatchesEPKfRKNS1_16BufferDescriptorEPfS7_S8_S7_S8_S7_S8_S7_S8_S7_S8_S7_iPKNS1_10PatchCoordEPKNS1_10PatchArrayEPKiPKNS1_10PatchParamE, 
                       __ZN10OpenSubdiv6v3_4_43Osd12CpuEvaluator11EvalPatchesEPKfRKNS1_16BufferDescriptorEPfS7_S8_S7_S8_S7_iPKNS1_10PatchCoordEPKNS1_10PatchArrayEPKiPKNS1_10PatchParamE, 
                       __ZN10OpenSubdiv6v3_4_43Osd12CpuEvaluator11EvalPatchesEPKfRKNS1_16BufferDescriptorEPfS7_iPKNS1_10PatchCoordEPKNS1_10PatchArrayEPKiPKNS1_10PatchParamE, 
                       __ZN10OpenSubdiv6v3_4_43Osd12CpuEvaluator12EvalStencilsEPKfRKNS1_16BufferDescriptorEPfS7_PKiSA_SA_S4_ii, 
                       __ZN10OpenSubdiv6v3_4_43Osd12CpuEvaluator12EvalStencilsEPKfRKNS1_16BufferDescriptorEPfS7_S8_S7_S8_S7_PKiSA_SA_S4_S4_S4_ii, 
                       __ZN10OpenSubdiv6v3_4_43Osd12CpuEvaluator12EvalStencilsEPKfRKNS1_16BufferDescriptorEPfS7_S8_S7_S8_S7_S8_S7_S8_S7_S8_S7_PKiSA_SA_S4_S4_S4_S4_S4_S4_ii, 
                       __ZN10OpenSubdiv6v3_4_43Osd13CpuPatchTableC1EPKNS0_3Far10PatchTableE, 
                       __ZN10OpenSubdiv6v3_4_43Osd13CpuPatchTableC2EPKNS0_3Far10PatchTableE, 
                       __ZN10OpenSubdiv6v3_4_43Osd15CpuVertexBuffer10UpdateDataEPKfiiPv, 
                       __ZN10OpenSubdiv6v3_4_43Osd15CpuVertexBuffer13BindCpuBufferEv, 
                       __ZN10OpenSubdiv6v3_4_43Osd15CpuVertexBuffer6CreateEiiPv, 
                       __ZN10OpenSubdiv6v3_4_43Osd15CpuVertexBufferC1Eii, __ZN10OpenSubdiv6v3_4_43Osd15CpuVertexBufferC2Eii, 
                       __ZN10OpenSubdiv6v3_4_43Osd15CpuVertexBufferD1Ev, __ZN10OpenSubdiv6v3_4_43Osd15CpuVertexBufferD2Ev, 
                       __ZN10OpenSubdiv6v3_4_43Sdc16SchemeTypeTraits18GetRegularFaceSizeENS1_10SchemeTypeE, 
                       __ZN10OpenSubdiv6v3_4_43Sdc16SchemeTypeTraits23GetRegularVertexValenceENS1_10SchemeTypeE, 
                       __ZN10OpenSubdiv6v3_4_43Sdc16SchemeTypeTraits23GetTopologicalSplitTypeENS1_10SchemeTypeE, 
                       __ZN10OpenSubdiv6v3_4_43Sdc16SchemeTypeTraits24GetLocalNeighborhoodSizeENS1_10SchemeTypeE, 
                       __ZN10OpenSubdiv6v3_4_43Sdc16SchemeTypeTraits7GetNameENS1_10SchemeTypeE, 
                       __ZN10OpenSubdiv6v3_4_43Sdc6Crease16SHARPNESS_SMOOTHE, __ZN10OpenSubdiv6v3_4_43Sdc6Crease18SHARPNESS_INFINITEE, 
                       __ZN10OpenSubdiv6v3_4_43Vtr8internal10Refinement17subdivideTopologyERKNS3_9RelationsE, 
                       __ZN10OpenSubdiv6v3_4_43Vtr8internal10Refinement21subdivideFVarChannelsEv, 
                       __ZN10OpenSubdiv6v3_4_43Vtr8internal10Refinement22markSparseEdgeChildrenEv, 
                       __ZN10OpenSubdiv6v3_4_43Vtr8internal10Refinement22populateEdgeTagVectorsEv, 
                       __ZN10OpenSubdiv6v3_4_43Vtr8internal10Refinement22populateFaceTagVectorsEv, 
                       __ZN10OpenSubdiv6v3_4_43Vtr8internal10Refinement22propagateComponentTagsEv, 
                       __ZN10OpenSubdiv6v3_4_43Vtr8internal10Refinement22subdivideEdgeSharpnessEv, 
                       __ZN10OpenSubdiv6v3_4_43Vtr8internal10Refinement24markSparseVertexChildrenEv, 
                       __ZN10OpenSubdiv6v3_4_43Vtr8internal10Refinement24populateVertexTagVectorsEv, 
                       __ZN10OpenSubdiv6v3_4_43Vtr8internal10Refinement24subdivideSharpnessValuesEv, 
                       __ZN10OpenSubdiv6v3_4_43Vtr8internal10Refinement24subdivideVertexSharpnessEv, 
                       __ZN10OpenSubdiv6v3_4_43Vtr8internal10Refinement25populateEdgeParentVectorsEPA4_KNS3_8ChildTagE, 
                       __ZN10OpenSubdiv6v3_4_43Vtr8internal10Refinement25populateFaceParentVectorsEPA4_KNS3_8ChildTagE, 
                       __ZN10OpenSubdiv6v3_4_43Vtr8internal10Refinement26populateParentChildIndicesEv, 
                       __ZN10OpenSubdiv6v3_4_43Vtr8internal10Refinement27populateVertexParentVectorsEPA4_KNS3_8ChildTagE, 
                       __ZN10OpenSubdiv6v3_4_43Vtr8internal10Refinement27reclassifySemisharpVerticesEv, 
                       __ZN10OpenSubdiv6v3_4_43Vtr8internal10Refinement28populateChildToParentMappingEv, 
                       __ZN10OpenSubdiv6v3_4_43Vtr8internal10Refinement28populateParentToChildMappingEv, 
                       __ZN10OpenSubdiv6v3_4_43Vtr8internal10Refinement29initializeSparseSelectionTagsEv, 
                       __ZN10OpenSubdiv6v3_4_43Vtr8internal10Refinement30initializeChildComponentCountsEv, 
                       __ZN10OpenSubdiv6v3_4_43Vtr8internal10Refinement31markSparseChildComponentIndicesEv, 
                       __ZN10OpenSubdiv6v3_4_43Vtr8internal10Refinement31populateEdgeTagsFromParentEdgesEv, 
                       __ZN10OpenSubdiv6v3_4_43Vtr8internal10Refinement31populateEdgeTagsFromParentFacesEv, 
                       __ZN10OpenSubdiv6v3_4_43Vtr8internal10Refinement31populateFaceTagsFromParentFacesEv, 
                       __ZN10OpenSubdiv6v3_4_43Vtr8internal10Refinement33populateEdgeParentFromParentEdgesEPA4_KNS3_8ChildTagE, 
                       __ZN10OpenSubdiv6v3_4_43Vtr8internal10Refinement33populateEdgeParentFromParentFacesEPA4_KNS3_8ChildTagE, 
                       __ZN10OpenSubdiv6v3_4_43Vtr8internal10Refinement33populateFaceParentFromParentFacesEPA4_KNS3_8ChildTagE, 
                       __ZN10OpenSubdiv6v3_4_43Vtr8internal10Refinement33populateVertexTagsFromParentEdgesEv, 
                       __ZN10OpenSubdiv6v3_4_43Vtr8internal10Refinement33populateVertexTagsFromParentFacesEv, 
                       __ZN10OpenSubdiv6v3_4_43Vtr8internal10Refinement35populateVertexParentFromParentEdgesEPA4_KNS3_8ChildTagE, 
                       __ZN10OpenSubdiv6v3_4_43Vtr8internal10Refinement35populateVertexParentFromParentFacesEPA4_KNS3_8ChildTagE, 
                       __ZN10OpenSubdiv6v3_4_43Vtr8internal10Refinement36populateVertexTagsFromParentVerticesEv, 
                       __ZN10OpenSubdiv6v3_4_43Vtr8internal10Refinement38populateVertexParentFromParentVerticesEPA4_KNS3_8ChildTagE, 
                       __ZN10OpenSubdiv6v3_4_43Vtr8internal10Refinement6refineENS3_7OptionsE, 
                       __ZN10OpenSubdiv6v3_4_43Vtr8internal10RefinementC2ERKNS2_5LevelERS4_RKNS0_3Sdc7OptionsE, 
                       __ZN10OpenSubdiv6v3_4_43Vtr8internal10RefinementD0Ev, __ZN10OpenSubdiv6v3_4_43Vtr8internal10RefinementD1Ev, 
                       __ZN10OpenSubdiv6v3_4_43Vtr8internal10RefinementD2Ev, __ZN10OpenSubdiv6v3_4_43Vtr8internal14FVarRefinement15applyRefinementEv, 
                       __ZN10OpenSubdiv6v3_4_43Vtr8internal14FVarRefinement17propagateEdgeTagsEv, 
                       __ZN10OpenSubdiv6v3_4_43Vtr8internal14FVarRefinement18propagateValueTagsEv, 
                       __ZN10OpenSubdiv6v3_4_43Vtr8internal14FVarRefinement19populateChildValuesEv, 
                       __ZN10OpenSubdiv6v3_4_43Vtr8internal14FVarRefinement21propagateValueCreasesEv, 
                       __ZN10OpenSubdiv6v3_4_43Vtr8internal14FVarRefinement25reclassifySemisharpValuesEv, 
                       __ZN10OpenSubdiv6v3_4_43Vtr8internal14FVarRefinement26trimAndFinalizeChildValuesEv, 
                       __ZN10OpenSubdiv6v3_4_43Vtr8internal14FVarRefinement30estimateAndAllocateChildValuesEv, 
                       __ZN10OpenSubdiv6v3_4_43Vtr8internal14FVarRefinement35populateChildValuesFromEdgeVerticesEv, 
                       __ZN10OpenSubdiv6v3_4_43Vtr8internal14FVarRefinement35populateChildValuesFromFaceVerticesEv, 
                       __ZN10OpenSubdiv6v3_4_43Vtr8internal14FVarRefinement37populateChildValuesFromVertexVerticesEv, 
                       __ZN10OpenSubdiv6v3_4_43Vtr8internal14FVarRefinementC1ERKNS2_10RefinementERNS2_9FVarLevelES8_, 
                       __ZN10OpenSubdiv6v3_4_43Vtr8internal14FVarRefinementC2ERKNS2_10RefinementERNS2_9FVarLevelES8_, 
                       __ZN10OpenSubdiv6v3_4_43Vtr8internal14FVarRefinementD1Ev, 
                       __ZN10OpenSubdiv6v3_4_43Vtr8internal14FVarRefinementD2Ev, 
                       __ZN10OpenSubdiv6v3_4_43Vtr8internal14SparseSelector10selectEdgeEi, 
                       __ZN10OpenSubdiv6v3_4_43Vtr8internal14SparseSelector10selectFaceEi, 
                       __ZN10OpenSubdiv6v3_4_43Vtr8internal14SparseSelector12selectVertexEi, 
                       __ZN10OpenSubdiv6v3_4_43Vtr8internal5Level17createFVarChannelEiRKNS0_3Sdc7OptionsE, 
                       __ZN10OpenSubdiv6v3_4_43Vtr8internal5Level17getFaceFVarValuesEii, 
                       __ZN10OpenSubdiv6v3_4_43Vtr8internal5Level18destroyFVarChannelEi, 
                       __ZN10OpenSubdiv6v3_4_43Vtr8internal5Level20populateLocalIndicesEv, 
                       __ZN10OpenSubdiv6v3_4_43Vtr8internal5Level22getTopologyErrorStringENS3_13TopologyErrorE, 
                       __ZN10OpenSubdiv6v3_4_43Vtr8internal5Level24orderVertexFacesAndEdgesEi, 
                       __ZN10OpenSubdiv6v3_4_43Vtr8internal5Level24orientIncidentComponentsEv, 
                       __ZN10OpenSubdiv6v3_4_43Vtr8internal5Level27completeFVarChannelTopologyEii, 
                       __ZN10OpenSubdiv6v3_4_43Vtr8internal5Level32completeTopologyFromFaceVerticesEv, 
                       __ZN10OpenSubdiv6v3_4_43Vtr8internal5Level4ETag9BitwiseOrEPKS4_i, 
                       __ZN10OpenSubdiv6v3_4_43Vtr8internal5Level4VTag9BitwiseOrEPKS4_i, 
                       __ZN10OpenSubdiv6v3_4_43Vtr8internal5LevelC1Ev, __ZN10OpenSubdiv6v3_4_43Vtr8internal5LevelC2Ev, 
                       __ZN10OpenSubdiv6v3_4_43Vtr8internal5LevelD1Ev, __ZN10OpenSubdiv6v3_4_43Vtr8internal5LevelD2Ev, 
                       __ZN10OpenSubdiv6v3_4_43Vtr8internal9FVarLevel10setOptionsERKNS0_3Sdc7OptionsE, 
                       __ZN10OpenSubdiv6v3_4_43Vtr8internal9FVarLevel12resizeValuesEi, 
                       __ZN10OpenSubdiv6v3_4_43Vtr8internal9FVarLevel16resizeComponentsEv, 
                       __ZN10OpenSubdiv6v3_4_43Vtr8internal9FVarLevel18resizeVertexValuesEi, 
                       __ZN10OpenSubdiv6v3_4_43Vtr8internal9FVarLevel30completeTopologyFromFaceValuesEi, 
                       __ZN10OpenSubdiv6v3_4_43Vtr8internal9FVarLevel36initializeFaceValuesFromFaceVerticesEv, 
                       __ZN10OpenSubdiv6v3_4_43Vtr8internal9FVarLevel42initializeFaceValuesFromVertexFaceSiblingsEv, 
                       __ZN10OpenSubdiv6v3_4_43Vtr8internal9FVarLevelC1ERKNS2_5LevelE, 
                       __ZN10OpenSubdiv6v3_4_43Vtr8internal9FVarLevelC2ERKNS2_5LevelE, 
                       __ZN10OpenSubdiv6v3_4_43Vtr8internal9FVarLevelD1Ev, __ZN10OpenSubdiv6v3_4_43Vtr8internal9FVarLevelD2Ev, 
                       __ZNK10OpenSubdiv6v3_4_43Far10PatchTable13GetFVarValuesEi, 
                       __ZNK10OpenSubdiv6v3_4_43Far10PatchTable13GetNumPatchesEi, 
                       __ZNK10OpenSubdiv6v3_4_43Far10PatchTable13GetPatchParamERKNS2_11PatchHandleE, 
                       __ZNK10OpenSubdiv6v3_4_43Far10PatchTable13GetPatchParamEii, 
                       __ZNK10OpenSubdiv6v3_4_43Far10PatchTable13getPatchIndexEii, 
                       __ZNK10OpenSubdiv6v3_4_43Far10PatchTable14GetPatchParamsEi, 
                       __ZNK10OpenSubdiv6v3_4_43Far10PatchTable16GetPatchVerticesERKNS2_11PatchHandleE, 
                       __ZNK10OpenSubdiv6v3_4_43Far10PatchTable16GetPatchVerticesEii, 
                       __ZNK10OpenSubdiv6v3_4_43Far10PatchTable17GetNumLocalPointsEv, 
                       __ZNK10OpenSubdiv6v3_4_43Far10PatchTable17GetNumPatchArraysEv, 
                       __ZNK10OpenSubdiv6v3_4_43Far10PatchTable17IsFeatureAdaptiveEv, 
                       __ZNK10OpenSubdiv6v3_4_43Far10PatchTable18GetFVarPatchParamsEi, 
                       __ZNK10OpenSubdiv6v3_4_43Far10PatchTable18GetFVarValueStrideEi, 
                       __ZNK10OpenSubdiv6v3_4_43Far10PatchTable18GetNumFVarChannelsEv, 
                       __ZNK10OpenSubdiv6v3_4_43Far10PatchTable18GetNumPatchesTotalEv, 
                       __ZNK10OpenSubdiv6v3_4_43Far10PatchTable18GetPatchDescriptorERKNS2_11PatchHandleE, 
                       __ZNK10OpenSubdiv6v3_4_43Far10PatchTable18GetPatchFVarValuesERKNS2_11PatchHandleEi, 
                       __ZNK10OpenSubdiv6v3_4_43Far10PatchTable18GetPatchFVarValuesEiii, 
                       __ZNK10OpenSubdiv6v3_4_43Far10PatchTable18GetVaryingVerticesEv, 
                       __ZNK10OpenSubdiv6v3_4_43Far10PatchTable18getPatchFVarValuesEii, 
                       __ZNK10OpenSubdiv6v3_4_43Far10PatchTable19GetPatchQuadOffsetsERKNS2_11PatchHandleE, 
                       __ZNK10OpenSubdiv6v3_4_43Far10PatchTable21GetNumControlVerticesEi, 
                       __ZNK10OpenSubdiv6v3_4_43Far10PatchTable21GetPatchArrayVerticesEi, 
                       __ZNK10OpenSubdiv6v3_4_43Far10PatchTable22GetFVarPatchDescriptorEi, 
                       __ZNK10OpenSubdiv6v3_4_43Far10PatchTable22GetPatchFVarPatchParamERKNS2_11PatchHandleEi, 
                       __ZNK10OpenSubdiv6v3_4_43Far10PatchTable22GetPatchFVarPatchParamEiii, 
                       __ZNK10OpenSubdiv6v3_4_43Far10PatchTable22getPatchFVarPatchParamEii, 
                       __ZNK10OpenSubdiv6v3_4_43Far10PatchTable23GetPatchArrayDescriptorEi, 
                       __ZNK10OpenSubdiv6v3_4_43Far10PatchTable23GetPatchArrayFVarValuesEii, 
                       __ZNK10OpenSubdiv6v3_4_43Far10PatchTable23GetPatchVaryingVerticesERKNS2_11PatchHandleE, 
                       __ZNK10OpenSubdiv6v3_4_43Far10PatchTable23GetPatchVaryingVerticesEii, 
                       __ZNK10OpenSubdiv6v3_4_43Far10PatchTable24GetNumLocalPointsVaryingEv, 
                       __ZNK10OpenSubdiv6v3_4_43Far10PatchTable25GetVaryingPatchDescriptorEv, 
                       __ZNK10OpenSubdiv6v3_4_43Far10PatchTable28GetNumLocalPointsFaceVaryingEi, 
                       __ZNK10OpenSubdiv6v3_4_43Far10PatchTable28GetPatchArrayFVarPatchParamsEii, 
                       __ZNK10OpenSubdiv6v3_4_43Far10PatchTable28GetPatchArrayVaryingVerticesEi, 
                       __ZNK10OpenSubdiv6v3_4_43Far10PatchTable29GetFVarPatchDescriptorRegularEi, 
                       __ZNK10OpenSubdiv6v3_4_43Far10PatchTable31GetFVarPatchDescriptorIrregularEi, 
                       __ZNK10OpenSubdiv6v3_4_43Far10PatchTable33GetFVarChannelLinearInterpolationEi, 
                       __ZNK10OpenSubdiv6v3_4_43Far10PatchTable34GetSingleCreasePatchSharpnessValueERKNS2_11PatchHandleE, 
                       __ZNK10OpenSubdiv6v3_4_43Far10PatchTable34GetSingleCreasePatchSharpnessValueEii, 
                       __ZNK10OpenSubdiv6v3_4_43Far10PatchTable5printEv, __ZNK10OpenSubdiv6v3_4_43Far11PtexIndices11GetNumFacesEv, 
                       __ZNK10OpenSubdiv6v3_4_43Far11PtexIndices12GetAdjacencyERKNS1_15TopologyRefinerEiiPiS6_, 
                       __ZNK10OpenSubdiv6v3_4_43Far11PtexIndices9GetFaceIdEi, __ZNK10OpenSubdiv6v3_4_43Far15PatchDescriptor5printEv, 
                       __ZNK10OpenSubdiv6v3_4_43Far15TopologyRefiner21GetNumFVarValuesTotalEi, 
                       __ZNK10OpenSubdiv6v3_4_43Osd15CpuVertexBuffer14GetNumElementsEv, 
                       __ZNK10OpenSubdiv6v3_4_43Osd15CpuVertexBuffer14GetNumVerticesEv, 
                       __ZNK10OpenSubdiv6v3_4_43Sdc6Crease25DetermineVertexVertexRuleEfi, 
                       __ZNK10OpenSubdiv6v3_4_43Sdc6Crease25DetermineVertexVertexRuleEfiPKf, 
                       __ZNK10OpenSubdiv6v3_4_43Sdc6Crease30SubdivideEdgeSharpnessAtVertexEfiPKf, 
                       __ZNK10OpenSubdiv6v3_4_43Sdc6Crease31ComputeFractionalWeightAtVertexEffiPKfS4_, 
                       __ZNK10OpenSubdiv6v3_4_43Sdc6Crease36SubdivideEdgeSharpnessesAroundVertexEiPKfPf, 
                       __ZNK10OpenSubdiv6v3_4_43Vtr8internal10Refinement25printParentToChildMappingEv, 
                       __ZNK10OpenSubdiv6v3_4_43Vtr8internal14FVarRefinement19getFractionalWeightEitit, 
                       __ZNK10OpenSubdiv6v3_4_43Vtr8internal5Level12getFaceETagsEiPNS3_4ETagEi, 
                       __ZNK10OpenSubdiv6v3_4_43Vtr8internal5Level12getFaceVTagsEiPNS3_4VTagEi, 
                       __ZNK10OpenSubdiv6v3_4_43Vtr8internal5Level14getFVarOptionsEi, 
                       __ZNK10OpenSubdiv6v3_4_43Vtr8internal5Level16getNumFVarValuesEi, 
                       __ZNK10OpenSubdiv6v3_4_43Vtr8internal5Level16validateTopologyEPFvNS3_13TopologyErrorEPKcPKvES8_, 
                       __ZNK10OpenSubdiv6v3_4_43Vtr8internal5Level17getFaceFVarValuesEii, 
                       __ZNK10OpenSubdiv6v3_4_43Vtr8internal5Level19isSingleCreasePatchEiPfPi, 
                       __ZNK10OpenSubdiv6v3_4_43Vtr8internal5Level20getFaceCompositeVTagERNS1_10ConstArrayIiEE, 
                       __ZNK10OpenSubdiv6v3_4_43Vtr8internal5Level20getFaceCompositeVTagEii, 
                       __ZNK10OpenSubdiv6v3_4_43Vtr8internal5Level24orderVertexFacesAndEdgesEiPiS4_, 
                       __ZNK10OpenSubdiv6v3_4_43Vtr8internal5Level25doesEdgeFVarTopologyMatchEii, 
                       __ZNK10OpenSubdiv6v3_4_43Vtr8internal5Level25doesFaceFVarTopologyMatchEii, 
                       __ZNK10OpenSubdiv6v3_4_43Vtr8internal5Level26getVertexCompositeFVarVTagEii, 
                       __ZNK10OpenSubdiv6v3_4_43Vtr8internal5Level27doesVertexFVarTopologyMatchEii, 
                       __ZNK10OpenSubdiv6v3_4_43Vtr8internal5Level27gatherQuadLinearPatchPointsEiPiii, 
                       __ZNK10OpenSubdiv6v3_4_43Vtr8internal5Level33gatherQuadRegularRingAroundVertexEiPii, 
                       __ZNK10OpenSubdiv6v3_4_43Vtr8internal5Level34gatherQuadRegularCornerPatchPointsEiPiii, 
                       __ZNK10OpenSubdiv6v3_4_43Vtr8internal5Level35gatherTriRegularInteriorPatchPointsEiPii, 
                       __ZNK10OpenSubdiv6v3_4_43Vtr8internal5Level36gatherQuadRegularBoundaryPatchPointsEiPiii, 
                       __ZNK10OpenSubdiv6v3_4_43Vtr8internal5Level36gatherQuadRegularInteriorPatchPointsEiPiii, 
                       __ZNK10OpenSubdiv6v3_4_43Vtr8internal5Level37gatherTriRegularCornerEdgePatchPointsEiPii, 
                       __ZNK10OpenSubdiv6v3_4_43Vtr8internal5Level39gatherTriRegularBoundaryEdgePatchPointsEiPii, 
                       __ZNK10OpenSubdiv6v3_4_43Vtr8internal5Level39gatherTriRegularCornerVertexPatchPointsEiPii, 
                       __ZNK10OpenSubdiv6v3_4_43Vtr8internal5Level40gatherQuadRegularPartialRingAroundVertexEiRKNS3_5VSpanEPii, 
                       __ZNK10OpenSubdiv6v3_4_43Vtr8internal5Level41gatherTriRegularBoundaryVertexPatchPointsEiPii, 
                       __ZNK10OpenSubdiv6v3_4_43Vtr8internal5Level5printEPKNS2_10RefinementE, 
                       __ZNK10OpenSubdiv6v3_4_43Vtr8internal5Level8findEdgeEii, __ZNK10OpenSubdiv6v3_4_43Vtr8internal9FVarLevel16gatherValueSpansEiPNS3_9ValueSpanE, 
                       __ZNK10OpenSubdiv6v3_4_43Vtr8internal9FVarLevel16getFaceValueTagsEiPNS3_8ValueTagE, 
                       __ZNK10OpenSubdiv6v3_4_43Vtr8internal9FVarLevel17getEdgeFaceValuesEiiPi, 
                       __ZNK10OpenSubdiv6v3_4_43Vtr8internal9FVarLevel19getVertexEdgeValuesEiPi, 
                       __ZNK10OpenSubdiv6v3_4_43Vtr8internal9FVarLevel24getFaceCompositeValueTagEi, 
                       __ZNK10OpenSubdiv6v3_4_43Vtr8internal9FVarLevel24getVertexCreaseEndValuesEitPi, 
                       __ZNK10OpenSubdiv6v3_4_43Vtr8internal9FVarLevel45buildFaceVertexSiblingsFromVertexFaceSiblingsERNSt3__16vectorItNS4_9allocatorItEEEE, 
                       __ZNK10OpenSubdiv6v3_4_43Vtr8internal9FVarLevel5printEv, __ZNK10OpenSubdiv6v3_4_43Vtr8internal9FVarLevel8validateEv, 
                       __ZTIN10OpenSubdiv6v3_4_43Vtr8internal10RefinementE, __ZTSN10OpenSubdiv6v3_4_43Vtr8internal10RefinementE, 
                       __ZTVN10OpenSubdiv6v3_4_43Vtr8internal10RefinementE ]
...
