--- !tapi-tbd
tbd-version:     4
targets:         [ x86_64-macos, arm64-macos, arm64e-macos ]
uuids:
  - target:          x86_64-macos
    value:           BA58E176-3476-399C-99CA-529856B838FD
  - target:          arm64-macos
    value:           00000000-0000-0000-0000-000000000000
  - target:          arm64e-macos
    value:           332D449D-4EB6-3964-81DD-52C53A39B7DF
install-name:    '/usr/lib/usd/libusd_ms.dylib'
current-version: 20.102.2
compatibility-version: 0
exports:
  - targets:         [ x86_64-macos ]
    symbols:         [ __ZN38pxrInternal_v0_21__aapl__pxrReserved__13ArchVsnprintfEPcmPKcP13__va_list_tag, 
                       __ZN38pxrInternal_v0_21__aapl__pxrReserved__15TfVStringPrintfEPKcP13__va_list_tag, 
                       __ZN38pxrInternal_v0_21__aapl__pxrReserved__15TfVStringPrintfERKNSt3__112basic_stringIcNS0_11char_traitsIcEENS0_9allocatorIcEEEEP13__va_list_tag, 
                       __ZN38pxrInternal_v0_21__aapl__pxrReserved__17ArchVStringPrintfEPKcP13__va_list_tag ]
  - targets:         [ x86_64-macos, arm64-macos, arm64e-macos ]
    symbols:         [ __ZN38pxrInternal_v0_21__aapl__pxrReserved__10ArResolverC2Ev, 
                       __ZN38pxrInternal_v0_21__aapl__pxrReserved__10ArResolverD0Ev, 
                       __ZN38pxrInternal_v0_21__aapl__pxrReserved__10ArResolverD1Ev, 
                       __ZN38pxrInternal_v0_21__aapl__pxrReserved__10ArResolverD2Ev, 
                       __ZN38pxrInternal_v0_21__aapl__pxrReserved__10ArchGetCwdEv, 
                       __ZN38pxrInternal_v0_21__aapl__pxrReserved__10ArchGetEnvERKNSt3__112basic_stringIcNS0_11char_traitsIcEENS0_9allocatorIcEEEE, 
                       __ZN38pxrInternal_v0_21__aapl__pxrReserved__10ArchHasEnvERKNSt3__112basic_stringIcNS0_11char_traitsIcEENS0_9allocatorIcEEEE, 
                       __ZN38pxrInternal_v0_21__aapl__pxrReserved__10ArchHash64EPKcm, 
                       __ZN38pxrInternal_v0_21__aapl__pxrReserved__10ArchHash64EPKcmy, 
                       __ZN38pxrInternal_v0_21__aapl__pxrReserved__10ArchPWriteEP7__sFILEPKvmx, 
                       __ZN38pxrInternal_v0_21__aapl__pxrReserved__10ArchSetEnvERKNSt3__112basic_stringIcNS0_11char_traitsIcEENS0_9allocatorIcEEEES8_b, 
                       __ZN38pxrInternal_v0_21__aapl__pxrReserved__10Arch_ErrorEPKcS1_mS1_, 
                       __ZN38pxrInternal_v0_21__aapl__pxrReserved__10GfMatrix2d11SetDiagonalERKNS_7GfVec2dE, 
                       __ZN38pxrInternal_v0_21__aapl__pxrReserved__10GfMatrix2d11SetDiagonalEd, 
                       __ZN38pxrInternal_v0_21__aapl__pxrReserved__10GfMatrix2dC1ERKNS_10GfMatrix2fE, 
                       __ZN38pxrInternal_v0_21__aapl__pxrReserved__10GfMatrix2dC1ERKNSt3__16vectorINS2_IdNS1_9allocatorIdEEEENS3_IS5_EEEE, 
                       __ZN38pxrInternal_v0_21__aapl__pxrReserved__10GfMatrix2dC1ERKNSt3__16vectorINS2_IfNS1_9allocatorIfEEEENS3_IS5_EEEE, 
                       __ZN38pxrInternal_v0_21__aapl__pxrReserved__10GfMatrix2dC2ERKNS_10GfMatrix2fE, 
                       __ZN38pxrInternal_v0_21__aapl__pxrReserved__10GfMatrix2dC2ERKNSt3__16vectorINS2_IdNS1_9allocatorIdEEEENS3_IS5_EEEE, 
                       __ZN38pxrInternal_v0_21__aapl__pxrReserved__10GfMatrix2dC2ERKNSt3__16vectorINS2_IfNS1_9allocatorIfEEEENS3_IS5_EEEE, 
                       __ZN38pxrInternal_v0_21__aapl__pxrReserved__10GfMatrix2dmIERKS0_, 
                       __ZN38pxrInternal_v0_21__aapl__pxrReserved__10GfMatrix2dmLERKS0_, 
                       __ZN38pxrInternal_v0_21__aapl__pxrReserved__10GfMatrix2dmLEd, 
                       __ZN38pxrInternal_v0_21__aapl__pxrReserved__10GfMatrix2dpLERKS0_, 
                       __ZN38pxrInternal_v0_21__aapl__pxrReserved__10GfMatrix2f11SetDiagonalERKNS_7GfVec2fE, 
                       __ZN38pxrInternal_v0_21__aapl__pxrReserved__10GfMatrix2f11SetDiagonalEf, 
                       __ZN38pxrInternal_v0_21__aapl__pxrReserved__10GfMatrix2fC1ERKNS_10GfMatrix2dE, 
                       __ZN38pxrInternal_v0_21__aapl__pxrReserved__10GfMatrix2fC1ERKNSt3__16vectorINS2_IdNS1_9allocatorIdEEEENS3_IS5_EEEE, 
                       __ZN38pxrInternal_v0_21__aapl__pxrReserved__10GfMatrix2fC1ERKNSt3__16vectorINS2_IfNS1_9allocatorIfEEEENS3_IS5_EEEE, 
                       __ZN38pxrInternal_v0_21__aapl__pxrReserved__10GfMatrix2fC2ERKNS_10GfMatrix2dE, 
                       __ZN38pxrInternal_v0_21__aapl__pxrReserved__10GfMatrix2fC2ERKNSt3__16vectorINS2_IdNS1_9allocatorIdEEEENS3_IS5_EEEE, 
                       __ZN38pxrInternal_v0_21__aapl__pxrReserved__10GfMatrix2fC2ERKNSt3__16vectorINS2_IfNS1_9allocatorIfEEEENS3_IS5_EEEE, 
                       __ZN38pxrInternal_v0_21__aapl__pxrReserved__10GfMatrix2fmIERKS0_, 
                       __ZN38pxrInternal_v0_21__aapl__pxrReserved__10GfMatrix2fmLERKS0_, 
                       __ZN38pxrInternal_v0_21__aapl__pxrReserved__10GfMatrix2fmLEd, 
                       __ZN38pxrInternal_v0_21__aapl__pxrReserved__10GfMatrix2fpLERKS0_, 
                       __ZN38pxrInternal_v0_21__aapl__pxrReserved__10GfMatrix3d11SetDiagonalERKNS_7GfVec3dE, 
                       __ZN38pxrInternal_v0_21__aapl__pxrReserved__10GfMatrix3d11SetDiagonalEd, 
                       __ZN38pxrInternal_v0_21__aapl__pxrReserved__10GfMatrix3d14OrthonormalizeEb, 
                       __ZN38pxrInternal_v0_21__aapl__pxrReserved__10GfMatrix3d18_SetRotateFromQuatEdRKNS_7GfVec3dE, 
                       __ZN38pxrInternal_v0_21__aapl__pxrReserved__10GfMatrix3d8SetScaleERKNS_7GfVec3dE, 
                       __ZN38pxrInternal_v0_21__aapl__pxrReserved__10GfMatrix3d8SetScaleEd, 
                       __ZN38pxrInternal_v0_21__aapl__pxrReserved__10GfMatrix3d9SetRotateERKNS_10GfRotationE, 
                       __ZN38pxrInternal_v0_21__aapl__pxrReserved__10GfMatrix3d9SetRotateERKNS_7GfQuatdE, 
                       __ZN38pxrInternal_v0_21__aapl__pxrReserved__10GfMatrix3dC1ERKNS_10GfMatrix3fE, 
                       __ZN38pxrInternal_v0_21__aapl__pxrReserved__10GfMatrix3dC1ERKNS_10GfRotationE, 
                       __ZN38pxrInternal_v0_21__aapl__pxrReserved__10GfMatrix3dC1ERKNS_7GfQuatdE, 
                       __ZN38pxrInternal_v0_21__aapl__pxrReserved__10GfMatrix3dC1ERKNSt3__16vectorINS2_IdNS1_9allocatorIdEEEENS3_IS5_EEEE, 
                       __ZN38pxrInternal_v0_21__aapl__pxrReserved__10GfMatrix3dC1ERKNSt3__16vectorINS2_IfNS1_9allocatorIfEEEENS3_IS5_EEEE, 
                       __ZN38pxrInternal_v0_21__aapl__pxrReserved__10GfMatrix3dC2ERKNS_10GfMatrix3fE, 
                       __ZN38pxrInternal_v0_21__aapl__pxrReserved__10GfMatrix3dC2ERKNS_10GfRotationE, 
                       __ZN38pxrInternal_v0_21__aapl__pxrReserved__10GfMatrix3dC2ERKNS_7GfQuatdE, 
                       __ZN38pxrInternal_v0_21__aapl__pxrReserved__10GfMatrix3dC2ERKNSt3__16vectorINS2_IdNS1_9allocatorIdEEEENS3_IS5_EEEE, 
                       __ZN38pxrInternal_v0_21__aapl__pxrReserved__10GfMatrix3dC2ERKNSt3__16vectorINS2_IfNS1_9allocatorIfEEEENS3_IS5_EEEE, 
                       __ZN38pxrInternal_v0_21__aapl__pxrReserved__10GfMatrix3dmIERKS0_, 
                       __ZN38pxrInternal_v0_21__aapl__pxrReserved__10GfMatrix3dmLERKS0_, 
                       __ZN38pxrInternal_v0_21__aapl__pxrReserved__10GfMatrix3dmLEd, 
                       __ZN38pxrInternal_v0_21__aapl__pxrReserved__10GfMatrix3dpLERKS0_, 
                       __ZN38pxrInternal_v0_21__aapl__pxrReserved__10GfMatrix3f11SetDiagonalERKNS_7GfVec3fE, 
                       __ZN38pxrInternal_v0_21__aapl__pxrReserved__10GfMatrix3f11SetDiagonalEf, 
                       __ZN38pxrInternal_v0_21__aapl__pxrReserved__10GfMatrix3f14OrthonormalizeEb, 
                       __ZN38pxrInternal_v0_21__aapl__pxrReserved__10GfMatrix3f18_SetRotateFromQuatEfRKNS_7GfVec3fE, 
                       __ZN38pxrInternal_v0_21__aapl__pxrReserved__10GfMatrix3f8SetScaleERKNS_7GfVec3fE, 
                       __ZN38pxrInternal_v0_21__aapl__pxrReserved__10GfMatrix3f8SetScaleEf, 
                       __ZN38pxrInternal_v0_21__aapl__pxrReserved__10GfMatrix3f9SetRotateERKNS_10GfRotationE, 
                       __ZN38pxrInternal_v0_21__aapl__pxrReserved__10GfMatrix3f9SetRotateERKNS_7GfQuatfE, 
                       __ZN38pxrInternal_v0_21__aapl__pxrReserved__10GfMatrix3fC1ERKNS_10GfMatrix3dE, 
                       __ZN38pxrInternal_v0_21__aapl__pxrReserved__10GfMatrix3fC1ERKNS_10GfRotationE, 
                       __ZN38pxrInternal_v0_21__aapl__pxrReserved__10GfMatrix3fC1ERKNS_7GfQuatfE, 
                       __ZN38pxrInternal_v0_21__aapl__pxrReserved__10GfMatrix3fC1ERKNSt3__16vectorINS2_IdNS1_9allocatorIdEEEENS3_IS5_EEEE, 
                       __ZN38pxrInternal_v0_21__aapl__pxrReserved__10GfMatrix3fC1ERKNSt3__16vectorINS2_IfNS1_9allocatorIfEEEENS3_IS5_EEEE, 
                       __ZN38pxrInternal_v0_21__aapl__pxrReserved__10GfMatrix3fC2ERKNS_10GfMatrix3dE, 
                       __ZN38pxrInternal_v0_21__aapl__pxrReserved__10GfMatrix3fC2ERKNS_10GfRotationE, 
                       __ZN38pxrInternal_v0_21__aapl__pxrReserved__10GfMatrix3fC2ERKNS_7GfQuatfE, 
                       __ZN38pxrInternal_v0_21__aapl__pxrReserved__10GfMatrix3fC2ERKNSt3__16vectorINS2_IdNS1_9allocatorIdEEEENS3_IS5_EEEE, 
                       __ZN38pxrInternal_v0_21__aapl__pxrReserved__10GfMatrix3fC2ERKNSt3__16vectorINS2_IfNS1_9allocatorIfEEEENS3_IS5_EEEE, 
                       __ZN38pxrInternal_v0_21__aapl__pxrReserved__10GfMatrix3fmIERKS0_, 
                       __ZN38pxrInternal_v0_21__aapl__pxrReserved__10GfMatrix3fmLERKS0_, 
                       __ZN38pxrInternal_v0_21__aapl__pxrReserved__10GfMatrix3fmLEd, 
                       __ZN38pxrInternal_v0_21__aapl__pxrReserved__10GfMatrix3fpLERKS0_, 
                       __ZN38pxrInternal_v0_21__aapl__pxrReserved__10GfMatrix4d11SetDiagonalERKNS_7GfVec4dE, 
                       __ZN38pxrInternal_v0_21__aapl__pxrReserved__10GfMatrix4d11SetDiagonalEd, 
                       __ZN38pxrInternal_v0_21__aapl__pxrReserved__10GfMatrix4d12SetTransformERKNS_10GfMatrix3dERKNS_7GfVec3dE, 
                       __ZN38pxrInternal_v0_21__aapl__pxrReserved__10GfMatrix4d12SetTransformERKNS_10GfRotationERKNS_7GfVec3dE, 
                       __ZN38pxrInternal_v0_21__aapl__pxrReserved__10GfMatrix4d12SetTranslateERKNS_7GfVec3dE, 
                       __ZN38pxrInternal_v0_21__aapl__pxrReserved__10GfMatrix4d13SetRotateOnlyERKNS_10GfMatrix3dE, 
                       __ZN38pxrInternal_v0_21__aapl__pxrReserved__10GfMatrix4d13SetRotateOnlyERKNS_10GfRotationE, 
                       __ZN38pxrInternal_v0_21__aapl__pxrReserved__10GfMatrix4d13SetRotateOnlyERKNS_7GfQuatdE, 
                       __ZN38pxrInternal_v0_21__aapl__pxrReserved__10GfMatrix4d14OrthonormalizeEb, 
                       __ZN38pxrInternal_v0_21__aapl__pxrReserved__10GfMatrix4d16SetTranslateOnlyERKNS_7GfVec3dE, 
                       __ZN38pxrInternal_v0_21__aapl__pxrReserved__10GfMatrix4d18_SetRotateFromQuatEdRKNS_7GfVec3dE, 
                       __ZN38pxrInternal_v0_21__aapl__pxrReserved__10GfMatrix4d8SetScaleERKNS_7GfVec3dE, 
                       __ZN38pxrInternal_v0_21__aapl__pxrReserved__10GfMatrix4d8SetScaleEd, 
                       __ZN38pxrInternal_v0_21__aapl__pxrReserved__10GfMatrix4d9SetLookAtERKNS_7GfVec3dERKNS_10GfRotationE, 
                       __ZN38pxrInternal_v0_21__aapl__pxrReserved__10GfMatrix4d9SetLookAtERKNS_7GfVec3dES3_S3_, 
                       __ZN38pxrInternal_v0_21__aapl__pxrReserved__10GfMatrix4d9SetRotateERKNS_10GfMatrix3dE, 
                       __ZN38pxrInternal_v0_21__aapl__pxrReserved__10GfMatrix4d9SetRotateERKNS_10GfRotationE, 
                       __ZN38pxrInternal_v0_21__aapl__pxrReserved__10GfMatrix4d9SetRotateERKNS_7GfQuatdE, 
                       __ZN38pxrInternal_v0_21__aapl__pxrReserved__10GfMatrix4dC1ERKNS_10GfMatrix3dERKNS_7GfVec3dE, 
                       __ZN38pxrInternal_v0_21__aapl__pxrReserved__10GfMatrix4dC1ERKNS_10GfMatrix4fE, 
                       __ZN38pxrInternal_v0_21__aapl__pxrReserved__10GfMatrix4dC1ERKNS_10GfRotationERKNS_7GfVec3dE, 
                       __ZN38pxrInternal_v0_21__aapl__pxrReserved__10GfMatrix4dC1ERKNSt3__16vectorINS2_IdNS1_9allocatorIdEEEENS3_IS5_EEEE, 
                       __ZN38pxrInternal_v0_21__aapl__pxrReserved__10GfMatrix4dC1ERKNSt3__16vectorINS2_IfNS1_9allocatorIfEEEENS3_IS5_EEEE, 
                       __ZN38pxrInternal_v0_21__aapl__pxrReserved__10GfMatrix4dC1ERKNSt3__16vectorIdNS1_9allocatorIdEEEES7_S7_S7_, 
                       __ZN38pxrInternal_v0_21__aapl__pxrReserved__10GfMatrix4dC1ERKNSt3__16vectorIfNS1_9allocatorIfEEEES7_S7_S7_, 
                       __ZN38pxrInternal_v0_21__aapl__pxrReserved__10GfMatrix4dC2ERKNS_10GfMatrix3dERKNS_7GfVec3dE, 
                       __ZN38pxrInternal_v0_21__aapl__pxrReserved__10GfMatrix4dC2ERKNS_10GfMatrix4fE, 
                       __ZN38pxrInternal_v0_21__aapl__pxrReserved__10GfMatrix4dC2ERKNS_10GfRotationERKNS_7GfVec3dE, 
                       __ZN38pxrInternal_v0_21__aapl__pxrReserved__10GfMatrix4dC2ERKNSt3__16vectorINS2_IdNS1_9allocatorIdEEEENS3_IS5_EEEE, 
                       __ZN38pxrInternal_v0_21__aapl__pxrReserved__10GfMatrix4dC2ERKNSt3__16vectorINS2_IfNS1_9allocatorIfEEEENS3_IS5_EEEE, 
                       __ZN38pxrInternal_v0_21__aapl__pxrReserved__10GfMatrix4dC2ERKNSt3__16vectorIdNS1_9allocatorIdEEEES7_S7_S7_, 
                       __ZN38pxrInternal_v0_21__aapl__pxrReserved__10GfMatrix4dC2ERKNSt3__16vectorIfNS1_9allocatorIfEEEES7_S7_S7_, 
                       __ZN38pxrInternal_v0_21__aapl__pxrReserved__10GfMatrix4dmIERKS0_, 
                       __ZN38pxrInternal_v0_21__aapl__pxrReserved__10GfMatrix4dmLERKS0_, 
                       __ZN38pxrInternal_v0_21__aapl__pxrReserved__10GfMatrix4dmLEd, 
                       __ZN38pxrInternal_v0_21__aapl__pxrReserved__10GfMatrix4dpLERKS0_, 
                       __ZN38pxrInternal_v0_21__aapl__pxrReserved__10GfMatrix4f11SetDiagonalERKNS_7GfVec4fE, 
                       __ZN38pxrInternal_v0_21__aapl__pxrReserved__10GfMatrix4f11SetDiagonalEf, 
                       __ZN38pxrInternal_v0_21__aapl__pxrReserved__10GfMatrix4f12SetTransformERKNS_10GfMatrix3fERKNS_7GfVec3fE, 
                       __ZN38pxrInternal_v0_21__aapl__pxrReserved__10GfMatrix4f12SetTransformERKNS_10GfRotationERKNS_7GfVec3fE, 
                       __ZN38pxrInternal_v0_21__aapl__pxrReserved__10GfMatrix4f12SetTranslateERKNS_7GfVec3fE, 
                       __ZN38pxrInternal_v0_21__aapl__pxrReserved__10GfMatrix4f13SetRotateOnlyERKNS_10GfMatrix3fE, 
                       __ZN38pxrInternal_v0_21__aapl__pxrReserved__10GfMatrix4f13SetRotateOnlyERKNS_10GfRotationE, 
                       __ZN38pxrInternal_v0_21__aapl__pxrReserved__10GfMatrix4f13SetRotateOnlyERKNS_7GfQuatfE, 
                       __ZN38pxrInternal_v0_21__aapl__pxrReserved__10GfMatrix4f14OrthonormalizeEb, 
                       __ZN38pxrInternal_v0_21__aapl__pxrReserved__10GfMatrix4f16SetTranslateOnlyERKNS_7GfVec3fE, 
                       __ZN38pxrInternal_v0_21__aapl__pxrReserved__10GfMatrix4f18_SetRotateFromQuatEfRKNS_7GfVec3fE, 
                       __ZN38pxrInternal_v0_21__aapl__pxrReserved__10GfMatrix4f8SetScaleERKNS_7GfVec3fE, 
                       __ZN38pxrInternal_v0_21__aapl__pxrReserved__10GfMatrix4f8SetScaleEf, 
                       __ZN38pxrInternal_v0_21__aapl__pxrReserved__10GfMatrix4f9SetLookAtERKNS_7GfVec3fERKNS_10GfRotationE, 
                       __ZN38pxrInternal_v0_21__aapl__pxrReserved__10GfMatrix4f9SetLookAtERKNS_7GfVec3fES3_S3_, 
                       __ZN38pxrInternal_v0_21__aapl__pxrReserved__10GfMatrix4f9SetRotateERKNS_10GfMatrix3fE, 
                       __ZN38pxrInternal_v0_21__aapl__pxrReserved__10GfMatrix4f9SetRotateERKNS_10GfRotationE, 
                       __ZN38pxrInternal_v0_21__aapl__pxrReserved__10GfMatrix4f9SetRotateERKNS_7GfQuatfE, 
                       __ZN38pxrInternal_v0_21__aapl__pxrReserved__10GfMatrix4fC1ERKNS_10GfMatrix3fERKNS_7GfVec3fE, 
                       __ZN38pxrInternal_v0_21__aapl__pxrReserved__10GfMatrix4fC1ERKNS_10GfMatrix4dE, 
                       __ZN38pxrInternal_v0_21__aapl__pxrReserved__10GfMatrix4fC1ERKNS_10GfRotationERKNS_7GfVec3fE, 
                       __ZN38pxrInternal_v0_21__aapl__pxrReserved__10GfMatrix4fC1ERKNSt3__16vectorINS2_IdNS1_9allocatorIdEEEENS3_IS5_EEEE, 
                       __ZN38pxrInternal_v0_21__aapl__pxrReserved__10GfMatrix4fC1ERKNSt3__16vectorINS2_IfNS1_9allocatorIfEEEENS3_IS5_EEEE, 
                       __ZN38pxrInternal_v0_21__aapl__pxrReserved__10GfMatrix4fC1ERKNSt3__16vectorIdNS1_9allocatorIdEEEES7_S7_S7_, 
                       __ZN38pxrInternal_v0_21__aapl__pxrReserved__10GfMatrix4fC1ERKNSt3__16vectorIfNS1_9allocatorIfEEEES7_S7_S7_, 
                       __ZN38pxrInternal_v0_21__aapl__pxrReserved__10GfMatrix4fC2ERKNS_10GfMatrix3fERKNS_7GfVec3fE, 
                       __ZN38pxrInternal_v0_21__aapl__pxrReserved__10GfMatrix4fC2ERKNS_10GfMatrix4dE, 
                       __ZN38pxrInternal_v0_21__aapl__pxrReserved__10GfMatrix4fC2ERKNS_10GfRotationERKNS_7GfVec3fE, 
                       __ZN38pxrInternal_v0_21__aapl__pxrReserved__10GfMatrix4fC2ERKNSt3__16vectorINS2_IdNS1_9allocatorIdEEEENS3_IS5_EEEE, 
                       __ZN38pxrInternal_v0_21__aapl__pxrReserved__10GfMatrix4fC2ERKNSt3__16vectorINS2_IfNS1_9allocatorIfEEEENS3_IS5_EEEE, 
                       __ZN38pxrInternal_v0_21__aapl__pxrReserved__10GfMatrix4fC2ERKNSt3__16vectorIdNS1_9allocatorIdEEEES7_S7_S7_, 
                       __ZN38pxrInternal_v0_21__aapl__pxrReserved__10GfMatrix4fC2ERKNSt3__16vectorIfNS1_9allocatorIfEEEES7_S7_S7_, 
                       __ZN38pxrInternal_v0_21__aapl__pxrReserved__10GfMatrix4fmIERKS0_, 
                       __ZN38pxrInternal_v0_21__aapl__pxrReserved__10GfMatrix4fmLERKS0_, 
                       __ZN38pxrInternal_v0_21__aapl__pxrReserved__10GfMatrix4fmLEd, 
                       __ZN38pxrInternal_v0_21__aapl__pxrReserved__10GfMatrix4fpLERKS0_, 
                       __ZN38pxrInternal_v0_21__aapl__pxrReserved__10GfRotation13SetRotateIntoERKNS_7GfVec3dES3_, 
                       __ZN38pxrInternal_v0_21__aapl__pxrReserved__10GfRotation17DecomposeRotationERKNS_10GfMatrix4dERKNS_7GfVec3dES6_S6_dPdS7_S7_S7_bPKd, 
                       __ZN38pxrInternal_v0_21__aapl__pxrReserved__10GfRotation19RotateOntoProjectedERKNS_7GfVec3dES3_S3_, 
                       __ZN38pxrInternal_v0_21__aapl__pxrReserved__10GfRotation7SetQuatERKNS_7GfQuatdE, 
                       __ZN38pxrInternal_v0_21__aapl__pxrReserved__10GfRotationmLERKS0_, 
                       __ZN38pxrInternal_v0_21__aapl__pxrReserved__10HdCoordSysC2ERKNS_7SdfPathE, 
                       __ZN38pxrInternal_v0_21__aapl__pxrReserved__10HdCoordSysD0Ev, 
                       __ZN38pxrInternal_v0_21__aapl__pxrReserved__10HdCoordSysD1Ev, 
                       __ZN38pxrInternal_v0_21__aapl__pxrReserved__10HdCoordSysD2Ev, 
                       __ZN38pxrInternal_v0_21__aapl__pxrReserved__10HdDrawItemC1EPKNS_17HdRprimSharedDataE, 
                       __ZN38pxrInternal_v0_21__aapl__pxrReserved__10HdDrawItemC2EPKNS_17HdRprimSharedDataE, 
                       __ZN38pxrInternal_v0_21__aapl__pxrReserved__10HdDrawItemD0Ev, 
                       __ZN38pxrInternal_v0_21__aapl__pxrReserved__10HdDrawItemD1Ev, 
                       __ZN38pxrInternal_v0_21__aapl__pxrReserved__10HdDrawItemD2Ev, 
                       __ZN38pxrInternal_v0_21__aapl__pxrReserved__10HdMaterialC2ERKNS_7SdfPathE, 
                       __ZN38pxrInternal_v0_21__aapl__pxrReserved__10HdMaterialD0Ev, 
                       __ZN38pxrInternal_v0_21__aapl__pxrReserved__10HdMaterialD1Ev, 
                       __ZN38pxrInternal_v0_21__aapl__pxrReserved__10HdMaterialD2Ev, 
                       __ZN38pxrInternal_v0_21__aapl__pxrReserved__10HdResource7SetSizeEm, 
                       __ZN38pxrInternal_v0_21__aapl__pxrReserved__10HdResourceC1ERKNS_7TfTokenE, 
                       __ZN38pxrInternal_v0_21__aapl__pxrReserved__10HdResourceC2ERKNS_7TfTokenE, 
                       __ZN38pxrInternal_v0_21__aapl__pxrReserved__10HdResourceD0Ev, 
                       __ZN38pxrInternal_v0_21__aapl__pxrReserved__10HdResourceD1Ev, 
                       __ZN38pxrInternal_v0_21__aapl__pxrReserved__10HdResourceD2Ev, 
                       __ZN38pxrInternal_v0_21__aapl__pxrReserved__10KindTokensE, 
                       __ZN38pxrInternal_v0_21__aapl__pxrReserved__10NdrVersionC1ERKNSt3__112basic_stringIcNS1_11char_traitsIcEENS1_9allocatorIcEEEE, 
                       __ZN38pxrInternal_v0_21__aapl__pxrReserved__10NdrVersionC1Eii, 
                       __ZN38pxrInternal_v0_21__aapl__pxrReserved__10NdrVersionC2ERKNSt3__112basic_stringIcNS1_11char_traitsIcEENS1_9allocatorIcEEEE, 
                       __ZN38pxrInternal_v0_21__aapl__pxrReserved__10NdrVersionC2Eii, 
                       __ZN38pxrInternal_v0_21__aapl__pxrReserved__10PcpChanges12DidMuteLayerEPKNS_8PcpCacheERKNSt3__112basic_stringIcNS4_11char_traitsIcEENS4_9allocatorIcEEEE, 
                       __ZN38pxrInternal_v0_21__aapl__pxrReserved__10PcpChanges14DidChangePathsEPKNS_8PcpCacheERKNS_7SdfPathES6_, 
                       __ZN38pxrInternal_v0_21__aapl__pxrReserved__10PcpChanges14DidChangeSpecsEPKNS_8PcpCacheERKNS_7SdfPathERKNS_9TfWeakPtrINS_8SdfLayerEEES6_, 
                       __ZN38pxrInternal_v0_21__aapl__pxrReserved__10PcpChanges14DidUnmuteLayerEPKNS_8PcpCacheERKNSt3__112basic_stringIcNS4_11char_traitsIcEENS4_9allocatorIcEEEE, 
                       __ZN38pxrInternal_v0_21__aapl__pxrReserved__10PcpChanges15DidChangeLayersEPKNS_8PcpCacheE, 
                       __ZN38pxrInternal_v0_21__aapl__pxrReserved__10PcpChanges15DidDestroyCacheEPKNS_8PcpCacheE, 
                       __ZN38pxrInternal_v0_21__aapl__pxrReserved__10PcpChanges16DidChangeTargetsEPKNS_8PcpCacheERKNS_7SdfPathENS_15PcpCacheChanges10TargetTypeE, 
                       __ZN38pxrInternal_v0_21__aapl__pxrReserved__10PcpChanges16DidMaybeFixAssetEPKNS_8PcpCacheERKNS_7PcpSiteERKNS_9TfWeakPtrINS_8SdfLayerEEERKNSt3__112basic_stringIcNSC_11char_traitsIcEENSC_9allocatorIcEEEE, 
                       __ZN38pxrInternal_v0_21__aapl__pxrReserved__10PcpChanges16_GetCacheChangesEPKNS_8PcpCacheE, 
                       __ZN38pxrInternal_v0_21__aapl__pxrReserved__10PcpChanges17_GetRenameChangesEPKNS_8PcpCacheE, 
                       __ZN38pxrInternal_v0_21__aapl__pxrReserved__10PcpChanges18DidChangeRelocatesEPKNS_8PcpCacheERKNS_7SdfPathE, 
                       __ZN38pxrInternal_v0_21__aapl__pxrReserved__10PcpChanges18DidChangeSpecStackEPKNS_8PcpCacheERKNS_7SdfPathE, 
                       __ZN38pxrInternal_v0_21__aapl__pxrReserved__10PcpChanges18_DidChangeSublayerEPKNS_8PcpCacheERKNSt3__16vectorINS_9TfWeakPtrINS_13PcpLayerStackEEENS4_9allocatorIS8_EEEERKNS4_12basic_stringIcNS4_11char_traitsIcEENS9_IcEEEERKNS6_INS_8SdfLayerEEENS0_19_SublayerChangeTypeEPSI_Pb, 
                       __ZN38pxrInternal_v0_21__aapl__pxrReserved__10PcpChanges19DidMaybeFixSublayerEPKNS_8PcpCacheERKNS_9TfWeakPtrINS_8SdfLayerEEERKNSt3__112basic_stringIcNS9_11char_traitsIcEENS9_9allocatorIcEEEE, 
                       __ZN38pxrInternal_v0_21__aapl__pxrReserved__10PcpChanges20_DidChangeLayerStackERKNS_6TfSpanIPKNS_8PcpCacheEEERKNS_9TfWeakPtrINS_13PcpLayerStackEEEbbb, 
                       __ZN38pxrInternal_v0_21__aapl__pxrReserved__10PcpChanges20_OptimizePathChangesEPKNS_8PcpCacheEPNS_15PcpCacheChangesEPKNSt3__13mapINS_7SdfPathES8_NS6_4lessIS8_EENS6_9allocatorINS6_4pairIKS8_S8_EEEEEE, 
                       __ZN38pxrInternal_v0_21__aapl__pxrReserved__10PcpChanges21DidChangeLayerOffsetsEPKNS_8PcpCacheE, 
                       __ZN38pxrInternal_v0_21__aapl__pxrReserved__10PcpChanges21_GetLayerStackChangesEPKNS_8PcpCacheE, 
                       __ZN38pxrInternal_v0_21__aapl__pxrReserved__10PcpChanges21_GetLayerStackChangesERKNS_9TfWeakPtrINS_13PcpLayerStackEEE, 
                       __ZN38pxrInternal_v0_21__aapl__pxrReserved__10PcpChanges22DidChangeAssetResolverEPKNS_8PcpCacheE, 
                       __ZN38pxrInternal_v0_21__aapl__pxrReserved__10PcpChanges22DidChangeSignificantlyEPKNS_8PcpCacheERKNS_7SdfPathE, 
                       __ZN38pxrInternal_v0_21__aapl__pxrReserved__10PcpChanges27_DidChangeSpecStackInternalEPKNS_8PcpCacheERKNS_7SdfPathE, 
                       __ZN38pxrInternal_v0_21__aapl__pxrReserved__10PcpChanges31_DidChangeLayerStackRelocationsERKNS_6TfSpanIPKNS_8PcpCacheEEERKNS_9TfWeakPtrINS_13PcpLayerStackEEEPNSt3__112basic_stringIcNSD_11char_traitsIcEENSD_9allocatorIcEEEE, 
                       __ZN38pxrInternal_v0_21__aapl__pxrReserved__10PcpChanges32_DidChangeLayerStackResolvedPathERKNS_6TfSpanIPKNS_8PcpCacheEEERKNS_9TfWeakPtrINS_13PcpLayerStackEEEPNSt3__112basic_stringIcNSD_11char_traitsIcEENSD_9allocatorIcEEEE, 
                       __ZN38pxrInternal_v0_21__aapl__pxrReserved__10PcpChanges32_DidChangeSublayerAndLayerStacksEPKNS_8PcpCacheERKNSt3__16vectorINS_9TfWeakPtrINS_13PcpLayerStackEEENS4_9allocatorIS8_EEEERKNS4_12basic_stringIcNS4_11char_traitsIcEENS9_IcEEEERKNS6_INS_8SdfLayerEEENS0_19_SublayerChangeTypeEPSI_, 
                       __ZN38pxrInternal_v0_21__aapl__pxrReserved__10PcpChanges4SwapERS0_, 
                       __ZN38pxrInternal_v0_21__aapl__pxrReserved__10PcpChanges9DidChangeERKNS_6TfSpanIPKNS_8PcpCacheEEERKNSt3__16vectorINS8_4pairINS_9TfWeakPtrINS_8SdfLayerEEENS_13SdfChangeListEEENS8_9allocatorISF_EEEE, 
                       __ZN38pxrInternal_v0_21__aapl__pxrReserved__10PcpChanges9_OptimizeEPNS_15PcpCacheChangesE, 
                       __ZN38pxrInternal_v0_21__aapl__pxrReserved__10PcpChanges9_OptimizeEv, 
                       __ZN38pxrInternal_v0_21__aapl__pxrReserved__10PcpChangesC1Ev, 
                       __ZN38pxrInternal_v0_21__aapl__pxrReserved__10PcpChangesC2Ev, 
                       __ZN38pxrInternal_v0_21__aapl__pxrReserved__10PcpChangesD1Ev, 
                       __ZN38pxrInternal_v0_21__aapl__pxrReserved__10PcpChangesD2Ev, 
                       __ZN38pxrInternal_v0_21__aapl__pxrReserved__10PcpNodeRef11InsertChildERKNS_17PcpLayerStackSiteERKNS_6PcpArcEPNSt3__110shared_ptrINS_12PcpErrorBaseEEE, 
                       __ZN38pxrInternal_v0_21__aapl__pxrReserved__10PcpNodeRef11SetHasSpecsEb, 
                       __ZN38pxrInternal_v0_21__aapl__pxrReserved__10PcpNodeRef13SetPermissionENS_13SdfPermissionE, 
                       __ZN38pxrInternal_v0_21__aapl__pxrReserved__10PcpNodeRef13SetRestrictedEb, 
                       __ZN38pxrInternal_v0_21__aapl__pxrReserved__10PcpNodeRef14SetHasSymmetryEb, 
                       __ZN38pxrInternal_v0_21__aapl__pxrReserved__10PcpNodeRef19InsertChildSubgraphERKNS_9TfWeakPtrINS_18PcpPrimIndex_GraphEEERKNS_6PcpArcEPNSt3__110shared_ptrINS_12PcpErrorBaseEEE, 
                       __ZN38pxrInternal_v0_21__aapl__pxrReserved__10PcpNodeRef8SetInertEb, 
                       __ZN38pxrInternal_v0_21__aapl__pxrReserved__10PcpNodeRef9SetCulledEb, 
                       __ZN38pxrInternal_v0_21__aapl__pxrReserved__10PcpSiteStrC1ERKNS_17PcpLayerStackSiteE, 
                       __ZN38pxrInternal_v0_21__aapl__pxrReserved__10PcpSiteStrC1ERKNS_23PcpLayerStackIdentifierERKNS_7SdfPathE, 
                       __ZN38pxrInternal_v0_21__aapl__pxrReserved__10PcpSiteStrC1ERKNS_26PcpLayerStackIdentifierStrERKNS_7SdfPathE, 
                       __ZN38pxrInternal_v0_21__aapl__pxrReserved__10PcpSiteStrC1ERKNS_7PcpSiteE, 
                       __ZN38pxrInternal_v0_21__aapl__pxrReserved__10PcpSiteStrC1ERKNS_9TfWeakPtrINS_8SdfLayerEEERKNS_7SdfPathE, 
                       __ZN38pxrInternal_v0_21__aapl__pxrReserved__10PcpSiteStrC1Ev, 
                       __ZN38pxrInternal_v0_21__aapl__pxrReserved__10PcpSiteStrC2ERKNS_17PcpLayerStackSiteE, 
                       __ZN38pxrInternal_v0_21__aapl__pxrReserved__10PcpSiteStrC2ERKNS_23PcpLayerStackIdentifierERKNS_7SdfPathE, 
                       __ZN38pxrInternal_v0_21__aapl__pxrReserved__10PcpSiteStrC2ERKNS_26PcpLayerStackIdentifierStrERKNS_7SdfPathE, 
                       __ZN38pxrInternal_v0_21__aapl__pxrReserved__10PcpSiteStrC2ERKNS_7PcpSiteE, 
                       __ZN38pxrInternal_v0_21__aapl__pxrReserved__10PcpSiteStrC2ERKNS_9TfWeakPtrINS_8SdfLayerEEERKNS_7SdfPathE, 
                       __ZN38pxrInternal_v0_21__aapl__pxrReserved__10PcpSiteStrC2Ev, 
                       __ZN38pxrInternal_v0_21__aapl__pxrReserved__10PlugNotice18DidRegisterPluginsC1ERKNSt3__16vectorINS_9TfWeakPtrINS_10PlugPluginEEENS2_9allocatorIS6_EEEE, 
                       __ZN38pxrInternal_v0_21__aapl__pxrReserved__10PlugNotice18DidRegisterPluginsC2ERKNSt3__16vectorINS_9TfWeakPtrINS_10PlugPluginEEENS2_9allocatorIS6_EEEE, 
                       __ZN38pxrInternal_v0_21__aapl__pxrReserved__10PlugNotice18DidRegisterPluginsD0Ev, 
                       __ZN38pxrInternal_v0_21__aapl__pxrReserved__10PlugNotice18DidRegisterPluginsD1Ev, 
                       __ZN38pxrInternal_v0_21__aapl__pxrReserved__10PlugNotice18DidRegisterPluginsD2Ev, 
                       __ZN38pxrInternal_v0_21__aapl__pxrReserved__10PlugNotice4BaseD0Ev, 
                       __ZN38pxrInternal_v0_21__aapl__pxrReserved__10PlugNotice4BaseD1Ev, 
                       __ZN38pxrInternal_v0_21__aapl__pxrReserved__10PlugNotice4BaseD2Ev, 
                       __ZN38pxrInternal_v0_21__aapl__pxrReserved__10PlugPlugin11GetMetadataEv, 
                       __ZN38pxrInternal_v0_21__aapl__pxrReserved__10PlugPlugin15GetDependenciesEv, 
                       __ZN38pxrInternal_v0_21__aapl__pxrReserved__10PlugPlugin18GetMetadataForTypeERKNS_6TfTypeE, 
                       __ZN38pxrInternal_v0_21__aapl__pxrReserved__10PlugPlugin4LoadEv, 
                       __ZN38pxrInternal_v0_21__aapl__pxrReserved__10PlugPluginD0Ev, 
                       __ZN38pxrInternal_v0_21__aapl__pxrReserved__10PlugPluginD1Ev, 
                       __ZN38pxrInternal_v0_21__aapl__pxrReserved__10PlugPluginD2Ev, 
                       __ZN38pxrInternal_v0_21__aapl__pxrReserved__10SdfPayloadC1ERKNSt3__112basic_stringIcNS1_11char_traitsIcEENS1_9allocatorIcEEEERKNS_7SdfPathERKNS_14SdfLayerOffsetE, 
                       __ZN38pxrInternal_v0_21__aapl__pxrReserved__10SdfPayloadC2ERKNSt3__112basic_stringIcNS1_11char_traitsIcEENS1_9allocatorIcEEEERKNS_7SdfPathERKNS_14SdfLayerOffsetE, 
                       __ZN38pxrInternal_v0_21__aapl__pxrReserved__10TfLogCrashERKNSt3__112basic_stringIcNS0_11char_traitsIcEENS0_9allocatorIcEEEES8_S8_RKNS_13TfCallContextEb, 
                       __ZN38pxrInternal_v0_21__aapl__pxrReserved__10TfMakeDirsERKNSt3__112basic_stringIcNS0_11char_traitsIcEENS0_9allocatorIcEEEEib, 
                       __ZN38pxrInternal_v0_21__aapl__pxrReserved__10TfNormPathERKNSt3__112basic_stringIcNS0_11char_traitsIcEENS0_9allocatorIcEEEEb, 
                       __ZN38pxrInternal_v0_21__aapl__pxrReserved__10TfReadLinkERKNSt3__112basic_stringIcNS0_11char_traitsIcEENS0_9allocatorIcEEEE, 
                       __ZN38pxrInternal_v0_21__aapl__pxrReserved__10TfRealPathERKNSt3__112basic_stringIcNS0_11char_traitsIcEENS0_9allocatorIcEEEEbPS6_, 
                       __ZN38pxrInternal_v0_21__aapl__pxrReserved__10TfUnsetenvERKNSt3__112basic_stringIcNS0_11char_traitsIcEENS0_9allocatorIcEEEE, 
                       __ZN38pxrInternal_v0_21__aapl__pxrReserved__10TfWalkDirsERKNSt3__112basic_stringIcNS0_11char_traitsIcEENS0_9allocatorIcEEEENS0_8functionIFbS8_PNS0_6vectorIS6_NS4_IS6_EEEERKSC_EEEbNS9_IFvS8_S8_EEEb, 
                       __ZN38pxrInternal_v0_21__aapl__pxrReserved__10Tf_RemnantD0Ev, 
                       __ZN38pxrInternal_v0_21__aapl__pxrReserved__10Tf_RemnantD1Ev, 
                       __ZN38pxrInternal_v0_21__aapl__pxrReserved__10Tf_RemnantD2Ev, 
                       __ZN38pxrInternal_v0_21__aapl__pxrReserved__10UsdZipFile4OpenERKNSt3__110shared_ptrINS_7ArAssetEEE, 
                       __ZN38pxrInternal_v0_21__aapl__pxrReserved__10UsdZipFile4OpenERKNSt3__112basic_stringIcNS1_11char_traitsIcEENS1_9allocatorIcEEEE, 
                       __ZN38pxrInternal_v0_21__aapl__pxrReserved__10UsdZipFile8IteratorC1EPKNS0_5_ImplE, 
                       __ZN38pxrInternal_v0_21__aapl__pxrReserved__10UsdZipFile8IteratorC1Ev, 
                       __ZN38pxrInternal_v0_21__aapl__pxrReserved__10UsdZipFile8IteratorC2EPKNS0_5_ImplE, 
                       __ZN38pxrInternal_v0_21__aapl__pxrReserved__10UsdZipFile8IteratorC2Ev, 
                       __ZN38pxrInternal_v0_21__aapl__pxrReserved__10UsdZipFile8IteratorppEi, 
                       __ZN38pxrInternal_v0_21__aapl__pxrReserved__10UsdZipFile8IteratorppEv, 
                       __ZN38pxrInternal_v0_21__aapl__pxrReserved__10UsdZipFileC1EONSt3__110shared_ptrINS0_5_ImplEEE, 
                       __ZN38pxrInternal_v0_21__aapl__pxrReserved__10UsdZipFileC1Ev, 
                       __ZN38pxrInternal_v0_21__aapl__pxrReserved__10UsdZipFileC2EONSt3__110shared_ptrINS0_5_ImplEEE, 
                       __ZN38pxrInternal_v0_21__aapl__pxrReserved__10UsdZipFileC2Ev, 
                       __ZN38pxrInternal_v0_21__aapl__pxrReserved__10UsdZipFileD1Ev, 
                       __ZN38pxrInternal_v0_21__aapl__pxrReserved__10UsdZipFileD2Ev, 
                       __ZN38pxrInternal_v0_21__aapl__pxrReserved__10hash_valueERKNS_14HdMaterialNodeE, 
                       __ZN38pxrInternal_v0_21__aapl__pxrReserved__10hash_valueERKNS_16UsdGeomBBoxCache12_PrimContextE, 
                       __ZN38pxrInternal_v0_21__aapl__pxrReserved__10hash_valueERKNS_17HdMaterialNetworkE, 
                       __ZN38pxrInternal_v0_21__aapl__pxrReserved__10hash_valueERKNS_17HdRprimCollectionE, 
                       __ZN38pxrInternal_v0_21__aapl__pxrReserved__10hash_valueERKNS_17UsdStageLoadRulesE, 
                       __ZN38pxrInternal_v0_21__aapl__pxrReserved__10hash_valueERKNS_20HdMaterialNetworkMapE, 
                       __ZN38pxrInternal_v0_21__aapl__pxrReserved__10hash_valueERKNS_20UsdSkelSkeletonQueryE, 
                       __ZN38pxrInternal_v0_21__aapl__pxrReserved__10hash_valueERKNS_21SdfHumanReadableValueE, 
                       __ZN38pxrInternal_v0_21__aapl__pxrReserved__10hash_valueERKNS_22HdMaterialRelationshipE, 
                       __ZN38pxrInternal_v0_21__aapl__pxrReserved__10hash_valueERKNS_22HdRenderPassAovBindingE, 
                       __ZN38pxrInternal_v0_21__aapl__pxrReserved__10hash_valueERKNS_22UsdStagePopulationMaskE, 
                       __ZN38pxrInternal_v0_21__aapl__pxrReserved__10hash_valueERKNS_24ArDefaultResolverContextE, 
                       __ZN38pxrInternal_v0_21__aapl__pxrReserved__10hash_valueERKNS_9UsdObjectE, 
                       __ZN38pxrInternal_v0_21__aapl__pxrReserved__11ArchAbsPathERKNSt3__112basic_stringIcNS0_11char_traitsIcEENS0_9allocatorIcEEEE, 
                       __ZN38pxrInternal_v0_21__aapl__pxrReserved__11ArchEnvironEv, 
                       __ZN38pxrInternal_v0_21__aapl__pxrReserved__11GfTransform11SetIdentityEv, 
                       __ZN38pxrInternal_v0_21__aapl__pxrReserved__11GfTransform3SetERKNS_7GfVec3dERKNS_10GfRotationES6_S3_S3_, 
                       __ZN38pxrInternal_v0_21__aapl__pxrReserved__11GfTransform9SetMatrixERKNS_10GfMatrix4dE, 
                       __ZN38pxrInternal_v0_21__aapl__pxrReserved__11GfTransformmLERKS0_, 
                       __ZN38pxrInternal_v0_21__aapl__pxrReserved__11HdAovTokensE, 
                       __ZN38pxrInternal_v0_21__aapl__pxrReserved__11HdDirtyList14GetDirtyRprimsEv, 
                       __ZN38pxrInternal_v0_21__aapl__pxrReserved__11HdDirtyList9ApplyEditERKNS_17HdRprimCollectionE, 
                       __ZN38pxrInternal_v0_21__aapl__pxrReserved__11HdDirtyListC1ERKNS_17HdRprimCollectionERNS_13HdRenderIndexE, 
                       __ZN38pxrInternal_v0_21__aapl__pxrReserved__11HdDirtyListC2ERKNS_17HdRprimCollectionERNS_13HdRenderIndexE, 
                       __ZN38pxrInternal_v0_21__aapl__pxrReserved__11HdDirtyListD1Ev, 
                       __ZN38pxrInternal_v0_21__aapl__pxrReserved__11HdDirtyListD2Ev, 
                       __ZN38pxrInternal_v0_21__aapl__pxrReserved__11HdInstancer16_UpdateInstancerEPNS_15HdSceneDelegateEPj, 
                       __ZN38pxrInternal_v0_21__aapl__pxrReserved__11HdInstancer21GetInstancerNumLevelsERNS_13HdRenderIndexERKNS_7HdRprimE, 
                       __ZN38pxrInternal_v0_21__aapl__pxrReserved__11HdInstancer22GetBuiltinPrimvarNamesEv, 
                       __ZN38pxrInternal_v0_21__aapl__pxrReserved__11HdInstancer24_SyncInstancerAndParentsERNS_13HdRenderIndexERKNS_7SdfPathE, 
                       __ZN38pxrInternal_v0_21__aapl__pxrReserved__11HdInstancer4SyncEPNS_15HdSceneDelegateEPNS_13HdRenderParamEPj, 
                       __ZN38pxrInternal_v0_21__aapl__pxrReserved__11HdInstancer8FinalizeEPNS_13HdRenderParamE, 
                       __ZN38pxrInternal_v0_21__aapl__pxrReserved__11HdInstancerC1EPNS_15HdSceneDelegateERKNS_7SdfPathE, 
                       __ZN38pxrInternal_v0_21__aapl__pxrReserved__11HdInstancerC2EPNS_15HdSceneDelegateERKNS_7SdfPathE, 
                       __ZN38pxrInternal_v0_21__aapl__pxrReserved__11HdInstancerD0Ev, 
                       __ZN38pxrInternal_v0_21__aapl__pxrReserved__11HdInstancerD1Ev, 
                       __ZN38pxrInternal_v0_21__aapl__pxrReserved__11HdInstancerD2Ev, 
                       __ZN38pxrInternal_v0_21__aapl__pxrReserved__11HdSelection10_AddPointsERKNS0_13HighlightModeERKNS_7SdfPathERKNS_7VtArrayIiEEi, 
                       __ZN38pxrInternal_v0_21__aapl__pxrReserved__11HdSelection11AddElementsERKNS0_13HighlightModeERKNS_7SdfPathERKNS_7VtArrayIiEE, 
                       __ZN38pxrInternal_v0_21__aapl__pxrReserved__11HdSelection11AddInstanceERKNS0_13HighlightModeERKNS_7SdfPathERKNS_7VtArrayIiEE, 
                       __ZN38pxrInternal_v0_21__aapl__pxrReserved__11HdSelection8AddEdgesERKNS0_13HighlightModeERKNS_7SdfPathERKNS_7VtArrayIiEE, 
                       __ZN38pxrInternal_v0_21__aapl__pxrReserved__11HdSelection8AddRprimERKNS0_13HighlightModeERKNS_7SdfPathE, 
                       __ZN38pxrInternal_v0_21__aapl__pxrReserved__11HdSelection9AddPointsERKNS0_13HighlightModeERKNS_7SdfPathERKNS_7VtArrayIiEE, 
                       __ZN38pxrInternal_v0_21__aapl__pxrReserved__11HdSelection9AddPointsERKNS0_13HighlightModeERKNS_7SdfPathERKNS_7VtArrayIiEERKNS_7GfVec4fE, 
                       __ZN38pxrInternal_v0_21__aapl__pxrReserved__11HdSelectionD0Ev, 
                       __ZN38pxrInternal_v0_21__aapl__pxrReserved__11HdSelectionD1Ev, 
                       __ZN38pxrInternal_v0_21__aapl__pxrReserved__11HdSelectionD2Ev, 
                       __ZN38pxrInternal_v0_21__aapl__pxrReserved__11JsFindValueERKNSt3__13mapINS0_12basic_stringIcNS0_11char_traitsIcEENS0_9allocatorIcEEEENS_7JsValueENS0_4lessIS7_EENS5_INS0_4pairIKS7_S8_EEEEEERSC_RKN5boost8optionalIS8_EE, 
                       __ZN38pxrInternal_v0_21__aapl__pxrReserved__11NdrPropertyC1ERKNS_7TfTokenES3_RKNS_7VtValueEbmbRKNSt3__113unordered_mapIS1_NS7_12basic_stringIcNS7_11char_traitsIcEENS7_9allocatorIcEEEENS1_11HashFunctorENS7_8equal_toIS1_EENSC_INS7_4pairIS2_SE_EEEEEE, 
                       __ZN38pxrInternal_v0_21__aapl__pxrReserved__11NdrPropertyC2ERKNS_7TfTokenES3_RKNS_7VtValueEbmbRKNSt3__113unordered_mapIS1_NS7_12basic_stringIcNS7_11char_traitsIcEENS7_9allocatorIcEEEENS1_11HashFunctorENS7_8equal_toIS1_EENSC_INS7_4pairIS2_SE_EEEEEE, 
                       __ZN38pxrInternal_v0_21__aapl__pxrReserved__11NdrPropertyD0Ev, 
                       __ZN38pxrInternal_v0_21__aapl__pxrReserved__11NdrPropertyD1Ev, 
                       __ZN38pxrInternal_v0_21__aapl__pxrReserved__11NdrPropertyD2Ev, 
                       __ZN38pxrInternal_v0_21__aapl__pxrReserved__11NdrRegistry13GetNodeByNameERKNSt3__112basic_stringIcNS1_11char_traitsIcEENS1_9allocatorIcEEEERKNS1_6vectorINS_7TfTokenENS5_ISB_EEEENS_16NdrVersionFilterE, 
                       __ZN38pxrInternal_v0_21__aapl__pxrReserved__11NdrRegistry14GetNodesByNameERKNSt3__112basic_stringIcNS1_11char_traitsIcEENS1_9allocatorIcEEEENS_16NdrVersionFilterE, 
                       __ZN38pxrInternal_v0_21__aapl__pxrReserved__11NdrRegistry16GetNodeFromAssetERKNS_12SdfAssetPathERKNSt3__113unordered_mapINS_7TfTokenENS4_12basic_stringIcNS4_11char_traitsIcEENS4_9allocatorIcEEEENS6_11HashFunctorENS4_8equal_toIS6_EENSA_INS4_4pairIKS6_SC_EEEEEERSH_SN_, 
                       __ZN38pxrInternal_v0_21__aapl__pxrReserved__11NdrRegistry16GetNodesByFamilyERKNS_7TfTokenENS_16NdrVersionFilterE, 
                       __ZN38pxrInternal_v0_21__aapl__pxrReserved__11NdrRegistry19GetNodeByIdentifierERKNS_7TfTokenERKNSt3__16vectorIS1_NS4_9allocatorIS1_EEEE, 
                       __ZN38pxrInternal_v0_21__aapl__pxrReserved__11NdrRegistry20GetNodeByNameAndTypeERKNSt3__112basic_stringIcNS1_11char_traitsIcEENS1_9allocatorIcEEEERKNS_7TfTokenENS_16NdrVersionFilterE, 
                       __ZN38pxrInternal_v0_21__aapl__pxrReserved__11NdrRegistry20GetNodesByIdentifierERKNS_7TfTokenE, 
                       __ZN38pxrInternal_v0_21__aapl__pxrReserved__11NdrRegistry20_InsertNodeIntoCacheERKNS_22NdrNodeDiscoveryResultE, 
                       __ZN38pxrInternal_v0_21__aapl__pxrReserved__11NdrRegistry20_RunDiscoveryPluginsERKNSt3__16vectorINS_8TfRefPtrINS_18NdrDiscoveryPluginEEENS1_9allocatorIS5_EEEE, 
                       __ZN38pxrInternal_v0_21__aapl__pxrReserved__11NdrRegistry21GetNodeFromSourceCodeERKNSt3__112basic_stringIcNS1_11char_traitsIcEENS1_9allocatorIcEEEERKNS_7TfTokenERKNS1_13unordered_mapISA_S7_NSA_11HashFunctorENS1_8equal_toISA_EENS5_INS1_4pairISB_S7_EEEEEE, 
                       __ZN38pxrInternal_v0_21__aapl__pxrReserved__11NdrRegistry21SetExtraParserPluginsERKNSt3__16vectorINS_6TfTypeENS1_9allocatorIS3_EEEE, 
                       __ZN38pxrInternal_v0_21__aapl__pxrReserved__11NdrRegistry23_ParseNodeMatchingAliasERKNS_22NdrNodeDiscoveryResultERKNS_7TfTokenE, 
                       __ZN38pxrInternal_v0_21__aapl__pxrReserved__11NdrRegistry24SetExtraDiscoveryPluginsENSt3__16vectorINS_8TfRefPtrINS_18NdrDiscoveryPluginEEENS1_9allocatorIS5_EEEE, 
                       __ZN38pxrInternal_v0_21__aapl__pxrReserved__11NdrRegistry24SetExtraDiscoveryPluginsERKNSt3__16vectorINS_6TfTypeENS1_9allocatorIS3_EEEE, 
                       __ZN38pxrInternal_v0_21__aapl__pxrReserved__11NdrRegistry25_GetNodeByNameAndTypeImplERKNSt3__112basic_stringIcNS1_11char_traitsIcEENS1_9allocatorIcEEEERKNS_7TfTokenENS_16NdrVersionFilterE, 
                       __ZN38pxrInternal_v0_21__aapl__pxrReserved__11NdrRegistry25_InstantiateParserPluginsERKNSt3__13setINS_6TfTypeENS1_4lessIS3_EENS1_9allocatorIS3_EEEE, 
                       __ZN38pxrInternal_v0_21__aapl__pxrReserved__11NdrRegistry26GetNodeByIdentifierAndTypeERKNS_7TfTokenES3_, 
                       __ZN38pxrInternal_v0_21__aapl__pxrReserved__11NdrRegistry28_ParseNodeMatchingIdentifierERKNS_22NdrNodeDiscoveryResultERKNS_7TfTokenE, 
                       __ZN38pxrInternal_v0_21__aapl__pxrReserved__11NdrRegistry31_GetNodeByIdentifierAndTypeImplERKNS_7TfTokenES3_, 
                       __ZN38pxrInternal_v0_21__aapl__pxrReserved__11NdrRegistry31_ParseNodeMatchingNameAndFilterERKNS_22NdrNodeDiscoveryResultERKNSt3__112basic_stringIcNS4_11char_traitsIcEENS4_9allocatorIcEEEENS_16NdrVersionFilterE, 
                       __ZN38pxrInternal_v0_21__aapl__pxrReserved__11NdrRegistry32_FindAndInstantiateParserPluginsEv, 
                       __ZN38pxrInternal_v0_21__aapl__pxrReserved__11NdrRegistry35_FindAndInstantiateDiscoveryPluginsEv, 
                       __ZN38pxrInternal_v0_21__aapl__pxrReserved__11NdrRegistryC1Ev, 
                       __ZN38pxrInternal_v0_21__aapl__pxrReserved__11NdrRegistryC2Ev, 
                       __ZN38pxrInternal_v0_21__aapl__pxrReserved__11NdrRegistryD1Ev, 
                       __ZN38pxrInternal_v0_21__aapl__pxrReserved__11NdrRegistryD2Ev, 
                       __ZN38pxrInternal_v0_21__aapl__pxrReserved__11PcpLifeboat4SwapERS0_, 
                       __ZN38pxrInternal_v0_21__aapl__pxrReserved__11PcpLifeboat6RetainERKNS_8TfRefPtrINS_13PcpLayerStackEEE, 
                       __ZN38pxrInternal_v0_21__aapl__pxrReserved__11PcpLifeboat6RetainERKNS_8TfRefPtrINS_8SdfLayerEEE, 
                       __ZN38pxrInternal_v0_21__aapl__pxrReserved__11PcpLifeboatC1Ev, 
                       __ZN38pxrInternal_v0_21__aapl__pxrReserved__11PcpLifeboatC2Ev, 
                       __ZN38pxrInternal_v0_21__aapl__pxrReserved__11PcpLifeboatD1Ev, 
                       __ZN38pxrInternal_v0_21__aapl__pxrReserved__11PcpLifeboatD2Ev, 
                       __ZN38pxrInternal_v0_21__aapl__pxrReserved__11SdfCopySpecERKNS_9TfWeakPtrINS_8SdfLayerEEERKNS_7SdfPathES4_S7_, 
                       __ZN38pxrInternal_v0_21__aapl__pxrReserved__11SdfCopySpecERKNS_9TfWeakPtrINS_8SdfLayerEEERKNS_7SdfPathES4_S7_RKNSt3__18functionIFbNS_11SdfSpecTypeERKNS_7TfTokenES4_S7_bS4_S7_bPN5boost8optionalINS_7VtValueEEEEEERKNS9_IFbSD_S4_S7_bS4_S7_bSI_SI_EEE, 
                       __ZN38pxrInternal_v0_21__aapl__pxrReserved__11SdfPrimSpec10SetCommentERKNSt3__112basic_stringIcNS1_11char_traitsIcEENS1_9allocatorIcEEEE, 
                       __ZN38pxrInternal_v0_21__aapl__pxrReserved__11SdfPrimSpec11ClearActiveEv, 
                       __ZN38pxrInternal_v0_21__aapl__pxrReserved__11SdfPrimSpec11IsValidNameERKNSt3__112basic_stringIcNS1_11char_traitsIcEENS1_9allocatorIcEEEE, 
                       __ZN38pxrInternal_v0_21__aapl__pxrReserved__11SdfPrimSpec11SetTypeNameERKNSt3__112basic_stringIcNS1_11char_traitsIcEENS1_9allocatorIcEEEE, 
                       __ZN38pxrInternal_v0_21__aapl__pxrReserved__11SdfPrimSpec12SetAssetInfoERKNSt3__112basic_stringIcNS1_11char_traitsIcEENS1_9allocatorIcEEEERKNS_7VtValueE, 
                       __ZN38pxrInternal_v0_21__aapl__pxrReserved__11SdfPrimSpec12SetRelocatesERKNSt3__13mapINS_7SdfPathES3_NS1_4lessIS3_EENS1_9allocatorINS1_4pairIKS3_S3_EEEEEE, 
                       __ZN38pxrInternal_v0_21__aapl__pxrReserved__11SdfPrimSpec12SetSpecifierENS_12SdfSpecifierE, 
                       __ZN38pxrInternal_v0_21__aapl__pxrReserved__11SdfPrimSpec13SetCustomDataERKNSt3__112basic_stringIcNS1_11char_traitsIcEENS1_9allocatorIcEEEERKNS_7VtValueE, 
                       __ZN38pxrInternal_v0_21__aapl__pxrReserved__11SdfPrimSpec13SetPermissionENS_13SdfPermissionE, 
                       __ZN38pxrInternal_v0_21__aapl__pxrReserved__11SdfPrimSpec13SetPropertiesERKNSt3__16vectorINS_9SdfHandleINS_15SdfPropertySpecEEENS1_9allocatorIS5_EEEE, 
                       __ZN38pxrInternal_v0_21__aapl__pxrReserved__11SdfPrimSpec14ClearRelocatesEv, 
                       __ZN38pxrInternal_v0_21__aapl__pxrReserved__11SdfPrimSpec14InsertPropertyERKNS_9SdfHandleINS_15SdfPropertySpecEEEi, 
                       __ZN38pxrInternal_v0_21__aapl__pxrReserved__11SdfPrimSpec14RemovePropertyERKNS_9SdfHandleINS_15SdfPropertySpecEEE, 
                       __ZN38pxrInternal_v0_21__aapl__pxrReserved__11SdfPrimSpec15InsertNameChildERKNS_9SdfHandleIS0_EEi, 
                       __ZN38pxrInternal_v0_21__aapl__pxrReserved__11SdfPrimSpec15RemoveNameChildERKNS_9SdfHandleIS0_EE, 
                       __ZN38pxrInternal_v0_21__aapl__pxrReserved__11SdfPrimSpec15SetInstanceableEb, 
                       __ZN38pxrInternal_v0_21__aapl__pxrReserved__11SdfPrimSpec15SetNameChildrenERKNSt3__16vectorINS_9SdfHandleIS0_EENS1_9allocatorIS4_EEEE, 
                       __ZN38pxrInternal_v0_21__aapl__pxrReserved__11SdfPrimSpec16ClearPayloadListEv, 
                       __ZN38pxrInternal_v0_21__aapl__pxrReserved__11SdfPrimSpec16RemoveVariantSetERKNSt3__112basic_stringIcNS1_11char_traitsIcEENS1_9allocatorIcEEEE, 
                       __ZN38pxrInternal_v0_21__aapl__pxrReserved__11SdfPrimSpec16SetDocumentationERKNSt3__112basic_stringIcNS1_11char_traitsIcEENS1_9allocatorIcEEEE, 
                       __ZN38pxrInternal_v0_21__aapl__pxrReserved__11SdfPrimSpec16SetPropertyOrderERKNSt3__16vectorINS_7TfTokenENS1_9allocatorIS3_EEEE, 
                       __ZN38pxrInternal_v0_21__aapl__pxrReserved__11SdfPrimSpec16SetSymmetricPeerERKNSt3__112basic_stringIcNS1_11char_traitsIcEENS1_9allocatorIcEEEE, 
                       __ZN38pxrInternal_v0_21__aapl__pxrReserved__11SdfPrimSpec17ClearInstanceableEv, 
                       __ZN38pxrInternal_v0_21__aapl__pxrReserved__11SdfPrimSpec18ClearReferenceListEv, 
                       __ZN38pxrInternal_v0_21__aapl__pxrReserved__11SdfPrimSpec19SetSymmetryArgumentERKNSt3__112basic_stringIcNS1_11char_traitsIcEENS1_9allocatorIcEEEERKNS_7VtValueE, 
                       __ZN38pxrInternal_v0_21__aapl__pxrReserved__11SdfPrimSpec19SetSymmetryFunctionERKNS_7TfTokenE, 
                       __ZN38pxrInternal_v0_21__aapl__pxrReserved__11SdfPrimSpec19SetVariantSelectionERKNSt3__112basic_stringIcNS1_11char_traitsIcEENS1_9allocatorIcEEEES9_, 
                       __ZN38pxrInternal_v0_21__aapl__pxrReserved__11SdfPrimSpec20ClearInheritPathListEv, 
                       __ZN38pxrInternal_v0_21__aapl__pxrReserved__11SdfPrimSpec20ClearSpecializesListEv, 
                       __ZN38pxrInternal_v0_21__aapl__pxrReserved__11SdfPrimSpec20SetNameChildrenOrderERKNSt3__16vectorINS_7TfTokenENS1_9allocatorIS3_EEEE, 
                       __ZN38pxrInternal_v0_21__aapl__pxrReserved__11SdfPrimSpec21BlockVariantSelectionERKNSt3__112basic_stringIcNS1_11char_traitsIcEENS1_9allocatorIcEEEE, 
                       __ZN38pxrInternal_v0_21__aapl__pxrReserved__11SdfPrimSpec21InsertInPropertyOrderERKNS_7TfTokenEi, 
                       __ZN38pxrInternal_v0_21__aapl__pxrReserved__11SdfPrimSpec22SetPrefixSubstitutionsERKNS_12VtDictionaryE, 
                       __ZN38pxrInternal_v0_21__aapl__pxrReserved__11SdfPrimSpec22SetSuffixSubstitutionsERKNS_12VtDictionaryE, 
                       __ZN38pxrInternal_v0_21__aapl__pxrReserved__11SdfPrimSpec23RemoveFromPropertyOrderERKNS_7TfTokenE, 
                       __ZN38pxrInternal_v0_21__aapl__pxrReserved__11SdfPrimSpec25InsertInNameChildrenOrderERKNS_7TfTokenEi, 
                       __ZN38pxrInternal_v0_21__aapl__pxrReserved__11SdfPrimSpec27RemoveFromNameChildrenOrderERKNS_7TfTokenE, 
                       __ZN38pxrInternal_v0_21__aapl__pxrReserved__11SdfPrimSpec30RemoveFromPropertyOrderByIndexEi, 
                       __ZN38pxrInternal_v0_21__aapl__pxrReserved__11SdfPrimSpec34RemoveFromNameChildrenOrderByIndexEi, 
                       __ZN38pxrInternal_v0_21__aapl__pxrReserved__11SdfPrimSpec3NewERKNS_9SdfHandleIS0_EERKNSt3__112basic_stringIcNS5_11char_traitsIcEENS5_9allocatorIcEEEENS_12SdfSpecifierESD_, 
                       __ZN38pxrInternal_v0_21__aapl__pxrReserved__11SdfPrimSpec3NewERKNS_9TfWeakPtrINS_8SdfLayerEEERKNSt3__112basic_stringIcNS6_11char_traitsIcEENS6_9allocatorIcEEEENS_12SdfSpecifierESE_, 
                       __ZN38pxrInternal_v0_21__aapl__pxrReserved__11SdfPrimSpec4_NewERKNS_9SdfHandleIS0_EERKNS_7TfTokenENS_12SdfSpecifierES7_, 
                       __ZN38pxrInternal_v0_21__aapl__pxrReserved__11SdfPrimSpec7SetKindERKNS_7TfTokenE, 
                       __ZN38pxrInternal_v0_21__aapl__pxrReserved__11SdfPrimSpec7SetNameERKNSt3__112basic_stringIcNS1_11char_traitsIcEENS1_9allocatorIcEEEEb, 
                       __ZN38pxrInternal_v0_21__aapl__pxrReserved__11SdfPrimSpec9ClearKindEv, 
                       __ZN38pxrInternal_v0_21__aapl__pxrReserved__11SdfPrimSpec9SetActiveEb, 
                       __ZN38pxrInternal_v0_21__aapl__pxrReserved__11SdfPrimSpec9SetHiddenEb, 
                       __ZN38pxrInternal_v0_21__aapl__pxrReserved__11SdfPrimSpec9SetPrefixERKNSt3__112basic_stringIcNS1_11char_traitsIcEENS1_9allocatorIcEEEE, 
                       __ZN38pxrInternal_v0_21__aapl__pxrReserved__11SdfPrimSpec9SetSuffixERKNSt3__112basic_stringIcNS1_11char_traitsIcEENS1_9allocatorIcEEEE, 
                       __ZN38pxrInternal_v0_21__aapl__pxrReserved__11SdrNodeRoleE, 
                       __ZN38pxrInternal_v0_21__aapl__pxrReserved__11SdrRegistry11GetInstanceEv, 
                       __ZN38pxrInternal_v0_21__aapl__pxrReserved__11SdrRegistry19GetShaderNodeByNameERKNSt3__112basic_stringIcNS1_11char_traitsIcEENS1_9allocatorIcEEEERKNS1_6vectorINS_7TfTokenENS5_ISB_EEEENS_16NdrVersionFilterE, 
                       __ZN38pxrInternal_v0_21__aapl__pxrReserved__11SdrRegistry20GetShaderNodesByNameERKNSt3__112basic_stringIcNS1_11char_traitsIcEENS1_9allocatorIcEEEENS_16NdrVersionFilterE, 
                       __ZN38pxrInternal_v0_21__aapl__pxrReserved__11SdrRegistry22GetShaderNodeFromAssetERKNS_12SdfAssetPathERKNSt3__113unordered_mapINS_7TfTokenENS4_12basic_stringIcNS4_11char_traitsIcEENS4_9allocatorIcEEEENS6_11HashFunctorENS4_8equal_toIS6_EENSA_INS4_4pairIKS6_SC_EEEEEERSH_SN_, 
                       __ZN38pxrInternal_v0_21__aapl__pxrReserved__11SdrRegistry22GetShaderNodesByFamilyERKNS_7TfTokenENS_16NdrVersionFilterE, 
                       __ZN38pxrInternal_v0_21__aapl__pxrReserved__11SdrRegistry25GetShaderNodeByIdentifierERKNS_7TfTokenERKNSt3__16vectorIS1_NS4_9allocatorIS1_EEEE, 
                       __ZN38pxrInternal_v0_21__aapl__pxrReserved__11SdrRegistry26GetShaderNodeByNameAndTypeERKNSt3__112basic_stringIcNS1_11char_traitsIcEENS1_9allocatorIcEEEERKNS_7TfTokenENS_16NdrVersionFilterE, 
                       __ZN38pxrInternal_v0_21__aapl__pxrReserved__11SdrRegistry26GetShaderNodesByIdentifierERKNS_7TfTokenE, 
                       __ZN38pxrInternal_v0_21__aapl__pxrReserved__11SdrRegistry27GetShaderNodeFromSourceCodeERKNSt3__112basic_stringIcNS1_11char_traitsIcEENS1_9allocatorIcEEEERKNS_7TfTokenERKNS1_13unordered_mapISA_S7_NSA_11HashFunctorENS1_8equal_toISA_EENS5_INS1_4pairISB_S7_EEEEEE, 
                       __ZN38pxrInternal_v0_21__aapl__pxrReserved__11SdrRegistry32GetShaderNodeByIdentifierAndTypeERKNS_7TfTokenES3_, 
                       __ZN38pxrInternal_v0_21__aapl__pxrReserved__11SdrRegistryC1Ev, 
                       __ZN38pxrInternal_v0_21__aapl__pxrReserved__11SdrRegistryC2Ev, 
                       __ZN38pxrInternal_v0_21__aapl__pxrReserved__11SdrRegistryD1Ev, 
                       __ZN38pxrInternal_v0_21__aapl__pxrReserved__11SdrRegistryD2Ev, 
                       __ZN38pxrInternal_v0_21__aapl__pxrReserved__11TfErrorMarkC1Ev, 
                       __ZN38pxrInternal_v0_21__aapl__pxrReserved__11TfErrorMarkC2Ev, 
                       __ZN38pxrInternal_v0_21__aapl__pxrReserved__11TfErrorMarkD1Ev, 
                       __ZN38pxrInternal_v0_21__aapl__pxrReserved__11TfErrorMarkD2Ev, 
                       __ZN38pxrInternal_v0_21__aapl__pxrReserved__11TfGetenvIntERKNSt3__112basic_stringIcNS0_11char_traitsIcEENS0_9allocatorIcEEEEi, 
                       __ZN38pxrInternal_v0_21__aapl__pxrReserved__11TfMallocTag10InitializeEPNSt3__112basic_stringIcNS1_11char_traitsIcEENS1_9allocatorIcEEEE, 
                       __ZN38pxrInternal_v0_21__aapl__pxrReserved__11TfMallocTag10_doTaggingE, 
                       __ZN38pxrInternal_v0_21__aapl__pxrReserved__11TfMallocTag11GetCallTreeEPNS0_8CallTreeEb, 
                       __ZN38pxrInternal_v0_21__aapl__pxrReserved__11TfMallocTag11_GetTaggingEv, 
                       __ZN38pxrInternal_v0_21__aapl__pxrReserved__11TfMallocTag11_InitializeEPNSt3__112basic_stringIcNS1_11char_traitsIcEENS1_9allocatorIcEEEE, 
                       __ZN38pxrInternal_v0_21__aapl__pxrReserved__11TfMallocTag11_SetTaggingENS0_8_TaggingE, 
                       __ZN38pxrInternal_v0_21__aapl__pxrReserved__11TfMallocTag12_FreeWrapperEPvPKv, 
                       __ZN38pxrInternal_v0_21__aapl__pxrReserved__11TfMallocTag13GetTotalBytesEv, 
                       __ZN38pxrInternal_v0_21__aapl__pxrReserved__11TfMallocTag14_MallocWrapperEmPKv, 
                       __ZN38pxrInternal_v0_21__aapl__pxrReserved__11TfMallocTag15_ReallocWrapperEPvmPKv, 
                       __ZN38pxrInternal_v0_21__aapl__pxrReserved__11TfMallocTag16GetMaxTotalBytesEv, 
                       __ZN38pxrInternal_v0_21__aapl__pxrReserved__11TfMallocTag16_MemalignWrapperEmmPKv, 
                       __ZN38pxrInternal_v0_21__aapl__pxrReserved__11TfMallocTag17SetDebugMatchListERKNSt3__112basic_stringIcNS1_11char_traitsIcEENS1_9allocatorIcEEEE, 
                       __ZN38pxrInternal_v0_21__aapl__pxrReserved__11TfMallocTag21_FreeWrapper_ptmallocEPvPKv, 
                       __ZN38pxrInternal_v0_21__aapl__pxrReserved__11TfMallocTag22_TemporaryTaggingStateC1ENS0_8_TaggingE, 
                       __ZN38pxrInternal_v0_21__aapl__pxrReserved__11TfMallocTag22_TemporaryTaggingStateC2ENS0_8_TaggingE, 
                       __ZN38pxrInternal_v0_21__aapl__pxrReserved__11TfMallocTag22_TemporaryTaggingStateD1Ev, 
                       __ZN38pxrInternal_v0_21__aapl__pxrReserved__11TfMallocTag22_TemporaryTaggingStateD2Ev, 
                       __ZN38pxrInternal_v0_21__aapl__pxrReserved__11TfMallocTag23GetCapturedMallocStacksEv, 
                       __ZN38pxrInternal_v0_21__aapl__pxrReserved__11TfMallocTag23_MallocWrapper_ptmallocEmPKv, 
                       __ZN38pxrInternal_v0_21__aapl__pxrReserved__11TfMallocTag24_ReallocWrapper_ptmallocEPvmPKv, 
                       __ZN38pxrInternal_v0_21__aapl__pxrReserved__11TfMallocTag25_MemalignWrapper_ptmallocEmmPKv, 
                       __ZN38pxrInternal_v0_21__aapl__pxrReserved__11TfMallocTag32SetCapturedMallocStacksMatchListERKNSt3__112basic_stringIcNS1_11char_traitsIcEENS1_9allocatorIcEEEE, 
                       __ZN38pxrInternal_v0_21__aapl__pxrReserved__11TfMallocTag3PopEPKc, 
                       __ZN38pxrInternal_v0_21__aapl__pxrReserved__11TfMallocTag4Auto4_EndEv, 
                       __ZN38pxrInternal_v0_21__aapl__pxrReserved__11TfMallocTag4Auto6_BeginEPKc, 
                       __ZN38pxrInternal_v0_21__aapl__pxrReserved__11TfMallocTag4Auto6_BeginERKNSt3__112basic_stringIcNS2_11char_traitsIcEENS2_9allocatorIcEEEE, 
                       __ZN38pxrInternal_v0_21__aapl__pxrReserved__11TfStringifyERKNSt3__112basic_stringIcNS0_11char_traitsIcEENS0_9allocatorIcEEEE, 
                       __ZN38pxrInternal_v0_21__aapl__pxrReserved__11TfStringifyEb, 
                       __ZN38pxrInternal_v0_21__aapl__pxrReserved__11TfStringifyEd, 
                       __ZN38pxrInternal_v0_21__aapl__pxrReserved__11TfStringifyEf, 
                       __ZN38pxrInternal_v0_21__aapl__pxrReserved__11TfTouchFileERKNSt3__112basic_stringIcNS0_11char_traitsIcEENS0_9allocatorIcEEEEb, 
                       __ZN38pxrInternal_v0_21__aapl__pxrReserved__11UsdClipsAPI11SetClipSetsERKNS_9SdfListOpINSt3__112basic_stringIcNS2_11char_traitsIcEENS2_9allocatorIcEEEEEE, 
                       __ZN38pxrInternal_v0_21__aapl__pxrReserved__11UsdClipsAPI12SetClipTimesERKNS_7VtArrayINS_7GfVec2dEEE, 
                       __ZN38pxrInternal_v0_21__aapl__pxrReserved__11UsdClipsAPI12SetClipTimesERKNS_7VtArrayINS_7GfVec2dEEERKNSt3__112basic_stringIcNS6_11char_traitsIcEENS6_9allocatorIcEEEE, 
                       __ZN38pxrInternal_v0_21__aapl__pxrReserved__11UsdClipsAPI13SetClipActiveERKNS_7VtArrayINS_7GfVec2dEEE, 
                       __ZN38pxrInternal_v0_21__aapl__pxrReserved__11UsdClipsAPI13SetClipActiveERKNS_7VtArrayINS_7GfVec2dEEERKNSt3__112basic_stringIcNS6_11char_traitsIcEENS6_9allocatorIcEEEE, 
                       __ZN38pxrInternal_v0_21__aapl__pxrReserved__11UsdClipsAPI14_IsTypedSchemaEv, 
                       __ZN38pxrInternal_v0_21__aapl__pxrReserved__11UsdClipsAPI15SetClipPrimPathERKNSt3__112basic_stringIcNS1_11char_traitsIcEENS1_9allocatorIcEEEE, 
                       __ZN38pxrInternal_v0_21__aapl__pxrReserved__11UsdClipsAPI15SetClipPrimPathERKNSt3__112basic_stringIcNS1_11char_traitsIcEENS1_9allocatorIcEEEES9_, 
                       __ZN38pxrInternal_v0_21__aapl__pxrReserved__11UsdClipsAPI16_GetStaticTfTypeEv, 
                       __ZN38pxrInternal_v0_21__aapl__pxrReserved__11UsdClipsAPI17SetClipAssetPathsERKNS_7VtArrayINS_12SdfAssetPathEEE, 
                       __ZN38pxrInternal_v0_21__aapl__pxrReserved__11UsdClipsAPI17SetClipAssetPathsERKNS_7VtArrayINS_12SdfAssetPathEEERKNSt3__112basic_stringIcNS6_11char_traitsIcEENS6_9allocatorIcEEEE, 
                       __ZN38pxrInternal_v0_21__aapl__pxrReserved__11UsdClipsAPI21SetClipTemplateStrideEd, 
                       __ZN38pxrInternal_v0_21__aapl__pxrReserved__11UsdClipsAPI21SetClipTemplateStrideEdRKNSt3__112basic_stringIcNS1_11char_traitsIcEENS1_9allocatorIcEEEE, 
                       __ZN38pxrInternal_v0_21__aapl__pxrReserved__11UsdClipsAPI22SetClipTemplateEndTimeEd, 
                       __ZN38pxrInternal_v0_21__aapl__pxrReserved__11UsdClipsAPI22SetClipTemplateEndTimeEdRKNSt3__112basic_stringIcNS1_11char_traitsIcEENS1_9allocatorIcEEEE, 
                       __ZN38pxrInternal_v0_21__aapl__pxrReserved__11UsdClipsAPI23GetSchemaAttributeNamesEb, 
                       __ZN38pxrInternal_v0_21__aapl__pxrReserved__11UsdClipsAPI24SetClipManifestAssetPathERKNS_12SdfAssetPathE, 
                       __ZN38pxrInternal_v0_21__aapl__pxrReserved__11UsdClipsAPI24SetClipManifestAssetPathERKNS_12SdfAssetPathERKNSt3__112basic_stringIcNS4_11char_traitsIcEENS4_9allocatorIcEEEE, 
                       __ZN38pxrInternal_v0_21__aapl__pxrReserved__11UsdClipsAPI24SetClipTemplateAssetPathERKNSt3__112basic_stringIcNS1_11char_traitsIcEENS1_9allocatorIcEEEE, 
                       __ZN38pxrInternal_v0_21__aapl__pxrReserved__11UsdClipsAPI24SetClipTemplateAssetPathERKNSt3__112basic_stringIcNS1_11char_traitsIcEENS1_9allocatorIcEEEES9_, 
                       __ZN38pxrInternal_v0_21__aapl__pxrReserved__11UsdClipsAPI24SetClipTemplateStartTimeEd, 
                       __ZN38pxrInternal_v0_21__aapl__pxrReserved__11UsdClipsAPI24SetClipTemplateStartTimeEdRKNSt3__112basic_stringIcNS1_11char_traitsIcEENS1_9allocatorIcEEEE, 
                       __ZN38pxrInternal_v0_21__aapl__pxrReserved__11UsdClipsAPI27SetClipTemplateActiveOffsetEd, 
                       __ZN38pxrInternal_v0_21__aapl__pxrReserved__11UsdClipsAPI27SetClipTemplateActiveOffsetEdRKNSt3__112basic_stringIcNS1_11char_traitsIcEENS1_9allocatorIcEEEE, 
                       __ZN38pxrInternal_v0_21__aapl__pxrReserved__11UsdClipsAPI30GenerateClipManifestFromLayersERKNSt3__16vectorINS_9TfWeakPtrINS_8SdfLayerEEENS1_9allocatorIS5_EEEERKNS_7SdfPathE, 
                       __ZN38pxrInternal_v0_21__aapl__pxrReserved__11UsdClipsAPI31SetInterpolateMissingClipValuesEb, 
                       __ZN38pxrInternal_v0_21__aapl__pxrReserved__11UsdClipsAPI31SetInterpolateMissingClipValuesEbRKNSt3__112basic_stringIcNS1_11char_traitsIcEENS1_9allocatorIcEEEE, 
                       __ZN38pxrInternal_v0_21__aapl__pxrReserved__11UsdClipsAPI3GetERKNS_9TfWeakPtrINS_8UsdStageEEERKNS_7SdfPathE, 
                       __ZN38pxrInternal_v0_21__aapl__pxrReserved__11UsdClipsAPI8SetClipsERKNS_12VtDictionaryE, 
                       __ZN38pxrInternal_v0_21__aapl__pxrReserved__11UsdClipsAPID0Ev, 
                       __ZN38pxrInternal_v0_21__aapl__pxrReserved__11UsdClipsAPID1Ev, 
                       __ZN38pxrInternal_v0_21__aapl__pxrReserved__11UsdClipsAPID2Ev, 
                       __ZN38pxrInternal_v0_21__aapl__pxrReserved__11UsdDescribeEPKNS_8UsdStageE, 
                       __ZN38pxrInternal_v0_21__aapl__pxrReserved__11UsdDescribeERKNS_13UsdStageCacheE, 
                       __ZN38pxrInternal_v0_21__aapl__pxrReserved__11UsdDescribeERKNS_8TfRefPtrINS_8UsdStageEEE, 
                       __ZN38pxrInternal_v0_21__aapl__pxrReserved__11UsdDescribeERKNS_8UsdStageE, 
                       __ZN38pxrInternal_v0_21__aapl__pxrReserved__11UsdDescribeERKNS_9TfWeakPtrINS_8UsdStageEEE, 
                       __ZN38pxrInternal_v0_21__aapl__pxrReserved__11UsdDescribeERKNS_9UsdObjectE, 
                       __ZN38pxrInternal_v0_21__aapl__pxrReserved__11UsdGeomCone13ComputeExtentEddRKNS_7TfTokenEPNS_7VtArrayINS_7GfVec3fEEE, 
                       __ZN38pxrInternal_v0_21__aapl__pxrReserved__11UsdGeomCone13ComputeExtentEddRKNS_7TfTokenERKNS_10GfMatrix4dEPNS_7VtArrayINS_7GfVec3fEEE, 
                       __ZN38pxrInternal_v0_21__aapl__pxrReserved__11UsdGeomCone14_IsTypedSchemaEv, 
                       __ZN38pxrInternal_v0_21__aapl__pxrReserved__11UsdGeomCone16_GetStaticTfTypeEv, 
                       __ZN38pxrInternal_v0_21__aapl__pxrReserved__11UsdGeomCone23GetSchemaAttributeNamesEb, 
                       __ZN38pxrInternal_v0_21__aapl__pxrReserved__11UsdGeomCone3GetERKNS_9TfWeakPtrINS_8UsdStageEEERKNS_7SdfPathE, 
                       __ZN38pxrInternal_v0_21__aapl__pxrReserved__11UsdGeomCone6DefineERKNS_9TfWeakPtrINS_8UsdStageEEERKNS_7SdfPathE, 
                       __ZN38pxrInternal_v0_21__aapl__pxrReserved__11UsdGeomConeD0Ev, 
                       __ZN38pxrInternal_v0_21__aapl__pxrReserved__11UsdGeomConeD1Ev, 
                       __ZN38pxrInternal_v0_21__aapl__pxrReserved__11UsdGeomConeD2Ev, 
                       __ZN38pxrInternal_v0_21__aapl__pxrReserved__11UsdGeomCube13ComputeExtentEdPNS_7VtArrayINS_7GfVec3fEEE, 
                       __ZN38pxrInternal_v0_21__aapl__pxrReserved__11UsdGeomCube13ComputeExtentEdRKNS_10GfMatrix4dEPNS_7VtArrayINS_7GfVec3fEEE, 
                       __ZN38pxrInternal_v0_21__aapl__pxrReserved__11UsdGeomCube14_IsTypedSchemaEv, 
                       __ZN38pxrInternal_v0_21__aapl__pxrReserved__11UsdGeomCube16_GetStaticTfTypeEv, 
                       __ZN38pxrInternal_v0_21__aapl__pxrReserved__11UsdGeomCube23GetSchemaAttributeNamesEb, 
                       __ZN38pxrInternal_v0_21__aapl__pxrReserved__11UsdGeomCube3GetERKNS_9TfWeakPtrINS_8UsdStageEEERKNS_7SdfPathE, 
                       __ZN38pxrInternal_v0_21__aapl__pxrReserved__11UsdGeomCube6DefineERKNS_9TfWeakPtrINS_8UsdStageEEERKNS_7SdfPathE, 
                       __ZN38pxrInternal_v0_21__aapl__pxrReserved__11UsdGeomCubeD0Ev, 
                       __ZN38pxrInternal_v0_21__aapl__pxrReserved__11UsdGeomCubeD1Ev, 
                       __ZN38pxrInternal_v0_21__aapl__pxrReserved__11UsdGeomCubeD2Ev, 
                       __ZN38pxrInternal_v0_21__aapl__pxrReserved__11UsdGeomMesh14_IsTypedSchemaEv, 
                       __ZN38pxrInternal_v0_21__aapl__pxrReserved__11UsdGeomMesh16ValidateTopologyERKNS_7VtArrayIiEES4_mPNSt3__112basic_stringIcNS5_11char_traitsIcEENS5_9allocatorIcEEEE, 
                       __ZN38pxrInternal_v0_21__aapl__pxrReserved__11UsdGeomMesh16_GetStaticTfTypeEv, 
                       __ZN38pxrInternal_v0_21__aapl__pxrReserved__11UsdGeomMesh18SHARPNESS_INFINITEE, 
                       __ZN38pxrInternal_v0_21__aapl__pxrReserved__11UsdGeomMesh19IsSharpnessInfiniteEf, 
                       __ZN38pxrInternal_v0_21__aapl__pxrReserved__11UsdGeomMesh23GetSchemaAttributeNamesEb, 
                       __ZN38pxrInternal_v0_21__aapl__pxrReserved__11UsdGeomMesh3GetERKNS_9TfWeakPtrINS_8UsdStageEEERKNS_7SdfPathE, 
                       __ZN38pxrInternal_v0_21__aapl__pxrReserved__11UsdGeomMesh6DefineERKNS_9TfWeakPtrINS_8UsdStageEEERKNS_7SdfPathE, 
                       __ZN38pxrInternal_v0_21__aapl__pxrReserved__11UsdGeomMeshD0Ev, 
                       __ZN38pxrInternal_v0_21__aapl__pxrReserved__11UsdGeomMeshD1Ev, 
                       __ZN38pxrInternal_v0_21__aapl__pxrReserved__11UsdGeomMeshD2Ev, 
                       __ZN38pxrInternal_v0_21__aapl__pxrReserved__11UsdInherits10AddInheritERKNS_7SdfPathENS_15UsdListPositionE, 
                       __ZN38pxrInternal_v0_21__aapl__pxrReserved__11UsdInherits11SetInheritsERKNSt3__16vectorINS_7SdfPathENS1_9allocatorIS3_EEEE, 
                       __ZN38pxrInternal_v0_21__aapl__pxrReserved__11UsdInherits13ClearInheritsEv, 
                       __ZN38pxrInternal_v0_21__aapl__pxrReserved__11UsdInherits13RemoveInheritERKNS_7SdfPathE, 
                       __ZN38pxrInternal_v0_21__aapl__pxrReserved__11UsdLuxLight11CreateInputERKNS_7TfTokenERKNS_16SdfValueTypeNameE, 
                       __ZN38pxrInternal_v0_21__aapl__pxrReserved__11UsdLuxLight12CreateOutputERKNS_7TfTokenERKNS_16SdfValueTypeNameE, 
                       __ZN38pxrInternal_v0_21__aapl__pxrReserved__11UsdLuxLight14_IsTypedSchemaEv, 
                       __ZN38pxrInternal_v0_21__aapl__pxrReserved__11UsdLuxLight16_GetStaticTfTypeEv, 
                       __ZN38pxrInternal_v0_21__aapl__pxrReserved__11UsdLuxLight23GetSchemaAttributeNamesEb, 
                       __ZN38pxrInternal_v0_21__aapl__pxrReserved__11UsdLuxLight3GetERKNS_9TfWeakPtrINS_8UsdStageEEERKNS_7SdfPathE, 
                       __ZN38pxrInternal_v0_21__aapl__pxrReserved__11UsdLuxLightC1ERKNS_22UsdShadeConnectableAPIE, 
                       __ZN38pxrInternal_v0_21__aapl__pxrReserved__11UsdLuxLightC2ERKNS_22UsdShadeConnectableAPIE, 
                       __ZN38pxrInternal_v0_21__aapl__pxrReserved__11UsdLuxLightD0Ev, 
                       __ZN38pxrInternal_v0_21__aapl__pxrReserved__11UsdLuxLightD1Ev, 
                       __ZN38pxrInternal_v0_21__aapl__pxrReserved__11UsdLuxLightD2Ev, 
                       __ZN38pxrInternal_v0_21__aapl__pxrReserved__11UsdModelAPI14_IsTypedSchemaEv, 
                       __ZN38pxrInternal_v0_21__aapl__pxrReserved__11UsdModelAPI16_GetStaticTfTypeEv, 
                       __ZN38pxrInternal_v0_21__aapl__pxrReserved__11UsdModelAPI23GetSchemaAttributeNamesEb, 
                       __ZN38pxrInternal_v0_21__aapl__pxrReserved__11UsdModelAPI3GetERKNS_9TfWeakPtrINS_8UsdStageEEERKNS_7SdfPathE, 
                       __ZN38pxrInternal_v0_21__aapl__pxrReserved__11UsdModelAPID0Ev, 
                       __ZN38pxrInternal_v0_21__aapl__pxrReserved__11UsdModelAPID1Ev, 
                       __ZN38pxrInternal_v0_21__aapl__pxrReserved__11UsdModelAPID2Ev, 
                       __ZN38pxrInternal_v0_21__aapl__pxrReserved__11UsdPayloads10AddPayloadERKNS_10SdfPayloadENS_15UsdListPositionE, 
                       __ZN38pxrInternal_v0_21__aapl__pxrReserved__11UsdPayloads10AddPayloadERKNSt3__112basic_stringIcNS1_11char_traitsIcEENS1_9allocatorIcEEEERKNS_14SdfLayerOffsetENS_15UsdListPositionE, 
                       __ZN38pxrInternal_v0_21__aapl__pxrReserved__11UsdPayloads10AddPayloadERKNSt3__112basic_stringIcNS1_11char_traitsIcEENS1_9allocatorIcEEEERKNS_7SdfPathERKNS_14SdfLayerOffsetENS_15UsdListPositionE, 
                       __ZN38pxrInternal_v0_21__aapl__pxrReserved__11UsdPayloads11SetPayloadsERKNSt3__16vectorINS_10SdfPayloadENS1_9allocatorIS3_EEEE, 
                       __ZN38pxrInternal_v0_21__aapl__pxrReserved__11UsdPayloads13ClearPayloadsEv, 
                       __ZN38pxrInternal_v0_21__aapl__pxrReserved__11UsdPayloads13RemovePayloadERKNS_10SdfPayloadE, 
                       __ZN38pxrInternal_v0_21__aapl__pxrReserved__11UsdPayloads18AddInternalPayloadERKNS_7SdfPathERKNS_14SdfLayerOffsetENS_15UsdListPositionE, 
                       __ZN38pxrInternal_v0_21__aapl__pxrReserved__11UsdRiTokensE, 
                       __ZN38pxrInternal_v0_21__aapl__pxrReserved__11UsdSkelRoot14_IsTypedSchemaEv, 
                       __ZN38pxrInternal_v0_21__aapl__pxrReserved__11UsdSkelRoot16_GetStaticTfTypeEv, 
                       __ZN38pxrInternal_v0_21__aapl__pxrReserved__11UsdSkelRoot23GetSchemaAttributeNamesEb, 
                       __ZN38pxrInternal_v0_21__aapl__pxrReserved__11UsdSkelRoot3GetERKNS_9TfWeakPtrINS_8UsdStageEEERKNS_7SdfPathE, 
                       __ZN38pxrInternal_v0_21__aapl__pxrReserved__11UsdSkelRoot4FindERKNS_7UsdPrimE, 
                       __ZN38pxrInternal_v0_21__aapl__pxrReserved__11UsdSkelRoot6DefineERKNS_9TfWeakPtrINS_8UsdStageEEERKNS_7SdfPathE, 
                       __ZN38pxrInternal_v0_21__aapl__pxrReserved__11UsdSkelRootD0Ev, 
                       __ZN38pxrInternal_v0_21__aapl__pxrReserved__11UsdSkelRootD1Ev, 
                       __ZN38pxrInternal_v0_21__aapl__pxrReserved__11UsdSkelRootD2Ev, 
                       __ZN38pxrInternal_v0_21__aapl__pxrReserved__11UsdUITokensE, 
                       __ZN38pxrInternal_v0_21__aapl__pxrReserved__11VtStreamOutERKNSt3__13mapINS0_12basic_stringIcNS0_11char_traitsIcEENS0_9allocatorIcEEEES7_NS0_4lessIS7_EENS5_INS0_4pairIKS7_S7_EEEEEERNS0_13basic_ostreamIcS4_EE, 
                       __ZN38pxrInternal_v0_21__aapl__pxrReserved__11VtStreamOutERKNSt3__16vectorINS_7VtValueENS0_9allocatorIS2_EEEERNS0_13basic_ostreamIcNS0_11char_traitsIcEEEE, 
                       __ZN38pxrInternal_v0_21__aapl__pxrReserved__11VtStreamOutERKaRNSt3__113basic_ostreamIcNS2_11char_traitsIcEEEE, 
                       __ZN38pxrInternal_v0_21__aapl__pxrReserved__11VtStreamOutERKbRNSt3__113basic_ostreamIcNS2_11char_traitsIcEEEE, 
                       __ZN38pxrInternal_v0_21__aapl__pxrReserved__11VtStreamOutERKcRNSt3__113basic_ostreamIcNS2_11char_traitsIcEEEE, 
                       __ZN38pxrInternal_v0_21__aapl__pxrReserved__11VtStreamOutERKdRNSt3__113basic_ostreamIcNS2_11char_traitsIcEEEE, 
                       __ZN38pxrInternal_v0_21__aapl__pxrReserved__11VtStreamOutERKfRNSt3__113basic_ostreamIcNS2_11char_traitsIcEEEE, 
                       __ZN38pxrInternal_v0_21__aapl__pxrReserved__11VtStreamOutERKhRNSt3__113basic_ostreamIcNS2_11char_traitsIcEEEE, 
                       __ZN38pxrInternal_v0_21__aapl__pxrReserved__12ArchDemangleEPNSt3__112basic_stringIcNS0_11char_traitsIcEENS0_9allocatorIcEEEE, 
                       __ZN38pxrInternal_v0_21__aapl__pxrReserved__12ArchNormPathERKNSt3__112basic_stringIcNS0_11char_traitsIcEENS0_9allocatorIcEEEEb, 
                       __ZN38pxrInternal_v0_21__aapl__pxrReserved__12ArchOpenFileEPKcS1_, 
                       __ZN38pxrInternal_v0_21__aapl__pxrReserved__12ArchReadLinkEPKc, 
                       __ZN38pxrInternal_v0_21__aapl__pxrReserved__12ArchStrerrorEi, 
                       __ZN38pxrInternal_v0_21__aapl__pxrReserved__12ArchStrerrorEv, 
                       __ZN38pxrInternal_v0_21__aapl__pxrReserved__12Arch_WarningEPKcS1_mS1_, 
                       __ZN38pxrInternal_v0_21__aapl__pxrReserved__12GfApplyGammaERKNS_7GfVec3dEd, 
                       __ZN38pxrInternal_v0_21__aapl__pxrReserved__12GfApplyGammaERKNS_7GfVec3fEd, 
                       __ZN38pxrInternal_v0_21__aapl__pxrReserved__12GfApplyGammaERKNS_7GfVec3hEd, 
                       __ZN38pxrInternal_v0_21__aapl__pxrReserved__12GfApplyGammaERKNS_7GfVec4dEd, 
                       __ZN38pxrInternal_v0_21__aapl__pxrReserved__12GfApplyGammaERKNS_7GfVec4fEd, 
                       __ZN38pxrInternal_v0_21__aapl__pxrReserved__12GfApplyGammaERKNS_7GfVec4hEd, 
                       __ZN38pxrInternal_v0_21__aapl__pxrReserved__12GfApplyGammaERKfd, 
                       __ZN38pxrInternal_v0_21__aapl__pxrReserved__12GfApplyGammaERKhd, 
                       __ZN38pxrInternal_v0_21__aapl__pxrReserved__12GfQuaternion9NormalizeEd, 
                       __ZN38pxrInternal_v0_21__aapl__pxrReserved__12GfQuaternionmLERKS0_, 
                       __ZN38pxrInternal_v0_21__aapl__pxrReserved__12GfQuaternionmLEd, 
                       __ZN38pxrInternal_v0_21__aapl__pxrReserved__12HdBufferSpec12ComputeUnionERKNSt3__16vectorIS0_NS1_9allocatorIS0_EEEES7_, 
                       __ZN38pxrInternal_v0_21__aapl__pxrReserved__12HdBufferSpec17ComputeDifferenceERKNSt3__16vectorIS0_NS1_9allocatorIS0_EEEES7_, 
                       __ZN38pxrInternal_v0_21__aapl__pxrReserved__12HdBufferSpec4DumpERKNSt3__16vectorIS0_NS1_9allocatorIS0_EEEE, 
                       __ZN38pxrInternal_v0_21__aapl__pxrReserved__12HdBufferSpec8IsSubsetERKNSt3__16vectorIS0_NS1_9allocatorIS0_EEEES7_, 
                       __ZN38pxrInternal_v0_21__aapl__pxrReserved__12HdPerfTokensE, 
                       __ZN38pxrInternal_v0_21__aapl__pxrReserved__12HdPrimGather12_FilterRangeERKNSt3__16vectorINS_7SdfPathENS1_9allocatorIS3_EEEEmmb, 
                       __ZN38pxrInternal_v0_21__aapl__pxrReserved__12HdPrimGather12_GatherPathsERKNSt3__16vectorINS_7SdfPathENS1_9allocatorIS3_EEEE, 
                       __ZN38pxrInternal_v0_21__aapl__pxrReserved__12HdPrimGather12_SetupFilterERKNSt3__16vectorINS_7SdfPathENS1_9allocatorIS3_EEEES8_, 
                       __ZN38pxrInternal_v0_21__aapl__pxrReserved__12HdPrimGather14SubtreeAsRangeERKNSt3__16vectorINS_7SdfPathENS1_9allocatorIS3_EEEERKS3_PmSB_, 
                       __ZN38pxrInternal_v0_21__aapl__pxrReserved__12HdPrimGather14_FilterSubTreeERKNSt3__16vectorINS_7SdfPathENS1_9allocatorIS3_EEEERKS3_, 
                       __ZN38pxrInternal_v0_21__aapl__pxrReserved__12HdPrimGather16PredicatedFilterERKNSt3__16vectorINS_7SdfPathENS1_9allocatorIS3_EEEES8_S8_PFbRKS3_PKvEPvPS6_, 
                       __ZN38pxrInternal_v0_21__aapl__pxrReserved__12HdPrimGather23_DoPredicateTestOnPrimsERKNSt3__16vectorINS_7SdfPathENS1_9allocatorIS3_EEEERN3tbb13blocked_rangeImEEPFbRKS3_PKvEPv, 
                       __ZN38pxrInternal_v0_21__aapl__pxrReserved__12HdPrimGather23_DoPredicateTestOnRangeERKNSt3__16vectorINS_7SdfPathENS1_9allocatorIS3_EEEERKNS0_6_RangeEPFbRKS3_PKvEPv, 
                       __ZN38pxrInternal_v0_21__aapl__pxrReserved__12HdPrimGather6FilterERKNSt3__16vectorINS_7SdfPathENS1_9allocatorIS3_EEEES8_S8_PS6_, 
                       __ZN38pxrInternal_v0_21__aapl__pxrReserved__12HdPrimGather7SubtreeERKNSt3__16vectorINS_7SdfPathENS1_9allocatorIS3_EEEERKS3_PS6_, 
                       __ZN38pxrInternal_v0_21__aapl__pxrReserved__12HdRenderPass18SetRprimCollectionERKNS_17HdRprimCollectionE, 
                       __ZN38pxrInternal_v0_21__aapl__pxrReserved__12HdRenderPass4SyncEv, 
                       __ZN38pxrInternal_v0_21__aapl__pxrReserved__12HdRenderPass7ExecuteERKNSt3__110shared_ptrINS_17HdRenderPassStateEEERKNS1_6vectorINS_7TfTokenENS1_9allocatorIS8_EEEE, 
                       __ZN38pxrInternal_v0_21__aapl__pxrReserved__12HdRenderPass7PrepareERKNSt3__16vectorINS_7TfTokenENS1_9allocatorIS3_EEEE, 
                       __ZN38pxrInternal_v0_21__aapl__pxrReserved__12HdRenderPassC2EPNS_13HdRenderIndexERKNS_17HdRprimCollectionE, 
                       __ZN38pxrInternal_v0_21__aapl__pxrReserved__12HdRenderPassD0Ev, 
                       __ZN38pxrInternal_v0_21__aapl__pxrReserved__12HdRenderPassD1Ev, 
                       __ZN38pxrInternal_v0_21__aapl__pxrReserved__12HdRenderPassD2Ev, 
                       __ZN38pxrInternal_v0_21__aapl__pxrReserved__12HdReprTokensE, 
                       __ZN38pxrInternal_v0_21__aapl__pxrReserved__12Hd_SortedIds11RemoveRangeEmm, 
                       __ZN38pxrInternal_v0_21__aapl__pxrReserved__12Hd_SortedIds11_InsertSortEv, 
                       __ZN38pxrInternal_v0_21__aapl__pxrReserved__12Hd_SortedIds5ClearEv, 
                       __ZN38pxrInternal_v0_21__aapl__pxrReserved__12Hd_SortedIds5_SortEv, 
                       __ZN38pxrInternal_v0_21__aapl__pxrReserved__12Hd_SortedIds6GetIdsEv, 
                       __ZN38pxrInternal_v0_21__aapl__pxrReserved__12Hd_SortedIds6InsertERKNS_7SdfPathE, 
                       __ZN38pxrInternal_v0_21__aapl__pxrReserved__12Hd_SortedIds6RemoveERKNS_7SdfPathE, 
                       __ZN38pxrInternal_v0_21__aapl__pxrReserved__12Hd_SortedIds9_FullSortEv, 
                       __ZN38pxrInternal_v0_21__aapl__pxrReserved__12Hd_SortedIdsC1EOS0_, 
                       __ZN38pxrInternal_v0_21__aapl__pxrReserved__12Hd_SortedIdsC1Ev, 
                       __ZN38pxrInternal_v0_21__aapl__pxrReserved__12Hd_SortedIdsC2EOS0_, 
                       __ZN38pxrInternal_v0_21__aapl__pxrReserved__12Hd_SortedIdsC2Ev, 
                       __ZN38pxrInternal_v0_21__aapl__pxrReserved__12HfPluginBaseD0Ev, 
                       __ZN38pxrInternal_v0_21__aapl__pxrReserved__12HfPluginBaseD1Ev, 
                       __ZN38pxrInternal_v0_21__aapl__pxrReserved__12HfPluginBaseD2Ev, 
                       __ZN38pxrInternal_v0_21__aapl__pxrReserved__12JsWriteValueEPNS_8JsWriterERKNS_7JsValueE, 
                       __ZN38pxrInternal_v0_21__aapl__pxrReserved__12KindRegistry11GetAllKindsEv, 
                       __ZN38pxrInternal_v0_21__aapl__pxrReserved__12KindRegistry11GetBaseKindERKNS_7TfTokenE, 
                       __ZN38pxrInternal_v0_21__aapl__pxrReserved__12KindRegistry11GetInstanceEv, 
                       __ZN38pxrInternal_v0_21__aapl__pxrReserved__12KindRegistry17_RegisterDefaultsEv, 
                       __ZN38pxrInternal_v0_21__aapl__pxrReserved__12KindRegistry3IsAERKNS_7TfTokenES3_, 
                       __ZN38pxrInternal_v0_21__aapl__pxrReserved__12KindRegistry7HasKindERKNS_7TfTokenE, 
                       __ZN38pxrInternal_v0_21__aapl__pxrReserved__12KindRegistry9_RegisterERKNS_7TfTokenES3_, 
                       __ZN38pxrInternal_v0_21__aapl__pxrReserved__12KindRegistryC1Ev, 
                       __ZN38pxrInternal_v0_21__aapl__pxrReserved__12KindRegistryC2Ev, 
                       __ZN38pxrInternal_v0_21__aapl__pxrReserved__12KindRegistryD0Ev, 
                       __ZN38pxrInternal_v0_21__aapl__pxrReserved__12KindRegistryD1Ev, 
                       __ZN38pxrInternal_v0_21__aapl__pxrReserved__12KindRegistryD2Ev, 
                       __ZN38pxrInternal_v0_21__aapl__pxrReserved__12PcpErrorBaseC2ENS_6TfEnumE, 
                       __ZN38pxrInternal_v0_21__aapl__pxrReserved__12PcpErrorBaseD0Ev, 
                       __ZN38pxrInternal_v0_21__aapl__pxrReserved__12PcpErrorBaseD1Ev, 
                       __ZN38pxrInternal_v0_21__aapl__pxrReserved__12PcpErrorBaseD2Ev, 
                       __ZN38pxrInternal_v0_21__aapl__pxrReserved__12PcpPrimIndex4SwapERS0_, 
                       __ZN38pxrInternal_v0_21__aapl__pxrReserved__12PcpPrimIndex8SetGraphERKNS_8TfRefPtrINS_18PcpPrimIndex_GraphEEE, 
                       __ZN38pxrInternal_v0_21__aapl__pxrReserved__12PcpPrimIndexC1ERKS0_, 
                       __ZN38pxrInternal_v0_21__aapl__pxrReserved__12PcpPrimIndexC1Ev, 
                       __ZN38pxrInternal_v0_21__aapl__pxrReserved__12PcpPrimIndexC2ERKS0_, 
                       __ZN38pxrInternal_v0_21__aapl__pxrReserved__12PcpPrimIndexC2Ev, 
                       __ZN38pxrInternal_v0_21__aapl__pxrReserved__12PlugRegistry11GetInstanceEv, 
                       __ZN38pxrInternal_v0_21__aapl__pxrReserved__12PlugRegistry14FindTypeByNameERKNSt3__112basic_stringIcNS1_11char_traitsIcEENS1_9allocatorIcEEEE, 
                       __ZN38pxrInternal_v0_21__aapl__pxrReserved__12PlugRegistry15RegisterPluginsERKNSt3__112basic_stringIcNS1_11char_traitsIcEENS1_9allocatorIcEEEE, 
                       __ZN38pxrInternal_v0_21__aapl__pxrReserved__12PlugRegistry15RegisterPluginsERKNSt3__16vectorINS1_12basic_stringIcNS1_11char_traitsIcEENS1_9allocatorIcEEEENS6_IS8_EEEE, 
                       __ZN38pxrInternal_v0_21__aapl__pxrReserved__12PlugRegistry18GetAllDerivedTypesENS_6TfTypeEPNSt3__13setIS1_NS2_4lessIS1_EENS2_9allocatorIS1_EEEE, 
                       __ZN38pxrInternal_v0_21__aapl__pxrReserved__12PlugRegistry21FindDerivedTypeByNameENS_6TfTypeERKNSt3__112basic_stringIcNS2_11char_traitsIcEENS2_9allocatorIcEEEE, 
                       __ZN38pxrInternal_v0_21__aapl__pxrReserved__12PlugRegistry23GetDirectlyDerivedTypesENS_6TfTypeE, 
                       __ZN38pxrInternal_v0_21__aapl__pxrReserved__12SdfAssetPathC1ERKNSt3__112basic_stringIcNS1_11char_traitsIcEENS1_9allocatorIcEEEE, 
                       __ZN38pxrInternal_v0_21__aapl__pxrReserved__12SdfAssetPathC1ERKNSt3__112basic_stringIcNS1_11char_traitsIcEENS1_9allocatorIcEEEES9_, 
                       __ZN38pxrInternal_v0_21__aapl__pxrReserved__12SdfAssetPathC1Ev, 
                       __ZN38pxrInternal_v0_21__aapl__pxrReserved__12SdfAssetPathC2ERKNSt3__112basic_stringIcNS1_11char_traitsIcEENS1_9allocatorIcEEEE, 
                       __ZN38pxrInternal_v0_21__aapl__pxrReserved__12SdfAssetPathC2ERKNSt3__112basic_stringIcNS1_11char_traitsIcEENS1_9allocatorIcEEEES9_, 
                       __ZN38pxrInternal_v0_21__aapl__pxrReserved__12SdfAssetPathC2Ev, 
                       __ZN38pxrInternal_v0_21__aapl__pxrReserved__12SdfFieldKeysE, 
                       __ZN38pxrInternal_v0_21__aapl__pxrReserved__12SdfLayerTree3NewERKNS_9TfWeakPtrINS_8SdfLayerEEERKNSt3__16vectorINS_8TfRefPtrIS0_EENS6_9allocatorIS9_EEEERKNS_14SdfLayerOffsetE, 
                       __ZN38pxrInternal_v0_21__aapl__pxrReserved__12SdfLayerTreeC1ERKNS_9TfWeakPtrINS_8SdfLayerEEERKNSt3__16vectorINS_8TfRefPtrIS0_EENS6_9allocatorIS9_EEEERKNS_14SdfLayerOffsetE, 
                       __ZN38pxrInternal_v0_21__aapl__pxrReserved__12SdfLayerTreeC2ERKNS_9TfWeakPtrINS_8SdfLayerEEERKNSt3__16vectorINS_8TfRefPtrIS0_EENS6_9allocatorIS9_EEEERKNS_14SdfLayerOffsetE, 
                       __ZN38pxrInternal_v0_21__aapl__pxrReserved__12SdfReference13SetCustomDataERKNSt3__112basic_stringIcNS1_11char_traitsIcEENS1_9allocatorIcEEEERKNS_7VtValueE, 
                       __ZN38pxrInternal_v0_21__aapl__pxrReserved__12SdfReferenceC1ERKNSt3__112basic_stringIcNS1_11char_traitsIcEENS1_9allocatorIcEEEERKNS_7SdfPathERKNS_14SdfLayerOffsetERKNS_12VtDictionaryE, 
                       __ZN38pxrInternal_v0_21__aapl__pxrReserved__12SdfReferenceC2ERKNSt3__112basic_stringIcNS1_11char_traitsIcEENS1_9allocatorIcEEEERKNS_7SdfPathERKNS_14SdfLayerOffsetERKNS_12VtDictionaryE, 
                       __ZN38pxrInternal_v0_21__aapl__pxrReserved__12Sdf_Identity7_ForgetEv, 
                       __ZN38pxrInternal_v0_21__aapl__pxrReserved__12Sdf_IdentityC1EPNS_20Sdf_IdentityRegistryERKNS_7SdfPathE, 
                       __ZN38pxrInternal_v0_21__aapl__pxrReserved__12Sdf_IdentityC2EPNS_20Sdf_IdentityRegistryERKNS_7SdfPathE, 
                       __ZN38pxrInternal_v0_21__aapl__pxrReserved__12Sdf_IdentityD1Ev, 
                       __ZN38pxrInternal_v0_21__aapl__pxrReserved__12Sdf_IdentityD2Ev, 
                       __ZN38pxrInternal_v0_21__aapl__pxrReserved__12Sdf_PathNode12GetPathTokenEPKS0_S2_, 
                       __ZN38pxrInternal_v0_21__aapl__pxrReserved__12Sdf_PathNode14GetPathAsTokenEPKS0_S2_, 
                       __ZN38pxrInternal_v0_21__aapl__pxrReserved__12Sdf_PathNode16FindOrCreatePrimEPKS0_RKNS_7TfTokenE, 
                       __ZN38pxrInternal_v0_21__aapl__pxrReserved__12Sdf_PathNode16_CreatePathTokenEPKS0_S2_, 
                       __ZN38pxrInternal_v0_21__aapl__pxrReserved__12Sdf_PathNode18FindOrCreateMapperEPKS0_RKNS_7SdfPathE, 
                       __ZN38pxrInternal_v0_21__aapl__pxrReserved__12Sdf_PathNode18FindOrCreateTargetEPKS0_RKNS_7SdfPathE, 
                       __ZN38pxrInternal_v0_21__aapl__pxrReserved__12Sdf_PathNode19GetAbsoluteRootNodeEv, 
                       __ZN38pxrInternal_v0_21__aapl__pxrReserved__12Sdf_PathNode19GetRelativeRootNodeEv, 
                       __ZN38pxrInternal_v0_21__aapl__pxrReserved__12Sdf_PathNode21FindOrCreateMapperArgEPKS0_RKNS_7TfTokenE, 
                       __ZN38pxrInternal_v0_21__aapl__pxrReserved__12Sdf_PathNode22FindOrCreateExpressionEPKS0_, 
                       __ZN38pxrInternal_v0_21__aapl__pxrReserved__12Sdf_PathNode24FindOrCreatePrimPropertyEPKS0_RKNS_7TfTokenE, 
                       __ZN38pxrInternal_v0_21__aapl__pxrReserved__12Sdf_PathNode31FindOrCreateRelationalAttributeEPKS0_RKNS_7TfTokenE, 
                       __ZN38pxrInternal_v0_21__aapl__pxrReserved__12Sdf_PathNode32FindOrCreatePrimVariantSelectionEPKS0_RKNS_7TfTokenES5_, 
                       __ZN38pxrInternal_v0_21__aapl__pxrReserved__12Sdf_PathNodeC1Eb, 
                       __ZN38pxrInternal_v0_21__aapl__pxrReserved__12Sdf_PathNodeC2Eb, 
                       __ZN38pxrInternal_v0_21__aapl__pxrReserved__12Sdf_SpecType4CastERKNS_7SdfSpecERKSt9type_info, 
                       __ZN38pxrInternal_v0_21__aapl__pxrReserved__12Sdf_SpecType7CanCastENS_11SdfSpecTypeERKSt9type_info, 
                       __ZN38pxrInternal_v0_21__aapl__pxrReserved__12Sdf_SpecType7CanCastERKNS_7SdfSpecERKSt9type_info, 
                       __ZN38pxrInternal_v0_21__aapl__pxrReserved__12TfAnyWeakPtr12_EmptyHolderD0Ev, 
                       __ZN38pxrInternal_v0_21__aapl__pxrReserved__12TfAnyWeakPtr12_EmptyHolderD1Ev, 
                       __ZN38pxrInternal_v0_21__aapl__pxrReserved__12TfAnyWeakPtr12_EmptyHolderD2Ev, 
                       __ZN38pxrInternal_v0_21__aapl__pxrReserved__12TfAnyWeakPtr18_PointerHolderBaseD0Ev, 
                       __ZN38pxrInternal_v0_21__aapl__pxrReserved__12TfAnyWeakPtr18_PointerHolderBaseD1Ev, 
                       __ZN38pxrInternal_v0_21__aapl__pxrReserved__12TfAnyWeakPtr18_PointerHolderBaseD2Ev, 
                       __ZN38pxrInternal_v0_21__aapl__pxrReserved__12TfDeleteFileERKNSt3__112basic_stringIcNS0_11char_traitsIcEENS0_9allocatorIcEEEE, 
                       __ZN38pxrInternal_v0_21__aapl__pxrReserved__12TfGetenvBoolERKNSt3__112basic_stringIcNS0_11char_traitsIcEENS0_9allocatorIcEEEEb, 
                       __ZN38pxrInternal_v0_21__aapl__pxrReserved__12TfIsDirEmptyERKNSt3__112basic_stringIcNS0_11char_traitsIcEENS0_9allocatorIcEEEE, 
                       __ZN38pxrInternal_v0_21__aapl__pxrReserved__12TfIsWritableERKNSt3__112basic_stringIcNS0_11char_traitsIcEENS0_9allocatorIcEEEE, 
                       __ZN38pxrInternal_v0_21__aapl__pxrReserved__12TfPathExistsERKNSt3__112basic_stringIcNS0_11char_traitsIcEENS0_9allocatorIcEEEEb, 
                       __ZN38pxrInternal_v0_21__aapl__pxrReserved__12TfStringJoinERKNSt3__13setINS0_12basic_stringIcNS0_11char_traitsIcEENS0_9allocatorIcEEEENS0_4lessIS7_EENS5_IS7_EEEEPKc, 
                       __ZN38pxrInternal_v0_21__aapl__pxrReserved__12TfStringJoinERKNSt3__16vectorINS0_12basic_stringIcNS0_11char_traitsIcEENS0_9allocatorIcEEEENS5_IS7_EEEEPKc, 
                       __ZN38pxrInternal_v0_21__aapl__pxrReserved__12TfStringTrimERKNSt3__112basic_stringIcNS0_11char_traitsIcEENS0_9allocatorIcEEEEPKc, 
                       __ZN38pxrInternal_v0_21__aapl__pxrReserved__12Tf_HashState12_AppendBytesEPKcm, 
                       __ZN38pxrInternal_v0_21__aapl__pxrReserved__12UsdAttribute21GetUnionedTimeSamplesERKNSt3__16vectorIS0_NS1_9allocatorIS0_EEEEPNS2_IdNS3_IdEEEE, 
                       __ZN38pxrInternal_v0_21__aapl__pxrReserved__12UsdAttribute31GetUnionedTimeSamplesInIntervalERKNSt3__16vectorIS0_NS1_9allocatorIS0_EEEERKNS_10GfIntervalEPNS2_IdNS3_IdEEEE, 
                       __ZN38pxrInternal_v0_21__aapl__pxrReserved__12UsdCrateInfo4OpenERKNSt3__112basic_stringIcNS1_11char_traitsIcEENS1_9allocatorIcEEEE, 
                       __ZN38pxrInternal_v0_21__aapl__pxrReserved__12UsdGeomGprim14_IsTypedSchemaEv, 
                       __ZN38pxrInternal_v0_21__aapl__pxrReserved__12UsdGeomGprim16_GetStaticTfTypeEv, 
                       __ZN38pxrInternal_v0_21__aapl__pxrReserved__12UsdGeomGprim23GetSchemaAttributeNamesEb, 
                       __ZN38pxrInternal_v0_21__aapl__pxrReserved__12UsdGeomGprim3GetERKNS_9TfWeakPtrINS_8UsdStageEEERKNS_7SdfPathE, 
                       __ZN38pxrInternal_v0_21__aapl__pxrReserved__12UsdGeomGprimD0Ev, 
                       __ZN38pxrInternal_v0_21__aapl__pxrReserved__12UsdGeomGprimD1Ev, 
                       __ZN38pxrInternal_v0_21__aapl__pxrReserved__12UsdGeomGprimD2Ev, 
                       __ZN38pxrInternal_v0_21__aapl__pxrReserved__12UsdGeomScope14_IsTypedSchemaEv, 
                       __ZN38pxrInternal_v0_21__aapl__pxrReserved__12UsdGeomScope16_GetStaticTfTypeEv, 
                       __ZN38pxrInternal_v0_21__aapl__pxrReserved__12UsdGeomScope23GetSchemaAttributeNamesEb, 
                       __ZN38pxrInternal_v0_21__aapl__pxrReserved__12UsdGeomScope3GetERKNS_9TfWeakPtrINS_8UsdStageEEERKNS_7SdfPathE, 
                       __ZN38pxrInternal_v0_21__aapl__pxrReserved__12UsdGeomScope6DefineERKNS_9TfWeakPtrINS_8UsdStageEEERKNS_7SdfPathE, 
                       __ZN38pxrInternal_v0_21__aapl__pxrReserved__12UsdGeomScopeD0Ev, 
                       __ZN38pxrInternal_v0_21__aapl__pxrReserved__12UsdGeomScopeD1Ev, 
                       __ZN38pxrInternal_v0_21__aapl__pxrReserved__12UsdGeomScopeD2Ev, 
                       __ZN38pxrInternal_v0_21__aapl__pxrReserved__12UsdGeomXform14_IsTypedSchemaEv, 
                       __ZN38pxrInternal_v0_21__aapl__pxrReserved__12UsdGeomXform16_GetStaticTfTypeEv, 
                       __ZN38pxrInternal_v0_21__aapl__pxrReserved__12UsdGeomXform23GetSchemaAttributeNamesEb, 
                       __ZN38pxrInternal_v0_21__aapl__pxrReserved__12UsdGeomXform3GetERKNS_9TfWeakPtrINS_8UsdStageEEERKNS_7SdfPathE, 
                       __ZN38pxrInternal_v0_21__aapl__pxrReserved__12UsdGeomXform6DefineERKNS_9TfWeakPtrINS_8UsdStageEEERKNS_7SdfPathE, 
                       __ZN38pxrInternal_v0_21__aapl__pxrReserved__12UsdGeomXformD0Ev, 
                       __ZN38pxrInternal_v0_21__aapl__pxrReserved__12UsdGeomXformD1Ev, 
                       __ZN38pxrInternal_v0_21__aapl__pxrReserved__12UsdGeomXformD2Ev, 
                       __ZN38pxrInternal_v0_21__aapl__pxrReserved__12UsdLuxTokensE, 
                       __ZN38pxrInternal_v0_21__aapl__pxrReserved__12UsdPrimRange5StageERKNS_9TfWeakPtrINS_8UsdStageEEERKNS_22Usd_PrimFlagsPredicateE, 
                       __ZN38pxrInternal_v0_21__aapl__pxrReserved__12UsdPrimRange8iterator13PruneChildrenEv, 
                       __ZN38pxrInternal_v0_21__aapl__pxrReserved__12UsdPrimRange8iterator9incrementEv, 
                       __ZN38pxrInternal_v0_21__aapl__pxrReserved__12UsdRenderVar14_IsTypedSchemaEv, 
                       __ZN38pxrInternal_v0_21__aapl__pxrReserved__12UsdRenderVar16_GetStaticTfTypeEv, 
                       __ZN38pxrInternal_v0_21__aapl__pxrReserved__12UsdRenderVar23GetSchemaAttributeNamesEb, 
                       __ZN38pxrInternal_v0_21__aapl__pxrReserved__12UsdRenderVar3GetERKNS_9TfWeakPtrINS_8UsdStageEEERKNS_7SdfPathE, 
                       __ZN38pxrInternal_v0_21__aapl__pxrReserved__12UsdRenderVar6DefineERKNS_9TfWeakPtrINS_8UsdStageEEERKNS_7SdfPathE, 
                       __ZN38pxrInternal_v0_21__aapl__pxrReserved__12UsdRenderVarD0Ev, 
                       __ZN38pxrInternal_v0_21__aapl__pxrReserved__12UsdRenderVarD1Ev, 
                       __ZN38pxrInternal_v0_21__aapl__pxrReserved__12UsdRenderVarD2Ev, 
                       __ZN38pxrInternal_v0_21__aapl__pxrReserved__12UsdRiRisBxdf14_IsTypedSchemaEv, 
                       __ZN38pxrInternal_v0_21__aapl__pxrReserved__12UsdRiRisBxdf16_GetStaticTfTypeEv, 
                       __ZN38pxrInternal_v0_21__aapl__pxrReserved__12UsdRiRisBxdf23GetSchemaAttributeNamesEb, 
                       __ZN38pxrInternal_v0_21__aapl__pxrReserved__12UsdRiRisBxdf3GetERKNS_9TfWeakPtrINS_8UsdStageEEERKNS_7SdfPathE, 
                       __ZN38pxrInternal_v0_21__aapl__pxrReserved__12UsdRiRisBxdf6DefineERKNS_9TfWeakPtrINS_8UsdStageEEERKNS_7SdfPathE, 
                       __ZN38pxrInternal_v0_21__aapl__pxrReserved__12UsdRiRisBxdfD0Ev, 
                       __ZN38pxrInternal_v0_21__aapl__pxrReserved__12UsdRiRisBxdfD1Ev, 
                       __ZN38pxrInternal_v0_21__aapl__pxrReserved__12UsdRiRisBxdfD2Ev, 
                       __ZN38pxrInternal_v0_21__aapl__pxrReserved__12UsdSkelCache5ClearEv, 
                       __ZN38pxrInternal_v0_21__aapl__pxrReserved__12UsdSkelCacheC1Ev, 
                       __ZN38pxrInternal_v0_21__aapl__pxrReserved__12UsdSkelCacheC2Ev, 
                       __ZN38pxrInternal_v0_21__aapl__pxrReserved__12UsdVolTokensE, 
                       __ZN38pxrInternal_v0_21__aapl__pxrReserved__12UsdVolVolume14_IsTypedSchemaEv, 
                       __ZN38pxrInternal_v0_21__aapl__pxrReserved__12UsdVolVolume15_MakeNamespacedERKNS_7TfTokenE, 
                       __ZN38pxrInternal_v0_21__aapl__pxrReserved__12UsdVolVolume16_GetStaticTfTypeEv, 
                       __ZN38pxrInternal_v0_21__aapl__pxrReserved__12UsdVolVolume23GetSchemaAttributeNamesEb, 
                       __ZN38pxrInternal_v0_21__aapl__pxrReserved__12UsdVolVolume3GetERKNS_9TfWeakPtrINS_8UsdStageEEERKNS_7SdfPathE, 
                       __ZN38pxrInternal_v0_21__aapl__pxrReserved__12UsdVolVolume6DefineERKNS_9TfWeakPtrINS_8UsdStageEEERKNS_7SdfPathE, 
                       __ZN38pxrInternal_v0_21__aapl__pxrReserved__12UsdVolVolumeD0Ev, 
                       __ZN38pxrInternal_v0_21__aapl__pxrReserved__12UsdVolVolumeD1Ev, 
                       __ZN38pxrInternal_v0_21__aapl__pxrReserved__12UsdVolVolumeD2Ev, 
                       __ZN38pxrInternal_v0_21__aapl__pxrReserved__12Usd_PrimData21_ComposeAndCacheFlagsEPKS0_b, 
                       __ZN38pxrInternal_v0_21__aapl__pxrReserved__12Usd_PrimData22_ComposePrimChildNamesEPNSt3__16vectorINS_7TfTokenENS1_9allocatorIS3_EEEE, 
                       __ZN38pxrInternal_v0_21__aapl__pxrReserved__12Usd_PrimDataC1EPNS_8UsdStageERKNS_7SdfPathE, 
                       __ZN38pxrInternal_v0_21__aapl__pxrReserved__12Usd_PrimDataC2EPNS_8UsdStageERKNS_7SdfPathE, 
                       __ZN38pxrInternal_v0_21__aapl__pxrReserved__12Usd_PrimDataD1Ev, 
                       __ZN38pxrInternal_v0_21__aapl__pxrReserved__12Usd_PrimDataD2Ev, 
                       __ZN38pxrInternal_v0_21__aapl__pxrReserved__12Usd_Resolver15_SkipEmptyNodesEv, 
                       __ZN38pxrInternal_v0_21__aapl__pxrReserved__12Usd_Resolver5_InitEv, 
                       __ZN38pxrInternal_v0_21__aapl__pxrReserved__12Usd_Resolver8NextNodeEv, 
                       __ZN38pxrInternal_v0_21__aapl__pxrReserved__12Usd_Resolver9NextLayerEv, 
                       __ZN38pxrInternal_v0_21__aapl__pxrReserved__12Usd_ResolverC1EPKNS_12PcpPrimIndexEb, 
                       __ZN38pxrInternal_v0_21__aapl__pxrReserved__12Usd_ResolverC2EPKNS_12PcpPrimIndexEb, 
                       __ZN38pxrInternal_v0_21__aapl__pxrReserved__12VtDictionary14SetValueAtPathERKNSt3__112basic_stringIcNS1_11char_traitsIcEENS1_9allocatorIcEEEERKNS_7VtValueEPKc, 
                       __ZN38pxrInternal_v0_21__aapl__pxrReserved__12VtDictionary14SetValueAtPathERKNSt3__16vectorINS1_12basic_stringIcNS1_11char_traitsIcEENS1_9allocatorIcEEEENS6_IS8_EEEERKNS_7VtValueE, 
                       __ZN38pxrInternal_v0_21__aapl__pxrReserved__12VtDictionary16EraseValueAtPathERKNSt3__112basic_stringIcNS1_11char_traitsIcEENS1_9allocatorIcEEEEPKc, 
                       __ZN38pxrInternal_v0_21__aapl__pxrReserved__12VtDictionary16EraseValueAtPathERKNSt3__16vectorINS1_12basic_stringIcNS1_11char_traitsIcEENS1_9allocatorIcEEEENS6_IS8_EEEE, 
                       __ZN38pxrInternal_v0_21__aapl__pxrReserved__12VtDictionary19_CreateDictIfNeededEv, 
                       __ZN38pxrInternal_v0_21__aapl__pxrReserved__12VtDictionary19_SetValueAtPathImplENSt3__111__wrap_iterIPKNS1_12basic_stringIcNS1_11char_traitsIcEENS1_9allocatorIcEEEEEESB_RKNS_7VtValueE, 
                       __ZN38pxrInternal_v0_21__aapl__pxrReserved__12VtDictionary21_EraseValueAtPathImplENSt3__111__wrap_iterIPKNS1_12basic_stringIcNS1_11char_traitsIcEENS1_9allocatorIcEEEEEESB_, 
                       __ZN38pxrInternal_v0_21__aapl__pxrReserved__12VtDictionary3endEv, 
                       __ZN38pxrInternal_v0_21__aapl__pxrReserved__12VtDictionary4findEPKc, 
                       __ZN38pxrInternal_v0_21__aapl__pxrReserved__12VtDictionary4findERKNSt3__112basic_stringIcNS1_11char_traitsIcEENS1_9allocatorIcEEEE, 
                       __ZN38pxrInternal_v0_21__aapl__pxrReserved__12VtDictionary4swapERS0_, 
                       __ZN38pxrInternal_v0_21__aapl__pxrReserved__12VtDictionary5beginEv, 
                       __ZN38pxrInternal_v0_21__aapl__pxrReserved__12VtDictionary5clearEv, 
                       __ZN38pxrInternal_v0_21__aapl__pxrReserved__12VtDictionary5eraseENS0_8IteratorIPNSt3__13mapINS2_12basic_stringIcNS2_11char_traitsIcEENS2_9allocatorIcEEEENS_7VtValueENS2_4lessIvEENS7_INS2_4pairIKS9_SA_EEEEEENS2_14__map_iteratorINS2_15__tree_iteratorINS2_12__value_typeIS9_SA_EEPNS2_11__tree_nodeISM_PvEElEEEEEE, 
                       __ZN38pxrInternal_v0_21__aapl__pxrReserved__12VtDictionary5eraseENS0_8IteratorIPNSt3__13mapINS2_12basic_stringIcNS2_11char_traitsIcEENS2_9allocatorIcEEEENS_7VtValueENS2_4lessIvEENS7_INS2_4pairIKS9_SA_EEEEEENS2_14__map_iteratorINS2_15__tree_iteratorINS2_12__value_typeIS9_SA_EEPNS2_11__tree_nodeISM_PvEElEEEEEEST_, 
                       __ZN38pxrInternal_v0_21__aapl__pxrReserved__12VtDictionary5eraseERKNSt3__112basic_stringIcNS1_11char_traitsIcEENS1_9allocatorIcEEEE, 
                       __ZN38pxrInternal_v0_21__aapl__pxrReserved__12VtDictionary6insertERKNSt3__14pairIKNS1_12basic_stringIcNS1_11char_traitsIcEENS1_9allocatorIcEEEENS_7VtValueEEE, 
                       __ZN38pxrInternal_v0_21__aapl__pxrReserved__12VtDictionaryC1ERKS0_, 
                       __ZN38pxrInternal_v0_21__aapl__pxrReserved__12VtDictionaryC1ESt16initializer_listINSt3__14pairIKNS2_12basic_stringIcNS2_11char_traitsIcEENS2_9allocatorIcEEEENS_7VtValueEEEE, 
                       __ZN38pxrInternal_v0_21__aapl__pxrReserved__12VtDictionaryC2ERKS0_, 
                       __ZN38pxrInternal_v0_21__aapl__pxrReserved__12VtDictionaryC2ESt16initializer_listINSt3__14pairIKNS2_12basic_stringIcNS2_11char_traitsIcEENS2_9allocatorIcEEEENS_7VtValueEEEE, 
                       __ZN38pxrInternal_v0_21__aapl__pxrReserved__12VtDictionaryaSERKS0_, 
                       __ZN38pxrInternal_v0_21__aapl__pxrReserved__12VtDictionaryixERKNSt3__112basic_stringIcNS1_11char_traitsIcEENS1_9allocatorIcEEEE, 
                       __ZN38pxrInternal_v0_21__aapl__pxrReserved__13ArGetResolverEv, 
                       __ZN38pxrInternal_v0_21__aapl__pxrReserved__13ArMemoryAsset13GetFileUnsafeEv, 
                       __ZN38pxrInternal_v0_21__aapl__pxrReserved__13ArMemoryAsset4ReadEPvmm, 
                       __ZN38pxrInternal_v0_21__aapl__pxrReserved__13ArMemoryAsset7GetSizeEv, 
                       __ZN38pxrInternal_v0_21__aapl__pxrReserved__13ArMemoryAsset9GetBufferEv, 
                       __ZN38pxrInternal_v0_21__aapl__pxrReserved__13ArMemoryAssetC1EPKcm, 
                       __ZN38pxrInternal_v0_21__aapl__pxrReserved__13ArMemoryAssetC2EPKcm, 
                       __ZN38pxrInternal_v0_21__aapl__pxrReserved__13ArMemoryAssetD0Ev, 
                       __ZN38pxrInternal_v0_21__aapl__pxrReserved__13ArMemoryAssetD1Ev, 
                       __ZN38pxrInternal_v0_21__aapl__pxrReserved__13ArMemoryAssetD2Ev, 
                       __ZN38pxrInternal_v0_21__aapl__pxrReserved__13ArchGetTmpDirEv, 
                       __ZN38pxrInternal_v0_21__aapl__pxrReserved__13ArchMemAdviseEPKvmNS_13ArchMemAdviceE, 
                       __ZN38pxrInternal_v0_21__aapl__pxrReserved__13ArchRemoveEnvERKNSt3__112basic_stringIcNS0_11char_traitsIcEENS0_9allocatorIcEEEE, 
                       __ZN38pxrInternal_v0_21__aapl__pxrReserved__13HdBasisCurves12_GetReprDescERKNS_7TfTokenE, 
                       __ZN38pxrInternal_v0_21__aapl__pxrReserved__13HdBasisCurves13ConfigureReprERKNS_7TfTokenENS_21HdBasisCurvesReprDescE, 
                       __ZN38pxrInternal_v0_21__aapl__pxrReserved__13HdBasisCurves15_reprDescConfigEv, 
                       __ZN38pxrInternal_v0_21__aapl__pxrReserved__13HdBasisCurves27IsEnabledForceRefinedCurvesEv, 
                       __ZN38pxrInternal_v0_21__aapl__pxrReserved__13HdBasisCurvesC2ERKNS_7SdfPathE, 
                       __ZN38pxrInternal_v0_21__aapl__pxrReserved__13HdBasisCurvesD0Ev, 
                       __ZN38pxrInternal_v0_21__aapl__pxrReserved__13HdBasisCurvesD1Ev, 
                       __ZN38pxrInternal_v0_21__aapl__pxrReserved__13HdBasisCurvesD2Ev, 
                       __ZN38pxrInternal_v0_21__aapl__pxrReserved__13HdBufferArray13_SetRangeListERKNSt3__16vectorINS1_10shared_ptrINS_18HdBufferArrayRangeEEENS1_9allocatorIS5_EEEE, 
                       __ZN38pxrInternal_v0_21__aapl__pxrReserved__13HdBufferArray14TryAssignRangeERNSt3__110shared_ptrINS_18HdBufferArrayRangeEEE, 
                       __ZN38pxrInternal_v0_21__aapl__pxrReserved__13HdBufferArray16IncrementVersionEv, 
                       __ZN38pxrInternal_v0_21__aapl__pxrReserved__13HdBufferArray18RemoveUnusedRangesEv, 
                       __ZN38pxrInternal_v0_21__aapl__pxrReserved__13HdBufferArrayC2ERKNS_7TfTokenES1_NS_22HdBufferArrayUsageHintE, 
                       __ZN38pxrInternal_v0_21__aapl__pxrReserved__13HdBufferArrayD0Ev, 
                       __ZN38pxrInternal_v0_21__aapl__pxrReserved__13HdBufferArrayD1Ev, 
                       __ZN38pxrInternal_v0_21__aapl__pxrReserved__13HdBufferArrayD2Ev, 
                       __ZN38pxrInternal_v0_21__aapl__pxrReserved__13HdComputationD0Ev, 
                       __ZN38pxrInternal_v0_21__aapl__pxrReserved__13HdComputationD1Ev, 
                       __ZN38pxrInternal_v0_21__aapl__pxrReserved__13HdComputationD2Ev, 
                       __ZN38pxrInternal_v0_21__aapl__pxrReserved__13HdFieldTokensE, 
                       __ZN38pxrInternal_v0_21__aapl__pxrReserved__13HdLightTokensE, 
                       __ZN38pxrInternal_v0_21__aapl__pxrReserved__13HdRenderIndex10RemoveTaskERKNS_7SdfPathE, 
                       __ZN38pxrInternal_v0_21__aapl__pxrReserved__13HdRenderIndex11InsertBprimERKNS_7TfTokenEPNS_15HdSceneDelegateERKNS_7SdfPathE, 
                       __ZN38pxrInternal_v0_21__aapl__pxrReserved__13HdRenderIndex11InsertRprimERKNS_7TfTokenEPNS_15HdSceneDelegateERKNS_7SdfPathE, 
                       __ZN38pxrInternal_v0_21__aapl__pxrReserved__13HdRenderIndex11InsertSprimERKNS_7TfTokenEPNS_15HdSceneDelegateERKNS_7SdfPathE, 
                       __ZN38pxrInternal_v0_21__aapl__pxrReserved__13HdRenderIndex11RemoveBprimERKNS_7TfTokenERKNS_7SdfPathE, 
                       __ZN38pxrInternal_v0_21__aapl__pxrReserved__13HdRenderIndex11RemoveRprimERKNS_7SdfPathE, 
                       __ZN38pxrInternal_v0_21__aapl__pxrReserved__13HdRenderIndex11RemoveSprimERKNS_7TfTokenERKNS_7SdfPathE, 
                       __ZN38pxrInternal_v0_21__aapl__pxrReserved__13HdRenderIndex12GetDrawItemsERKNS_17HdRprimCollectionERKNSt3__16vectorINS_7TfTokenENS4_9allocatorIS6_EEEE, 
                       __ZN38pxrInternal_v0_21__aapl__pxrReserved__13HdRenderIndex13RemoveSubtreeERKNS_7SdfPathEPNS_15HdSceneDelegateE, 
                       __ZN38pxrInternal_v0_21__aapl__pxrReserved__13HdRenderIndex14_InitPrimTypesEv, 
                       __ZN38pxrInternal_v0_21__aapl__pxrReserved__13HdRenderIndex15GetBprimSubtreeERKNS_7TfTokenERKNS_7SdfPathE, 
                       __ZN38pxrInternal_v0_21__aapl__pxrReserved__13HdRenderIndex15GetRprimSubtreeERKNS_7SdfPathE, 
                       __ZN38pxrInternal_v0_21__aapl__pxrReserved__13HdRenderIndex15GetSprimSubtreeERKNS_7TfTokenERKNS_7SdfPathE, 
                       __ZN38pxrInternal_v0_21__aapl__pxrReserved__13HdRenderIndex15InsertInstancerEPNS_15HdSceneDelegateERKNS_7SdfPathE, 
                       __ZN38pxrInternal_v0_21__aapl__pxrReserved__13HdRenderIndex15RemoveInstancerERKNS_7SdfPathE, 
                       __ZN38pxrInternal_v0_21__aapl__pxrReserved__13HdRenderIndex15_AllocatePrimIdEPNS_7HdRprimE, 
                       __ZN38pxrInternal_v0_21__aapl__pxrReserved__13HdRenderIndex15_CompactPrimIdsEv, 
                       __ZN38pxrInternal_v0_21__aapl__pxrReserved__13HdRenderIndex15_ConfigureReprsEv, 
                       __ZN38pxrInternal_v0_21__aapl__pxrReserved__13HdRenderIndex16_AppendDrawItemsERKNSt3__16vectorINS_7SdfPathENS1_9allocatorIS3_EEEEmmRKNS_17HdRprimCollectionEPN3tbb10interface626enumerable_thread_specificINS2_IPKNS_10HdDrawItemENS4_ISH_EEEENSC_23cache_aligned_allocatorISJ_EELNSC_18ets_key_usage_typeE1EEE, 
                       __ZN38pxrInternal_v0_21__aapl__pxrReserved__13HdRenderIndex17_GatherRenderTagsEPKNSt3__16vectorINS1_10shared_ptrINS_6HdTaskEEENS1_9allocatorIS5_EEEE, 
                       __ZN38pxrInternal_v0_21__aapl__pxrReserved__13HdRenderIndex17_GetDirtyRprimIdsEj, 
                       __ZN38pxrInternal_v0_21__aapl__pxrReserved__13HdRenderIndex18EnqueuePrimsToSyncERKNSt3__110shared_ptrINS_11HdDirtyListEEERKNS_17HdRprimCollectionE, 
                       __ZN38pxrInternal_v0_21__aapl__pxrReserved__13HdRenderIndex18_RemoveTaskSubtreeERKNS_7SdfPathEPNS_15HdSceneDelegateE, 
                       __ZN38pxrInternal_v0_21__aapl__pxrReserved__13HdRenderIndex18_TrackDelegateTaskEPNS_15HdSceneDelegateERKNS_7SdfPathERKNSt3__110shared_ptrINS_6HdTaskEEE, 
                       __ZN38pxrInternal_v0_21__aapl__pxrReserved__13HdRenderIndex19_RemoveRprimSubtreeERKNS_7SdfPathEPNS_15HdSceneDelegateE, 
                       __ZN38pxrInternal_v0_21__aapl__pxrReserved__13HdRenderIndex20_CreateFallbackPrimsEv, 
                       __ZN38pxrInternal_v0_21__aapl__pxrReserved__13HdRenderIndex21_DestroyFallbackPrimsEv, 
                       __ZN38pxrInternal_v0_21__aapl__pxrReserved__13HdRenderIndex23_RemoveInstancerSubtreeERKNS_7SdfPathEPNS_15HdSceneDelegateE, 
                       __ZN38pxrInternal_v0_21__aapl__pxrReserved__13HdRenderIndex3NewEPNS_16HdRenderDelegateERKNSt3__16vectorIPNS_8HdDriverENS3_9allocatorIS6_EEEE, 
                       __ZN38pxrInternal_v0_21__aapl__pxrReserved__13HdRenderIndex5ClearEv, 
                       __ZN38pxrInternal_v0_21__aapl__pxrReserved__13HdRenderIndex7SyncAllEPNSt3__16vectorINS1_10shared_ptrINS_6HdTaskEEENS1_9allocatorIS5_EEEEPNS1_13unordered_mapINS_7TfTokenENS_7VtValueENSB_11HashFunctorENS1_8equal_toISB_EENS6_INS1_4pairIKSB_SC_EEEEEE, 
                       __ZN38pxrInternal_v0_21__aapl__pxrReserved__13HdRenderIndexC1EPNS_16HdRenderDelegateERKNSt3__16vectorIPNS_8HdDriverENS3_9allocatorIS6_EEEE, 
                       __ZN38pxrInternal_v0_21__aapl__pxrReserved__13HdRenderIndexC2EPNS_16HdRenderDelegateERKNSt3__16vectorIPNS_8HdDriverENS3_9allocatorIS6_EEEE, 
                       __ZN38pxrInternal_v0_21__aapl__pxrReserved__13HdRenderIndexD1Ev, 
                       __ZN38pxrInternal_v0_21__aapl__pxrReserved__13HdRenderIndexD2Ev, 
                       __ZN38pxrInternal_v0_21__aapl__pxrReserved__13HdRenderParamD0Ev, 
                       __ZN38pxrInternal_v0_21__aapl__pxrReserved__13HdRenderParamD1Ev, 
                       __ZN38pxrInternal_v0_21__aapl__pxrReserved__13HdRenderParamD2Ev, 
                       __ZN38pxrInternal_v0_21__aapl__pxrReserved__13Hd_TestDriver12SetCullStyleENS_11HdCullStyleE, 
                       __ZN38pxrInternal_v0_21__aapl__pxrReserved__13Hd_TestDriver13GetRenderPassEv, 
                       __ZN38pxrInternal_v0_21__aapl__pxrReserved__13Hd_TestDriver4DrawERKNSt3__110shared_ptrINS_12HdRenderPassEEEb, 
                       __ZN38pxrInternal_v0_21__aapl__pxrReserved__13Hd_TestDriver4DrawEb, 
                       __ZN38pxrInternal_v0_21__aapl__pxrReserved__13Hd_TestDriver5_InitERKNS_14HdReprSelectorE, 
                       __ZN38pxrInternal_v0_21__aapl__pxrReserved__13Hd_TestDriver7SetReprERKNS_14HdReprSelectorE, 
                       __ZN38pxrInternal_v0_21__aapl__pxrReserved__13Hd_TestDriver9SetCameraERKNS_10GfMatrix4dES3_RKNS_7GfVec4dE, 
                       __ZN38pxrInternal_v0_21__aapl__pxrReserved__13Hd_TestDriverC1ERKNS_14HdReprSelectorE, 
                       __ZN38pxrInternal_v0_21__aapl__pxrReserved__13Hd_TestDriverC1Ev, 
                       __ZN38pxrInternal_v0_21__aapl__pxrReserved__13Hd_TestDriverC2ERKNS_14HdReprSelectorE, 
                       __ZN38pxrInternal_v0_21__aapl__pxrReserved__13Hd_TestDriverC2Ev, 
                       __ZN38pxrInternal_v0_21__aapl__pxrReserved__13Hd_TestDriverD1Ev, 
                       __ZN38pxrInternal_v0_21__aapl__pxrReserved__13Hd_TestDriverD2Ev, 
                       __ZN38pxrInternal_v0_21__aapl__pxrReserved__13JsParseStreamERNSt3__113basic_istreamIcNS0_11char_traitsIcEEEEPNS_12JsParseErrorE, 
                       __ZN38pxrInternal_v0_21__aapl__pxrReserved__13JsParseStringERKNSt3__112basic_stringIcNS0_11char_traitsIcEENS0_9allocatorIcEEEEPNS_12JsParseErrorE, 
                       __ZN38pxrInternal_v0_21__aapl__pxrReserved__13PcpLayerStack11_BlowLayersEv, 
                       __ZN38pxrInternal_v0_21__aapl__pxrReserved__13PcpLayerStack16_BlowRelocationsEv, 
                       __ZN38pxrInternal_v0_21__aapl__pxrReserved__13PcpLayerStack16_BuildLayerStackERKNS_9TfWeakPtrINS_8SdfLayerEEERKNS_14SdfLayerOffsetEdRKNS_17ArResolverContextERKNSt3__13mapINSC_12basic_stringIcNSC_11char_traitsIcEENSC_9allocatorIcEEEESJ_NSC_4lessISJ_EENSH_INSC_4pairIKSJ_SJ_EEEEEERSN_RKNS_15Pcp_MutedLayersEPNSC_3setIS3_NSK_IS3_EENSH_IS3_EEEEPNSC_6vectorINSC_10shared_ptrINS_12PcpErrorBaseEEENSH_IS15_EEEE, 
                       __ZN38pxrInternal_v0_21__aapl__pxrReserved__13PcpLayerStack31GetExpressionForRelocatesAtPathERKNS_7SdfPathE, 
                       __ZN38pxrInternal_v0_21__aapl__pxrReserved__13PcpLayerStack5ApplyERKNS_20PcpLayerStackChangesEPNS_11PcpLifeboatE, 
                       __ZN38pxrInternal_v0_21__aapl__pxrReserved__13PcpLayerStack8_ComputeERKNSt3__112basic_stringIcNS1_11char_traitsIcEENS1_9allocatorIcEEEERKNS_15Pcp_MutedLayersE, 
                       __ZN38pxrInternal_v0_21__aapl__pxrReserved__13PcpLayerStackC1ERKNS_23PcpLayerStackIdentifierERKNSt3__112basic_stringIcNS4_11char_traitsIcEENS4_9allocatorIcEEEERKNS_15Pcp_MutedLayersEb, 
                       __ZN38pxrInternal_v0_21__aapl__pxrReserved__13PcpLayerStackC2ERKNS_23PcpLayerStackIdentifierERKNSt3__112basic_stringIcNS4_11char_traitsIcEENS4_9allocatorIcEEEERKNS_15Pcp_MutedLayersEb, 
                       __ZN38pxrInternal_v0_21__aapl__pxrReserved__13PcpLayerStackD0Ev, 
                       __ZN38pxrInternal_v0_21__aapl__pxrReserved__13PcpLayerStackD1Ev, 
                       __ZN38pxrInternal_v0_21__aapl__pxrReserved__13PcpLayerStackD2Ev, 
                       __ZN38pxrInternal_v0_21__aapl__pxrReserved__13SdfChangeList10DidAddPrimERKNS_7SdfPathEb, 
                       __ZN38pxrInternal_v0_21__aapl__pxrReserved__13SdfChangeList10_MoveEntryERKNS_7SdfPathES3_, 
                       __ZN38pxrInternal_v0_21__aapl__pxrReserved__13SdfChangeList11_EraseEntryERKNS_7SdfPathE, 
                       __ZN38pxrInternal_v0_21__aapl__pxrReserved__13SdfChangeList12DidAddTargetERKNS_7SdfPathE, 
                       __ZN38pxrInternal_v0_21__aapl__pxrReserved__13SdfChangeList12_AddNewEntryERKNS_7SdfPathE, 
                       __ZN38pxrInternal_v0_21__aapl__pxrReserved__13SdfChangeList13DidChangeInfoERKNS_7SdfPathERKNS_7TfTokenERKNS_7VtValueES9_, 
                       __ZN38pxrInternal_v0_21__aapl__pxrReserved__13SdfChangeList13DidRemovePrimERKNS_7SdfPathEb, 
                       __ZN38pxrInternal_v0_21__aapl__pxrReserved__13SdfChangeList13_RebuildAccelEv, 
                       __ZN38pxrInternal_v0_21__aapl__pxrReserved__13SdfChangeList14DidAddPropertyERKNS_7SdfPathEb, 
                       __ZN38pxrInternal_v0_21__aapl__pxrReserved__13SdfChangeList15DidRemoveTargetERKNS_7SdfPathE, 
                       __ZN38pxrInternal_v0_21__aapl__pxrReserved__13SdfChangeList15DidReorderPrimsERKNS_7SdfPathE, 
                       __ZN38pxrInternal_v0_21__aapl__pxrReserved__13SdfChangeList17DidChangePrimNameERKNS_7SdfPathES3_, 
                       __ZN38pxrInternal_v0_21__aapl__pxrReserved__13SdfChangeList17DidRemovePropertyERKNS_7SdfPathEb, 
                       __ZN38pxrInternal_v0_21__aapl__pxrReserved__13SdfChangeList20DidReorderPropertiesERKNS_7SdfPathE, 
                       __ZN38pxrInternal_v0_21__aapl__pxrReserved__13SdfChangeList21DidChangePropertyNameERKNS_7SdfPathES3_, 
                       __ZN38pxrInternal_v0_21__aapl__pxrReserved__13SdfChangeList21DidReloadLayerContentEv, 
                       __ZN38pxrInternal_v0_21__aapl__pxrReserved__13SdfChangeList21_MakeNonConstIteratorEPKNSt3__14pairINS_7SdfPathENS0_5EntryEEE, 
                       __ZN38pxrInternal_v0_21__aapl__pxrReserved__13SdfChangeList22DidChangeSublayerPathsERKNSt3__112basic_stringIcNS1_11char_traitsIcEENS1_9allocatorIcEEEENS0_18SubLayerChangeTypeE, 
                       __ZN38pxrInternal_v0_21__aapl__pxrReserved__13SdfChangeList22DidReplaceLayerContentEv, 
                       __ZN38pxrInternal_v0_21__aapl__pxrReserved__13SdfChangeList23DidChangePrimReferencesERKNS_7SdfPathE, 
                       __ZN38pxrInternal_v0_21__aapl__pxrReserved__13SdfChangeList24DidChangeLayerIdentifierERKNSt3__112basic_stringIcNS1_11char_traitsIcEENS1_9allocatorIcEEEE, 
                       __ZN38pxrInternal_v0_21__aapl__pxrReserved__13SdfChangeList24DidChangePrimSpecializesERKNS_7SdfPathE, 
                       __ZN38pxrInternal_v0_21__aapl__pxrReserved__13SdfChangeList24DidChangePrimVariantSetsERKNS_7SdfPathE, 
                       __ZN38pxrInternal_v0_21__aapl__pxrReserved__13SdfChangeList25DidChangePrimInheritPathsERKNS_7SdfPathE, 
                       __ZN38pxrInternal_v0_21__aapl__pxrReserved__13SdfChangeList26DidChangeLayerResolvedPathEv, 
                       __ZN38pxrInternal_v0_21__aapl__pxrReserved__13SdfChangeList28DidChangeAttributeConnectionERKNS_7SdfPathE, 
                       __ZN38pxrInternal_v0_21__aapl__pxrReserved__13SdfChangeList28DidChangeRelationshipTargetsERKNS_7SdfPathE, 
                       __ZN38pxrInternal_v0_21__aapl__pxrReserved__13SdfChangeList29DidChangeAttributeTimeSamplesERKNS_7SdfPathE, 
                       __ZN38pxrInternal_v0_21__aapl__pxrReserved__13SdfChangeList9_GetEntryERKNS_7SdfPathE, 
                       __ZN38pxrInternal_v0_21__aapl__pxrReserved__13SdfChangeListC1ERKS0_, 
                       __ZN38pxrInternal_v0_21__aapl__pxrReserved__13SdfChangeListC2ERKS0_, 
                       __ZN38pxrInternal_v0_21__aapl__pxrReserved__13SdfChangeListaSERKS0_, 
                       __ZN38pxrInternal_v0_21__aapl__pxrReserved__13SdfDataTokensE, 
                       __ZN38pxrInternal_v0_21__aapl__pxrReserved__13SdfFileFormat13_GetLayerDataERKNS_8SdfLayerE, 
                       __ZN38pxrInternal_v0_21__aapl__pxrReserved__13SdfFileFormat13_SetLayerDataEPNS_8SdfLayerERNS_8TfRefPtrINS_15SdfAbstractDataEEE, 
                       __ZN38pxrInternal_v0_21__aapl__pxrReserved__13SdfFileFormat13_SetLayerDataEPNS_8SdfLayerERNS_8TfRefPtrINS_15SdfAbstractDataEEENS_13SdfLayerHintsE, 
                       __ZN38pxrInternal_v0_21__aapl__pxrReserved__13SdfFileFormat15FindByExtensionERKNSt3__112basic_stringIcNS1_11char_traitsIcEENS1_9allocatorIcEEEERKNS1_3mapIS7_S7_NS1_4lessIS7_EENS5_INS1_4pairIS8_S7_EEEEEE, 
                       __ZN38pxrInternal_v0_21__aapl__pxrReserved__13SdfFileFormat15FindByExtensionERKNSt3__112basic_stringIcNS1_11char_traitsIcEENS1_9allocatorIcEEEES9_, 
                       __ZN38pxrInternal_v0_21__aapl__pxrReserved__13SdfFileFormat16GetFileExtensionERKNSt3__112basic_stringIcNS1_11char_traitsIcEENS1_9allocatorIcEEEE, 
                       __ZN38pxrInternal_v0_21__aapl__pxrReserved__13SdfFileFormat27FindAllFileFormatExtensionsEv, 
                       __ZN38pxrInternal_v0_21__aapl__pxrReserved__13SdfFileFormat8FindByIdERKNS_7TfTokenE, 
                       __ZN38pxrInternal_v0_21__aapl__pxrReserved__13SdfFileFormatC2ERKNS_7TfTokenES3_S3_RKNSt3__112basic_stringIcNS4_11char_traitsIcEENS4_9allocatorIcEEEE, 
                       __ZN38pxrInternal_v0_21__aapl__pxrReserved__13SdfFileFormatC2ERKNS_7TfTokenES3_S3_RKNSt3__112basic_stringIcNS4_11char_traitsIcEENS4_9allocatorIcEEEERKNS_13SdfSchemaBaseE, 
                       __ZN38pxrInternal_v0_21__aapl__pxrReserved__13SdfFileFormatC2ERKNS_7TfTokenES3_S3_RKNSt3__16vectorINS4_12basic_stringIcNS4_11char_traitsIcEENS4_9allocatorIcEEEENS9_ISB_EEEE, 
                       __ZN38pxrInternal_v0_21__aapl__pxrReserved__13SdfFileFormatC2ERKNS_7TfTokenES3_S3_RKNSt3__16vectorINS4_12basic_stringIcNS4_11char_traitsIcEENS4_9allocatorIcEEEENS9_ISB_EEEERKNS_13SdfSchemaBaseE, 
                       __ZN38pxrInternal_v0_21__aapl__pxrReserved__13SdfFileFormatD0Ev, 
                       __ZN38pxrInternal_v0_21__aapl__pxrReserved__13SdfFileFormatD1Ev, 
                       __ZN38pxrInternal_v0_21__aapl__pxrReserved__13SdfFileFormatD2Ev, 
                       __ZN38pxrInternal_v0_21__aapl__pxrReserved__13SdfPathTokensE, 
                       __ZN38pxrInternal_v0_21__aapl__pxrReserved__13SdfSchemaBase12_CreateFieldERKNS_7TfTokenERKNS_7VtValueEb, 
                       __ZN38pxrInternal_v0_21__aapl__pxrReserved__13SdfSchemaBase12_SpecDefiner13MetadataFieldERKNS_7TfTokenES4_b, 
                       __ZN38pxrInternal_v0_21__aapl__pxrReserved__13SdfSchemaBase12_SpecDefiner13MetadataFieldERKNS_7TfTokenEb, 
                       __ZN38pxrInternal_v0_21__aapl__pxrReserved__13SdfSchemaBase12_SpecDefiner5FieldERKNS_7TfTokenEb, 
                       __ZN38pxrInternal_v0_21__aapl__pxrReserved__13SdfSchemaBase12_SpecDefiner8CopyFromERKNS0_14SpecDefinitionE, 
                       __ZN38pxrInternal_v0_21__aapl__pxrReserved__13SdfSchemaBase14IsValidPayloadERKNS_10SdfPayloadE, 
                       __ZN38pxrInternal_v0_21__aapl__pxrReserved__13SdfSchemaBase14SpecDefinition9_AddFieldERKNS_7TfTokenERKNS0_10_FieldInfoE, 
                       __ZN38pxrInternal_v0_21__aapl__pxrReserved__13SdfSchemaBase15FieldDefinition13FallbackValueERKNS_7VtValueE, 
                       __ZN38pxrInternal_v0_21__aapl__pxrReserved__13SdfSchemaBase15FieldDefinition14ValueValidatorEPFNS_10SdfAllowedERKS0_RKNS_7VtValueEE, 
                       __ZN38pxrInternal_v0_21__aapl__pxrReserved__13SdfSchemaBase15FieldDefinition15MapKeyValidatorEPFNS_10SdfAllowedERKS0_RKNS_7VtValueEE, 
                       __ZN38pxrInternal_v0_21__aapl__pxrReserved__13SdfSchemaBase15FieldDefinition17MapValueValidatorEPFNS_10SdfAllowedERKS0_RKNS_7VtValueEE, 
                       __ZN38pxrInternal_v0_21__aapl__pxrReserved__13SdfSchemaBase15FieldDefinition18ListValueValidatorEPFNS_10SdfAllowedERKS0_RKNS_7VtValueEE, 
                       __ZN38pxrInternal_v0_21__aapl__pxrReserved__13SdfSchemaBase15FieldDefinition6PluginEv, 
                       __ZN38pxrInternal_v0_21__aapl__pxrReserved__13SdfSchemaBase15FieldDefinition7AddInfoERKNS_7TfTokenERKNS_7JsValueE, 
                       __ZN38pxrInternal_v0_21__aapl__pxrReserved__13SdfSchemaBase15FieldDefinition8ChildrenEv, 
                       __ZN38pxrInternal_v0_21__aapl__pxrReserved__13SdfSchemaBase15FieldDefinition8ReadOnlyEv, 
                       __ZN38pxrInternal_v0_21__aapl__pxrReserved__13SdfSchemaBase15FieldDefinitionC1ERKS0_RKNS_7TfTokenERKNS_7VtValueE, 
                       __ZN38pxrInternal_v0_21__aapl__pxrReserved__13SdfSchemaBase15FieldDefinitionC2ERKS0_RKNS_7TfTokenERKNS_7VtValueE, 
                       __ZN38pxrInternal_v0_21__aapl__pxrReserved__13SdfSchemaBase15IsValidSubLayerERKNSt3__112basic_stringIcNS1_11char_traitsIcEENS1_9allocatorIcEEEE, 
                       __ZN38pxrInternal_v0_21__aapl__pxrReserved__13SdfSchemaBase16IsValidReferenceERKNS_12SdfReferenceE, 
                       __ZN38pxrInternal_v0_21__aapl__pxrReserved__13SdfSchemaBase16_DoRegisterFieldERKNS_7TfTokenERKNS_7VtValueE, 
                       __ZN38pxrInternal_v0_21__aapl__pxrReserved__13SdfSchemaBase17IsValidIdentifierERKNSt3__112basic_stringIcNS1_11char_traitsIcEENS1_9allocatorIcEEEE, 
                       __ZN38pxrInternal_v0_21__aapl__pxrReserved__13SdfSchemaBase18IsValidInheritPathERKNS_7SdfPathE, 
                       __ZN38pxrInternal_v0_21__aapl__pxrReserved__13SdfSchemaBase19_ValueTypeRegistrar4Type10DimensionsERKNS_18SdfTupleDimensionsE, 
                       __ZN38pxrInternal_v0_21__aapl__pxrReserved__13SdfSchemaBase19_ValueTypeRegistrar4Type11CPPTypeNameERKNSt3__112basic_stringIcNS3_11char_traitsIcEENS3_9allocatorIcEEEE, 
                       __ZN38pxrInternal_v0_21__aapl__pxrReserved__13SdfSchemaBase19_ValueTypeRegistrar4Type11DefaultUnitENS_6TfEnumE, 
                       __ZN38pxrInternal_v0_21__aapl__pxrReserved__13SdfSchemaBase19_ValueTypeRegistrar4Type4RoleERKNS_7TfTokenE, 
                       __ZN38pxrInternal_v0_21__aapl__pxrReserved__13SdfSchemaBase19_ValueTypeRegistrar4Type8NoArraysEv, 
                       __ZN38pxrInternal_v0_21__aapl__pxrReserved__13SdfSchemaBase19_ValueTypeRegistrar4TypeC1ERKNS_7TfTokenERKNS_6TfTypeE, 
                       __ZN38pxrInternal_v0_21__aapl__pxrReserved__13SdfSchemaBase19_ValueTypeRegistrar4TypeC1ERKNS_7TfTokenERKNS_7VtValueES8_, 
                       __ZN38pxrInternal_v0_21__aapl__pxrReserved__13SdfSchemaBase19_ValueTypeRegistrar4TypeC2ERKNS_7TfTokenERKNS_6TfTypeE, 
                       __ZN38pxrInternal_v0_21__aapl__pxrReserved__13SdfSchemaBase19_ValueTypeRegistrar4TypeC2ERKNS_7TfTokenERKNS_7VtValueES8_, 
                       __ZN38pxrInternal_v0_21__aapl__pxrReserved__13SdfSchemaBase19_ValueTypeRegistrar4TypeD1Ev, 
                       __ZN38pxrInternal_v0_21__aapl__pxrReserved__13SdfSchemaBase19_ValueTypeRegistrar4TypeD2Ev, 
                       __ZN38pxrInternal_v0_21__aapl__pxrReserved__13SdfSchemaBase19_ValueTypeRegistrar7AddTypeERKNS1_4TypeE, 
                       __ZN38pxrInternal_v0_21__aapl__pxrReserved__13SdfSchemaBase19_ValueTypeRegistrarC1EPNS_21Sdf_ValueTypeRegistryE, 
                       __ZN38pxrInternal_v0_21__aapl__pxrReserved__13SdfSchemaBase19_ValueTypeRegistrarC2EPNS_21Sdf_ValueTypeRegistryE, 
                       __ZN38pxrInternal_v0_21__aapl__pxrReserved__13SdfSchemaBase20IsValidRelocatesPathERKNS_7SdfPathE, 
                       __ZN38pxrInternal_v0_21__aapl__pxrReserved__13SdfSchemaBase20_RegisterLegacyTypesEv, 
                       __ZN38pxrInternal_v0_21__aapl__pxrReserved__13SdfSchemaBase21_AddRequiredFieldNameERKNS_7TfTokenE, 
                       __ZN38pxrInternal_v0_21__aapl__pxrReserved__13SdfSchemaBase21_ExtendSpecDefinitionENS_11SdfSpecTypeE, 
                       __ZN38pxrInternal_v0_21__aapl__pxrReserved__13SdfSchemaBase21_OnDidRegisterPluginsERKNS_10PlugNotice18DidRegisterPluginsE, 
                       __ZN38pxrInternal_v0_21__aapl__pxrReserved__13SdfSchemaBase21_RegisterPluginFieldsEv, 
                       __ZN38pxrInternal_v0_21__aapl__pxrReserved__13SdfSchemaBase22IsValidSpecializesPathERKNS_7SdfPathE, 
                       __ZN38pxrInternal_v0_21__aapl__pxrReserved__13SdfSchemaBase22_RegisterStandardTypesEv, 
                       __ZN38pxrInternal_v0_21__aapl__pxrReserved__13SdfSchemaBase23_RegisterStandardFieldsEv, 
                       __ZN38pxrInternal_v0_21__aapl__pxrReserved__13SdfSchemaBase24IsValidVariantIdentifierERKNSt3__112basic_stringIcNS1_11char_traitsIcEENS1_9allocatorIcEEEE, 
                       __ZN38pxrInternal_v0_21__aapl__pxrReserved__13SdfSchemaBase26_UpdateMetadataFromPluginsERKNSt3__16vectorINS_9TfWeakPtrINS_10PlugPluginEEENS1_9allocatorIS5_EEEERKNS1_12basic_stringIcNS1_11char_traitsIcEENS6_IcEEEERKNS1_8functionIFNS_7VtValueESH_RKNS_7JsValueEEEE, 
                       __ZN38pxrInternal_v0_21__aapl__pxrReserved__13SdfSchemaBase27IsValidNamespacedIdentifierERKNSt3__112basic_stringIcNS1_11char_traitsIcEENS1_9allocatorIcEEEE, 
                       __ZN38pxrInternal_v0_21__aapl__pxrReserved__13SdfSchemaBase29IsValidRelationshipTargetPathERKNS_7SdfPathE, 
                       __ZN38pxrInternal_v0_21__aapl__pxrReserved__13SdfSchemaBase30IsValidAttributeConnectionPathERKNS_7SdfPathE, 
                       __ZN38pxrInternal_v0_21__aapl__pxrReserved__13SdfSchemaBaseC1ENS0_8EmptyTagE, 
                       __ZN38pxrInternal_v0_21__aapl__pxrReserved__13SdfSchemaBaseC1Ev, 
                       __ZN38pxrInternal_v0_21__aapl__pxrReserved__13SdfSchemaBaseC2ENS0_8EmptyTagE, 
                       __ZN38pxrInternal_v0_21__aapl__pxrReserved__13SdfSchemaBaseC2Ev, 
                       __ZN38pxrInternal_v0_21__aapl__pxrReserved__13SdfSchemaBaseD0Ev, 
                       __ZN38pxrInternal_v0_21__aapl__pxrReserved__13SdfSchemaBaseD1Ev, 
                       __ZN38pxrInternal_v0_21__aapl__pxrReserved__13SdfSchemaBaseD2Ev, 
                       __ZN38pxrInternal_v0_21__aapl__pxrReserved__13SdrShaderNode19_InitializePrimvarsEv, 
                       __ZN38pxrInternal_v0_21__aapl__pxrReserved__13SdrShaderNode22_PostProcessPropertiesEv, 
                       __ZN38pxrInternal_v0_21__aapl__pxrReserved__13SdrShaderNodeC1ERKNS_7TfTokenERKNS_10NdrVersionERKNSt3__112basic_stringIcNS7_11char_traitsIcEENS7_9allocatorIcEEEES3_S3_S3_SF_SF_ONS7_6vectorINS7_10unique_ptrINS_11NdrPropertyENS7_14default_deleteISI_EEEENSB_ISL_EEEERKNS7_13unordered_mapIS1_SD_NS1_11HashFunctorENS7_8equal_toIS1_EENSB_INS7_4pairIS2_SD_EEEEEESF_, 
                       __ZN38pxrInternal_v0_21__aapl__pxrReserved__13SdrShaderNodeC2ERKNS_7TfTokenERKNS_10NdrVersionERKNSt3__112basic_stringIcNS7_11char_traitsIcEENS7_9allocatorIcEEEES3_S3_S3_SF_SF_ONS7_6vectorINS7_10unique_ptrINS_11NdrPropertyENS7_14default_deleteISI_EEEENSB_ISL_EEEERKNS7_13unordered_mapIS1_SD_NS1_11HashFunctorENS7_8equal_toIS1_EENSB_INS7_4pairIS2_SD_EEEEEESF_, 
                       __ZN38pxrInternal_v0_21__aapl__pxrReserved__13TfGetBaseNameERKNSt3__112basic_stringIcNS0_11char_traitsIcEENS0_9allocatorIcEEEE, 
                       __ZN38pxrInternal_v0_21__aapl__pxrReserved__13TfGetPathNameERKNSt3__112basic_stringIcNS0_11char_traitsIcEENS0_9allocatorIcEEEE, 
                       __ZN38pxrInternal_v0_21__aapl__pxrReserved__13TfStringSplitERKNSt3__112basic_stringIcNS0_11char_traitsIcEENS0_9allocatorIcEEEES8_, 
                       __ZN38pxrInternal_v0_21__aapl__pxrReserved__13TfUnstringifyINSt3__112basic_stringIcNS1_11char_traitsIcEENS1_9allocatorIcEEEEEET_RKS7_Pb, 
                       __ZN38pxrInternal_v0_21__aapl__pxrReserved__13TfUnstringifyIbEET_RKNSt3__112basic_stringIcNS2_11char_traitsIcEENS2_9allocatorIcEEEEPb, 
                       __ZN38pxrInternal_v0_21__aapl__pxrReserved__13TraceCategory11GetInstanceEv, 
                       __ZN38pxrInternal_v0_21__aapl__pxrReserved__13TraceCategory16RegisterCategoryEjRKNSt3__112basic_stringIcNS1_11char_traitsIcEENS1_9allocatorIcEEEE, 
                       __ZN38pxrInternal_v0_21__aapl__pxrReserved__13TraceCategoryC1Ev, 
                       __ZN38pxrInternal_v0_21__aapl__pxrReserved__13TraceCategoryC2Ev, 
                       __ZN38pxrInternal_v0_21__aapl__pxrReserved__13TraceReporter10AddCounterERKNS_7TfTokenEid, 
                       __ZN38pxrInternal_v0_21__aapl__pxrReserved__13TraceReporter11ReportTimesERNSt3__113basic_ostreamIcNS1_11char_traitsIcEEEE, 
                       __ZN38pxrInternal_v0_21__aapl__pxrReserved__13TraceReporter11_PrintTimesERNSt3__113basic_ostreamIcNS1_11char_traitsIcEEEE, 
                       __ZN38pxrInternal_v0_21__aapl__pxrReserved__13TraceReporter12GetEventRootEv, 
                       __ZN38pxrInternal_v0_21__aapl__pxrReserved__13TraceReporter12GetEventTreeEv, 
                       __ZN38pxrInternal_v0_21__aapl__pxrReserved__13TraceReporter16UpdateTraceTreesEv, 
                       __ZN38pxrInternal_v0_21__aapl__pxrReserved__13TraceReporter17GetGlobalReporterEv, 
                       __ZN38pxrInternal_v0_21__aapl__pxrReserved__13TraceReporter18CreateValidEventIdEv, 
                       __ZN38pxrInternal_v0_21__aapl__pxrReserved__13TraceReporter18SetGroupByFunctionEb, 
                       __ZN38pxrInternal_v0_21__aapl__pxrReserved__13TraceReporter18_ProcessCollectionERKNSt3__110shared_ptrINS_15TraceCollectionEEE, 
                       __ZN38pxrInternal_v0_21__aapl__pxrReserved__13TraceReporter19ReportChromeTracingERNSt3__113basic_ostreamIcNS1_11char_traitsIcEEEE, 
                       __ZN38pxrInternal_v0_21__aapl__pxrReserved__13TraceReporter20GetAggregateTreeRootEv, 
                       __ZN38pxrInternal_v0_21__aapl__pxrReserved__13TraceReporter21SetFoldRecursiveCallsEb, 
                       __ZN38pxrInternal_v0_21__aapl__pxrReserved__13TraceReporter30_RebuildEventAndAggregateTreesEv, 
                       __ZN38pxrInternal_v0_21__aapl__pxrReserved__13TraceReporter6ReportERNSt3__113basic_ostreamIcNS1_11char_traitsIcEEEEi, 
                       __ZN38pxrInternal_v0_21__aapl__pxrReserved__13TraceReporter9ClearTreeEv, 
                       __ZN38pxrInternal_v0_21__aapl__pxrReserved__13TraceReporterC1ERKNSt3__112basic_stringIcNS1_11char_traitsIcEENS1_9allocatorIcEEEENS1_10unique_ptrINS_27TraceReporterDataSourceBaseENS1_14default_deleteISB_EEEE, 
                       __ZN38pxrInternal_v0_21__aapl__pxrReserved__13TraceReporterC2ERKNSt3__112basic_stringIcNS1_11char_traitsIcEENS1_9allocatorIcEEEENS1_10unique_ptrINS_27TraceReporterDataSourceBaseENS1_14default_deleteISB_EEEE, 
                       __ZN38pxrInternal_v0_21__aapl__pxrReserved__13TraceReporterD0Ev, 
                       __ZN38pxrInternal_v0_21__aapl__pxrReserved__13TraceReporterD1Ev, 
                       __ZN38pxrInternal_v0_21__aapl__pxrReserved__13TraceReporterD2Ev, 
                       __ZN38pxrInternal_v0_21__aapl__pxrReserved__13TraceThreadIdC1ERKNSt3__112basic_stringIcNS1_11char_traitsIcEENS1_9allocatorIcEEEE, 
                       __ZN38pxrInternal_v0_21__aapl__pxrReserved__13TraceThreadIdC1Ev, 
                       __ZN38pxrInternal_v0_21__aapl__pxrReserved__13TraceThreadIdC2ERKNSt3__112basic_stringIcNS1_11char_traitsIcEENS1_9allocatorIcEEEE, 
                       __ZN38pxrInternal_v0_21__aapl__pxrReserved__13TraceThreadIdC2Ev, 
                       __ZN38pxrInternal_v0_21__aapl__pxrReserved__13UsdEditTarget21ForLocalDirectVariantERKNS_9TfWeakPtrINS_8SdfLayerEEERKNS_7SdfPathE, 
                       __ZN38pxrInternal_v0_21__aapl__pxrReserved__13UsdEditTargetC1ERKNS_8TfRefPtrINS_8SdfLayerEEENS_14SdfLayerOffsetE, 
                       __ZN38pxrInternal_v0_21__aapl__pxrReserved__13UsdEditTargetC1ERKNS_8TfRefPtrINS_8SdfLayerEEERKNS_10PcpNodeRefE, 
                       __ZN38pxrInternal_v0_21__aapl__pxrReserved__13UsdEditTargetC1ERKNS_9TfWeakPtrINS_8SdfLayerEEENS_14SdfLayerOffsetE, 
                       __ZN38pxrInternal_v0_21__aapl__pxrReserved__13UsdEditTargetC1ERKNS_9TfWeakPtrINS_8SdfLayerEEERKNS_10PcpNodeRefE, 
                       __ZN38pxrInternal_v0_21__aapl__pxrReserved__13UsdEditTargetC1ERKNS_9TfWeakPtrINS_8SdfLayerEEERKNS_14PcpMapFunctionE, 
                       __ZN38pxrInternal_v0_21__aapl__pxrReserved__13UsdEditTargetC1Ev, 
                       __ZN38pxrInternal_v0_21__aapl__pxrReserved__13UsdEditTargetC2ERKNS_8TfRefPtrINS_8SdfLayerEEENS_14SdfLayerOffsetE, 
                       __ZN38pxrInternal_v0_21__aapl__pxrReserved__13UsdEditTargetC2ERKNS_8TfRefPtrINS_8SdfLayerEEERKNS_10PcpNodeRefE, 
                       __ZN38pxrInternal_v0_21__aapl__pxrReserved__13UsdEditTargetC2ERKNS_9TfWeakPtrINS_8SdfLayerEEENS_14SdfLayerOffsetE, 
                       __ZN38pxrInternal_v0_21__aapl__pxrReserved__13UsdEditTargetC2ERKNS_9TfWeakPtrINS_8SdfLayerEEERKNS_10PcpNodeRefE, 
                       __ZN38pxrInternal_v0_21__aapl__pxrReserved__13UsdEditTargetC2ERKNS_9TfWeakPtrINS_8SdfLayerEEERKNS_14PcpMapFunctionE, 
                       __ZN38pxrInternal_v0_21__aapl__pxrReserved__13UsdEditTargetC2Ev, 
                       __ZN38pxrInternal_v0_21__aapl__pxrReserved__13UsdGeomCamera13SetFromCameraERKNS_8GfCameraERKNS_11UsdTimeCodeE, 
                       __ZN38pxrInternal_v0_21__aapl__pxrReserved__13UsdGeomCamera14_IsTypedSchemaEv, 
                       __ZN38pxrInternal_v0_21__aapl__pxrReserved__13UsdGeomCamera16_GetStaticTfTypeEv, 
                       __ZN38pxrInternal_v0_21__aapl__pxrReserved__13UsdGeomCamera23GetSchemaAttributeNamesEb, 
                       __ZN38pxrInternal_v0_21__aapl__pxrReserved__13UsdGeomCamera3GetERKNS_9TfWeakPtrINS_8UsdStageEEERKNS_7SdfPathE, 
                       __ZN38pxrInternal_v0_21__aapl__pxrReserved__13UsdGeomCamera6DefineERKNS_9TfWeakPtrINS_8UsdStageEEERKNS_7SdfPathE, 
                       __ZN38pxrInternal_v0_21__aapl__pxrReserved__13UsdGeomCameraD0Ev, 
                       __ZN38pxrInternal_v0_21__aapl__pxrReserved__13UsdGeomCameraD1Ev, 
                       __ZN38pxrInternal_v0_21__aapl__pxrReserved__13UsdGeomCameraD2Ev, 
                       __ZN38pxrInternal_v0_21__aapl__pxrReserved__13UsdGeomCurves13ComputeExtentERKNS_7VtArrayINS_7GfVec3fEEERKNS1_IfEEPS3_, 
                       __ZN38pxrInternal_v0_21__aapl__pxrReserved__13UsdGeomCurves13ComputeExtentERKNS_7VtArrayINS_7GfVec3fEEERKNS1_IfEERKNS_10GfMatrix4dEPS3_, 
                       __ZN38pxrInternal_v0_21__aapl__pxrReserved__13UsdGeomCurves14_IsTypedSchemaEv, 
                       __ZN38pxrInternal_v0_21__aapl__pxrReserved__13UsdGeomCurves16_GetStaticTfTypeEv, 
                       __ZN38pxrInternal_v0_21__aapl__pxrReserved__13UsdGeomCurves22SetWidthsInterpolationERKNS_7TfTokenE, 
                       __ZN38pxrInternal_v0_21__aapl__pxrReserved__13UsdGeomCurves23GetSchemaAttributeNamesEb, 
                       __ZN38pxrInternal_v0_21__aapl__pxrReserved__13UsdGeomCurves3GetERKNS_9TfWeakPtrINS_8UsdStageEEERKNS_7SdfPathE, 
                       __ZN38pxrInternal_v0_21__aapl__pxrReserved__13UsdGeomCurvesD0Ev, 
                       __ZN38pxrInternal_v0_21__aapl__pxrReserved__13UsdGeomCurvesD1Ev, 
                       __ZN38pxrInternal_v0_21__aapl__pxrReserved__13UsdGeomCurvesD2Ev, 
                       __ZN38pxrInternal_v0_21__aapl__pxrReserved__13UsdGeomPoints13ComputeExtentERKNS_7VtArrayINS_7GfVec3fEEERKNS1_IfEEPS3_, 
                       __ZN38pxrInternal_v0_21__aapl__pxrReserved__13UsdGeomPoints13ComputeExtentERKNS_7VtArrayINS_7GfVec3fEEERKNS1_IfEERKNS_10GfMatrix4dEPS3_, 
                       __ZN38pxrInternal_v0_21__aapl__pxrReserved__13UsdGeomPoints14_IsTypedSchemaEv, 
                       __ZN38pxrInternal_v0_21__aapl__pxrReserved__13UsdGeomPoints16_GetStaticTfTypeEv, 
                       __ZN38pxrInternal_v0_21__aapl__pxrReserved__13UsdGeomPoints22SetWidthsInterpolationERKNS_7TfTokenE, 
                       __ZN38pxrInternal_v0_21__aapl__pxrReserved__13UsdGeomPoints23GetSchemaAttributeNamesEb, 
                       __ZN38pxrInternal_v0_21__aapl__pxrReserved__13UsdGeomPoints3GetERKNS_9TfWeakPtrINS_8UsdStageEEERKNS_7SdfPathE, 
                       __ZN38pxrInternal_v0_21__aapl__pxrReserved__13UsdGeomPoints6DefineERKNS_9TfWeakPtrINS_8UsdStageEEERKNS_7SdfPathE, 
                       __ZN38pxrInternal_v0_21__aapl__pxrReserved__13UsdGeomPointsD0Ev, 
                       __ZN38pxrInternal_v0_21__aapl__pxrReserved__13UsdGeomPointsD1Ev, 
                       __ZN38pxrInternal_v0_21__aapl__pxrReserved__13UsdGeomPointsD2Ev, 
                       __ZN38pxrInternal_v0_21__aapl__pxrReserved__13UsdGeomSphere13ComputeExtentEdPNS_7VtArrayINS_7GfVec3fEEE, 
                       __ZN38pxrInternal_v0_21__aapl__pxrReserved__13UsdGeomSphere13ComputeExtentEdRKNS_10GfMatrix4dEPNS_7VtArrayINS_7GfVec3fEEE, 
                       __ZN38pxrInternal_v0_21__aapl__pxrReserved__13UsdGeomSphere14_IsTypedSchemaEv, 
                       __ZN38pxrInternal_v0_21__aapl__pxrReserved__13UsdGeomSphere16_GetStaticTfTypeEv, 
                       __ZN38pxrInternal_v0_21__aapl__pxrReserved__13UsdGeomSphere23GetSchemaAttributeNamesEb, 
                       __ZN38pxrInternal_v0_21__aapl__pxrReserved__13UsdGeomSphere3GetERKNS_9TfWeakPtrINS_8UsdStageEEERKNS_7SdfPathE, 
                       __ZN38pxrInternal_v0_21__aapl__pxrReserved__13UsdGeomSphere6DefineERKNS_9TfWeakPtrINS_8UsdStageEEERKNS_7SdfPathE, 
                       __ZN38pxrInternal_v0_21__aapl__pxrReserved__13UsdGeomSphereD0Ev, 
                       __ZN38pxrInternal_v0_21__aapl__pxrReserved__13UsdGeomSphereD1Ev, 
                       __ZN38pxrInternal_v0_21__aapl__pxrReserved__13UsdGeomSphereD2Ev, 
                       __ZN38pxrInternal_v0_21__aapl__pxrReserved__13UsdGeomSubset13GetFamilyTypeERKNS_16UsdGeomImageableERKNS_7TfTokenE, 
                       __ZN38pxrInternal_v0_21__aapl__pxrReserved__13UsdGeomSubset13SetFamilyTypeERKNS_16UsdGeomImageableERKNS_7TfTokenES6_, 
                       __ZN38pxrInternal_v0_21__aapl__pxrReserved__13UsdGeomSubset14GetGeomSubsetsERKNS_16UsdGeomImageableERKNS_7TfTokenES6_, 
                       __ZN38pxrInternal_v0_21__aapl__pxrReserved__13UsdGeomSubset14ValidateFamilyERKNS_16UsdGeomImageableERKNS_7TfTokenES6_PNSt3__112basic_stringIcNS7_11char_traitsIcEENS7_9allocatorIcEEEE, 
                       __ZN38pxrInternal_v0_21__aapl__pxrReserved__13UsdGeomSubset14_IsTypedSchemaEv, 
                       __ZN38pxrInternal_v0_21__aapl__pxrReserved__13UsdGeomSubset15ValidateSubsetsERKNSt3__16vectorIS0_NS1_9allocatorIS0_EEEEmRKNS_7TfTokenEPNS1_12basic_stringIcNS1_11char_traitsIcEENS3_IcEEEE, 
                       __ZN38pxrInternal_v0_21__aapl__pxrReserved__13UsdGeomSubset16CreateGeomSubsetERKNS_16UsdGeomImageableERKNS_7TfTokenES6_RKNS_7VtArrayIiEES6_S6_, 
                       __ZN38pxrInternal_v0_21__aapl__pxrReserved__13UsdGeomSubset16_GetStaticTfTypeEv, 
                       __ZN38pxrInternal_v0_21__aapl__pxrReserved__13UsdGeomSubset17GetAllGeomSubsetsERKNS_16UsdGeomImageableE, 
                       __ZN38pxrInternal_v0_21__aapl__pxrReserved__13UsdGeomSubset20GetUnassignedIndicesERKNSt3__16vectorIS0_NS1_9allocatorIS0_EEEEmRKNS_11UsdTimeCodeE, 
                       __ZN38pxrInternal_v0_21__aapl__pxrReserved__13UsdGeomSubset22CreateUniqueGeomSubsetERKNS_16UsdGeomImageableERKNS_7TfTokenES6_RKNS_7VtArrayIiEES6_S6_, 
                       __ZN38pxrInternal_v0_21__aapl__pxrReserved__13UsdGeomSubset23GetSchemaAttributeNamesEb, 
                       __ZN38pxrInternal_v0_21__aapl__pxrReserved__13UsdGeomSubset27GetAllGeomSubsetFamilyNamesERKNS_16UsdGeomImageableE, 
                       __ZN38pxrInternal_v0_21__aapl__pxrReserved__13UsdGeomSubset3GetERKNS_9TfWeakPtrINS_8UsdStageEEERKNS_7SdfPathE, 
                       __ZN38pxrInternal_v0_21__aapl__pxrReserved__13UsdGeomSubset6DefineERKNS_9TfWeakPtrINS_8UsdStageEEERKNS_7SdfPathE, 
                       __ZN38pxrInternal_v0_21__aapl__pxrReserved__13UsdGeomSubsetD0Ev, 
                       __ZN38pxrInternal_v0_21__aapl__pxrReserved__13UsdGeomSubsetD1Ev, 
                       __ZN38pxrInternal_v0_21__aapl__pxrReserved__13UsdGeomSubsetD2Ev, 
                       __ZN38pxrInternal_v0_21__aapl__pxrReserved__13UsdGeomTokensE, 
                       __ZN38pxrInternal_v0_21__aapl__pxrReserved__13UsdLuxListAPI14_IsTypedSchemaEv, 
                       __ZN38pxrInternal_v0_21__aapl__pxrReserved__13UsdLuxListAPI16_GetStaticTfTypeEv, 
                       __ZN38pxrInternal_v0_21__aapl__pxrReserved__13UsdLuxListAPI23GetSchemaAttributeNamesEb, 
                       __ZN38pxrInternal_v0_21__aapl__pxrReserved__13UsdLuxListAPI3GetERKNS_9TfWeakPtrINS_8UsdStageEEERKNS_7SdfPathE, 
                       __ZN38pxrInternal_v0_21__aapl__pxrReserved__13UsdLuxListAPI5ApplyERKNS_7UsdPrimE, 
                       __ZN38pxrInternal_v0_21__aapl__pxrReserved__13UsdLuxListAPI8CanApplyERKNS_7UsdPrimEPNSt3__112basic_stringIcNS4_11char_traitsIcEENS4_9allocatorIcEEEE, 
                       __ZN38pxrInternal_v0_21__aapl__pxrReserved__13UsdLuxListAPID0Ev, 
                       __ZN38pxrInternal_v0_21__aapl__pxrReserved__13UsdLuxListAPID1Ev, 
                       __ZN38pxrInternal_v0_21__aapl__pxrReserved__13UsdLuxListAPID2Ev, 
                       __ZN38pxrInternal_v0_21__aapl__pxrReserved__13UsdReferences12AddReferenceERKNS_12SdfReferenceENS_15UsdListPositionE, 
                       __ZN38pxrInternal_v0_21__aapl__pxrReserved__13UsdReferences12AddReferenceERKNSt3__112basic_stringIcNS1_11char_traitsIcEENS1_9allocatorIcEEEERKNS_14SdfLayerOffsetENS_15UsdListPositionE, 
                       __ZN38pxrInternal_v0_21__aapl__pxrReserved__13UsdReferences12AddReferenceERKNSt3__112basic_stringIcNS1_11char_traitsIcEENS1_9allocatorIcEEEERKNS_7SdfPathERKNS_14SdfLayerOffsetENS_15UsdListPositionE, 
                       __ZN38pxrInternal_v0_21__aapl__pxrReserved__13UsdReferences13SetReferencesERKNSt3__16vectorINS_12SdfReferenceENS1_9allocatorIS3_EEEE, 
                       __ZN38pxrInternal_v0_21__aapl__pxrReserved__13UsdReferences15ClearReferencesEv, 
                       __ZN38pxrInternal_v0_21__aapl__pxrReserved__13UsdReferences15RemoveReferenceERKNS_12SdfReferenceE, 
                       __ZN38pxrInternal_v0_21__aapl__pxrReserved__13UsdReferences20AddInternalReferenceERKNS_7SdfPathERKNS_14SdfLayerOffsetENS_15UsdListPositionE, 
                       __ZN38pxrInternal_v0_21__aapl__pxrReserved__13UsdRiLightAPI14_IsTypedSchemaEv, 
                       __ZN38pxrInternal_v0_21__aapl__pxrReserved__13UsdRiLightAPI16_GetStaticTfTypeEv, 
                       __ZN38pxrInternal_v0_21__aapl__pxrReserved__13UsdRiLightAPI23GetSchemaAttributeNamesEb, 
                       __ZN38pxrInternal_v0_21__aapl__pxrReserved__13UsdRiLightAPI3GetERKNS_9TfWeakPtrINS_8UsdStageEEERKNS_7SdfPathE, 
                       __ZN38pxrInternal_v0_21__aapl__pxrReserved__13UsdRiLightAPI5ApplyERKNS_7UsdPrimE, 
                       __ZN38pxrInternal_v0_21__aapl__pxrReserved__13UsdRiLightAPI8CanApplyERKNS_7UsdPrimEPNSt3__112basic_stringIcNS4_11char_traitsIcEENS4_9allocatorIcEEEE, 
                       __ZN38pxrInternal_v0_21__aapl__pxrReserved__13UsdRiLightAPID0Ev, 
                       __ZN38pxrInternal_v0_21__aapl__pxrReserved__13UsdRiLightAPID1Ev, 
                       __ZN38pxrInternal_v0_21__aapl__pxrReserved__13UsdRiLightAPID2Ev, 
                       __ZN38pxrInternal_v0_21__aapl__pxrReserved__13UsdSchemaBaseC1ERKNS_7UsdPrimE, 
                       __ZN38pxrInternal_v0_21__aapl__pxrReserved__13UsdSchemaBaseC1ERKS0_, 
                       __ZN38pxrInternal_v0_21__aapl__pxrReserved__13UsdSchemaBaseC2ERKNS_7UsdPrimE, 
                       __ZN38pxrInternal_v0_21__aapl__pxrReserved__13UsdSchemaBaseC2ERKS0_, 
                       __ZN38pxrInternal_v0_21__aapl__pxrReserved__13UsdSchemaBaseD0Ev, 
                       __ZN38pxrInternal_v0_21__aapl__pxrReserved__13UsdSchemaBaseD1Ev, 
                       __ZN38pxrInternal_v0_21__aapl__pxrReserved__13UsdSchemaBaseD2Ev, 
                       __ZN38pxrInternal_v0_21__aapl__pxrReserved__13UsdShadeInput20IsInterfaceInputNameERKNSt3__112basic_stringIcNS1_11char_traitsIcEENS1_9allocatorIcEEEE, 
                       __ZN38pxrInternal_v0_21__aapl__pxrReserved__13UsdShadeInput7IsInputERKNS_12UsdAttributeE, 
                       __ZN38pxrInternal_v0_21__aapl__pxrReserved__13UsdShadeInputC1ENS_7UsdPrimERKNS_7TfTokenERKNS_16SdfValueTypeNameE, 
                       __ZN38pxrInternal_v0_21__aapl__pxrReserved__13UsdShadeInputC1ERKNS_12UsdAttributeE, 
                       __ZN38pxrInternal_v0_21__aapl__pxrReserved__13UsdShadeInputC2ENS_7UsdPrimERKNS_7TfTokenERKNS_16SdfValueTypeNameE, 
                       __ZN38pxrInternal_v0_21__aapl__pxrReserved__13UsdShadeInputC2ERKNS_12UsdAttributeE, 
                       __ZN38pxrInternal_v0_21__aapl__pxrReserved__13UsdShadeUtils11GetFullNameERKNS_7TfTokenENS_21UsdShadeAttributeTypeE, 
                       __ZN38pxrInternal_v0_21__aapl__pxrReserved__13UsdShadeUtils18GetBaseNameAndTypeERKNS_7TfTokenE, 
                       __ZN38pxrInternal_v0_21__aapl__pxrReserved__13UsdShadeUtils25GetPrefixForAttributeTypeENS_21UsdShadeAttributeTypeE, 
                       __ZN38pxrInternal_v0_21__aapl__pxrReserved__13UsdShadeUtils27GetValueProducingAttributesERKNS_13UsdShadeInputEb, 
                       __ZN38pxrInternal_v0_21__aapl__pxrReserved__13UsdShadeUtils27GetValueProducingAttributesERKNS_14UsdShadeOutputEb, 
                       __ZN38pxrInternal_v0_21__aapl__pxrReserved__13UsdShadeUtils7GetTypeERKNS_7TfTokenE, 
                       __ZN38pxrInternal_v0_21__aapl__pxrReserved__13UsdSkelTokensE, 
                       __ZN38pxrInternal_v0_21__aapl__pxrReserved__13UsdStageCache12RequestStageEONS_20UsdStageCacheRequestE, 
                       __ZN38pxrInternal_v0_21__aapl__pxrReserved__13UsdStageCache12SetDebugNameERKNSt3__112basic_stringIcNS1_11char_traitsIcEENS1_9allocatorIcEEEE, 
                       __ZN38pxrInternal_v0_21__aapl__pxrReserved__13UsdStageCache4swapERS0_, 
                       __ZN38pxrInternal_v0_21__aapl__pxrReserved__13UsdStageCache5ClearEv, 
                       __ZN38pxrInternal_v0_21__aapl__pxrReserved__13UsdStageCache5EraseENS0_2IdE, 
                       __ZN38pxrInternal_v0_21__aapl__pxrReserved__13UsdStageCache5EraseERKNS_8TfRefPtrINS_8UsdStageEEE, 
                       __ZN38pxrInternal_v0_21__aapl__pxrReserved__13UsdStageCache6InsertERKNS_8TfRefPtrINS_8UsdStageEEE, 
                       __ZN38pxrInternal_v0_21__aapl__pxrReserved__13UsdStageCache8EraseAllERKNS_9TfWeakPtrINS_8SdfLayerEEE, 
                       __ZN38pxrInternal_v0_21__aapl__pxrReserved__13UsdStageCache8EraseAllERKNS_9TfWeakPtrINS_8SdfLayerEEES5_, 
                       __ZN38pxrInternal_v0_21__aapl__pxrReserved__13UsdStageCache8EraseAllERKNS_9TfWeakPtrINS_8SdfLayerEEES5_RKNS_17ArResolverContextE, 
                       __ZN38pxrInternal_v0_21__aapl__pxrReserved__13UsdStageCacheC1ERKS0_, 
                       __ZN38pxrInternal_v0_21__aapl__pxrReserved__13UsdStageCacheC1Ev, 
                       __ZN38pxrInternal_v0_21__aapl__pxrReserved__13UsdStageCacheC2ERKS0_, 
                       __ZN38pxrInternal_v0_21__aapl__pxrReserved__13UsdStageCacheC2Ev, 
                       __ZN38pxrInternal_v0_21__aapl__pxrReserved__13UsdStageCacheD1Ev, 
                       __ZN38pxrInternal_v0_21__aapl__pxrReserved__13UsdStageCacheD2Ev, 
                       __ZN38pxrInternal_v0_21__aapl__pxrReserved__13UsdStageCacheaSERKS0_, 
                       __ZN38pxrInternal_v0_21__aapl__pxrReserved__13UsdTokensTypeC1Ev, 
                       __ZN38pxrInternal_v0_21__aapl__pxrReserved__13UsdTokensTypeC2Ev, 
                       __ZN38pxrInternal_v0_21__aapl__pxrReserved__13UsdUIBackdrop14_IsTypedSchemaEv, 
                       __ZN38pxrInternal_v0_21__aapl__pxrReserved__13UsdUIBackdrop16_GetStaticTfTypeEv, 
                       __ZN38pxrInternal_v0_21__aapl__pxrReserved__13UsdUIBackdrop23GetSchemaAttributeNamesEb, 
                       __ZN38pxrInternal_v0_21__aapl__pxrReserved__13UsdUIBackdrop3GetERKNS_9TfWeakPtrINS_8UsdStageEEERKNS_7SdfPathE, 
                       __ZN38pxrInternal_v0_21__aapl__pxrReserved__13UsdUIBackdrop6DefineERKNS_9TfWeakPtrINS_8UsdStageEEERKNS_7SdfPathE, 
                       __ZN38pxrInternal_v0_21__aapl__pxrReserved__13UsdUIBackdropD0Ev, 
                       __ZN38pxrInternal_v0_21__aapl__pxrReserved__13UsdUIBackdropD1Ev, 
                       __ZN38pxrInternal_v0_21__aapl__pxrReserved__13UsdUIBackdropD2Ev, 
                       __ZN38pxrInternal_v0_21__aapl__pxrReserved__13UsdVariantSet10AddVariantERKNSt3__112basic_stringIcNS1_11char_traitsIcEENS1_9allocatorIcEEEENS_15UsdListPositionE, 
                       __ZN38pxrInternal_v0_21__aapl__pxrReserved__13UsdVariantSet14_AddVariantSetENS_15UsdListPositionE, 
                       __ZN38pxrInternal_v0_21__aapl__pxrReserved__13UsdVariantSet19SetVariantSelectionERKNSt3__112basic_stringIcNS1_11char_traitsIcEENS1_9allocatorIcEEEE, 
                       __ZN38pxrInternal_v0_21__aapl__pxrReserved__13UsdVariantSet21BlockVariantSelectionEv, 
                       __ZN38pxrInternal_v0_21__aapl__pxrReserved__13UsdVariantSet21ClearVariantSelectionEv, 
                       __ZN38pxrInternal_v0_21__aapl__pxrReserved__13UsdVariantSet25_CreatePrimSpecForEditingEv, 
                       __ZN38pxrInternal_v0_21__aapl__pxrReserved__13Vt_HashDetail28_IssueUnimplementedHashErrorERKSt9type_info, 
                       __ZN38pxrInternal_v0_21__aapl__pxrReserved__14ArchFileAdviseEP7__sFILExmNS_14ArchFileAdviceE, 
                       __ZN38pxrInternal_v0_21__aapl__pxrReserved__14ArchMallocHook10InitializeEPFPvmPKvEPFS1_S1_mS3_EPFS1_mmS3_EPFvS1_S3_EPNSt3__112basic_stringIcNSC_11char_traitsIcEENSC_9allocatorIcEEEE, 
                       __ZN38pxrInternal_v0_21__aapl__pxrReserved__14ArchMallocHook13IsInitializedEv, 
                       __ZN38pxrInternal_v0_21__aapl__pxrReserved__14HdBufferSourceD0Ev, 
                       __ZN38pxrInternal_v0_21__aapl__pxrReserved__14HdBufferSourceD1Ev, 
                       __ZN38pxrInternal_v0_21__aapl__pxrReserved__14HdBufferSourceD2Ev, 
                       __ZN38pxrInternal_v0_21__aapl__pxrReserved__14HdCameraTokensE, 
                       __ZN38pxrInternal_v0_21__aapl__pxrReserved__14HdGetValueDataERKNS_7VtValueE, 
                       __ZN38pxrInternal_v0_21__aapl__pxrReserved__14HdMeshTopology16ComputeNumPointsERKNS_7VtArrayIiEE, 
                       __ZN38pxrInternal_v0_21__aapl__pxrReserved__14HdMeshTopology17IsEnabledAdaptiveEv, 
                       __ZN38pxrInternal_v0_21__aapl__pxrReserved__14HdMeshTopologyC1ERKNS_17PxOsdMeshTopologyEi, 
                       __ZN38pxrInternal_v0_21__aapl__pxrReserved__14HdMeshTopologyC1ERKNS_7TfTokenES3_RKNS_7VtArrayIiEES7_S7_i, 
                       __ZN38pxrInternal_v0_21__aapl__pxrReserved__14HdMeshTopologyC1ERKNS_7TfTokenES3_RKNS_7VtArrayIiEES7_i, 
                       __ZN38pxrInternal_v0_21__aapl__pxrReserved__14HdMeshTopologyC1ERKS0_i, 
                       __ZN38pxrInternal_v0_21__aapl__pxrReserved__14HdMeshTopologyC1Ev, 
                       __ZN38pxrInternal_v0_21__aapl__pxrReserved__14HdMeshTopologyC2ERKNS_17PxOsdMeshTopologyEi, 
                       __ZN38pxrInternal_v0_21__aapl__pxrReserved__14HdMeshTopologyC2ERKNS_7TfTokenES3_RKNS_7VtArrayIiEES7_S7_i, 
                       __ZN38pxrInternal_v0_21__aapl__pxrReserved__14HdMeshTopologyC2ERKNS_7TfTokenES3_RKNS_7VtArrayIiEES7_i, 
                       __ZN38pxrInternal_v0_21__aapl__pxrReserved__14HdMeshTopologyC2ERKS0_i, 
                       __ZN38pxrInternal_v0_21__aapl__pxrReserved__14HdMeshTopologyC2Ev, 
                       __ZN38pxrInternal_v0_21__aapl__pxrReserved__14HdMeshTopologyD0Ev, 
                       __ZN38pxrInternal_v0_21__aapl__pxrReserved__14HdMeshTopologyD1Ev, 
                       __ZN38pxrInternal_v0_21__aapl__pxrReserved__14HdMeshTopologyD2Ev, 
                       __ZN38pxrInternal_v0_21__aapl__pxrReserved__14HdMeshTopologyaSERKS0_, 
                       __ZN38pxrInternal_v0_21__aapl__pxrReserved__14HdOptionTokensE, 
                       __ZN38pxrInternal_v0_21__aapl__pxrReserved__14HdRenderBuffer4SyncEPNS_15HdSceneDelegateEPNS_13HdRenderParamEPj, 
                       __ZN38pxrInternal_v0_21__aapl__pxrReserved__14HdRenderBuffer8FinalizeEPNS_13HdRenderParamE, 
                       __ZN38pxrInternal_v0_21__aapl__pxrReserved__14HdRenderBufferC2ERKNS_7SdfPathE, 
                       __ZN38pxrInternal_v0_21__aapl__pxrReserved__14HdRenderBufferD0Ev, 
                       __ZN38pxrInternal_v0_21__aapl__pxrReserved__14HdRenderBufferD1Ev, 
                       __ZN38pxrInternal_v0_21__aapl__pxrReserved__14HdRenderBufferD2Ev, 
                       __ZN38pxrInternal_v0_21__aapl__pxrReserved__14HdRenderThread10StopRenderEv, 
                       __ZN38pxrInternal_v0_21__aapl__pxrReserved__14HdRenderThread10StopThreadEv, 
                       __ZN38pxrInternal_v0_21__aapl__pxrReserved__14HdRenderThread11IsRenderingEv, 
                       __ZN38pxrInternal_v0_21__aapl__pxrReserved__14HdRenderThread11PauseRenderEv, 
                       __ZN38pxrInternal_v0_21__aapl__pxrReserved__14HdRenderThread11StartRenderEv, 
                       __ZN38pxrInternal_v0_21__aapl__pxrReserved__14HdRenderThread11StartThreadEv, 
                       __ZN38pxrInternal_v0_21__aapl__pxrReserved__14HdRenderThread11_RenderLoopEv, 
                       __ZN38pxrInternal_v0_21__aapl__pxrReserved__14HdRenderThread12IsPauseDirtyEv, 
                       __ZN38pxrInternal_v0_21__aapl__pxrReserved__14HdRenderThread12ResumeRenderEv, 
                       __ZN38pxrInternal_v0_21__aapl__pxrReserved__14HdRenderThread15IsStopRequestedEv, 
                       __ZN38pxrInternal_v0_21__aapl__pxrReserved__14HdRenderThread15IsThreadRunningEv, 
                       __ZN38pxrInternal_v0_21__aapl__pxrReserved__14HdRenderThread15LockFramebufferEv, 
                       __ZN38pxrInternal_v0_21__aapl__pxrReserved__14HdRenderThread16IsPauseRequestedEv, 
                       __ZN38pxrInternal_v0_21__aapl__pxrReserved__14HdRenderThread17SetRenderCallbackENSt3__18functionIFvvEEE, 
                       __ZN38pxrInternal_v0_21__aapl__pxrReserved__14HdRenderThread19SetShutdownCallbackENSt3__18functionIFvvEEE, 
                       __ZN38pxrInternal_v0_21__aapl__pxrReserved__14HdRenderThread22_DefaultRenderCallbackEv, 
                       __ZN38pxrInternal_v0_21__aapl__pxrReserved__14HdRenderThread24_DefaultShutdownCallbackEv, 
                       __ZN38pxrInternal_v0_21__aapl__pxrReserved__14HdRenderThreadC1Ev, 
                       __ZN38pxrInternal_v0_21__aapl__pxrReserved__14HdRenderThreadC2Ev, 
                       __ZN38pxrInternal_v0_21__aapl__pxrReserved__14HdRenderThreadD1Ev, 
                       __ZN38pxrInternal_v0_21__aapl__pxrReserved__14HdRenderThreadD2Ev, 
                       __ZN38pxrInternal_v0_21__aapl__pxrReserved__14HdShaderTokensE, 
                       __ZN38pxrInternal_v0_21__aapl__pxrReserved__14Hd_FlatNormals18ComputeFlatNormalsEPKNS_14HdMeshTopologyEPKNS_7GfVec3dE, 
                       __ZN38pxrInternal_v0_21__aapl__pxrReserved__14Hd_FlatNormals18ComputeFlatNormalsEPKNS_14HdMeshTopologyEPKNS_7GfVec3fE, 
                       __ZN38pxrInternal_v0_21__aapl__pxrReserved__14Hd_FlatNormals24ComputeFlatNormalsPackedEPKNS_14HdMeshTopologyEPKNS_7GfVec3dE, 
                       __ZN38pxrInternal_v0_21__aapl__pxrReserved__14Hd_FlatNormals24ComputeFlatNormalsPackedEPKNS_14HdMeshTopologyEPKNS_7GfVec3fE, 
                       __ZN38pxrInternal_v0_21__aapl__pxrReserved__14PcpInstanceKeyC1ERKNS_12PcpPrimIndexE, 
                       __ZN38pxrInternal_v0_21__aapl__pxrReserved__14PcpInstanceKeyC1Ev, 
                       __ZN38pxrInternal_v0_21__aapl__pxrReserved__14PcpInstanceKeyC2ERKNS_12PcpPrimIndexE, 
                       __ZN38pxrInternal_v0_21__aapl__pxrReserved__14PcpInstanceKeyC2Ev, 
                       __ZN38pxrInternal_v0_21__aapl__pxrReserved__14PcpMapFunction15IdentityPathMapEv, 
                       __ZN38pxrInternal_v0_21__aapl__pxrReserved__14PcpMapFunction4SwapERS0_, 
                       __ZN38pxrInternal_v0_21__aapl__pxrReserved__14PcpMapFunction6CreateERKNSt3__13mapINS_7SdfPathES3_NS3_12FastLessThanENS1_9allocatorINS1_4pairIKS3_S3_EEEEEERKNS_14SdfLayerOffsetE, 
                       __ZN38pxrInternal_v0_21__aapl__pxrReserved__14PcpMapFunction8IdentityEv, 
                       __ZN38pxrInternal_v0_21__aapl__pxrReserved__14PcpMapFunctionC1EPKNSt3__14pairINS_7SdfPathES3_EES6_NS_14SdfLayerOffsetEb, 
                       __ZN38pxrInternal_v0_21__aapl__pxrReserved__14PcpMapFunctionC2EPKNSt3__14pairINS_7SdfPathES3_EES6_NS_14SdfLayerOffsetEb, 
                       __ZN38pxrInternal_v0_21__aapl__pxrReserved__14PcpRaiseErrorsERKNSt3__16vectorINS0_10shared_ptrINS_12PcpErrorBaseEEENS0_9allocatorIS4_EEEE, 
                       __ZN38pxrInternal_v0_21__aapl__pxrReserved__14SdfChangeBlockC1Ev, 
                       __ZN38pxrInternal_v0_21__aapl__pxrReserved__14SdfChangeBlockC2Ev, 
                       __ZN38pxrInternal_v0_21__aapl__pxrReserved__14SdfChangeBlockD1Ev, 
                       __ZN38pxrInternal_v0_21__aapl__pxrReserved__14SdfChangeBlockD2Ev, 
                       __ZN38pxrInternal_v0_21__aapl__pxrReserved__14SdfConvertUnitERKNS_6TfEnumES2_, 
                       __ZN38pxrInternal_v0_21__aapl__pxrReserved__14SdfDefaultUnitERKNS_6TfEnumE, 
                       __ZN38pxrInternal_v0_21__aapl__pxrReserved__14SdfDefaultUnitERKNS_7TfTokenE, 
                       __ZN38pxrInternal_v0_21__aapl__pxrReserved__14SdfLayerOffsetC1Edd, 
                       __ZN38pxrInternal_v0_21__aapl__pxrReserved__14SdfLayerOffsetC2Edd, 
                       __ZN38pxrInternal_v0_21__aapl__pxrReserved__14SdfVariantSpec3NewERKNS_9SdfHandleINS_17SdfVariantSetSpecEEERKNSt3__112basic_stringIcNS6_11char_traitsIcEENS6_9allocatorIcEEEE, 
                       __ZN38pxrInternal_v0_21__aapl__pxrReserved__14SdrNodeContextE, 
                       __ZN38pxrInternal_v0_21__aapl__pxrReserved__14TfEscapeStringERKNSt3__112basic_stringIcNS0_11char_traitsIcEENS0_9allocatorIcEEEE, 
                       __ZN38pxrInternal_v0_21__aapl__pxrReserved__14TfGetExtensionERKNSt3__112basic_stringIcNS0_11char_traitsIcEENS0_9allocatorIcEEEE, 
                       __ZN38pxrInternal_v0_21__aapl__pxrReserved__14TfGetenvDoubleERKNSt3__112basic_stringIcNS0_11char_traitsIcEENS0_9allocatorIcEEEEd, 
                       __ZN38pxrInternal_v0_21__aapl__pxrReserved__14TfStringPrintfEPKcz, 
                       __ZN38pxrInternal_v0_21__aapl__pxrReserved__14TfStringToLongEPKcPb, 
                       __ZN38pxrInternal_v0_21__aapl__pxrReserved__14TfStringToLongERKNSt3__112basic_stringIcNS0_11char_traitsIcEENS0_9allocatorIcEEEEPb, 
                       __ZN38pxrInternal_v0_21__aapl__pxrReserved__14TraceCollector10SetEnabledEb, 
                       __ZN38pxrInternal_v0_21__aapl__pxrReserved__14TraceCollector10_isEnabledE, 
                       __ZN38pxrInternal_v0_21__aapl__pxrReserved__14TraceCollector11_BeginEventERKNS_15TraceDynamicKeyEj, 
                       __ZN38pxrInternal_v0_21__aapl__pxrReserved__14TraceCollector12_MarkerEventERKNS_15TraceDynamicKeyEj, 
                       __ZN38pxrInternal_v0_21__aapl__pxrReserved__14TraceCollector14_GetThreadDataEv, 
                       __ZN38pxrInternal_v0_21__aapl__pxrReserved__14TraceCollector14_PerThreadData10BeginEventERKNS_15TraceDynamicKeyEj, 
                       __ZN38pxrInternal_v0_21__aapl__pxrReserved__14TraceCollector14_PerThreadData11MarkerEventERKNS_15TraceDynamicKeyEj, 
                       __ZN38pxrInternal_v0_21__aapl__pxrReserved__14TraceCollector14_PerThreadData12CounterDeltaERKNS_15TraceDynamicKeyEdj, 
                       __ZN38pxrInternal_v0_21__aapl__pxrReserved__14TraceCollector14_PerThreadData12CounterValueERKNS_15TraceDynamicKeyEdj, 
                       __ZN38pxrInternal_v0_21__aapl__pxrReserved__14TraceCollector14_PerThreadData14EndEventAtTimeERKNS_15TraceDynamicKeyEdj, 
                       __ZN38pxrInternal_v0_21__aapl__pxrReserved__14TraceCollector14_PerThreadData16BeginEventAtTimeERKNS_15TraceDynamicKeyEdj, 
                       __ZN38pxrInternal_v0_21__aapl__pxrReserved__14TraceCollector14_PerThreadData17GetCollectionDataEv, 
                       __ZN38pxrInternal_v0_21__aapl__pxrReserved__14TraceCollector14_PerThreadData17MarkerEventAtTimeERKNS_15TraceDynamicKeyEdj, 
                       __ZN38pxrInternal_v0_21__aapl__pxrReserved__14TraceCollector14_PerThreadData5ClearEv, 
                       __ZN38pxrInternal_v0_21__aapl__pxrReserved__14TraceCollector14_PerThreadData8EndEventERKNS_15TraceDynamicKeyEj, 
                       __ZN38pxrInternal_v0_21__aapl__pxrReserved__14TraceCollector14_PerThreadData9_EndScopeERKNS_8TraceKeyEj, 
                       __ZN38pxrInternal_v0_21__aapl__pxrReserved__14TraceCollector14_PerThreadDataC1Ev, 
                       __ZN38pxrInternal_v0_21__aapl__pxrReserved__14TraceCollector14_PerThreadDataC2Ev, 
                       __ZN38pxrInternal_v0_21__aapl__pxrReserved__14TraceCollector14_PerThreadDataD1Ev, 
                       __ZN38pxrInternal_v0_21__aapl__pxrReserved__14TraceCollector14_PerThreadDataD2Ev, 
                       __ZN38pxrInternal_v0_21__aapl__pxrReserved__14TraceCollector15_EndEventAtTimeERKNS_15TraceDynamicKeyEdj, 
                       __ZN38pxrInternal_v0_21__aapl__pxrReserved__14TraceCollector16CreateCollectionEv, 
                       __ZN38pxrInternal_v0_21__aapl__pxrReserved__14TraceCollector17_BeginEventAtTimeERKNS_15TraceDynamicKeyEdj, 
                       __ZN38pxrInternal_v0_21__aapl__pxrReserved__14TraceCollector18_MarkerEventAtTimeERKNS_15TraceDynamicKeyEdj, 
                       __ZN38pxrInternal_v0_21__aapl__pxrReserved__14TraceCollector5ClearEv, 
                       __ZN38pxrInternal_v0_21__aapl__pxrReserved__14TraceCollector9_EndEventERKNS_15TraceDynamicKeyEj, 
                       __ZN38pxrInternal_v0_21__aapl__pxrReserved__14TraceCollector9_EndScopeERKNS_8TraceKeyEj, 
                       __ZN38pxrInternal_v0_21__aapl__pxrReserved__14TraceCollectorC1Ev, 
                       __ZN38pxrInternal_v0_21__aapl__pxrReserved__14TraceCollectorC2Ev, 
                       __ZN38pxrInternal_v0_21__aapl__pxrReserved__14TraceCollectorD1Ev, 
                       __ZN38pxrInternal_v0_21__aapl__pxrReserved__14TraceCollectorD2Ev, 
                       __ZN38pxrInternal_v0_21__aapl__pxrReserved__14TraceEventList6AppendEOS0_, 
                       __ZN38pxrInternal_v0_21__aapl__pxrReserved__14TraceEventListC1Ev, 
                       __ZN38pxrInternal_v0_21__aapl__pxrReserved__14TraceEventListC2Ev, 
                       __ZN38pxrInternal_v0_21__aapl__pxrReserved__14TraceEventNode12AddAttributeERKNS_7TfTokenERKNS_14TraceEventDataE, 
                       __ZN38pxrInternal_v0_21__aapl__pxrReserved__14TraceEventNode31SetBeginAndEndTimesFromChildrenEv, 
                       __ZN38pxrInternal_v0_21__aapl__pxrReserved__14TraceEventNode6AppendENS_8TfRefPtrIS0_EE, 
                       __ZN38pxrInternal_v0_21__aapl__pxrReserved__14TraceEventNode6AppendERKNS_7TfTokenEjyyb, 
                       __ZN38pxrInternal_v0_21__aapl__pxrReserved__14TraceEventTree3AddERKNS_15TraceCollectionE, 
                       __ZN38pxrInternal_v0_21__aapl__pxrReserved__14TraceEventTree3NewERKNS_15TraceCollectionEPKNSt3__113unordered_mapINS_7TfTokenEdNS6_11HashFunctorENS4_8equal_toIS6_EENS4_9allocatorINS4_4pairIKS6_dEEEEEE, 
                       __ZN38pxrInternal_v0_21__aapl__pxrReserved__14TraceEventTree5MergeERKNS_8TfRefPtrIS0_EE, 
                       __ZN38pxrInternal_v0_21__aapl__pxrReserved__14UsdEditContextC1ERKNS_9TfWeakPtrINS_8UsdStageEEE, 
                       __ZN38pxrInternal_v0_21__aapl__pxrReserved__14UsdEditContextC1ERKNS_9TfWeakPtrINS_8UsdStageEEERKNS_13UsdEditTargetE, 
                       __ZN38pxrInternal_v0_21__aapl__pxrReserved__14UsdEditContextC1ERKNSt3__14pairINS_9TfWeakPtrINS_8UsdStageEEENS_13UsdEditTargetEEE, 
                       __ZN38pxrInternal_v0_21__aapl__pxrReserved__14UsdEditContextC2ERKNS_9TfWeakPtrINS_8UsdStageEEE, 
                       __ZN38pxrInternal_v0_21__aapl__pxrReserved__14UsdEditContextC2ERKNS_9TfWeakPtrINS_8UsdStageEEERKNS_13UsdEditTargetE, 
                       __ZN38pxrInternal_v0_21__aapl__pxrReserved__14UsdEditContextC2ERKNSt3__14pairINS_9TfWeakPtrINS_8UsdStageEEENS_13UsdEditTargetEEE, 
                       __ZN38pxrInternal_v0_21__aapl__pxrReserved__14UsdEditContextD1Ev, 
                       __ZN38pxrInternal_v0_21__aapl__pxrReserved__14UsdEditContextD2Ev, 
                       __ZN38pxrInternal_v0_21__aapl__pxrReserved__14UsdGeomCapsule13ComputeExtentEddRKNS_7TfTokenEPNS_7VtArrayINS_7GfVec3fEEE, 
                       __ZN38pxrInternal_v0_21__aapl__pxrReserved__14UsdGeomCapsule13ComputeExtentEddRKNS_7TfTokenERKNS_10GfMatrix4dEPNS_7VtArrayINS_7GfVec3fEEE, 
                       __ZN38pxrInternal_v0_21__aapl__pxrReserved__14UsdGeomCapsule14_IsTypedSchemaEv, 
                       __ZN38pxrInternal_v0_21__aapl__pxrReserved__14UsdGeomCapsule16_GetStaticTfTypeEv, 
                       __ZN38pxrInternal_v0_21__aapl__pxrReserved__14UsdGeomCapsule23GetSchemaAttributeNamesEb, 
                       __ZN38pxrInternal_v0_21__aapl__pxrReserved__14UsdGeomCapsule3GetERKNS_9TfWeakPtrINS_8UsdStageEEERKNS_7SdfPathE, 
                       __ZN38pxrInternal_v0_21__aapl__pxrReserved__14UsdGeomCapsule6DefineERKNS_9TfWeakPtrINS_8UsdStageEEERKNS_7SdfPathE, 
                       __ZN38pxrInternal_v0_21__aapl__pxrReserved__14UsdGeomCapsuleD0Ev, 
                       __ZN38pxrInternal_v0_21__aapl__pxrReserved__14UsdGeomCapsuleD1Ev, 
                       __ZN38pxrInternal_v0_21__aapl__pxrReserved__14UsdGeomCapsuleD2Ev, 
                       __ZN38pxrInternal_v0_21__aapl__pxrReserved__14UsdGeomPrimvar13_IsNamespacedERKNS_7TfTokenE, 
                       __ZN38pxrInternal_v0_21__aapl__pxrReserved__14UsdGeomPrimvar14SetElementSizeEi, 
                       __ZN38pxrInternal_v0_21__aapl__pxrReserved__14UsdGeomPrimvar15_MakeNamespacedERKNS_7TfTokenEb, 
                       __ZN38pxrInternal_v0_21__aapl__pxrReserved__14UsdGeomPrimvar16ComputeFlattenedEPNS_7VtValueERKS1_RKNS_7VtArrayIiEEPNSt3__112basic_stringIcNS9_11char_traitsIcEENS9_9allocatorIcEEEE, 
                       __ZN38pxrInternal_v0_21__aapl__pxrReserved__14UsdGeomPrimvar16SetInterpolationERKNS_7TfTokenE, 
                       __ZN38pxrInternal_v0_21__aapl__pxrReserved__14UsdGeomPrimvar17StripPrimvarsNameERKNS_7TfTokenE, 
                       __ZN38pxrInternal_v0_21__aapl__pxrReserved__14UsdGeomPrimvar18IsValidPrimvarNameERKNS_7TfTokenE, 
                       __ZN38pxrInternal_v0_21__aapl__pxrReserved__14UsdGeomPrimvar19_GetNamespacePrefixEv, 
                       __ZN38pxrInternal_v0_21__aapl__pxrReserved__14UsdGeomPrimvar19_SetIdTargetRelNameEv, 
                       __ZN38pxrInternal_v0_21__aapl__pxrReserved__14UsdGeomPrimvar20IsValidInterpolationERKNS_7TfTokenE, 
                       __ZN38pxrInternal_v0_21__aapl__pxrReserved__14UsdGeomPrimvar9IsPrimvarERKNS_12UsdAttributeE, 
                       __ZN38pxrInternal_v0_21__aapl__pxrReserved__14UsdGeomPrimvarC1ERKNS_12UsdAttributeE, 
                       __ZN38pxrInternal_v0_21__aapl__pxrReserved__14UsdGeomPrimvarC1ERKNS_7UsdPrimERKNS_7TfTokenERKNS_16SdfValueTypeNameE, 
                       __ZN38pxrInternal_v0_21__aapl__pxrReserved__14UsdGeomPrimvarC2ERKNS_12UsdAttributeE, 
                       __ZN38pxrInternal_v0_21__aapl__pxrReserved__14UsdGeomPrimvarC2ERKNS_7UsdPrimERKNS_7TfTokenERKNS_16SdfValueTypeNameE, 
                       __ZN38pxrInternal_v0_21__aapl__pxrReserved__14UsdGeomXformOp13GetOpTypeEnumERKNS_7TfTokenE, 
                       __ZN38pxrInternal_v0_21__aapl__pxrReserved__14UsdGeomXformOp14GetOpTransformENS0_4TypeERKNS_7VtValueEb, 
                       __ZN38pxrInternal_v0_21__aapl__pxrReserved__14UsdGeomXformOp14GetOpTypeTokenENS0_4TypeE, 
                       __ZN38pxrInternal_v0_21__aapl__pxrReserved__14UsdGeomXformOp15_GetXformOpAttrERKNS_7UsdPrimERKNS_7TfTokenEPb, 
                       __ZN38pxrInternal_v0_21__aapl__pxrReserved__14UsdGeomXformOp16GetValueTypeNameENS0_4TypeENS0_9PrecisionE, 
                       __ZN38pxrInternal_v0_21__aapl__pxrReserved__14UsdGeomXformOp25_GetOpTypeEnumFromCStringEPKcm, 
                       __ZN38pxrInternal_v0_21__aapl__pxrReserved__14UsdGeomXformOp29GetPrecisionFromValueTypeNameERKNS_16SdfValueTypeNameE, 
                       __ZN38pxrInternal_v0_21__aapl__pxrReserved__14UsdGeomXformOp5_InitEv, 
                       __ZN38pxrInternal_v0_21__aapl__pxrReserved__14UsdGeomXformOp9GetOpNameENS0_4TypeERKNS_7TfTokenEb, 
                       __ZN38pxrInternal_v0_21__aapl__pxrReserved__14UsdGeomXformOp9IsXformOpERKNS_12UsdAttributeE, 
                       __ZN38pxrInternal_v0_21__aapl__pxrReserved__14UsdGeomXformOp9IsXformOpERKNS_7TfTokenE, 
                       __ZN38pxrInternal_v0_21__aapl__pxrReserved__14UsdGeomXformOpC1EONS_17UsdAttributeQueryEbNS0_22_ValidAttributeTagTypeE, 
                       __ZN38pxrInternal_v0_21__aapl__pxrReserved__14UsdGeomXformOpC1ERKNS_12UsdAttributeEb, 
                       __ZN38pxrInternal_v0_21__aapl__pxrReserved__14UsdGeomXformOpC1ERKNS_12UsdAttributeEbNS0_22_ValidAttributeTagTypeE, 
                       __ZN38pxrInternal_v0_21__aapl__pxrReserved__14UsdGeomXformOpC1ERKNS_7UsdPrimENS0_4TypeENS0_9PrecisionERKNS_7TfTokenEb, 
                       __ZN38pxrInternal_v0_21__aapl__pxrReserved__14UsdGeomXformOpC2EONS_17UsdAttributeQueryEbNS0_22_ValidAttributeTagTypeE, 
                       __ZN38pxrInternal_v0_21__aapl__pxrReserved__14UsdGeomXformOpC2ERKNS_12UsdAttributeEb, 
                       __ZN38pxrInternal_v0_21__aapl__pxrReserved__14UsdGeomXformOpC2ERKNS_12UsdAttributeEbNS0_22_ValidAttributeTagTypeE, 
                       __ZN38pxrInternal_v0_21__aapl__pxrReserved__14UsdGeomXformOpC2ERKNS_7UsdPrimENS0_4TypeENS0_9PrecisionERKNS_7TfTokenEb, 
                       __ZN38pxrInternal_v0_21__aapl__pxrReserved__14UsdHydraTokensE, 
                       __ZN38pxrInternal_v0_21__aapl__pxrReserved__14UsdMediaTokensE, 
                       __ZN38pxrInternal_v0_21__aapl__pxrReserved__14UsdRiRisObject14_IsTypedSchemaEv, 
                       __ZN38pxrInternal_v0_21__aapl__pxrReserved__14UsdRiRisObject16_GetStaticTfTypeEv, 
                       __ZN38pxrInternal_v0_21__aapl__pxrReserved__14UsdRiRisObject23GetSchemaAttributeNamesEb, 
                       __ZN38pxrInternal_v0_21__aapl__pxrReserved__14UsdRiRisObject3GetERKNS_9TfWeakPtrINS_8UsdStageEEERKNS_7SdfPathE, 
                       __ZN38pxrInternal_v0_21__aapl__pxrReserved__14UsdRiRisObject6DefineERKNS_9TfWeakPtrINS_8UsdStageEEERKNS_7SdfPathE, 
                       __ZN38pxrInternal_v0_21__aapl__pxrReserved__14UsdRiRisObjectD0Ev, 
                       __ZN38pxrInternal_v0_21__aapl__pxrReserved__14UsdRiRisObjectD1Ev, 
                       __ZN38pxrInternal_v0_21__aapl__pxrReserved__14UsdRiRisObjectD2Ev, 
                       __ZN38pxrInternal_v0_21__aapl__pxrReserved__14UsdRiRslShader14_IsTypedSchemaEv, 
                       __ZN38pxrInternal_v0_21__aapl__pxrReserved__14UsdRiRslShader16_GetStaticTfTypeEv, 
                       __ZN38pxrInternal_v0_21__aapl__pxrReserved__14UsdRiRslShader23GetSchemaAttributeNamesEb, 
                       __ZN38pxrInternal_v0_21__aapl__pxrReserved__14UsdRiRslShader3GetERKNS_9TfWeakPtrINS_8UsdStageEEERKNS_7SdfPathE, 
                       __ZN38pxrInternal_v0_21__aapl__pxrReserved__14UsdRiRslShader6DefineERKNS_9TfWeakPtrINS_8UsdStageEEERKNS_7SdfPathE, 
                       __ZN38pxrInternal_v0_21__aapl__pxrReserved__14UsdRiRslShaderD0Ev, 
                       __ZN38pxrInternal_v0_21__aapl__pxrReserved__14UsdRiRslShaderD1Ev, 
                       __ZN38pxrInternal_v0_21__aapl__pxrReserved__14UsdRiRslShaderD2Ev, 
                       __ZN38pxrInternal_v0_21__aapl__pxrReserved__14UsdRiSplineAPI14_IsTypedSchemaEv, 
                       __ZN38pxrInternal_v0_21__aapl__pxrReserved__14UsdRiSplineAPI16_GetStaticTfTypeEv, 
                       __ZN38pxrInternal_v0_21__aapl__pxrReserved__14UsdRiSplineAPI23GetSchemaAttributeNamesEb, 
                       __ZN38pxrInternal_v0_21__aapl__pxrReserved__14UsdRiSplineAPI3GetERKNS_9TfWeakPtrINS_8UsdStageEEERKNS_7SdfPathE, 
                       __ZN38pxrInternal_v0_21__aapl__pxrReserved__14UsdRiSplineAPI5ApplyERKNS_7UsdPrimE, 
                       __ZN38pxrInternal_v0_21__aapl__pxrReserved__14UsdRiSplineAPI8CanApplyERKNS_7UsdPrimEPNSt3__112basic_stringIcNS4_11char_traitsIcEENS4_9allocatorIcEEEE, 
                       __ZN38pxrInternal_v0_21__aapl__pxrReserved__14UsdRiSplineAPID0Ev, 
                       __ZN38pxrInternal_v0_21__aapl__pxrReserved__14UsdRiSplineAPID1Ev, 
                       __ZN38pxrInternal_v0_21__aapl__pxrReserved__14UsdRiSplineAPID2Ev, 
                       __ZN38pxrInternal_v0_21__aapl__pxrReserved__14UsdShadeOutput8IsOutputERKNS_12UsdAttributeE, 
                       __ZN38pxrInternal_v0_21__aapl__pxrReserved__14UsdShadeOutputC1ENS_7UsdPrimERKNS_7TfTokenERKNS_16SdfValueTypeNameE, 
                       __ZN38pxrInternal_v0_21__aapl__pxrReserved__14UsdShadeOutputC1ERKNS_12UsdAttributeE, 
                       __ZN38pxrInternal_v0_21__aapl__pxrReserved__14UsdShadeOutputC2ENS_7UsdPrimERKNS_7TfTokenERKNS_16SdfValueTypeNameE, 
                       __ZN38pxrInternal_v0_21__aapl__pxrReserved__14UsdShadeOutputC2ERKNS_12UsdAttributeE, 
                       __ZN38pxrInternal_v0_21__aapl__pxrReserved__14UsdShadeShader11CreateInputERKNS_7TfTokenERKNS_16SdfValueTypeNameE, 
                       __ZN38pxrInternal_v0_21__aapl__pxrReserved__14UsdShadeShader12CreateOutputERKNS_7TfTokenERKNS_16SdfValueTypeNameE, 
                       __ZN38pxrInternal_v0_21__aapl__pxrReserved__14UsdShadeShader14_IsTypedSchemaEv, 
                       __ZN38pxrInternal_v0_21__aapl__pxrReserved__14UsdShadeShader16_GetStaticTfTypeEv, 
                       __ZN38pxrInternal_v0_21__aapl__pxrReserved__14UsdShadeShader23GetSchemaAttributeNamesEb, 
                       __ZN38pxrInternal_v0_21__aapl__pxrReserved__14UsdShadeShader3GetERKNS_9TfWeakPtrINS_8UsdStageEEERKNS_7SdfPathE, 
                       __ZN38pxrInternal_v0_21__aapl__pxrReserved__14UsdShadeShader6DefineERKNS_9TfWeakPtrINS_8UsdStageEEERKNS_7SdfPathE, 
                       __ZN38pxrInternal_v0_21__aapl__pxrReserved__14UsdShadeShaderC1ERKNS_22UsdShadeConnectableAPIE, 
                       __ZN38pxrInternal_v0_21__aapl__pxrReserved__14UsdShadeShaderC2ERKNS_22UsdShadeConnectableAPIE, 
                       __ZN38pxrInternal_v0_21__aapl__pxrReserved__14UsdShadeShaderD0Ev, 
                       __ZN38pxrInternal_v0_21__aapl__pxrReserved__14UsdShadeShaderD1Ev, 
                       __ZN38pxrInternal_v0_21__aapl__pxrReserved__14UsdShadeShaderD2Ev, 
                       __ZN38pxrInternal_v0_21__aapl__pxrReserved__14UsdShadeTokensE, 
                       __ZN38pxrInternal_v0_21__aapl__pxrReserved__14UsdSpecializes13AddSpecializeERKNS_7SdfPathENS_15UsdListPositionE, 
                       __ZN38pxrInternal_v0_21__aapl__pxrReserved__14UsdSpecializes14SetSpecializesERKNSt3__16vectorINS_7SdfPathENS1_9allocatorIS3_EEEE, 
                       __ZN38pxrInternal_v0_21__aapl__pxrReserved__14UsdSpecializes16ClearSpecializesEv, 
                       __ZN38pxrInternal_v0_21__aapl__pxrReserved__14UsdSpecializes16RemoveSpecializeERKNS_7SdfPathE, 
                       __ZN38pxrInternal_v0_21__aapl__pxrReserved__14UsdVariantSets12SetSelectionERKNSt3__112basic_stringIcNS1_11char_traitsIcEENS1_9allocatorIcEEEES9_, 
                       __ZN38pxrInternal_v0_21__aapl__pxrReserved__14UsdVariantSets13AddVariantSetERKNSt3__112basic_stringIcNS1_11char_traitsIcEENS1_9allocatorIcEEEENS_15UsdListPositionE, 
                       __ZN38pxrInternal_v0_21__aapl__pxrReserved__14WorkDispatcher16_TransportErrorsERKNS_11TfErrorMarkEPN3tbb17concurrent_vectorINS_16TfErrorTransportENS4_23cache_aligned_allocatorIS6_EEEE, 
                       __ZN38pxrInternal_v0_21__aapl__pxrReserved__14WorkDispatcher4WaitEv, 
                       __ZN38pxrInternal_v0_21__aapl__pxrReserved__14WorkDispatcher6CancelEv, 
                       __ZN38pxrInternal_v0_21__aapl__pxrReserved__14WorkDispatcherC1Ev, 
                       __ZN38pxrInternal_v0_21__aapl__pxrReserved__14WorkDispatcherC2Ev, 
                       __ZN38pxrInternal_v0_21__aapl__pxrReserved__14WorkDispatcherD1Ev, 
                       __ZN38pxrInternal_v0_21__aapl__pxrReserved__14WorkDispatcherD2Ev, 
                       __ZN38pxrInternal_v0_21__aapl__pxrReserved__14usd_initializeEv, 
                       __ZN38pxrInternal_v0_21__aapl__pxrReserved__15ArchGetFileNameEP7__sFILE, 
                       __ZN38pxrInternal_v0_21__aapl__pxrReserved__15ArchGetPageSizeEv, 
                       __ZN38pxrInternal_v0_21__aapl__pxrReserved__15ArchGetStatModeEPKcPi, 
                       __ZN38pxrInternal_v0_21__aapl__pxrReserved__15ArchLibraryOpenERKNSt3__112basic_stringIcNS0_11char_traitsIcEENS0_9allocatorIcEEEEi, 
                       __ZN38pxrInternal_v0_21__aapl__pxrReserved__15ArchMakeTmpFileERKNSt3__112basic_stringIcNS0_11char_traitsIcEENS0_9allocatorIcEEEEPS6_, 
                       __ZN38pxrInternal_v0_21__aapl__pxrReserved__15ArchMakeTmpFileERKNSt3__112basic_stringIcNS0_11char_traitsIcEENS0_9allocatorIcEEEES8_PS6_, 
                       __ZN38pxrInternal_v0_21__aapl__pxrReserved__15GfMultiInterval13ArithmeticAddERKNS_10GfIntervalE, 
                       __ZN38pxrInternal_v0_21__aapl__pxrReserved__15GfMultiInterval3AddERKNS_10GfIntervalE, 
                       __ZN38pxrInternal_v0_21__aapl__pxrReserved__15GfMultiInterval3AddERKS0_, 
                       __ZN38pxrInternal_v0_21__aapl__pxrReserved__15GfMultiInterval6RemoveERKNS_10GfIntervalE, 
                       __ZN38pxrInternal_v0_21__aapl__pxrReserved__15GfMultiInterval6RemoveERKS0_, 
                       __ZN38pxrInternal_v0_21__aapl__pxrReserved__15GfMultiInterval9IntersectERKNS_10GfIntervalE, 
                       __ZN38pxrInternal_v0_21__aapl__pxrReserved__15GfMultiInterval9IntersectERKS0_, 
                       __ZN38pxrInternal_v0_21__aapl__pxrReserved__15GfMultiIntervalC1ERKNS_10GfIntervalE, 
                       __ZN38pxrInternal_v0_21__aapl__pxrReserved__15GfMultiIntervalC1ERKNSt3__16vectorINS_10GfIntervalENS1_9allocatorIS3_EEEE, 
                       __ZN38pxrInternal_v0_21__aapl__pxrReserved__15GfMultiIntervalC2ERKNS_10GfIntervalE, 
                       __ZN38pxrInternal_v0_21__aapl__pxrReserved__15GfMultiIntervalC2ERKNSt3__16vectorINS_10GfIntervalENS1_9allocatorIS3_EEEE, 
                       __ZN38pxrInternal_v0_21__aapl__pxrReserved__15HdChangeTracker11IsReprDirtyEjRKNS_7SdfPathE, 
                       __ZN38pxrInternal_v0_21__aapl__pxrReserved__15HdChangeTracker11TaskRemovedERKNS_7SdfPathE, 
                       __ZN38pxrInternal_v0_21__aapl__pxrReserved__15HdChangeTracker12BprimRemovedERKNS_7SdfPathE, 
                       __ZN38pxrInternal_v0_21__aapl__pxrReserved__15HdChangeTracker12IsRprimDirtyERKNS_7SdfPathE, 
                       __ZN38pxrInternal_v0_21__aapl__pxrReserved__15HdChangeTracker12RprimRemovedERKNS_7SdfPathE, 
                       __ZN38pxrInternal_v0_21__aapl__pxrReserved__15HdChangeTracker12SprimRemovedERKNS_7SdfPathE, 
                       __ZN38pxrInternal_v0_21__aapl__pxrReserved__15HdChangeTracker12TaskInsertedERKNS_7SdfPathEj, 
                       __ZN38pxrInternal_v0_21__aapl__pxrReserved__15HdChangeTracker13AddCollectionERKNS_7TfTokenE, 
                       __ZN38pxrInternal_v0_21__aapl__pxrReserved__15HdChangeTracker13BprimInsertedERKNS_7SdfPathEj, 
                       __ZN38pxrInternal_v0_21__aapl__pxrReserved__15HdChangeTracker13DumpDirtyBitsEj, 
                       __ZN38pxrInternal_v0_21__aapl__pxrReserved__15HdChangeTracker13IsExtentDirtyERKNS_7SdfPathE, 
                       __ZN38pxrInternal_v0_21__aapl__pxrReserved__15HdChangeTracker13IsExtentDirtyEjRKNS_7SdfPathE, 
                       __ZN38pxrInternal_v0_21__aapl__pxrReserved__15HdChangeTracker13IsPrimIdDirtyERKNS_7SdfPathE, 
                       __ZN38pxrInternal_v0_21__aapl__pxrReserved__15HdChangeTracker13IsPrimIdDirtyEjRKNS_7SdfPathE, 
                       __ZN38pxrInternal_v0_21__aapl__pxrReserved__15HdChangeTracker13MarkTaskCleanERKNS_7SdfPathEj, 
                       __ZN38pxrInternal_v0_21__aapl__pxrReserved__15HdChangeTracker13MarkTaskDirtyERKNS_7SdfPathEj, 
                       __ZN38pxrInternal_v0_21__aapl__pxrReserved__15HdChangeTracker13RprimInsertedERKNS_7SdfPathEj, 
                       __ZN38pxrInternal_v0_21__aapl__pxrReserved__15HdChangeTracker13SprimInsertedERKNS_7SdfPathEj, 
                       __ZN38pxrInternal_v0_21__aapl__pxrReserved__15HdChangeTracker14IsPrimvarDirtyERKNS_7SdfPathERKNS_7TfTokenE, 
                       __ZN38pxrInternal_v0_21__aapl__pxrReserved__15HdChangeTracker14IsPrimvarDirtyEjRKNS_7SdfPathERKNS_7TfTokenE, 
                       __ZN38pxrInternal_v0_21__aapl__pxrReserved__15HdChangeTracker14MarkBprimCleanERKNS_7SdfPathEj, 
                       __ZN38pxrInternal_v0_21__aapl__pxrReserved__15HdChangeTracker14MarkBprimDirtyERKNS_7SdfPathEj, 
                       __ZN38pxrInternal_v0_21__aapl__pxrReserved__15HdChangeTracker14MarkRprimCleanERKNS_7SdfPathEj, 
                       __ZN38pxrInternal_v0_21__aapl__pxrReserved__15HdChangeTracker14MarkRprimDirtyERKNS_7SdfPathEj, 
                       __ZN38pxrInternal_v0_21__aapl__pxrReserved__15HdChangeTracker14MarkSprimCleanERKNS_7SdfPathEj, 
                       __ZN38pxrInternal_v0_21__aapl__pxrReserved__15HdChangeTracker14MarkSprimDirtyERKNS_7SdfPathEj, 
                       __ZN38pxrInternal_v0_21__aapl__pxrReserved__15HdChangeTracker14MarkStateDirtyERKNS_7TfTokenE, 
                       __ZN38pxrInternal_v0_21__aapl__pxrReserved__15HdChangeTracker14_AddDependencyERN3tbb10interface519concurrent_hash_mapINS_7SdfPathENSt3__13setIS4_NS5_4lessIS4_EENS5_9allocatorIS4_EEEENS0_16_PathHashCompareENS1_13tbb_allocatorINS5_4pairIKS4_SB_EEEEEERSF_SK_, 
                       __ZN38pxrInternal_v0_21__aapl__pxrReserved__15HdChangeTracker15IsTopologyDirtyERKNS_7SdfPathE, 
                       __ZN38pxrInternal_v0_21__aapl__pxrReserved__15HdChangeTracker15IsTopologyDirtyEjRKNS_7SdfPathE, 
                       __ZN38pxrInternal_v0_21__aapl__pxrReserved__15HdChangeTracker15_LogCacheAccessERKNS_7TfTokenERKNS_7SdfPathEb, 
                       __ZN38pxrInternal_v0_21__aapl__pxrReserved__15HdChangeTracker16GetTaskDirtyBitsERKNS_7SdfPathE, 
                       __ZN38pxrInternal_v0_21__aapl__pxrReserved__15HdChangeTracker16InstancerRemovedERKNS_7SdfPathE, 
                       __ZN38pxrInternal_v0_21__aapl__pxrReserved__15HdChangeTracker16IsCullStyleDirtyERKNS_7SdfPathE, 
                       __ZN38pxrInternal_v0_21__aapl__pxrReserved__15HdChangeTracker16IsCullStyleDirtyEjRKNS_7SdfPathE, 
                       __ZN38pxrInternal_v0_21__aapl__pxrReserved__15HdChangeTracker16IsInstancerDirtyEjRKNS_7SdfPathE, 
                       __ZN38pxrInternal_v0_21__aapl__pxrReserved__15HdChangeTracker16IsTransformDirtyERKNS_7SdfPathE, 
                       __ZN38pxrInternal_v0_21__aapl__pxrReserved__15HdChangeTracker16IsTransformDirtyEjRKNS_7SdfPathE, 
                       __ZN38pxrInternal_v0_21__aapl__pxrReserved__15HdChangeTracker16MarkPrimvarDirtyEPjRKNS_7TfTokenE, 
                       __ZN38pxrInternal_v0_21__aapl__pxrReserved__15HdChangeTracker16MarkPrimvarDirtyERKNS_7SdfPathERKNS_7TfTokenE, 
                       __ZN38pxrInternal_v0_21__aapl__pxrReserved__15HdChangeTracker17GetBprimDirtyBitsERKNS_7SdfPathE, 
                       __ZN38pxrInternal_v0_21__aapl__pxrReserved__15HdChangeTracker17GetSprimDirtyBitsERKNS_7SdfPathE, 
                       __ZN38pxrInternal_v0_21__aapl__pxrReserved__15HdChangeTracker17InstancerInsertedERKNS_7SdfPathEj, 
                       __ZN38pxrInternal_v0_21__aapl__pxrReserved__15HdChangeTracker17IsAnyPrimvarDirtyERKNS_7SdfPathE, 
                       __ZN38pxrInternal_v0_21__aapl__pxrReserved__15HdChangeTracker17IsAnyPrimvarDirtyEjRKNS_7SdfPathE, 
                       __ZN38pxrInternal_v0_21__aapl__pxrReserved__15HdChangeTracker17IsSubdivTagsDirtyERKNS_7SdfPathE, 
                       __ZN38pxrInternal_v0_21__aapl__pxrReserved__15HdChangeTracker17IsSubdivTagsDirtyEjRKNS_7SdfPathE, 
                       __ZN38pxrInternal_v0_21__aapl__pxrReserved__15HdChangeTracker17IsVisibilityDirtyERKNS_7SdfPathE, 
                       __ZN38pxrInternal_v0_21__aapl__pxrReserved__15HdChangeTracker17IsVisibilityDirtyEjRKNS_7SdfPathE, 
                       __ZN38pxrInternal_v0_21__aapl__pxrReserved__15HdChangeTracker17ResetVaryingStateEv, 
                       __ZN38pxrInternal_v0_21__aapl__pxrReserved__15HdChangeTracker17_RemoveDependencyERN3tbb10interface519concurrent_hash_mapINS_7SdfPathENSt3__13setIS4_NS5_4lessIS4_EENS5_9allocatorIS4_EEEENS0_16_PathHashCompareENS1_13tbb_allocatorINS5_4pairIKS4_SB_EEEEEERSF_SK_, 
                       __ZN38pxrInternal_v0_21__aapl__pxrReserved__15HdChangeTracker18IsDoubleSidedDirtyERKNS_7SdfPathE, 
                       __ZN38pxrInternal_v0_21__aapl__pxrReserved__15HdChangeTracker18IsDoubleSidedDirtyEjRKNS_7SdfPathE, 
                       __ZN38pxrInternal_v0_21__aapl__pxrReserved__15HdChangeTracker18MarkAllRprimsDirtyEj, 
                       __ZN38pxrInternal_v0_21__aapl__pxrReserved__15HdChangeTracker18MarkInstancerCleanERKNS_7SdfPathEj, 
                       __ZN38pxrInternal_v0_21__aapl__pxrReserved__15HdChangeTracker18MarkInstancerDirtyERKNS_7SdfPathEj, 
                       __ZN38pxrInternal_v0_21__aapl__pxrReserved__15HdChangeTracker18StringifyDirtyBitsEj, 
                       __ZN38pxrInternal_v0_21__aapl__pxrReserved__15HdChangeTracker19IsDisplayStyleDirtyERKNS_7SdfPathE, 
                       __ZN38pxrInternal_v0_21__aapl__pxrReserved__15HdChangeTracker19IsDisplayStyleDirtyEjRKNS_7SdfPathE, 
                       __ZN38pxrInternal_v0_21__aapl__pxrReserved__15HdChangeTracker19MarkCollectionDirtyERKNS_7TfTokenE, 
                       __ZN38pxrInternal_v0_21__aapl__pxrReserved__15HdChangeTracker19MarkRenderTagsDirtyEv, 
                       __ZN38pxrInternal_v0_21__aapl__pxrReserved__15HdChangeTracker20IsInstanceIndexDirtyEjRKNS_7SdfPathE, 
                       __ZN38pxrInternal_v0_21__aapl__pxrReserved__15HdChangeTracker21GetInstancerDirtyBitsERKNS_7SdfPathE, 
                       __ZN38pxrInternal_v0_21__aapl__pxrReserved__15HdChangeTracker22ResetRprimVaryingStateERKNS_7SdfPathE, 
                       __ZN38pxrInternal_v0_21__aapl__pxrReserved__15HdChangeTracker27AddInstancerRprimDependencyERKNS_7SdfPathES3_, 
                       __ZN38pxrInternal_v0_21__aapl__pxrReserved__15HdChangeTracker30RemoveInstancerRprimDependencyERKNS_7SdfPathES3_, 
                       __ZN38pxrInternal_v0_21__aapl__pxrReserved__15HdChangeTracker31AddInstancerInstancerDependencyERKNS_7SdfPathES3_, 
                       __ZN38pxrInternal_v0_21__aapl__pxrReserved__15HdChangeTracker34RemoveInstancerInstancerDependencyERKNS_7SdfPathES3_, 
                       __ZN38pxrInternal_v0_21__aapl__pxrReserved__15HdChangeTracker8AddStateERKNS_7TfTokenE, 
                       __ZN38pxrInternal_v0_21__aapl__pxrReserved__15HdChangeTrackerC1Ev, 
                       __ZN38pxrInternal_v0_21__aapl__pxrReserved__15HdChangeTrackerC2Ev, 
                       __ZN38pxrInternal_v0_21__aapl__pxrReserved__15HdChangeTrackerD0Ev, 
                       __ZN38pxrInternal_v0_21__aapl__pxrReserved__15HdChangeTrackerD1Ev, 
                       __ZN38pxrInternal_v0_21__aapl__pxrReserved__15HdChangeTrackerD2Ev, 
                       __ZN38pxrInternal_v0_21__aapl__pxrReserved__15HdSceneDelegate10GetVisibleERKNS_7SdfPathE, 
                       __ZN38pxrInternal_v0_21__aapl__pxrReserved__15HdSceneDelegate12GetCullStyleERKNS_7SdfPathE, 
                       __ZN38pxrInternal_v0_21__aapl__pxrReserved__15HdSceneDelegate12GetRenderTagERKNS_7SdfPathE, 
                       __ZN38pxrInternal_v0_21__aapl__pxrReserved__15HdSceneDelegate12GetTransformERKNS_7SdfPathE, 
                       __ZN38pxrInternal_v0_21__aapl__pxrReserved__15HdSceneDelegate13GetCategoriesERKNS_7SdfPathE, 
                       __ZN38pxrInternal_v0_21__aapl__pxrReserved__15HdSceneDelegate13GetMaterialIdERKNS_7SdfPathE, 
                       __ZN38pxrInternal_v0_21__aapl__pxrReserved__15HdSceneDelegate13GetSubdivTagsERKNS_7SdfPathE, 
                       __ZN38pxrInternal_v0_21__aapl__pxrReserved__15HdSceneDelegate13SamplePrimvarERKNS_7SdfPathERKNS_7TfTokenEmPfPNS_7VtValueE, 
                       __ZN38pxrInternal_v0_21__aapl__pxrReserved__15HdSceneDelegate14GetDoubleSidedERKNS_7SdfPathE, 
                       __ZN38pxrInternal_v0_21__aapl__pxrReserved__15HdSceneDelegate14GetInstancerIdERKNS_7SdfPathE, 
                       __ZN38pxrInternal_v0_21__aapl__pxrReserved__15HdSceneDelegate15GetDisplayStyleERKNS_7SdfPathE, 
                       __ZN38pxrInternal_v0_21__aapl__pxrReserved__15HdSceneDelegate15GetMeshTopologyERKNS_7SdfPathE, 
                       __ZN38pxrInternal_v0_21__aapl__pxrReserved__15HdSceneDelegate15GetReprSelectorERKNS_7SdfPathE, 
                       __ZN38pxrInternal_v0_21__aapl__pxrReserved__15HdSceneDelegate15GetShadingStyleERKNS_7SdfPathE, 
                       __ZN38pxrInternal_v0_21__aapl__pxrReserved__15HdSceneDelegate15PostSyncCleanupEv, 
                       __ZN38pxrInternal_v0_21__aapl__pxrReserved__15HdSceneDelegate15SampleTransformERKNS_7SdfPathEmPfPNS_10GfMatrix4dE, 
                       __ZN38pxrInternal_v0_21__aapl__pxrReserved__15HdSceneDelegate16GetScenePrimPathERKNS_7SdfPathEiPNSt3__16vectorINS4_4pairIS1_iEENS4_9allocatorIS7_EEEE, 
                       __ZN38pxrInternal_v0_21__aapl__pxrReserved__15HdSceneDelegate17GetIndexedPrimvarERKNS_7SdfPathERKNS_7TfTokenEPNS_7VtArrayIiEE, 
                       __ZN38pxrInternal_v0_21__aapl__pxrReserved__15HdSceneDelegate17GetTaskRenderTagsERKNS_7SdfPathE, 
                       __ZN38pxrInternal_v0_21__aapl__pxrReserved__15HdSceneDelegate18GetInstanceIndicesERKNS_7SdfPathES3_, 
                       __ZN38pxrInternal_v0_21__aapl__pxrReserved__15HdSceneDelegate18GetLightParamValueERKNS_7SdfPathERKNS_7TfTokenE, 
                       __ZN38pxrInternal_v0_21__aapl__pxrReserved__15HdSceneDelegate19GetCameraParamValueERKNS_7SdfPathERKNS_7TfTokenE, 
                       __ZN38pxrInternal_v0_21__aapl__pxrReserved__15HdSceneDelegate19GetCoordSysBindingsERKNS_7SdfPathE, 
                       __ZN38pxrInternal_v0_21__aapl__pxrReserved__15HdSceneDelegate19GetMaterialResourceERKNS_7SdfPathE, 
                       __ZN38pxrInternal_v0_21__aapl__pxrReserved__15HdSceneDelegate20InvokeExtComputationERKNS_7SdfPathEPNS_23HdExtComputationContextE, 
                       __ZN38pxrInternal_v0_21__aapl__pxrReserved__15HdSceneDelegate20SampleIndexedPrimvarERKNS_7SdfPathERKNS_7TfTokenEmPfPNS_7VtValueEPNS_7VtArrayIiEE, 
                       __ZN38pxrInternal_v0_21__aapl__pxrReserved__15HdSceneDelegate21GetInstanceCategoriesERKNS_7SdfPathE, 
                       __ZN38pxrInternal_v0_21__aapl__pxrReserved__15HdSceneDelegate21GetInstancerTransformERKNS_7SdfPathE, 
                       __ZN38pxrInternal_v0_21__aapl__pxrReserved__15HdSceneDelegate21GetPrimvarDescriptorsERKNS_7SdfPathENS_15HdInterpolationE, 
                       __ZN38pxrInternal_v0_21__aapl__pxrReserved__15HdSceneDelegate22GetBasisCurvesTopologyERKNS_7SdfPathE, 
                       __ZN38pxrInternal_v0_21__aapl__pxrReserved__15HdSceneDelegate22GetExtComputationInputERKNS_7SdfPathERKNS_7TfTokenE, 
                       __ZN38pxrInternal_v0_21__aapl__pxrReserved__15HdSceneDelegate22GetInstancerPrototypesERKNS_7SdfPathE, 
                       __ZN38pxrInternal_v0_21__aapl__pxrReserved__15HdSceneDelegate23GetExtComputationKernelERKNS_7SdfPathE, 
                       __ZN38pxrInternal_v0_21__aapl__pxrReserved__15HdSceneDelegate24SampleInstancerTransformERKNS_7SdfPathEmPfPNS_10GfMatrix4dE, 
                       __ZN38pxrInternal_v0_21__aapl__pxrReserved__15HdSceneDelegate25GetRenderBufferDescriptorERKNS_7SdfPathE, 
                       __ZN38pxrInternal_v0_21__aapl__pxrReserved__15HdSceneDelegate25GetVolumeFieldDescriptorsERKNS_7SdfPathE, 
                       __ZN38pxrInternal_v0_21__aapl__pxrReserved__15HdSceneDelegate25SampleExtComputationInputERKNS_7SdfPathERKNS_7TfTokenEmPfPNS_7VtValueE, 
                       __ZN38pxrInternal_v0_21__aapl__pxrReserved__15HdSceneDelegate32GetExtComputationSceneInputNamesERKNS_7SdfPathE, 
                       __ZN38pxrInternal_v0_21__aapl__pxrReserved__15HdSceneDelegate33GetExtComputationInputDescriptorsERKNS_7SdfPathE, 
                       __ZN38pxrInternal_v0_21__aapl__pxrReserved__15HdSceneDelegate34GetExtComputationOutputDescriptorsERKNS_7SdfPathE, 
                       __ZN38pxrInternal_v0_21__aapl__pxrReserved__15HdSceneDelegate35GetExtComputationPrimvarDescriptorsERKNS_7SdfPathENS_15HdInterpolationE, 
                       __ZN38pxrInternal_v0_21__aapl__pxrReserved__15HdSceneDelegate3GetERKNS_7SdfPathERKNS_7TfTokenE, 
                       __ZN38pxrInternal_v0_21__aapl__pxrReserved__15HdSceneDelegate4SyncEPNS_19HdSyncRequestVectorE, 
                       __ZN38pxrInternal_v0_21__aapl__pxrReserved__15HdSceneDelegate9GetExtentERKNS_7SdfPathE, 
                       __ZN38pxrInternal_v0_21__aapl__pxrReserved__15HdSceneDelegateC1EPNS_13HdRenderIndexERKNS_7SdfPathE, 
                       __ZN38pxrInternal_v0_21__aapl__pxrReserved__15HdSceneDelegateC2EPNS_13HdRenderIndexERKNS_7SdfPathE, 
                       __ZN38pxrInternal_v0_21__aapl__pxrReserved__15HdSceneDelegateD0Ev, 
                       __ZN38pxrInternal_v0_21__aapl__pxrReserved__15HdSceneDelegateD1Ev, 
                       __ZN38pxrInternal_v0_21__aapl__pxrReserved__15HdSceneDelegateD2Ev, 
                       __ZN38pxrInternal_v0_21__aapl__pxrReserved__15JsWriteToStreamERKNS_7JsValueERNSt3__113basic_ostreamIcNS3_11char_traitsIcEEEE, 
                       __ZN38pxrInternal_v0_21__aapl__pxrReserved__15JsWriteToStringERKNS_7JsValueE, 
                       __ZN38pxrInternal_v0_21__aapl__pxrReserved__15NdrParserPlugin14GetInvalidNodeERKNS_22NdrNodeDiscoveryResultE, 
                       __ZN38pxrInternal_v0_21__aapl__pxrReserved__15NdrParserPluginC2Ev, 
                       __ZN38pxrInternal_v0_21__aapl__pxrReserved__15NdrParserPluginD0Ev, 
                       __ZN38pxrInternal_v0_21__aapl__pxrReserved__15NdrParserPluginD1Ev, 
                       __ZN38pxrInternal_v0_21__aapl__pxrReserved__15NdrParserPluginD2Ev, 
                       __ZN38pxrInternal_v0_21__aapl__pxrReserved__15PcpPrimIterator7advanceEl, 
                       __ZN38pxrInternal_v0_21__aapl__pxrReserved__15PcpPrimIterator9decrementEv, 
                       __ZN38pxrInternal_v0_21__aapl__pxrReserved__15PcpPrimIterator9incrementEv, 
                       __ZN38pxrInternal_v0_21__aapl__pxrReserved__15PcpPrimIteratorC1EPKNS_12PcpPrimIndexEm, 
                       __ZN38pxrInternal_v0_21__aapl__pxrReserved__15PcpPrimIteratorC1Ev, 
                       __ZN38pxrInternal_v0_21__aapl__pxrReserved__15PcpPrimIteratorC2EPKNS_12PcpPrimIndexEm, 
                       __ZN38pxrInternal_v0_21__aapl__pxrReserved__15PcpPrimIteratorC2Ev, 
                       __ZN38pxrInternal_v0_21__aapl__pxrReserved__15SdfAbstractData17SetDictValueByKeyERKNS_7SdfPathERKNS_7TfTokenES6_RKNS_25SdfAbstractDataConstValueE, 
                       __ZN38pxrInternal_v0_21__aapl__pxrReserved__15SdfAbstractData17SetDictValueByKeyERKNS_7SdfPathERKNS_7TfTokenES6_RKNS_7VtValueE, 
                       __ZN38pxrInternal_v0_21__aapl__pxrReserved__15SdfAbstractData19EraseDictValueByKeyERKNS_7SdfPathERKNS_7TfTokenES6_, 
                       __ZN38pxrInternal_v0_21__aapl__pxrReserved__15SdfAbstractData8CopyFromERKNS_9TfWeakPtrIKS0_EE, 
                       __ZN38pxrInternal_v0_21__aapl__pxrReserved__15SdfAbstractDataD0Ev, 
                       __ZN38pxrInternal_v0_21__aapl__pxrReserved__15SdfAbstractDataD1Ev, 
                       __ZN38pxrInternal_v0_21__aapl__pxrReserved__15SdfAbstractDataD2Ev, 
                       __ZN38pxrInternal_v0_21__aapl__pxrReserved__15SdfChildrenKeysE, 
                       __ZN38pxrInternal_v0_21__aapl__pxrReserved__15SdfCreateHandleINS_8SdfLayerEEENS_11SdfHandleToIT_E6HandleEPS3_, 
                       __ZN38pxrInternal_v0_21__aapl__pxrReserved__15SdfPropertySpec10SetCommentERKNSt3__112basic_stringIcNS1_11char_traitsIcEENS1_9allocatorIcEEEE, 
                       __ZN38pxrInternal_v0_21__aapl__pxrReserved__15SdfPropertySpec11IsValidNameERKNSt3__112basic_stringIcNS1_11char_traitsIcEENS1_9allocatorIcEEEE, 
                       __ZN38pxrInternal_v0_21__aapl__pxrReserved__15SdfPropertySpec12SetAssetInfoERKNSt3__112basic_stringIcNS1_11char_traitsIcEENS1_9allocatorIcEEEERKNS_7VtValueE, 
                       __ZN38pxrInternal_v0_21__aapl__pxrReserved__15SdfPropertySpec13SetCustomDataERKNSt3__112basic_stringIcNS1_11char_traitsIcEENS1_9allocatorIcEEEERKNS_7VtValueE, 
                       __ZN38pxrInternal_v0_21__aapl__pxrReserved__15SdfPropertySpec13SetPermissionENS_13SdfPermissionE, 
                       __ZN38pxrInternal_v0_21__aapl__pxrReserved__15SdfPropertySpec14SetDisplayNameERKNSt3__112basic_stringIcNS1_11char_traitsIcEENS1_9allocatorIcEEEE, 
                       __ZN38pxrInternal_v0_21__aapl__pxrReserved__15SdfPropertySpec15SetDefaultValueERKNS_7VtValueE, 
                       __ZN38pxrInternal_v0_21__aapl__pxrReserved__15SdfPropertySpec15SetDisplayGroupERKNSt3__112basic_stringIcNS1_11char_traitsIcEENS1_9allocatorIcEEEE, 
                       __ZN38pxrInternal_v0_21__aapl__pxrReserved__15SdfPropertySpec16SetDocumentationERKNSt3__112basic_stringIcNS1_11char_traitsIcEENS1_9allocatorIcEEEE, 
                       __ZN38pxrInternal_v0_21__aapl__pxrReserved__15SdfPropertySpec16SetSymmetricPeerERKNSt3__112basic_stringIcNS1_11char_traitsIcEENS1_9allocatorIcEEEE, 
                       __ZN38pxrInternal_v0_21__aapl__pxrReserved__15SdfPropertySpec17ClearDefaultValueEv, 
                       __ZN38pxrInternal_v0_21__aapl__pxrReserved__15SdfPropertySpec19SetSymmetryArgumentERKNSt3__112basic_stringIcNS1_11char_traitsIcEENS1_9allocatorIcEEEERKNS_7VtValueE, 
                       __ZN38pxrInternal_v0_21__aapl__pxrReserved__15SdfPropertySpec19SetSymmetryFunctionERKNS_7TfTokenE, 
                       __ZN38pxrInternal_v0_21__aapl__pxrReserved__15SdfPropertySpec7SetNameERKNSt3__112basic_stringIcNS1_11char_traitsIcEENS1_9allocatorIcEEEEb, 
                       __ZN38pxrInternal_v0_21__aapl__pxrReserved__15SdfPropertySpec9SetCustomEb, 
                       __ZN38pxrInternal_v0_21__aapl__pxrReserved__15SdfPropertySpec9SetHiddenEb, 
                       __ZN38pxrInternal_v0_21__aapl__pxrReserved__15SdfPropertySpec9SetPrefixERKNSt3__112basic_stringIcNS1_11char_traitsIcEENS1_9allocatorIcEEEE, 
                       __ZN38pxrInternal_v0_21__aapl__pxrReserved__15SdfPropertySpec9SetSuffixERKNSt3__112basic_stringIcNS1_11char_traitsIcEENS1_9allocatorIcEEEE, 
                       __ZN38pxrInternal_v0_21__aapl__pxrReserved__15SdfUnitCategoryERKNS_6TfEnumE, 
                       __ZN38pxrInternal_v0_21__aapl__pxrReserved__15SdrNodeMetadataE, 
                       __ZN38pxrInternal_v0_21__aapl__pxrReserved__15SdrPropertyRoleE, 
                       __ZN38pxrInternal_v0_21__aapl__pxrReserved__15TfDiagnosticMgr10EraseErrorENSt3__115__list_iteratorINS_7TfErrorEPvEE, 
                       __ZN38pxrInternal_v0_21__aapl__pxrReserved__15TfDiagnosticMgr10EraseRangeENSt3__115__list_iteratorINS_7TfErrorEPvEES5_, 
                       __ZN38pxrInternal_v0_21__aapl__pxrReserved__15TfDiagnosticMgr11AddDelegateEPNS0_8DelegateE, 
                       __ZN38pxrInternal_v0_21__aapl__pxrReserved__15TfDiagnosticMgr11AppendErrorERKNS_7TfErrorE, 
                       __ZN38pxrInternal_v0_21__aapl__pxrReserved__15TfDiagnosticMgr11GetCodeNameERKNS_6TfEnumE, 
                       __ZN38pxrInternal_v0_21__aapl__pxrReserved__15TfDiagnosticMgr12_ReportErrorERKNS_7TfErrorE, 
                       __ZN38pxrInternal_v0_21__aapl__pxrReserved__15TfDiagnosticMgr13_SpliceErrorsERNSt3__14listINS_7TfErrorENS1_9allocatorIS3_EEEE, 
                       __ZN38pxrInternal_v0_21__aapl__pxrReserved__15TfDiagnosticMgr14RemoveDelegateEPNS0_8DelegateE, 
                       __ZN38pxrInternal_v0_21__aapl__pxrReserved__15TfDiagnosticMgr16FormatDiagnosticERKNS_6TfEnumERKNS_13TfCallContextERKNSt3__112basic_stringIcNS7_11char_traitsIcEENS7_9allocatorIcEEEERKN5boost3anyE, 
                       __ZN38pxrInternal_v0_21__aapl__pxrReserved__15TfDiagnosticMgr18_GetErrorMarkBeginEmPm, 
                       __ZN38pxrInternal_v0_21__aapl__pxrReserved__15TfDiagnosticMgr20_RebuildErrorLogTextEv, 
                       __ZN38pxrInternal_v0_21__aapl__pxrReserved__15TfDiagnosticMgr22_AppendErrorsToLogTextENSt3__115__list_iteratorINS_7TfErrorEPvEE, 
                       __ZN38pxrInternal_v0_21__aapl__pxrReserved__15TfDiagnosticMgr8_LogText16AppendAndPublishENSt3__115__list_iteratorINS_7TfErrorEPvEES6_, 
                       __ZN38pxrInternal_v0_21__aapl__pxrReserved__15TfDiagnosticMgr8_LogText17RebuildAndPublishENSt3__115__list_iteratorINS_7TfErrorEPvEES6_, 
                       __ZN38pxrInternal_v0_21__aapl__pxrReserved__15TfDiagnosticMgr8_LogText21_AppendAndPublishImplEbNSt3__115__list_iteratorINS_7TfErrorEPvEES6_, 
                       __ZN38pxrInternal_v0_21__aapl__pxrReserved__15TfDiagnosticMgr9PostErrorENS_6TfEnumEPKcRKNS_13TfCallContextERKNSt3__112basic_stringIcNS7_11char_traitsIcEENS7_9allocatorIcEEEEN5boost3anyEb, 
                       __ZN38pxrInternal_v0_21__aapl__pxrReserved__15TfDiagnosticMgr9PostErrorERKNS_16TfDiagnosticBaseE, 
                       __ZN38pxrInternal_v0_21__aapl__pxrReserved__15TfDiagnosticMgrC1Ev, 
                       __ZN38pxrInternal_v0_21__aapl__pxrReserved__15TfDiagnosticMgrC2Ev, 
                       __ZN38pxrInternal_v0_21__aapl__pxrReserved__15TfDiagnosticMgrD0Ev, 
                       __ZN38pxrInternal_v0_21__aapl__pxrReserved__15TfDiagnosticMgrD1Ev, 
                       __ZN38pxrInternal_v0_21__aapl__pxrReserved__15TfDiagnosticMgrD2Ev, 
                       __ZN38pxrInternal_v0_21__aapl__pxrReserved__15TfGetStackTraceEv, 
                       __ZN38pxrInternal_v0_21__aapl__pxrReserved__15TfLogStackTraceERKNSt3__112basic_stringIcNS0_11char_traitsIcEENS0_9allocatorIcEEEEb, 
                       __ZN38pxrInternal_v0_21__aapl__pxrReserved__15TfRefPtrTracker13_RemoveTracesEPKv, 
                       __ZN38pxrInternal_v0_21__aapl__pxrReserved__15TfRefPtrTracker6_WatchEPKNS_9TfRefBaseE, 
                       __ZN38pxrInternal_v0_21__aapl__pxrReserved__15TfRefPtrTracker8_UnwatchEPKNS_9TfRefBaseE, 
                       __ZN38pxrInternal_v0_21__aapl__pxrReserved__15TfRefPtrTracker9_AddTraceEPKvPKNS_9TfRefBaseENS0_9TraceTypeE, 
                       __ZN38pxrInternal_v0_21__aapl__pxrReserved__15TfRefPtrTrackerC1Ev, 
                       __ZN38pxrInternal_v0_21__aapl__pxrReserved__15TfRefPtrTrackerC2Ev, 
                       __ZN38pxrInternal_v0_21__aapl__pxrReserved__15TfRefPtrTrackerD1Ev, 
                       __ZN38pxrInternal_v0_21__aapl__pxrReserved__15TfRefPtrTrackerD2Ev, 
                       __ZN38pxrInternal_v0_21__aapl__pxrReserved__15TfSimpleRefBaseD0Ev, 
                       __ZN38pxrInternal_v0_21__aapl__pxrReserved__15TfSimpleRefBaseD1Ev, 
                       __ZN38pxrInternal_v0_21__aapl__pxrReserved__15TfSimpleRefBaseD2Ev, 
                       __ZN38pxrInternal_v0_21__aapl__pxrReserved__15TfStringReplaceERKNSt3__112basic_stringIcNS0_11char_traitsIcEENS0_9allocatorIcEEEES8_S8_, 
                       __ZN38pxrInternal_v0_21__aapl__pxrReserved__15TfStringToInt64EPKcPb, 
                       __ZN38pxrInternal_v0_21__aapl__pxrReserved__15TfStringToInt64ERKNSt3__112basic_stringIcNS0_11char_traitsIcEENS0_9allocatorIcEEEEPb, 
                       __ZN38pxrInternal_v0_21__aapl__pxrReserved__15TfStringToLowerERKNSt3__112basic_stringIcNS0_11char_traitsIcEENS0_9allocatorIcEEEE, 
                       __ZN38pxrInternal_v0_21__aapl__pxrReserved__15TfStringToULongEPKcPb, 
                       __ZN38pxrInternal_v0_21__aapl__pxrReserved__15TfStringToULongERKNSt3__112basic_stringIcNS0_11char_traitsIcEENS0_9allocatorIcEEEEPb, 
                       __ZN38pxrInternal_v0_21__aapl__pxrReserved__15TfStringToUpperERKNSt3__112basic_stringIcNS0_11char_traitsIcEENS0_9allocatorIcEEEE, 
                       __ZN38pxrInternal_v0_21__aapl__pxrReserved__15TfToTokenVectorERKNSt3__16vectorINS0_12basic_stringIcNS0_11char_traitsIcEENS0_9allocatorIcEEEENS5_IS7_EEEE, 
                       __ZN38pxrInternal_v0_21__aapl__pxrReserved__15Tf_RegistryInit3AddEPKcPFvPvS3_ES2_, 
                       __ZN38pxrInternal_v0_21__aapl__pxrReserved__15Tf_RegistryInitC1EPKc, 
                       __ZN38pxrInternal_v0_21__aapl__pxrReserved__15Tf_RegistryInitC2EPKc, 
                       __ZN38pxrInternal_v0_21__aapl__pxrReserved__15Tf_RegistryInitD1Ev, 
                       __ZN38pxrInternal_v0_21__aapl__pxrReserved__15Tf_RegistryInitD2Ev, 
                       __ZN38pxrInternal_v0_21__aapl__pxrReserved__15TraceCollection15AddToCollectionERKNS_13TraceThreadIdEONSt3__110unique_ptrINS_14TraceEventListENS4_14default_deleteIS6_EEEE, 
                       __ZN38pxrInternal_v0_21__aapl__pxrReserved__15TraceCollection7VisitorD0Ev, 
                       __ZN38pxrInternal_v0_21__aapl__pxrReserved__15TraceCollection7VisitorD1Ev, 
                       __ZN38pxrInternal_v0_21__aapl__pxrReserved__15TraceCollection7VisitorD2Ev, 
                       __ZN38pxrInternal_v0_21__aapl__pxrReserved__15TraceDataBuffer9Allocator13AllocateBlockEmm, 
                       __ZN38pxrInternal_v0_21__aapl__pxrReserved__15UsdGeomCylinder13ComputeExtentEddRKNS_7TfTokenEPNS_7VtArrayINS_7GfVec3fEEE, 
                       __ZN38pxrInternal_v0_21__aapl__pxrReserved__15UsdGeomCylinder13ComputeExtentEddRKNS_7TfTokenERKNS_10GfMatrix4dEPNS_7VtArrayINS_7GfVec3fEEE, 
                       __ZN38pxrInternal_v0_21__aapl__pxrReserved__15UsdGeomCylinder14_IsTypedSchemaEv, 
                       __ZN38pxrInternal_v0_21__aapl__pxrReserved__15UsdGeomCylinder16_GetStaticTfTypeEv, 
                       __ZN38pxrInternal_v0_21__aapl__pxrReserved__15UsdGeomCylinder23GetSchemaAttributeNamesEb, 
                       __ZN38pxrInternal_v0_21__aapl__pxrReserved__15UsdGeomCylinder3GetERKNS_9TfWeakPtrINS_8UsdStageEEERKNS_7SdfPathE, 
                       __ZN38pxrInternal_v0_21__aapl__pxrReserved__15UsdGeomCylinder6DefineERKNS_9TfWeakPtrINS_8UsdStageEEERKNS_7SdfPathE, 
                       __ZN38pxrInternal_v0_21__aapl__pxrReserved__15UsdGeomCylinderD0Ev, 
                       __ZN38pxrInternal_v0_21__aapl__pxrReserved__15UsdGeomCylinderD1Ev, 
                       __ZN38pxrInternal_v0_21__aapl__pxrReserved__15UsdGeomCylinderD2Ev, 
                       __ZN38pxrInternal_v0_21__aapl__pxrReserved__15UsdGeomModelAPI14_IsTypedSchemaEv, 
                       __ZN38pxrInternal_v0_21__aapl__pxrReserved__15UsdGeomModelAPI16_GetStaticTfTypeEv, 
                       __ZN38pxrInternal_v0_21__aapl__pxrReserved__15UsdGeomModelAPI23GetSchemaAttributeNamesEb, 
                       __ZN38pxrInternal_v0_21__aapl__pxrReserved__15UsdGeomModelAPI3GetERKNS_9TfWeakPtrINS_8UsdStageEEERKNS_7SdfPathE, 
                       __ZN38pxrInternal_v0_21__aapl__pxrReserved__15UsdGeomModelAPI5ApplyERKNS_7UsdPrimE, 
                       __ZN38pxrInternal_v0_21__aapl__pxrReserved__15UsdGeomModelAPI8CanApplyERKNS_7UsdPrimEPNSt3__112basic_stringIcNS4_11char_traitsIcEENS4_9allocatorIcEEEE, 
                       __ZN38pxrInternal_v0_21__aapl__pxrReserved__15UsdGeomModelAPID0Ev, 
                       __ZN38pxrInternal_v0_21__aapl__pxrReserved__15UsdGeomModelAPID1Ev, 
                       __ZN38pxrInternal_v0_21__aapl__pxrReserved__15UsdGeomModelAPID2Ev, 
                       __ZN38pxrInternal_v0_21__aapl__pxrReserved__15UsdLuxDiskLight14_IsTypedSchemaEv, 
                       __ZN38pxrInternal_v0_21__aapl__pxrReserved__15UsdLuxDiskLight16_GetStaticTfTypeEv, 
                       __ZN38pxrInternal_v0_21__aapl__pxrReserved__15UsdLuxDiskLight23GetSchemaAttributeNamesEb, 
                       __ZN38pxrInternal_v0_21__aapl__pxrReserved__15UsdLuxDiskLight3GetERKNS_9TfWeakPtrINS_8UsdStageEEERKNS_7SdfPathE, 
                       __ZN38pxrInternal_v0_21__aapl__pxrReserved__15UsdLuxDiskLight6DefineERKNS_9TfWeakPtrINS_8UsdStageEEERKNS_7SdfPathE, 
                       __ZN38pxrInternal_v0_21__aapl__pxrReserved__15UsdLuxDiskLightD0Ev, 
                       __ZN38pxrInternal_v0_21__aapl__pxrReserved__15UsdLuxDiskLightD1Ev, 
                       __ZN38pxrInternal_v0_21__aapl__pxrReserved__15UsdLuxDiskLightD2Ev, 
                       __ZN38pxrInternal_v0_21__aapl__pxrReserved__15UsdLuxDomeLight14_IsTypedSchemaEv, 
                       __ZN38pxrInternal_v0_21__aapl__pxrReserved__15UsdLuxDomeLight16_GetStaticTfTypeEv, 
                       __ZN38pxrInternal_v0_21__aapl__pxrReserved__15UsdLuxDomeLight23GetSchemaAttributeNamesEb, 
                       __ZN38pxrInternal_v0_21__aapl__pxrReserved__15UsdLuxDomeLight3GetERKNS_9TfWeakPtrINS_8UsdStageEEERKNS_7SdfPathE, 
                       __ZN38pxrInternal_v0_21__aapl__pxrReserved__15UsdLuxDomeLight6DefineERKNS_9TfWeakPtrINS_8UsdStageEEERKNS_7SdfPathE, 
                       __ZN38pxrInternal_v0_21__aapl__pxrReserved__15UsdLuxDomeLightD0Ev, 
                       __ZN38pxrInternal_v0_21__aapl__pxrReserved__15UsdLuxDomeLightD1Ev, 
                       __ZN38pxrInternal_v0_21__aapl__pxrReserved__15UsdLuxDomeLightD2Ev, 
                       __ZN38pxrInternal_v0_21__aapl__pxrReserved__15UsdLuxRectLight14_IsTypedSchemaEv, 
                       __ZN38pxrInternal_v0_21__aapl__pxrReserved__15UsdLuxRectLight16_GetStaticTfTypeEv, 
                       __ZN38pxrInternal_v0_21__aapl__pxrReserved__15UsdLuxRectLight23GetSchemaAttributeNamesEb, 
                       __ZN38pxrInternal_v0_21__aapl__pxrReserved__15UsdLuxRectLight3GetERKNS_9TfWeakPtrINS_8UsdStageEEERKNS_7SdfPathE, 
                       __ZN38pxrInternal_v0_21__aapl__pxrReserved__15UsdLuxRectLight6DefineERKNS_9TfWeakPtrINS_8UsdStageEEERKNS_7SdfPathE, 
                       __ZN38pxrInternal_v0_21__aapl__pxrReserved__15UsdLuxRectLightD0Ev, 
                       __ZN38pxrInternal_v0_21__aapl__pxrReserved__15UsdLuxRectLightD1Ev, 
                       __ZN38pxrInternal_v0_21__aapl__pxrReserved__15UsdLuxRectLightD2Ev, 
                       __ZN38pxrInternal_v0_21__aapl__pxrReserved__15UsdLuxShadowAPI11CreateInputERKNS_7TfTokenERKNS_16SdfValueTypeNameE, 
                       __ZN38pxrInternal_v0_21__aapl__pxrReserved__15UsdLuxShadowAPI12CreateOutputERKNS_7TfTokenERKNS_16SdfValueTypeNameE, 
                       __ZN38pxrInternal_v0_21__aapl__pxrReserved__15UsdLuxShadowAPI14_IsTypedSchemaEv, 
                       __ZN38pxrInternal_v0_21__aapl__pxrReserved__15UsdLuxShadowAPI16_GetStaticTfTypeEv, 
                       __ZN38pxrInternal_v0_21__aapl__pxrReserved__15UsdLuxShadowAPI23GetSchemaAttributeNamesEb, 
                       __ZN38pxrInternal_v0_21__aapl__pxrReserved__15UsdLuxShadowAPI3GetERKNS_9TfWeakPtrINS_8UsdStageEEERKNS_7SdfPathE, 
                       __ZN38pxrInternal_v0_21__aapl__pxrReserved__15UsdLuxShadowAPI5ApplyERKNS_7UsdPrimE, 
                       __ZN38pxrInternal_v0_21__aapl__pxrReserved__15UsdLuxShadowAPI8CanApplyERKNS_7UsdPrimEPNSt3__112basic_stringIcNS4_11char_traitsIcEENS4_9allocatorIcEEEE, 
                       __ZN38pxrInternal_v0_21__aapl__pxrReserved__15UsdLuxShadowAPIC1ERKNS_22UsdShadeConnectableAPIE, 
                       __ZN38pxrInternal_v0_21__aapl__pxrReserved__15UsdLuxShadowAPIC2ERKNS_22UsdShadeConnectableAPIE, 
                       __ZN38pxrInternal_v0_21__aapl__pxrReserved__15UsdLuxShadowAPID0Ev, 
                       __ZN38pxrInternal_v0_21__aapl__pxrReserved__15UsdLuxShadowAPID1Ev, 
                       __ZN38pxrInternal_v0_21__aapl__pxrReserved__15UsdLuxShadowAPID2Ev, 
                       __ZN38pxrInternal_v0_21__aapl__pxrReserved__15UsdPhysicsJoint14_IsTypedSchemaEv, 
                       __ZN38pxrInternal_v0_21__aapl__pxrReserved__15UsdPhysicsJoint16_GetStaticTfTypeEv, 
                       __ZN38pxrInternal_v0_21__aapl__pxrReserved__15UsdPhysicsJoint23GetSchemaAttributeNamesEb, 
                       __ZN38pxrInternal_v0_21__aapl__pxrReserved__15UsdPhysicsJoint3GetERKNS_9TfWeakPtrINS_8UsdStageEEERKNS_7SdfPathE, 
                       __ZN38pxrInternal_v0_21__aapl__pxrReserved__15UsdPhysicsJoint6DefineERKNS_9TfWeakPtrINS_8UsdStageEEERKNS_7SdfPathE, 
                       __ZN38pxrInternal_v0_21__aapl__pxrReserved__15UsdPhysicsJointD0Ev, 
                       __ZN38pxrInternal_v0_21__aapl__pxrReserved__15UsdPhysicsJointD1Ev, 
                       __ZN38pxrInternal_v0_21__aapl__pxrReserved__15UsdPhysicsJointD2Ev, 
                       __ZN38pxrInternal_v0_21__aapl__pxrReserved__15UsdPhysicsScene14_IsTypedSchemaEv, 
                       __ZN38pxrInternal_v0_21__aapl__pxrReserved__15UsdPhysicsScene16_GetStaticTfTypeEv, 
                       __ZN38pxrInternal_v0_21__aapl__pxrReserved__15UsdPhysicsScene23GetSchemaAttributeNamesEb, 
                       __ZN38pxrInternal_v0_21__aapl__pxrReserved__15UsdPhysicsScene3GetERKNS_9TfWeakPtrINS_8UsdStageEEERKNS_7SdfPathE, 
                       __ZN38pxrInternal_v0_21__aapl__pxrReserved__15UsdPhysicsScene6DefineERKNS_9TfWeakPtrINS_8UsdStageEEERKNS_7SdfPathE, 
                       __ZN38pxrInternal_v0_21__aapl__pxrReserved__15UsdPhysicsSceneD0Ev, 
                       __ZN38pxrInternal_v0_21__aapl__pxrReserved__15UsdPhysicsSceneD1Ev, 
                       __ZN38pxrInternal_v0_21__aapl__pxrReserved__15UsdPhysicsSceneD2Ev, 
                       __ZN38pxrInternal_v0_21__aapl__pxrReserved__15UsdPrimTypeInfo16GetEmptyPrimTypeEv, 
                       __ZN38pxrInternal_v0_21__aapl__pxrReserved__15UsdPrimTypeInfoC1EONS0_7_TypeIdE, 
                       __ZN38pxrInternal_v0_21__aapl__pxrReserved__15UsdPrimTypeInfoC2EONS0_7_TypeIdE, 
                       __ZN38pxrInternal_v0_21__aapl__pxrReserved__15UsdRenderTokensE, 
                       __ZN38pxrInternal_v0_21__aapl__pxrReserved__15UsdRiRisPattern14_IsTypedSchemaEv, 
                       __ZN38pxrInternal_v0_21__aapl__pxrReserved__15UsdRiRisPattern16_GetStaticTfTypeEv, 
                       __ZN38pxrInternal_v0_21__aapl__pxrReserved__15UsdRiRisPattern23GetSchemaAttributeNamesEb, 
                       __ZN38pxrInternal_v0_21__aapl__pxrReserved__15UsdRiRisPattern3GetERKNS_9TfWeakPtrINS_8UsdStageEEERKNS_7SdfPathE, 
                       __ZN38pxrInternal_v0_21__aapl__pxrReserved__15UsdRiRisPattern6DefineERKNS_9TfWeakPtrINS_8UsdStageEEERKNS_7SdfPathE, 
                       __ZN38pxrInternal_v0_21__aapl__pxrReserved__15UsdRiRisPatternD0Ev, 
                       __ZN38pxrInternal_v0_21__aapl__pxrReserved__15UsdRiRisPatternD1Ev, 
                       __ZN38pxrInternal_v0_21__aapl__pxrReserved__15UsdRiRisPatternD2Ev, 
                       __ZN38pxrInternal_v0_21__aapl__pxrReserved__15UsdRiTextureAPI14_IsTypedSchemaEv, 
                       __ZN38pxrInternal_v0_21__aapl__pxrReserved__15UsdRiTextureAPI16_GetStaticTfTypeEv, 
                       __ZN38pxrInternal_v0_21__aapl__pxrReserved__15UsdRiTextureAPI23GetSchemaAttributeNamesEb, 
                       __ZN38pxrInternal_v0_21__aapl__pxrReserved__15UsdRiTextureAPI3GetERKNS_9TfWeakPtrINS_8UsdStageEEERKNS_7SdfPathE, 
                       __ZN38pxrInternal_v0_21__aapl__pxrReserved__15UsdRiTextureAPI5ApplyERKNS_7UsdPrimE, 
                       __ZN38pxrInternal_v0_21__aapl__pxrReserved__15UsdRiTextureAPI8CanApplyERKNS_7UsdPrimEPNSt3__112basic_stringIcNS4_11char_traitsIcEENS4_9allocatorIcEEEE, 
                       __ZN38pxrInternal_v0_21__aapl__pxrReserved__15UsdRiTextureAPID0Ev, 
                       __ZN38pxrInternal_v0_21__aapl__pxrReserved__15UsdRiTextureAPID1Ev, 
                       __ZN38pxrInternal_v0_21__aapl__pxrReserved__15UsdRiTextureAPID2Ev, 
                       __ZN38pxrInternal_v0_21__aapl__pxrReserved__15UsdRiTokensTypeC1Ev, 
                       __ZN38pxrInternal_v0_21__aapl__pxrReserved__15UsdRiTokensTypeC2Ev, 
                       __ZN38pxrInternal_v0_21__aapl__pxrReserved__15UsdSkelSkeleton14_IsTypedSchemaEv, 
                       __ZN38pxrInternal_v0_21__aapl__pxrReserved__15UsdSkelSkeleton16_GetStaticTfTypeEv, 
                       __ZN38pxrInternal_v0_21__aapl__pxrReserved__15UsdSkelSkeleton23GetSchemaAttributeNamesEb, 
                       __ZN38pxrInternal_v0_21__aapl__pxrReserved__15UsdSkelSkeleton3GetERKNS_9TfWeakPtrINS_8UsdStageEEERKNS_7SdfPathE, 
                       __ZN38pxrInternal_v0_21__aapl__pxrReserved__15UsdSkelSkeleton6DefineERKNS_9TfWeakPtrINS_8UsdStageEEERKNS_7SdfPathE, 
                       __ZN38pxrInternal_v0_21__aapl__pxrReserved__15UsdSkelSkeletonD0Ev, 
                       __ZN38pxrInternal_v0_21__aapl__pxrReserved__15UsdSkelSkeletonD1Ev, 
                       __ZN38pxrInternal_v0_21__aapl__pxrReserved__15UsdSkelSkeletonD2Ev, 
                       __ZN38pxrInternal_v0_21__aapl__pxrReserved__15UsdSkelTopologyC1ENS_6TfSpanIKNS_7SdfPathEEE, 
                       __ZN38pxrInternal_v0_21__aapl__pxrReserved__15UsdSkelTopologyC1ENS_6TfSpanIKNS_7TfTokenEEE, 
                       __ZN38pxrInternal_v0_21__aapl__pxrReserved__15UsdSkelTopologyC1ERKNS_7VtArrayIiEE, 
                       __ZN38pxrInternal_v0_21__aapl__pxrReserved__15UsdSkelTopologyC2ENS_6TfSpanIKNS_7SdfPathEEE, 
                       __ZN38pxrInternal_v0_21__aapl__pxrReserved__15UsdSkelTopologyC2ENS_6TfSpanIKNS_7TfTokenEEE, 
                       __ZN38pxrInternal_v0_21__aapl__pxrReserved__15UsdSkelTopologyC2ERKNS_7VtArrayIiEE, 
                       __ZN38pxrInternal_v0_21__aapl__pxrReserved__15UsdUITokensTypeC1Ev, 
                       __ZN38pxrInternal_v0_21__aapl__pxrReserved__15UsdUITokensTypeC2Ev, 
                       __ZN38pxrInternal_v0_21__aapl__pxrReserved__15UsdVolFieldBase14_IsTypedSchemaEv, 
                       __ZN38pxrInternal_v0_21__aapl__pxrReserved__15UsdVolFieldBase16_GetStaticTfTypeEv, 
                       __ZN38pxrInternal_v0_21__aapl__pxrReserved__15UsdVolFieldBase23GetSchemaAttributeNamesEb, 
                       __ZN38pxrInternal_v0_21__aapl__pxrReserved__15UsdVolFieldBase3GetERKNS_9TfWeakPtrINS_8UsdStageEEERKNS_7SdfPathE, 
                       __ZN38pxrInternal_v0_21__aapl__pxrReserved__15UsdVolFieldBaseD0Ev, 
                       __ZN38pxrInternal_v0_21__aapl__pxrReserved__15UsdVolFieldBaseD1Ev, 
                       __ZN38pxrInternal_v0_21__aapl__pxrReserved__15UsdVolFieldBaseD2Ev, 
                       __ZN38pxrInternal_v0_21__aapl__pxrReserved__16ArCreateResolverERKNS_6TfTypeE, 
                       __ZN38pxrInternal_v0_21__aapl__pxrReserved__16ArMemoryResolver12GetExtensionERKNSt3__112basic_stringIcNS1_11char_traitsIcEENS1_9allocatorIcEEEE, 
                       __ZN38pxrInternal_v0_21__aapl__pxrReserved__16ArMemoryResolver19CanWriteLayerToPathERKNSt3__112basic_stringIcNS1_11char_traitsIcEENS1_9allocatorIcEEEEPS7_, 
                       __ZN38pxrInternal_v0_21__aapl__pxrReserved__16ArMemoryResolver20ResolveWithAssetInfoERKNSt3__112basic_stringIcNS1_11char_traitsIcEENS1_9allocatorIcEEEEPNS_11ArAssetInfoE, 
                       __ZN38pxrInternal_v0_21__aapl__pxrReserved__16ArMemoryResolver21ComputeNormalizedPathERKNSt3__112basic_stringIcNS1_11char_traitsIcEENS1_9allocatorIcEEEE, 
                       __ZN38pxrInternal_v0_21__aapl__pxrReserved__16ArMemoryResolver24GetModificationTimestampERKNSt3__112basic_stringIcNS1_11char_traitsIcEENS1_9allocatorIcEEEES9_, 
                       __ZN38pxrInternal_v0_21__aapl__pxrReserved__16ArMemoryResolver31CanCreateNewLayerWithIdentifierERKNSt3__112basic_stringIcNS1_11char_traitsIcEENS1_9allocatorIcEEEEPS7_, 
                       __ZN38pxrInternal_v0_21__aapl__pxrReserved__16ArMemoryResolver7ResolveERKNSt3__112basic_stringIcNS1_11char_traitsIcEENS1_9allocatorIcEEEE, 
                       __ZN38pxrInternal_v0_21__aapl__pxrReserved__16ArMemoryResolver9OpenAssetERKNSt3__112basic_stringIcNS1_11char_traitsIcEENS1_9allocatorIcEEEE, 
                       __ZN38pxrInternal_v0_21__aapl__pxrReserved__16ArchDebuggerTrapEv, 
                       __ZN38pxrInternal_v0_21__aapl__pxrReserved__16ArchDebuggerWaitEb, 
                       __ZN38pxrInternal_v0_21__aapl__pxrReserved__16ArchGetDemangledEPKc, 
                       __ZN38pxrInternal_v0_21__aapl__pxrReserved__16ArchGetDemangledERKNSt3__112basic_stringIcNS0_11char_traitsIcEENS0_9allocatorIcEEEE, 
                       __ZN38pxrInternal_v0_21__aapl__pxrReserved__16ArchIsMainThreadEv, 
                       __ZN38pxrInternal_v0_21__aapl__pxrReserved__16ArchLibraryCloseEPv, 
                       __ZN38pxrInternal_v0_21__aapl__pxrReserved__16ArchLibraryErrorEv, 
                       __ZN38pxrInternal_v0_21__aapl__pxrReserved__16ArchStringPrintfEPKcz, 
                       __ZN38pxrInternal_v0_21__aapl__pxrReserved__16GfGetHomogenizedERKNS_7GfVec4dE, 
                       __ZN38pxrInternal_v0_21__aapl__pxrReserved__16GfGetHomogenizedERKNS_7GfVec4fE, 
                       __ZN38pxrInternal_v0_21__aapl__pxrReserved__16HdBufferResourceC1ERKNS_7TfTokenENS_11HdTupleTypeEii, 
                       __ZN38pxrInternal_v0_21__aapl__pxrReserved__16HdBufferResourceC2ERKNS_7TfTokenENS_11HdTupleTypeEii, 
                       __ZN38pxrInternal_v0_21__aapl__pxrReserved__16HdBufferResourceD0Ev, 
                       __ZN38pxrInternal_v0_21__aapl__pxrReserved__16HdBufferResourceD1Ev, 
                       __ZN38pxrInternal_v0_21__aapl__pxrReserved__16HdBufferResourceD2Ev, 
                       __ZN38pxrInternal_v0_21__aapl__pxrReserved__16HdDataSizeOfTypeENS_6HdTypeE, 
                       __ZN38pxrInternal_v0_21__aapl__pxrReserved__16HdExtComputation34_IsEnabledSharedExtComputationDataEv, 
                       __ZN38pxrInternal_v0_21__aapl__pxrReserved__16HdExtComputation4SyncEPNS_15HdSceneDelegateEPNS_13HdRenderParamEPj, 
                       __ZN38pxrInternal_v0_21__aapl__pxrReserved__16HdExtComputation5_SyncEPNS_15HdSceneDelegateEPNS_13HdRenderParamEPj, 
                       __ZN38pxrInternal_v0_21__aapl__pxrReserved__16HdExtComputationC1ERKNS_7SdfPathE, 
                       __ZN38pxrInternal_v0_21__aapl__pxrReserved__16HdExtComputationC2ERKNS_7SdfPathE, 
                       __ZN38pxrInternal_v0_21__aapl__pxrReserved__16HdParsedAovTokenC1ERKNS_7TfTokenE, 
                       __ZN38pxrInternal_v0_21__aapl__pxrReserved__16HdParsedAovTokenC1Ev, 
                       __ZN38pxrInternal_v0_21__aapl__pxrReserved__16HdParsedAovTokenC2ERKNS_7TfTokenE, 
                       __ZN38pxrInternal_v0_21__aapl__pxrReserved__16HdParsedAovTokenC2Ev, 
                       __ZN38pxrInternal_v0_21__aapl__pxrReserved__16HdPrimTypeTokensE, 
                       __ZN38pxrInternal_v0_21__aapl__pxrReserved__16HdRenderDelegate10SetDriversERKNSt3__16vectorIPNS_8HdDriverENS1_9allocatorIS4_EEEE, 
                       __ZN38pxrInternal_v0_21__aapl__pxrReserved__16HdRenderDelegate13InvokeCommandERKNS_7TfTokenERKNS_12VtDictionaryE, 
                       __ZN38pxrInternal_v0_21__aapl__pxrReserved__16HdRenderDelegate16SetRenderSettingERKNS_7TfTokenERKNS_7VtValueE, 
                       __ZN38pxrInternal_v0_21__aapl__pxrReserved__16HdRenderDelegate24_PopulateDefaultSettingsERKNSt3__16vectorINS_25HdRenderSettingDescriptorENS1_9allocatorIS3_EEEE, 
                       __ZN38pxrInternal_v0_21__aapl__pxrReserved__16HdRenderDelegate4StopEv, 
                       __ZN38pxrInternal_v0_21__aapl__pxrReserved__16HdRenderDelegate5PauseEv, 
                       __ZN38pxrInternal_v0_21__aapl__pxrReserved__16HdRenderDelegate6ResumeEv, 
                       __ZN38pxrInternal_v0_21__aapl__pxrReserved__16HdRenderDelegate7RestartEv, 
                       __ZN38pxrInternal_v0_21__aapl__pxrReserved__16HdRenderDelegateC2ERKNS_9TfHashMapINS_7TfTokenENS_7VtValueENS2_11HashFunctorENSt3__18equal_toIS2_EENS5_9allocatorINS5_4pairIKS2_S3_EEEEEE, 
                       __ZN38pxrInternal_v0_21__aapl__pxrReserved__16HdRenderDelegateC2Ev, 
                       __ZN38pxrInternal_v0_21__aapl__pxrReserved__16HdRenderDelegateD0Ev, 
                       __ZN38pxrInternal_v0_21__aapl__pxrReserved__16HdRenderDelegateD1Ev, 
                       __ZN38pxrInternal_v0_21__aapl__pxrReserved__16HdRenderDelegateD2Ev, 
                       __ZN38pxrInternal_v0_21__aapl__pxrReserved__16HdRendererPlugin14CreateDelegateERKNS_9TfHashMapINS_7TfTokenENS_7VtValueENS2_11HashFunctorENSt3__18equal_toIS2_EENS5_9allocatorINS5_4pairIKS2_S3_EEEEEE, 
                       __ZN38pxrInternal_v0_21__aapl__pxrReserved__16HdRendererPlugin20CreateRenderDelegateERKNS_9TfHashMapINS_7TfTokenENS_7VtValueENS2_11HashFunctorENSt3__18equal_toIS2_EENS5_9allocatorINS5_4pairIKS2_S3_EEEEEE, 
                       __ZN38pxrInternal_v0_21__aapl__pxrReserved__16HdRendererPluginD0Ev, 
                       __ZN38pxrInternal_v0_21__aapl__pxrReserved__16HdRendererPluginD1Ev, 
                       __ZN38pxrInternal_v0_21__aapl__pxrReserved__16HdRendererPluginD2Ev, 
                       __ZN38pxrInternal_v0_21__aapl__pxrReserved__16HdVtBufferSource20GetDefaultMatrixTypeEv, 
                       __ZN38pxrInternal_v0_21__aapl__pxrReserved__16HdVtBufferSource8TruncateEm, 
                       __ZN38pxrInternal_v0_21__aapl__pxrReserved__16HdVtBufferSource9_SetValueERKNS_7VtValueEi, 
                       __ZN38pxrInternal_v0_21__aapl__pxrReserved__16HdVtBufferSourceC1ERKNS_7TfTokenERKNS_10GfMatrix4dE, 
                       __ZN38pxrInternal_v0_21__aapl__pxrReserved__16HdVtBufferSourceC1ERKNS_7TfTokenERKNS_7VtArrayINS_10GfMatrix4dEEEi, 
                       __ZN38pxrInternal_v0_21__aapl__pxrReserved__16HdVtBufferSourceC1ERKNS_7TfTokenERKNS_7VtValueEi, 
                       __ZN38pxrInternal_v0_21__aapl__pxrReserved__16HdVtBufferSourceC2ERKNS_7TfTokenERKNS_10GfMatrix4dE, 
                       __ZN38pxrInternal_v0_21__aapl__pxrReserved__16HdVtBufferSourceC2ERKNS_7TfTokenERKNS_7VtArrayINS_10GfMatrix4dEEEi, 
                       __ZN38pxrInternal_v0_21__aapl__pxrReserved__16HdVtBufferSourceC2ERKNS_7TfTokenERKNS_7VtValueEi, 
                       __ZN38pxrInternal_v0_21__aapl__pxrReserved__16HdVtBufferSourceD0Ev, 
                       __ZN38pxrInternal_v0_21__aapl__pxrReserved__16HdVtBufferSourceD1Ev, 
                       __ZN38pxrInternal_v0_21__aapl__pxrReserved__16HdVtBufferSourceD2Ev, 
                       __ZN38pxrInternal_v0_21__aapl__pxrReserved__16Hd_SmoothNormals20ComputeSmoothNormalsEPKNS_18Hd_VertexAdjacencyEiPKNS_7GfVec3dE, 
                       __ZN38pxrInternal_v0_21__aapl__pxrReserved__16Hd_SmoothNormals20ComputeSmoothNormalsEPKNS_18Hd_VertexAdjacencyEiPKNS_7GfVec3fE, 
                       __ZN38pxrInternal_v0_21__aapl__pxrReserved__16Hd_SmoothNormals26ComputeSmoothNormalsPackedEPKNS_18Hd_VertexAdjacencyEiPKNS_7GfVec3dE, 
                       __ZN38pxrInternal_v0_21__aapl__pxrReserved__16Hd_SmoothNormals26ComputeSmoothNormalsPackedEPKNS_18Hd_VertexAdjacencyEiPKNS_7GfVec3fE, 
                       __ZN38pxrInternal_v0_21__aapl__pxrReserved__16HfPluginRegistry11_SetFactoryERNS_6TfTypeERNSt3__18functionIFPNS_12HfPluginBaseEvEEE, 
                       __ZN38pxrInternal_v0_21__aapl__pxrReserved__16HfPluginRegistry13GetPluginDescERKNS_7TfTokenEPNS_12HfPluginDescE, 
                       __ZN38pxrInternal_v0_21__aapl__pxrReserved__16HfPluginRegistry13ReleasePluginEPNS_12HfPluginBaseE, 
                       __ZN38pxrInternal_v0_21__aapl__pxrReserved__16HfPluginRegistry14GetPluginDescsEPNSt3__16vectorINS_12HfPluginDescENS1_9allocatorIS3_EEEE, 
                       __ZN38pxrInternal_v0_21__aapl__pxrReserved__16HfPluginRegistry16_DiscoverPluginsEv, 
                       __ZN38pxrInternal_v0_21__aapl__pxrReserved__16HfPluginRegistry18AddPluginReferenceEPNS_12HfPluginBaseE, 
                       __ZN38pxrInternal_v0_21__aapl__pxrReserved__16HfPluginRegistry18IsRegisteredPluginERKNS_7TfTokenE, 
                       __ZN38pxrInternal_v0_21__aapl__pxrReserved__16HfPluginRegistry18_GetEntryForPluginEPNS_12HfPluginBaseE, 
                       __ZN38pxrInternal_v0_21__aapl__pxrReserved__16HfPluginRegistry9GetPluginERKNS_7TfTokenE, 
                       __ZN38pxrInternal_v0_21__aapl__pxrReserved__16HfPluginRegistryC1ERKNS_6TfTypeE, 
                       __ZN38pxrInternal_v0_21__aapl__pxrReserved__16HfPluginRegistryC2ERKNS_6TfTypeE, 
                       __ZN38pxrInternal_v0_21__aapl__pxrReserved__16HfPluginRegistryD0Ev, 
                       __ZN38pxrInternal_v0_21__aapl__pxrReserved__16HfPluginRegistryD1Ev, 
                       __ZN38pxrInternal_v0_21__aapl__pxrReserved__16HfPluginRegistryD2Ev, 
                       __ZN38pxrInternal_v0_21__aapl__pxrReserved__16PcpErrorArcCycle3NewEv, 
                       __ZN38pxrInternal_v0_21__aapl__pxrReserved__16PcpErrorArcCycleC1Ev, 
                       __ZN38pxrInternal_v0_21__aapl__pxrReserved__16PcpErrorArcCycleC2Ev, 
                       __ZN38pxrInternal_v0_21__aapl__pxrReserved__16PcpErrorArcCycleD0Ev, 
                       __ZN38pxrInternal_v0_21__aapl__pxrReserved__16PcpErrorArcCycleD1Ev, 
                       __ZN38pxrInternal_v0_21__aapl__pxrReserved__16PcpErrorArcCycleD2Ev, 
                       __ZN38pxrInternal_v0_21__aapl__pxrReserved__16PcpMapExpression11NewVariableEONS_14PcpMapFunctionE, 
                       __ZN38pxrInternal_v0_21__aapl__pxrReserved__16PcpMapExpression4SwapERS0_, 
                       __ZN38pxrInternal_v0_21__aapl__pxrReserved__16PcpMapExpression5_Node11_InvalidateEv, 
                       __ZN38pxrInternal_v0_21__aapl__pxrReserved__16PcpMapExpression5_Node13_nodeRegistryE, 
                       __ZN38pxrInternal_v0_21__aapl__pxrReserved__16PcpMapExpression5_Node19SetValueForVariableEONS_14PcpMapFunctionE, 
                       __ZN38pxrInternal_v0_21__aapl__pxrReserved__16PcpMapExpression5_Node32_ExpressionTreeAlwaysHasIdentityERKNS1_3KeyE, 
                       __ZN38pxrInternal_v0_21__aapl__pxrReserved__16PcpMapExpression5_Node3NewENS0_3_OpERKN5boost13intrusive_ptrIS1_EES7_RKNS_14PcpMapFunctionE, 
                       __ZN38pxrInternal_v0_21__aapl__pxrReserved__16PcpMapExpression5_NodeC1ERKNS1_3KeyE, 
                       __ZN38pxrInternal_v0_21__aapl__pxrReserved__16PcpMapExpression5_NodeC2ERKNS1_3KeyE, 
                       __ZN38pxrInternal_v0_21__aapl__pxrReserved__16PcpMapExpression5_NodeD1Ev, 
                       __ZN38pxrInternal_v0_21__aapl__pxrReserved__16PcpMapExpression5_NodeD2Ev, 
                       __ZN38pxrInternal_v0_21__aapl__pxrReserved__16PcpMapExpression8ConstantERKNS_14PcpMapFunctionE, 
                       __ZN38pxrInternal_v0_21__aapl__pxrReserved__16PcpMapExpression8IdentityEv, 
                       __ZN38pxrInternal_v0_21__aapl__pxrReserved__16PcpMapExpression8VariableD0Ev, 
                       __ZN38pxrInternal_v0_21__aapl__pxrReserved__16PcpMapExpression8VariableD1Ev, 
                       __ZN38pxrInternal_v0_21__aapl__pxrReserved__16PcpMapExpression8VariableD2Ev, 
                       __ZN38pxrInternal_v0_21__aapl__pxrReserved__16PcpMapExpressionC1Ev, 
                       __ZN38pxrInternal_v0_21__aapl__pxrReserved__16PcpMapExpressionC2Ev, 
                       __ZN38pxrInternal_v0_21__aapl__pxrReserved__16PcpPropertyIndex4SwapERS0_, 
                       __ZN38pxrInternal_v0_21__aapl__pxrReserved__16PcpPropertyIndexC1ERKS0_, 
                       __ZN38pxrInternal_v0_21__aapl__pxrReserved__16PcpPropertyIndexC1Ev, 
                       __ZN38pxrInternal_v0_21__aapl__pxrReserved__16PcpPropertyIndexC2ERKS0_, 
                       __ZN38pxrInternal_v0_21__aapl__pxrReserved__16PcpPropertyIndexC2Ev, 
                       __ZN38pxrInternal_v0_21__aapl__pxrReserved__16Pcp_MakeIdentityEv, 
                       __ZN38pxrInternal_v0_21__aapl__pxrReserved__16SdfAttributeSpec13SetColorSpaceERKNS_7TfTokenE, 
                       __ZN38pxrInternal_v0_21__aapl__pxrReserved__16SdfAttributeSpec14SetDisplayUnitERKNS_6TfEnumE, 
                       __ZN38pxrInternal_v0_21__aapl__pxrReserved__16SdfAttributeSpec15ClearColorSpaceEv, 
                       __ZN38pxrInternal_v0_21__aapl__pxrReserved__16SdfAttributeSpec16ClearDisplayUnitEv, 
                       __ZN38pxrInternal_v0_21__aapl__pxrReserved__16SdfAttributeSpec16SetAllowedTokensERKNS_7VtArrayINS_7TfTokenEEE, 
                       __ZN38pxrInternal_v0_21__aapl__pxrReserved__16SdfAttributeSpec18ClearAllowedTokensEv, 
                       __ZN38pxrInternal_v0_21__aapl__pxrReserved__16SdfAttributeSpec20ClearConnectionPathsEv, 
                       __ZN38pxrInternal_v0_21__aapl__pxrReserved__16SdfAttributeSpec3NewERKNS_9SdfHandleINS_11SdfPrimSpecEEERKNSt3__112basic_stringIcNS6_11char_traitsIcEENS6_9allocatorIcEEEERKNS_16SdfValueTypeNameENS_14SdfVariabilityEb, 
                       __ZN38pxrInternal_v0_21__aapl__pxrReserved__16SdfValueTypeNameC1EPKNS_17Sdf_ValueTypeImplE, 
                       __ZN38pxrInternal_v0_21__aapl__pxrReserved__16SdfValueTypeNameC1Ev, 
                       __ZN38pxrInternal_v0_21__aapl__pxrReserved__16SdfValueTypeNameC2EPKNS_17Sdf_ValueTypeImplE, 
                       __ZN38pxrInternal_v0_21__aapl__pxrReserved__16SdfValueTypeNameC2Ev, 
                       __ZN38pxrInternal_v0_21__aapl__pxrReserved__16Sdf_PrimPathNodeD1Ev, 
                       __ZN38pxrInternal_v0_21__aapl__pxrReserved__16Sdf_PrimPathNodeD2Ev, 
                       __ZN38pxrInternal_v0_21__aapl__pxrReserved__16Sdf_RootPathNode3NewEb, 
                       __ZN38pxrInternal_v0_21__aapl__pxrReserved__16SdrPropertyTypesE, 
                       __ZN38pxrInternal_v0_21__aapl__pxrReserved__16TfDiagnosticBaseC1ENS_6TfEnumEPKcRKNS_13TfCallContextERKNSt3__112basic_stringIcNS7_11char_traitsIcEENS7_9allocatorIcEEEEN5boost3anyEb, 
                       __ZN38pxrInternal_v0_21__aapl__pxrReserved__16TfDiagnosticBaseC2ENS_6TfEnumEPKcRKNS_13TfCallContextERKNSt3__112basic_stringIcNS7_11char_traitsIcEENS7_9allocatorIcEEEEN5boost3anyEb, 
                       __ZN38pxrInternal_v0_21__aapl__pxrReserved__16TfDoubleToStringEdPcib, 
                       __ZN38pxrInternal_v0_21__aapl__pxrReserved__16TfErrorTransport9_PostImplEv, 
                       __ZN38pxrInternal_v0_21__aapl__pxrReserved__16TfIsRelativePathERKNSt3__112basic_stringIcNS0_11char_traitsIcEENS0_9allocatorIcEEEE, 
                       __ZN38pxrInternal_v0_21__aapl__pxrReserved__16TfPatternMatcher10SetPatternERKNSt3__112basic_stringIcNS1_11char_traitsIcEENS1_9allocatorIcEEEE, 
                       __ZN38pxrInternal_v0_21__aapl__pxrReserved__16TfPatternMatcher16SetIsGlobPatternEb, 
                       __ZN38pxrInternal_v0_21__aapl__pxrReserved__16TfPatternMatcher18SetIsCaseSensitiveEb, 
                       __ZN38pxrInternal_v0_21__aapl__pxrReserved__16TfPatternMatcherC1ERKNSt3__112basic_stringIcNS1_11char_traitsIcEENS1_9allocatorIcEEEEbb, 
                       __ZN38pxrInternal_v0_21__aapl__pxrReserved__16TfPatternMatcherC1Ev, 
                       __ZN38pxrInternal_v0_21__aapl__pxrReserved__16TfPatternMatcherC2ERKNSt3__112basic_stringIcNS1_11char_traitsIcEENS1_9allocatorIcEEEEbb, 
                       __ZN38pxrInternal_v0_21__aapl__pxrReserved__16TfPatternMatcherC2Ev, 
                       __ZN38pxrInternal_v0_21__aapl__pxrReserved__16TfPatternMatcherD1Ev, 
                       __ZN38pxrInternal_v0_21__aapl__pxrReserved__16TfPatternMatcherD2Ev, 
                       __ZN38pxrInternal_v0_21__aapl__pxrReserved__16TfSafeOutputFile18ReleaseUpdatedFileEv, 
                       __ZN38pxrInternal_v0_21__aapl__pxrReserved__16TfSafeOutputFile5CloseEv, 
                       __ZN38pxrInternal_v0_21__aapl__pxrReserved__16TfSafeOutputFile6UpdateERKNSt3__112basic_stringIcNS1_11char_traitsIcEENS1_9allocatorIcEEEE, 
                       __ZN38pxrInternal_v0_21__aapl__pxrReserved__16TfSafeOutputFile7DiscardEv, 
                       __ZN38pxrInternal_v0_21__aapl__pxrReserved__16TfSafeOutputFile7ReplaceERKNSt3__112basic_stringIcNS1_11char_traitsIcEENS1_9allocatorIcEEEE, 
                       __ZN38pxrInternal_v0_21__aapl__pxrReserved__16TfSafeOutputFileD1Ev, 
                       __ZN38pxrInternal_v0_21__aapl__pxrReserved__16TfSafeOutputFileD2Ev, 
                       __ZN38pxrInternal_v0_21__aapl__pxrReserved__16TfStringCatPathsERKNSt3__112basic_stringIcNS0_11char_traitsIcEENS0_9allocatorIcEEEES8_, 
                       __ZN38pxrInternal_v0_21__aapl__pxrReserved__16TfStringContainsERKNSt3__112basic_stringIcNS0_11char_traitsIcEENS0_9allocatorIcEEEEPKc, 
                       __ZN38pxrInternal_v0_21__aapl__pxrReserved__16TfStringContainsERKNSt3__112basic_stringIcNS0_11char_traitsIcEENS0_9allocatorIcEEEERKNS_7TfTokenE, 
                       __ZN38pxrInternal_v0_21__aapl__pxrReserved__16TfStringEndsWithERKNSt3__112basic_stringIcNS0_11char_traitsIcEENS0_9allocatorIcEEEERKNS_7TfTokenE, 
                       __ZN38pxrInternal_v0_21__aapl__pxrReserved__16TfStringToDoubleEPKc, 
                       __ZN38pxrInternal_v0_21__aapl__pxrReserved__16TfStringToDoubleERKNSt3__112basic_stringIcNS0_11char_traitsIcEENS0_9allocatorIcEEEE, 
                       __ZN38pxrInternal_v0_21__aapl__pxrReserved__16TfStringToUInt64EPKcPb, 
                       __ZN38pxrInternal_v0_21__aapl__pxrReserved__16TfStringToUInt64ERKNSt3__112basic_stringIcNS0_11char_traitsIcEENS0_9allocatorIcEEEEPb, 
                       __ZN38pxrInternal_v0_21__aapl__pxrReserved__16TfStringTokenizeERKNSt3__112basic_stringIcNS0_11char_traitsIcEENS0_9allocatorIcEEEEPKc, 
                       __ZN38pxrInternal_v0_21__aapl__pxrReserved__16TfStringTrimLeftERKNSt3__112basic_stringIcNS0_11char_traitsIcEENS0_9allocatorIcEEEEPKc, 
                       __ZN38pxrInternal_v0_21__aapl__pxrReserved__16TfTemplateStringC1ERKNSt3__112basic_stringIcNS1_11char_traitsIcEENS1_9allocatorIcEEEE, 
                       __ZN38pxrInternal_v0_21__aapl__pxrReserved__16TfTemplateStringC1Ev, 
                       __ZN38pxrInternal_v0_21__aapl__pxrReserved__16TfTemplateStringC2ERKNSt3__112basic_stringIcNS1_11char_traitsIcEENS1_9allocatorIcEEEE, 
                       __ZN38pxrInternal_v0_21__aapl__pxrReserved__16TfTemplateStringC2Ev, 
                       __ZN38pxrInternal_v0_21__aapl__pxrReserved__16TfToStringVectorERKNSt3__16vectorINS_7TfTokenENS0_9allocatorIS2_EEEE, 
                       __ZN38pxrInternal_v0_21__aapl__pxrReserved__16UsdAPISchemaBase14_IsTypedSchemaEv, 
                       __ZN38pxrInternal_v0_21__aapl__pxrReserved__16UsdAPISchemaBase16_GetStaticTfTypeEv, 
                       __ZN38pxrInternal_v0_21__aapl__pxrReserved__16UsdAPISchemaBase23GetSchemaAttributeNamesEb, 
                       __ZN38pxrInternal_v0_21__aapl__pxrReserved__16UsdCollectionAPI13GetCollectionERKNS_7UsdPrimERKNS_7TfTokenE, 
                       __ZN38pxrInternal_v0_21__aapl__pxrReserved__16UsdCollectionAPI13GetCollectionERKNS_9TfWeakPtrINS_8UsdStageEEERKNS_7SdfPathE, 
                       __ZN38pxrInternal_v0_21__aapl__pxrReserved__16UsdCollectionAPI14_IsTypedSchemaEv, 
                       __ZN38pxrInternal_v0_21__aapl__pxrReserved__16UsdCollectionAPI16_GetStaticTfTypeEv, 
                       __ZN38pxrInternal_v0_21__aapl__pxrReserved__16UsdCollectionAPI17GetAllCollectionsERKNS_7UsdPrimE, 
                       __ZN38pxrInternal_v0_21__aapl__pxrReserved__16UsdCollectionAPI19IsCollectionAPIPathERKNS_7SdfPathEPNS_7TfTokenE, 
                       __ZN38pxrInternal_v0_21__aapl__pxrReserved__16UsdCollectionAPI20ComputeIncludedPathsERKNS_28UsdCollectionMembershipQueryERKNS_9TfWeakPtrINS_8UsdStageEEERKNS_22Usd_PrimFlagsPredicateE, 
                       __ZN38pxrInternal_v0_21__aapl__pxrReserved__16UsdCollectionAPI22CanContainPropertyNameERKNS_7TfTokenE, 
                       __ZN38pxrInternal_v0_21__aapl__pxrReserved__16UsdCollectionAPI22ComputeIncludedObjectsERKNS_28UsdCollectionMembershipQueryERKNS_9TfWeakPtrINS_8UsdStageEEERKNS_22Usd_PrimFlagsPredicateE, 
                       __ZN38pxrInternal_v0_21__aapl__pxrReserved__16UsdCollectionAPI22GetNamedCollectionPathERKNS_7UsdPrimERKNS_7TfTokenE, 
                       __ZN38pxrInternal_v0_21__aapl__pxrReserved__16UsdCollectionAPI23GetSchemaAttributeNamesEbNS_7TfTokenE, 
                       __ZN38pxrInternal_v0_21__aapl__pxrReserved__16UsdCollectionAPI24IsSchemaPropertyBaseNameERKNS_7TfTokenE, 
                       __ZN38pxrInternal_v0_21__aapl__pxrReserved__16UsdCollectionAPI3GetERKNS_7UsdPrimERKNS_7TfTokenE, 
                       __ZN38pxrInternal_v0_21__aapl__pxrReserved__16UsdCollectionAPI3GetERKNS_9TfWeakPtrINS_8UsdStageEEERKNS_7SdfPathE, 
                       __ZN38pxrInternal_v0_21__aapl__pxrReserved__16UsdCollectionAPI5ApplyERKNS_7UsdPrimERKNS_7TfTokenE, 
                       __ZN38pxrInternal_v0_21__aapl__pxrReserved__16UsdCollectionAPI8CanApplyERKNS_7UsdPrimERKNS_7TfTokenEPNSt3__112basic_stringIcNS7_11char_traitsIcEENS7_9allocatorIcEEEE, 
                       __ZN38pxrInternal_v0_21__aapl__pxrReserved__16UsdCollectionAPID0Ev, 
                       __ZN38pxrInternal_v0_21__aapl__pxrReserved__16UsdCollectionAPID1Ev, 
                       __ZN38pxrInternal_v0_21__aapl__pxrReserved__16UsdCollectionAPID2Ev, 
                       __ZN38pxrInternal_v0_21__aapl__pxrReserved__16UsdGeomBBoxCache10_IsVaryingERKNS_12UsdAttributeE, 
                       __ZN38pxrInternal_v0_21__aapl__pxrReserved__16UsdGeomBBoxCache10_IsVaryingERKNS_17UsdAttributeQueryE, 
                       __ZN38pxrInternal_v0_21__aapl__pxrReserved__16UsdGeomBBoxCache12_ResolvePrimEPNS0_9_BBoxTaskERKNS0_12_PrimContextERKNS_10GfMatrix4dE, 
                       __ZN38pxrInternal_v0_21__aapl__pxrReserved__16UsdGeomBBoxCache17ComputeLocalBoundERKNS_7UsdPrimE, 
                       __ZN38pxrInternal_v0_21__aapl__pxrReserved__16UsdGeomBBoxCache17ComputeWorldBoundERKNS_7UsdPrimE, 
                       __ZN38pxrInternal_v0_21__aapl__pxrReserved__16UsdGeomBBoxCache18_ShouldIncludePrimERKNS_7UsdPrimE, 
                       __ZN38pxrInternal_v0_21__aapl__pxrReserved__16UsdGeomBBoxCache19SetIncludedPurposesERKNSt3__16vectorINS_7TfTokenENS1_9allocatorIS3_EEEE, 
                       __ZN38pxrInternal_v0_21__aapl__pxrReserved__16UsdGeomBBoxCache20ComputeRelativeBoundERKNS_7UsdPrimES3_, 
                       __ZN38pxrInternal_v0_21__aapl__pxrReserved__16UsdGeomBBoxCache20_ShouldPruneChildrenERKNS_7UsdPrimEPNS0_6_EntryE, 
                       __ZN38pxrInternal_v0_21__aapl__pxrReserved__16UsdGeomBBoxCache23_GetBBoxFromExtentsHintERKNS_15UsdGeomModelAPIERKNS_17UsdAttributeQueryEPNSt3__13mapINS_7TfTokenENS_8GfBBox3dENS_28TfTokenFastArbitraryLessThanENS7_9allocatorINS7_4pairIKS9_SA_EEEEEE, 
                       __ZN38pxrInternal_v0_21__aapl__pxrReserved__16UsdGeomBBoxCache25ComputeUntransformedBoundERKNS_7UsdPrimE, 
                       __ZN38pxrInternal_v0_21__aapl__pxrReserved__16UsdGeomBBoxCache25ComputeUntransformedBoundERKNS_7UsdPrimERKNSt3__13setINS_7SdfPathENS4_4lessIS6_EENS4_9allocatorIS6_EEEERKNS_9TfHashMapIS6_NS_10GfMatrix4dENS6_4HashENS4_8equal_toIS6_EENS9_INS4_4pairIKS6_SF_EEEEEE, 
                       __ZN38pxrInternal_v0_21__aapl__pxrReserved__16UsdGeomBBoxCache27_FindOrCreateEntriesForPrimERKNS0_12_PrimContextEPNSt3__16vectorIS1_NS4_9allocatorIS1_EEEE, 
                       __ZN38pxrInternal_v0_21__aapl__pxrReserved__16UsdGeomBBoxCache31ComputePointInstanceLocalBoundsERKNS_21UsdGeomPointInstancerEPKxmPNS_8GfBBox3dE, 
                       __ZN38pxrInternal_v0_21__aapl__pxrReserved__16UsdGeomBBoxCache31ComputePointInstanceWorldBoundsERKNS_21UsdGeomPointInstancerEPKxmPNS_8GfBBox3dE, 
                       __ZN38pxrInternal_v0_21__aapl__pxrReserved__16UsdGeomBBoxCache33_ComputePointInstanceBoundsHelperERKNS_21UsdGeomPointInstancerEPKxmRKNS_10GfMatrix4dEPNS_8GfBBox3dE, 
                       __ZN38pxrInternal_v0_21__aapl__pxrReserved__16UsdGeomBBoxCache34ComputePointInstanceRelativeBoundsERKNS_21UsdGeomPointInstancerEPKxmRKNS_7UsdPrimEPNS_8GfBBox3dE, 
                       __ZN38pxrInternal_v0_21__aapl__pxrReserved__16UsdGeomBBoxCache35_GetCombinedBBoxForIncludedPurposesERKNSt3__13mapINS_7TfTokenENS_8GfBBox3dENS_28TfTokenFastArbitraryLessThanENS1_9allocatorINS1_4pairIKS3_S4_EEEEEE, 
                       __ZN38pxrInternal_v0_21__aapl__pxrReserved__16UsdGeomBBoxCache39ComputePointInstanceUntransformedBoundsERKNS_21UsdGeomPointInstancerEPKxmPNS_8GfBBox3dE, 
                       __ZN38pxrInternal_v0_21__aapl__pxrReserved__16UsdGeomBBoxCache5ClearEv, 
                       __ZN38pxrInternal_v0_21__aapl__pxrReserved__16UsdGeomBBoxCache7SetTimeENS_11UsdTimeCodeE, 
                       __ZN38pxrInternal_v0_21__aapl__pxrReserved__16UsdGeomBBoxCache8_ResolveERKNS_7UsdPrimEPNSt3__13mapINS_7TfTokenENS_8GfBBox3dENS_28TfTokenFastArbitraryLessThanENS4_9allocatorINS4_4pairIKS6_S7_EEEEEE, 
                       __ZN38pxrInternal_v0_21__aapl__pxrReserved__16UsdGeomBBoxCacheC1ENS_11UsdTimeCodeENSt3__16vectorINS_7TfTokenENS2_9allocatorIS4_EEEEbb, 
                       __ZN38pxrInternal_v0_21__aapl__pxrReserved__16UsdGeomBBoxCacheC1ERKS0_, 
                       __ZN38pxrInternal_v0_21__aapl__pxrReserved__16UsdGeomBBoxCacheC2ENS_11UsdTimeCodeENSt3__16vectorINS_7TfTokenENS2_9allocatorIS4_EEEEbb, 
                       __ZN38pxrInternal_v0_21__aapl__pxrReserved__16UsdGeomBBoxCacheC2ERKS0_, 
                       __ZN38pxrInternal_v0_21__aapl__pxrReserved__16UsdGeomBBoxCacheaSERKS0_, 
                       __ZN38pxrInternal_v0_21__aapl__pxrReserved__16UsdGeomBoundable14_IsTypedSchemaEv, 
                       __ZN38pxrInternal_v0_21__aapl__pxrReserved__16UsdGeomBoundable16_GetStaticTfTypeEv, 
                       __ZN38pxrInternal_v0_21__aapl__pxrReserved__16UsdGeomBoundable23GetSchemaAttributeNamesEb, 
                       __ZN38pxrInternal_v0_21__aapl__pxrReserved__16UsdGeomBoundable24ComputeExtentFromPluginsERKS0_RKNS_11UsdTimeCodeEPNS_7VtArrayINS_7GfVec3fEEE, 
                       __ZN38pxrInternal_v0_21__aapl__pxrReserved__16UsdGeomBoundable24ComputeExtentFromPluginsERKS0_RKNS_11UsdTimeCodeERKNS_10GfMatrix4dEPNS_7VtArrayINS_7GfVec3fEEE, 
                       __ZN38pxrInternal_v0_21__aapl__pxrReserved__16UsdGeomBoundable3GetERKNS_9TfWeakPtrINS_8UsdStageEEERKNS_7SdfPathE, 
                       __ZN38pxrInternal_v0_21__aapl__pxrReserved__16UsdGeomBoundableD0Ev, 
                       __ZN38pxrInternal_v0_21__aapl__pxrReserved__16UsdGeomBoundableD1Ev, 
                       __ZN38pxrInternal_v0_21__aapl__pxrReserved__16UsdGeomBoundableD2Ev, 
                       __ZN38pxrInternal_v0_21__aapl__pxrReserved__16UsdGeomImageable14_IsTypedSchemaEv, 
                       __ZN38pxrInternal_v0_21__aapl__pxrReserved__16UsdGeomImageable16_GetStaticTfTypeEv, 
                       __ZN38pxrInternal_v0_21__aapl__pxrReserved__16UsdGeomImageable23GetOrderedPurposeTokensEv, 
                       __ZN38pxrInternal_v0_21__aapl__pxrReserved__16UsdGeomImageable23GetSchemaAttributeNamesEb, 
                       __ZN38pxrInternal_v0_21__aapl__pxrReserved__16UsdGeomImageable3GetERKNS_9TfWeakPtrINS_8UsdStageEEERKNS_7SdfPathE, 
                       __ZN38pxrInternal_v0_21__aapl__pxrReserved__16UsdGeomImageableD0Ev, 
                       __ZN38pxrInternal_v0_21__aapl__pxrReserved__16UsdGeomImageableD1Ev, 
                       __ZN38pxrInternal_v0_21__aapl__pxrReserved__16UsdGeomImageableD2Ev, 
                       __ZN38pxrInternal_v0_21__aapl__pxrReserved__16UsdGeomMotionAPI14_IsTypedSchemaEv, 
                       __ZN38pxrInternal_v0_21__aapl__pxrReserved__16UsdGeomMotionAPI16_GetStaticTfTypeEv, 
                       __ZN38pxrInternal_v0_21__aapl__pxrReserved__16UsdGeomMotionAPI23GetSchemaAttributeNamesEb, 
                       __ZN38pxrInternal_v0_21__aapl__pxrReserved__16UsdGeomMotionAPI3GetERKNS_9TfWeakPtrINS_8UsdStageEEERKNS_7SdfPathE, 
                       __ZN38pxrInternal_v0_21__aapl__pxrReserved__16UsdGeomMotionAPI5ApplyERKNS_7UsdPrimE, 
                       __ZN38pxrInternal_v0_21__aapl__pxrReserved__16UsdGeomMotionAPI8CanApplyERKNS_7UsdPrimEPNSt3__112basic_stringIcNS4_11char_traitsIcEENS4_9allocatorIcEEEE, 
                       __ZN38pxrInternal_v0_21__aapl__pxrReserved__16UsdGeomMotionAPID0Ev, 
                       __ZN38pxrInternal_v0_21__aapl__pxrReserved__16UsdGeomMotionAPID1Ev, 
                       __ZN38pxrInternal_v0_21__aapl__pxrReserved__16UsdGeomMotionAPID2Ev, 
                       __ZN38pxrInternal_v0_21__aapl__pxrReserved__16UsdGeomXformable10XformQueryC1ERKS0_, 
                       __ZN38pxrInternal_v0_21__aapl__pxrReserved__16UsdGeomXformable10XformQueryC2ERKS0_, 
                       __ZN38pxrInternal_v0_21__aapl__pxrReserved__16UsdGeomXformable14GetTimeSamplesERKNSt3__16vectorINS_14UsdGeomXformOpENS1_9allocatorIS3_EEEEPNS2_IdNS4_IdEEEE, 
                       __ZN38pxrInternal_v0_21__aapl__pxrReserved__16UsdGeomXformable14_IsTypedSchemaEv, 
                       __ZN38pxrInternal_v0_21__aapl__pxrReserved__16UsdGeomXformable16_GetStaticTfTypeEv, 
                       __ZN38pxrInternal_v0_21__aapl__pxrReserved__16UsdGeomXformable22GetLocalTransformationEPNS_10GfMatrix4dERKNSt3__16vectorINS_14UsdGeomXformOpENS3_9allocatorIS5_EEEENS_11UsdTimeCodeE, 
                       __ZN38pxrInternal_v0_21__aapl__pxrReserved__16UsdGeomXformable23GetSchemaAttributeNamesEb, 
                       __ZN38pxrInternal_v0_21__aapl__pxrReserved__16UsdGeomXformable24GetTimeSamplesInIntervalERKNSt3__16vectorINS_14UsdGeomXformOpENS1_9allocatorIS3_EEEERKNS_10GfIntervalEPNS2_IdNS4_IdEEEE, 
                       __ZN38pxrInternal_v0_21__aapl__pxrReserved__16UsdGeomXformable35IsTransformationAffectedByAttrNamedERKNS_7TfTokenE, 
                       __ZN38pxrInternal_v0_21__aapl__pxrReserved__16UsdGeomXformable3GetERKNS_9TfWeakPtrINS_8UsdStageEEERKNS_7SdfPathE, 
                       __ZN38pxrInternal_v0_21__aapl__pxrReserved__16UsdGeomXformableD0Ev, 
                       __ZN38pxrInternal_v0_21__aapl__pxrReserved__16UsdGeomXformableD1Ev, 
                       __ZN38pxrInternal_v0_21__aapl__pxrReserved__16UsdGeomXformableD2Ev, 
                       __ZN38pxrInternal_v0_21__aapl__pxrReserved__16UsdLuxShapingAPI11CreateInputERKNS_7TfTokenERKNS_16SdfValueTypeNameE, 
                       __ZN38pxrInternal_v0_21__aapl__pxrReserved__16UsdLuxShapingAPI12CreateOutputERKNS_7TfTokenERKNS_16SdfValueTypeNameE, 
                       __ZN38pxrInternal_v0_21__aapl__pxrReserved__16UsdLuxShapingAPI14_IsTypedSchemaEv, 
                       __ZN38pxrInternal_v0_21__aapl__pxrReserved__16UsdLuxShapingAPI16_GetStaticTfTypeEv, 
                       __ZN38pxrInternal_v0_21__aapl__pxrReserved__16UsdLuxShapingAPI23GetSchemaAttributeNamesEb, 
                       __ZN38pxrInternal_v0_21__aapl__pxrReserved__16UsdLuxShapingAPI3GetERKNS_9TfWeakPtrINS_8UsdStageEEERKNS_7SdfPathE, 
                       __ZN38pxrInternal_v0_21__aapl__pxrReserved__16UsdLuxShapingAPI5ApplyERKNS_7UsdPrimE, 
                       __ZN38pxrInternal_v0_21__aapl__pxrReserved__16UsdLuxShapingAPI8CanApplyERKNS_7UsdPrimEPNSt3__112basic_stringIcNS4_11char_traitsIcEENS4_9allocatorIcEEEE, 
                       __ZN38pxrInternal_v0_21__aapl__pxrReserved__16UsdLuxShapingAPIC1ERKNS_22UsdShadeConnectableAPIE, 
                       __ZN38pxrInternal_v0_21__aapl__pxrReserved__16UsdLuxShapingAPIC2ERKNS_22UsdShadeConnectableAPIE, 
                       __ZN38pxrInternal_v0_21__aapl__pxrReserved__16UsdLuxShapingAPID0Ev, 
                       __ZN38pxrInternal_v0_21__aapl__pxrReserved__16UsdLuxShapingAPID1Ev, 
                       __ZN38pxrInternal_v0_21__aapl__pxrReserved__16UsdLuxShapingAPID2Ev, 
                       __ZN38pxrInternal_v0_21__aapl__pxrReserved__16UsdLuxTokensTypeC1Ev, 
                       __ZN38pxrInternal_v0_21__aapl__pxrReserved__16UsdLuxTokensTypeC2Ev, 
                       __ZN38pxrInternal_v0_21__aapl__pxrReserved__16UsdPhysicsTokensE, 
                       __ZN38pxrInternal_v0_21__aapl__pxrReserved__16UsdRenderProduct14_IsTypedSchemaEv, 
                       __ZN38pxrInternal_v0_21__aapl__pxrReserved__16UsdRenderProduct16_GetStaticTfTypeEv, 
                       __ZN38pxrInternal_v0_21__aapl__pxrReserved__16UsdRenderProduct23GetSchemaAttributeNamesEb, 
                       __ZN38pxrInternal_v0_21__aapl__pxrReserved__16UsdRenderProduct3GetERKNS_9TfWeakPtrINS_8UsdStageEEERKNS_7SdfPathE, 
                       __ZN38pxrInternal_v0_21__aapl__pxrReserved__16UsdRenderProduct6DefineERKNS_9TfWeakPtrINS_8UsdStageEEERKNS_7SdfPathE, 
                       __ZN38pxrInternal_v0_21__aapl__pxrReserved__16UsdRenderProductD0Ev, 
                       __ZN38pxrInternal_v0_21__aapl__pxrReserved__16UsdRenderProductD1Ev, 
                       __ZN38pxrInternal_v0_21__aapl__pxrReserved__16UsdRenderProductD2Ev, 
                       __ZN38pxrInternal_v0_21__aapl__pxrReserved__16UsdRiMaterialAPI14_IsTypedSchemaEv, 
                       __ZN38pxrInternal_v0_21__aapl__pxrReserved__16UsdRiMaterialAPI16_GetStaticTfTypeEv, 
                       __ZN38pxrInternal_v0_21__aapl__pxrReserved__16UsdRiMaterialAPI23GetSchemaAttributeNamesEb, 
                       __ZN38pxrInternal_v0_21__aapl__pxrReserved__16UsdRiMaterialAPI3GetERKNS_9TfWeakPtrINS_8UsdStageEEERKNS_7SdfPathE, 
                       __ZN38pxrInternal_v0_21__aapl__pxrReserved__16UsdRiMaterialAPI5ApplyERKNS_7UsdPrimE, 
                       __ZN38pxrInternal_v0_21__aapl__pxrReserved__16UsdRiMaterialAPI8CanApplyERKNS_7UsdPrimEPNSt3__112basic_stringIcNS4_11char_traitsIcEENS4_9allocatorIcEEEE, 
                       __ZN38pxrInternal_v0_21__aapl__pxrReserved__16UsdRiMaterialAPID0Ev, 
                       __ZN38pxrInternal_v0_21__aapl__pxrReserved__16UsdRiMaterialAPID1Ev, 
                       __ZN38pxrInternal_v0_21__aapl__pxrReserved__16UsdRiMaterialAPID2Ev, 
                       __ZN38pxrInternal_v0_21__aapl__pxrReserved__16UsdRiPxrAovLight14_IsTypedSchemaEv, 
                       __ZN38pxrInternal_v0_21__aapl__pxrReserved__16UsdRiPxrAovLight16_GetStaticTfTypeEv, 
                       __ZN38pxrInternal_v0_21__aapl__pxrReserved__16UsdRiPxrAovLight23GetSchemaAttributeNamesEb, 
                       __ZN38pxrInternal_v0_21__aapl__pxrReserved__16UsdRiPxrAovLight3GetERKNS_9TfWeakPtrINS_8UsdStageEEERKNS_7SdfPathE, 
                       __ZN38pxrInternal_v0_21__aapl__pxrReserved__16UsdRiPxrAovLight6DefineERKNS_9TfWeakPtrINS_8UsdStageEEERKNS_7SdfPathE, 
                       __ZN38pxrInternal_v0_21__aapl__pxrReserved__16UsdRiPxrAovLightD0Ev, 
                       __ZN38pxrInternal_v0_21__aapl__pxrReserved__16UsdRiPxrAovLightD1Ev, 
                       __ZN38pxrInternal_v0_21__aapl__pxrReserved__16UsdRiPxrAovLightD2Ev, 
                       __ZN38pxrInternal_v0_21__aapl__pxrReserved__16UsdShadeMaterial14_IsTypedSchemaEv, 
                       __ZN38pxrInternal_v0_21__aapl__pxrReserved__16UsdShadeMaterial16_GetStaticTfTypeEv, 
                       __ZN38pxrInternal_v0_21__aapl__pxrReserved__16UsdShadeMaterial23GetSchemaAttributeNamesEb, 
                       __ZN38pxrInternal_v0_21__aapl__pxrReserved__16UsdShadeMaterial27CreateMasterMaterialVariantERKNS_7UsdPrimERKNSt3__16vectorIS1_NS4_9allocatorIS1_EEEERKNS_7TfTokenE, 
                       __ZN38pxrInternal_v0_21__aapl__pxrReserved__16UsdShadeMaterial31FindBaseMaterialPathInPrimIndexERKNS_12PcpPrimIndexERKNSt3__18functionIFbRKNS_7SdfPathEEEE, 
                       __ZN38pxrInternal_v0_21__aapl__pxrReserved__16UsdShadeMaterial3GetERKNS_9TfWeakPtrINS_8UsdStageEEERKNS_7SdfPathE, 
                       __ZN38pxrInternal_v0_21__aapl__pxrReserved__16UsdShadeMaterial6DefineERKNS_9TfWeakPtrINS_8UsdStageEEERKNS_7SdfPathE, 
                       __ZN38pxrInternal_v0_21__aapl__pxrReserved__16UsdShadeMaterialD0Ev, 
                       __ZN38pxrInternal_v0_21__aapl__pxrReserved__16UsdShadeMaterialD1Ev, 
                       __ZN38pxrInternal_v0_21__aapl__pxrReserved__16UsdShadeMaterialD2Ev, 
                       __ZN38pxrInternal_v0_21__aapl__pxrReserved__16UsdSkelAnimation14_IsTypedSchemaEv, 
                       __ZN38pxrInternal_v0_21__aapl__pxrReserved__16UsdSkelAnimation16_GetStaticTfTypeEv, 
                       __ZN38pxrInternal_v0_21__aapl__pxrReserved__16UsdSkelAnimation23GetSchemaAttributeNamesEb, 
                       __ZN38pxrInternal_v0_21__aapl__pxrReserved__16UsdSkelAnimation3GetERKNS_9TfWeakPtrINS_8UsdStageEEERKNS_7SdfPathE, 
                       __ZN38pxrInternal_v0_21__aapl__pxrReserved__16UsdSkelAnimation6DefineERKNS_9TfWeakPtrINS_8UsdStageEEERKNS_7SdfPathE, 
                       __ZN38pxrInternal_v0_21__aapl__pxrReserved__16UsdSkelAnimationD0Ev, 
                       __ZN38pxrInternal_v0_21__aapl__pxrReserved__16UsdSkelAnimationD1Ev, 
                       __ZN38pxrInternal_v0_21__aapl__pxrReserved__16UsdSkelAnimationD2Ev, 
                       __ZN38pxrInternal_v0_21__aapl__pxrReserved__16UsdUsdFileFormat27GetUnderlyingFormatForLayerERKNS_8SdfLayerE, 
                       __ZN38pxrInternal_v0_21__aapl__pxrReserved__16UsdUsdFileFormat32_GetUnderlyingFileFormatForLayerERKNS_8SdfLayerE, 
                       __ZN38pxrInternal_v0_21__aapl__pxrReserved__16UsdUsdFileFormatC1Ev, 
                       __ZN38pxrInternal_v0_21__aapl__pxrReserved__16UsdUsdFileFormatC2Ev, 
                       __ZN38pxrInternal_v0_21__aapl__pxrReserved__16UsdUsdFileFormatD0Ev, 
                       __ZN38pxrInternal_v0_21__aapl__pxrReserved__16UsdUsdFileFormatD1Ev, 
                       __ZN38pxrInternal_v0_21__aapl__pxrReserved__16UsdUsdFileFormatD2Ev, 
                       __ZN38pxrInternal_v0_21__aapl__pxrReserved__16UsdVolFieldAsset14_IsTypedSchemaEv, 
                       __ZN38pxrInternal_v0_21__aapl__pxrReserved__16UsdVolFieldAsset16_GetStaticTfTypeEv, 
                       __ZN38pxrInternal_v0_21__aapl__pxrReserved__16UsdVolFieldAsset23GetSchemaAttributeNamesEb, 
                       __ZN38pxrInternal_v0_21__aapl__pxrReserved__16UsdVolFieldAsset3GetERKNS_9TfWeakPtrINS_8UsdStageEEERKNS_7SdfPathE, 
                       __ZN38pxrInternal_v0_21__aapl__pxrReserved__16UsdVolFieldAssetD0Ev, 
                       __ZN38pxrInternal_v0_21__aapl__pxrReserved__16UsdVolFieldAssetD1Ev, 
                       __ZN38pxrInternal_v0_21__aapl__pxrReserved__16UsdVolFieldAssetD2Ev, 
                       __ZN38pxrInternal_v0_21__aapl__pxrReserved__16UsdVolTokensTypeC1Ev, 
                       __ZN38pxrInternal_v0_21__aapl__pxrReserved__16UsdVolTokensTypeC2Ev, 
                       __ZN38pxrInternal_v0_21__aapl__pxrReserved__16UsdZipFileWriter4SaveEv, 
                       __ZN38pxrInternal_v0_21__aapl__pxrReserved__16UsdZipFileWriter7AddFileERKNSt3__112basic_stringIcNS1_11char_traitsIcEENS1_9allocatorIcEEEES9_, 
                       __ZN38pxrInternal_v0_21__aapl__pxrReserved__16UsdZipFileWriter7DiscardEv, 
                       __ZN38pxrInternal_v0_21__aapl__pxrReserved__16UsdZipFileWriter9CreateNewERKNSt3__112basic_stringIcNS1_11char_traitsIcEENS1_9allocatorIcEEEE, 
                       __ZN38pxrInternal_v0_21__aapl__pxrReserved__16UsdZipFileWriterC1EONSt3__110unique_ptrINS0_5_ImplENS1_14default_deleteIS3_EEEE, 
                       __ZN38pxrInternal_v0_21__aapl__pxrReserved__16UsdZipFileWriterC1EOS0_, 
                       __ZN38pxrInternal_v0_21__aapl__pxrReserved__16UsdZipFileWriterC1Ev, 
                       __ZN38pxrInternal_v0_21__aapl__pxrReserved__16UsdZipFileWriterC2EONSt3__110unique_ptrINS0_5_ImplENS1_14default_deleteIS3_EEEE, 
                       __ZN38pxrInternal_v0_21__aapl__pxrReserved__16UsdZipFileWriterC2EOS0_, 
                       __ZN38pxrInternal_v0_21__aapl__pxrReserved__16UsdZipFileWriterC2Ev, 
                       __ZN38pxrInternal_v0_21__aapl__pxrReserved__16UsdZipFileWriterD1Ev, 
                       __ZN38pxrInternal_v0_21__aapl__pxrReserved__16UsdZipFileWriterD2Ev, 
                       __ZN38pxrInternal_v0_21__aapl__pxrReserved__16UsdZipFileWriteraSEOS0_, 
                       __ZN38pxrInternal_v0_21__aapl__pxrReserved__16VtDictionaryOverEPNS_12VtDictionaryERKS0_b, 
                       __ZN38pxrInternal_v0_21__aapl__pxrReserved__16VtDictionaryOverERKNS_12VtDictionaryEPS0_b, 
                       __ZN38pxrInternal_v0_21__aapl__pxrReserved__16VtDictionaryOverERKNS_12VtDictionaryES2_b, 
                       __ZN38pxrInternal_v0_21__aapl__pxrReserved__16VtStreamOutArrayEPNS_19VtStreamOutIteratorEmPKNS_12Vt_ShapeDataERNSt3__113basic_ostreamIcNS5_11char_traitsIcEEEE, 
                       __ZN38pxrInternal_v0_21__aapl__pxrReserved__17ArDefaultResolver11BindContextERKNS_17ArResolverContextEPNS_7VtValueE, 
                       __ZN38pxrInternal_v0_21__aapl__pxrReserved__17ArDefaultResolver12GetExtensionERKNSt3__112basic_stringIcNS1_11char_traitsIcEENS1_9allocatorIcEEEE, 
                       __ZN38pxrInternal_v0_21__aapl__pxrReserved__17ArDefaultResolver12IsSearchPathERKNSt3__112basic_stringIcNS1_11char_traitsIcEENS1_9allocatorIcEEEE, 
                       __ZN38pxrInternal_v0_21__aapl__pxrReserved__17ArDefaultResolver13EndCacheScopeEPNS_7VtValueE, 
                       __ZN38pxrInternal_v0_21__aapl__pxrReserved__17ArDefaultResolver13UnbindContextERKNS_17ArResolverContextEPNS_7VtValueE, 
                       __ZN38pxrInternal_v0_21__aapl__pxrReserved__17ArDefaultResolver14IsRelativePathERKNSt3__112basic_stringIcNS1_11char_traitsIcEENS1_9allocatorIcEEEE, 
                       __ZN38pxrInternal_v0_21__aapl__pxrReserved__17ArDefaultResolver14RefreshContextERKNS_17ArResolverContextE, 
                       __ZN38pxrInternal_v0_21__aapl__pxrReserved__17ArDefaultResolver15BeginCacheScopeEPNS_7VtValueE, 
                       __ZN38pxrInternal_v0_21__aapl__pxrReserved__17ArDefaultResolver15UpdateAssetInfoERKNSt3__112basic_stringIcNS1_11char_traitsIcEENS1_9allocatorIcEEEES9_S9_PNS_11ArAssetInfoE, 
                       __ZN38pxrInternal_v0_21__aapl__pxrReserved__17ArDefaultResolver15_ResolveNoCacheERKNSt3__112basic_stringIcNS1_11char_traitsIcEENS1_9allocatorIcEEEE, 
                       __ZN38pxrInternal_v0_21__aapl__pxrReserved__17ArDefaultResolver16ComputeLocalPathERKNSt3__112basic_stringIcNS1_11char_traitsIcEENS1_9allocatorIcEEEE, 
                       __ZN38pxrInternal_v0_21__aapl__pxrReserved__17ArDefaultResolver16IsRepositoryPathERKNSt3__112basic_stringIcNS1_11char_traitsIcEENS1_9allocatorIcEEEE, 
                       __ZN38pxrInternal_v0_21__aapl__pxrReserved__17ArDefaultResolver16_GetCurrentCacheEv, 
                       __ZN38pxrInternal_v0_21__aapl__pxrReserved__17ArDefaultResolver17GetCurrentContextEv, 
                       __ZN38pxrInternal_v0_21__aapl__pxrReserved__17ArDefaultResolver18AnchorRelativePathERKNSt3__112basic_stringIcNS1_11char_traitsIcEENS1_9allocatorIcEEEES9_, 
                       __ZN38pxrInternal_v0_21__aapl__pxrReserved__17ArDefaultResolver18CreatePathForLayerERKNSt3__112basic_stringIcNS1_11char_traitsIcEENS1_9allocatorIcEEEE, 
                       __ZN38pxrInternal_v0_21__aapl__pxrReserved__17ArDefaultResolver18_GetCurrentContextEv, 
                       __ZN38pxrInternal_v0_21__aapl__pxrReserved__17ArDefaultResolver19CanWriteLayerToPathERKNSt3__112basic_stringIcNS1_11char_traitsIcEENS1_9allocatorIcEEEEPS7_, 
                       __ZN38pxrInternal_v0_21__aapl__pxrReserved__17ArDefaultResolver20CreateDefaultContextEv, 
                       __ZN38pxrInternal_v0_21__aapl__pxrReserved__17ArDefaultResolver20ResolveWithAssetInfoERKNSt3__112basic_stringIcNS1_11char_traitsIcEENS1_9allocatorIcEEEEPNS_11ArAssetInfoE, 
                       __ZN38pxrInternal_v0_21__aapl__pxrReserved__17ArDefaultResolver20SetDefaultSearchPathERKNSt3__16vectorINS1_12basic_stringIcNS1_11char_traitsIcEENS1_9allocatorIcEEEENS6_IS8_EEEE, 
                       __ZN38pxrInternal_v0_21__aapl__pxrReserved__17ArDefaultResolver21ComputeNormalizedPathERKNSt3__112basic_stringIcNS1_11char_traitsIcEENS1_9allocatorIcEEEE, 
                       __ZN38pxrInternal_v0_21__aapl__pxrReserved__17ArDefaultResolver21ComputeRepositoryPathERKNSt3__112basic_stringIcNS1_11char_traitsIcEENS1_9allocatorIcEEEE, 
                       __ZN38pxrInternal_v0_21__aapl__pxrReserved__17ArDefaultResolver24FetchToLocalResolvedPathERKNSt3__112basic_stringIcNS1_11char_traitsIcEENS1_9allocatorIcEEEES9_, 
                       __ZN38pxrInternal_v0_21__aapl__pxrReserved__17ArDefaultResolver24GetModificationTimestampERKNSt3__112basic_stringIcNS1_11char_traitsIcEENS1_9allocatorIcEEEES9_, 
                       __ZN38pxrInternal_v0_21__aapl__pxrReserved__17ArDefaultResolver25ConfigureResolverForAssetERKNSt3__112basic_stringIcNS1_11char_traitsIcEENS1_9allocatorIcEEEE, 
                       __ZN38pxrInternal_v0_21__aapl__pxrReserved__17ArDefaultResolver28CreateDefaultContextForAssetERKNSt3__112basic_stringIcNS1_11char_traitsIcEENS1_9allocatorIcEEEE, 
                       __ZN38pxrInternal_v0_21__aapl__pxrReserved__17ArDefaultResolver31CanCreateNewLayerWithIdentifierERKNSt3__112basic_stringIcNS1_11char_traitsIcEENS1_9allocatorIcEEEEPS7_, 
                       __ZN38pxrInternal_v0_21__aapl__pxrReserved__17ArDefaultResolver7ResolveERKNSt3__112basic_stringIcNS1_11char_traitsIcEENS1_9allocatorIcEEEE, 
                       __ZN38pxrInternal_v0_21__aapl__pxrReserved__17ArDefaultResolver9OpenAssetERKNSt3__112basic_stringIcNS1_11char_traitsIcEENS1_9allocatorIcEEEE, 
                       __ZN38pxrInternal_v0_21__aapl__pxrReserved__17ArDefaultResolverC1Ev, 
                       __ZN38pxrInternal_v0_21__aapl__pxrReserved__17ArDefaultResolverC2Ev, 
                       __ZN38pxrInternal_v0_21__aapl__pxrReserved__17ArDefaultResolverD0Ev, 
                       __ZN38pxrInternal_v0_21__aapl__pxrReserved__17ArDefaultResolverD1Ev, 
                       __ZN38pxrInternal_v0_21__aapl__pxrReserved__17ArDefaultResolverD2Ev, 
                       __ZN38pxrInternal_v0_21__aapl__pxrReserved__17ArFilesystemAsset13GetFileUnsafeEv, 
                       __ZN38pxrInternal_v0_21__aapl__pxrReserved__17ArFilesystemAsset4OpenERKNS_14ArResolvedPathE, 
                       __ZN38pxrInternal_v0_21__aapl__pxrReserved__17ArFilesystemAsset4ReadEPvmm, 
                       __ZN38pxrInternal_v0_21__aapl__pxrReserved__17ArFilesystemAsset7GetSizeEv, 
                       __ZN38pxrInternal_v0_21__aapl__pxrReserved__17ArFilesystemAsset9GetBufferEv, 
                       __ZN38pxrInternal_v0_21__aapl__pxrReserved__17ArFilesystemAssetC1EP7__sFILE, 
                       __ZN38pxrInternal_v0_21__aapl__pxrReserved__17ArFilesystemAssetC2EP7__sFILE, 
                       __ZN38pxrInternal_v0_21__aapl__pxrReserved__17ArFilesystemAssetD0Ev, 
                       __ZN38pxrInternal_v0_21__aapl__pxrReserved__17ArFilesystemAssetD1Ev, 
                       __ZN38pxrInternal_v0_21__aapl__pxrReserved__17ArFilesystemAssetD2Ev, 
                       __ZN38pxrInternal_v0_21__aapl__pxrReserved__17ArPackageResolverC2Ev, 
                       __ZN38pxrInternal_v0_21__aapl__pxrReserved__17ArPackageResolverD0Ev, 
                       __ZN38pxrInternal_v0_21__aapl__pxrReserved__17ArPackageResolverD1Ev, 
                       __ZN38pxrInternal_v0_21__aapl__pxrReserved__17ArPackageResolverD2Ev, 
                       __ZN38pxrInternal_v0_21__aapl__pxrReserved__17ArResolverContext8_UntypedD0Ev, 
                       __ZN38pxrInternal_v0_21__aapl__pxrReserved__17ArResolverContext8_UntypedD1Ev, 
                       __ZN38pxrInternal_v0_21__aapl__pxrReserved__17ArResolverContext8_UntypedD2Ev, 
                       __ZN38pxrInternal_v0_21__aapl__pxrReserved__17Ar_GetDebugStringERKSt9type_infoPKv, 
                       __ZN38pxrInternal_v0_21__aapl__pxrReserved__17ArchCloseAllFilesEiPKi, 
                       __ZN38pxrInternal_v0_21__aapl__pxrReserved__17ArchGetFileLengthEP7__sFILE, 
                       __ZN38pxrInternal_v0_21__aapl__pxrReserved__17ArchGetFileLengthEPKc, 
                       __ZN38pxrInternal_v0_21__aapl__pxrReserved__17ArchGetStackTraceEm, 
                       __ZN38pxrInternal_v0_21__aapl__pxrReserved__17ArchLogPostMortemEPKcS1_S1_, 
                       __ZN38pxrInternal_v0_21__aapl__pxrReserved__17ArchLogStackTraceERKNSt3__112basic_stringIcNS0_11char_traitsIcEENS0_9allocatorIcEEEES8_bS8_, 
                       __ZN38pxrInternal_v0_21__aapl__pxrReserved__17ArchLogStackTraceERKNSt3__112basic_stringIcNS0_11char_traitsIcEENS0_9allocatorIcEEEEbS8_, 
                       __ZN38pxrInternal_v0_21__aapl__pxrReserved__17ArchMakeTmpSubdirERKNSt3__112basic_stringIcNS0_11char_traitsIcEENS0_9allocatorIcEEEES8_, 
                       __ZN38pxrInternal_v0_21__aapl__pxrReserved__17ArchSetLogSessionEPKcPKS1_S3_, 
                       __ZN38pxrInternal_v0_21__aapl__pxrReserved__17ArchSetPostMortemEPKcPKS1_, 
                       __ZN38pxrInternal_v0_21__aapl__pxrReserved__17CameraUtilFramingC1ERKNS_8GfRect2iE, 
                       __ZN38pxrInternal_v0_21__aapl__pxrReserved__17CameraUtilFramingC1ERKNS_9GfRange2fERKNS_8GfRect2iEf, 
                       __ZN38pxrInternal_v0_21__aapl__pxrReserved__17CameraUtilFramingC1Ev, 
                       __ZN38pxrInternal_v0_21__aapl__pxrReserved__17CameraUtilFramingC2ERKNS_8GfRect2iE, 
                       __ZN38pxrInternal_v0_21__aapl__pxrReserved__17CameraUtilFramingC2ERKNS_9GfRange2fERKNS_8GfRect2iEf, 
                       __ZN38pxrInternal_v0_21__aapl__pxrReserved__17CameraUtilFramingC2Ev, 
                       __ZN38pxrInternal_v0_21__aapl__pxrReserved__17GfGetDisplayGammaEv, 
                       __ZN38pxrInternal_v0_21__aapl__pxrReserved__17HdInstancerTokensE, 
                       __ZN38pxrInternal_v0_21__aapl__pxrReserved__17HdInvertCullStyleENS_11HdCullStyleE, 
                       __ZN38pxrInternal_v0_21__aapl__pxrReserved__17HdRenderPassState10SetStencilENS_17HdCompareFunctionEiiNS_11HdStencilOpES2_S2_, 
                       __ZN38pxrInternal_v0_21__aapl__pxrReserved__17HdRenderPassState12SetCullStyleENS_11HdCullStyleE, 
                       __ZN38pxrInternal_v0_21__aapl__pxrReserved__17HdRenderPassState12SetDepthBiasEff, 
                       __ZN38pxrInternal_v0_21__aapl__pxrReserved__17HdRenderPassState12SetDepthFuncENS_17HdCompareFunctionE, 
                       __ZN38pxrInternal_v0_21__aapl__pxrReserved__17HdRenderPassState12SetLineWidthEf, 
                       __ZN38pxrInternal_v0_21__aapl__pxrReserved__17HdRenderPassState12SetMaskColorERKNS_7GfVec4fE, 
                       __ZN38pxrInternal_v0_21__aapl__pxrReserved__17HdRenderPassState12SetPointSizeEf, 
                       __ZN38pxrInternal_v0_21__aapl__pxrReserved__17HdRenderPassState12SetTessLevelEf, 
                       __ZN38pxrInternal_v0_21__aapl__pxrReserved__17HdRenderPassState13SetColorMasksERKNSt3__16vectorINS0_9ColorMaskENS1_9allocatorIS3_EEEE, 
                       __ZN38pxrInternal_v0_21__aapl__pxrReserved__17HdRenderPassState13SetPointColorERKNS_7GfVec4fE, 
                       __ZN38pxrInternal_v0_21__aapl__pxrReserved__17HdRenderPassState14SetAovBindingsERKNSt3__16vectorINS_22HdRenderPassAovBindingENS1_9allocatorIS3_EEEE, 
                       __ZN38pxrInternal_v0_21__aapl__pxrReserved__17HdRenderPassState15SetBlendEnabledEb, 
                       __ZN38pxrInternal_v0_21__aapl__pxrReserved__17HdRenderPassState15SetDrawingRangeERKNS_7GfVec2fE, 
                       __ZN38pxrInternal_v0_21__aapl__pxrReserved__17HdRenderPassState16SetOverrideColorERKNS_7GfVec4fE, 
                       __ZN38pxrInternal_v0_21__aapl__pxrReserved__17HdRenderPassState17SetAlphaThresholdEf, 
                       __ZN38pxrInternal_v0_21__aapl__pxrReserved__17HdRenderPassState17SetIndicatorColorERKNS_7GfVec4fE, 
                       __ZN38pxrInternal_v0_21__aapl__pxrReserved__17HdRenderPassState17SetStencilEnabledEb, 
                       __ZN38pxrInternal_v0_21__aapl__pxrReserved__17HdRenderPassState17SetWireframeColorERKNS_7GfVec4fE, 
                       __ZN38pxrInternal_v0_21__aapl__pxrReserved__17HdRenderPassState18GetEnableDepthMaskEv, 
                       __ZN38pxrInternal_v0_21__aapl__pxrReserved__17HdRenderPassState18SetClippingEnabledEb, 
                       __ZN38pxrInternal_v0_21__aapl__pxrReserved__17HdRenderPassState18SetEnableDepthMaskEb, 
                       __ZN38pxrInternal_v0_21__aapl__pxrReserved__17HdRenderPassState18SetEnableDepthTestEb, 
                       __ZN38pxrInternal_v0_21__aapl__pxrReserved__17HdRenderPassState18SetLightingEnabledEb, 
                       __ZN38pxrInternal_v0_21__aapl__pxrReserved__17HdRenderPassState19SetAovInputBindingsERKNSt3__16vectorINS_22HdRenderPassAovBindingENS1_9allocatorIS3_EEEE, 
                       __ZN38pxrInternal_v0_21__aapl__pxrReserved__17HdRenderPassState19SetCameraAndFramingEPKNS_8HdCameraERKNS_17CameraUtilFramingERKNSt3__14pairIbNS_29CameraUtilConformWindowPolicyEEE, 
                       __ZN38pxrInternal_v0_21__aapl__pxrReserved__17HdRenderPassState19SetDepthBiasEnabledEb, 
                       __ZN38pxrInternal_v0_21__aapl__pxrReserved__17HdRenderPassState20SetCameraAndViewportEPKNS_8HdCameraERKNS_7GfVec4dE, 
                       __ZN38pxrInternal_v0_21__aapl__pxrReserved__17HdRenderPassState20SetPointSelectedSizeEf, 
                       __ZN38pxrInternal_v0_21__aapl__pxrReserved__17HdRenderPassState20SetUseAovMultiSampleEb, 
                       __ZN38pxrInternal_v0_21__aapl__pxrReserved__17HdRenderPassState21SetBlendConstantColorERKNS_7GfVec4fE, 
                       __ZN38pxrInternal_v0_21__aapl__pxrReserved__17HdRenderPassState22SetColorMaskUseDefaultEb, 
                       __ZN38pxrInternal_v0_21__aapl__pxrReserved__17HdRenderPassState22SetDepthBiasUseDefaultEb, 
                       __ZN38pxrInternal_v0_21__aapl__pxrReserved__17HdRenderPassState25SetAlphaToCoverageEnabledEb, 
                       __ZN38pxrInternal_v0_21__aapl__pxrReserved__17HdRenderPassState7PrepareERKNSt3__110shared_ptrINS_18HdResourceRegistryEEE, 
                       __ZN38pxrInternal_v0_21__aapl__pxrReserved__17HdRenderPassState8SetBlendENS_9HdBlendOpENS_13HdBlendFactorES2_S1_S2_S2_, 
                       __ZN38pxrInternal_v0_21__aapl__pxrReserved__17HdRenderPassStateC1Ev, 
                       __ZN38pxrInternal_v0_21__aapl__pxrReserved__17HdRenderPassStateC2Ev, 
                       __ZN38pxrInternal_v0_21__aapl__pxrReserved__17HdRenderPassStateD0Ev, 
                       __ZN38pxrInternal_v0_21__aapl__pxrReserved__17HdRenderPassStateD1Ev, 
                       __ZN38pxrInternal_v0_21__aapl__pxrReserved__17HdRenderPassStateD2Ev, 
                       __ZN38pxrInternal_v0_21__aapl__pxrReserved__17HdRenderTagTokensE, 
                       __ZN38pxrInternal_v0_21__aapl__pxrReserved__17HdRprimCollection11SetRootPathERKNS_7SdfPathE, 
                       __ZN38pxrInternal_v0_21__aapl__pxrReserved__17HdRprimCollection12SetRootPathsERKNSt3__16vectorINS_7SdfPathENS1_9allocatorIS3_EEEE, 
                       __ZN38pxrInternal_v0_21__aapl__pxrReserved__17HdRprimCollection14SetMaterialTagERKNS_7TfTokenE, 
                       __ZN38pxrInternal_v0_21__aapl__pxrReserved__17HdRprimCollection15SetExcludePathsERKNSt3__16vectorINS_7SdfPathENS1_9allocatorIS3_EEEE, 
                       __ZN38pxrInternal_v0_21__aapl__pxrReserved__17HdRprimCollectionC1ERKNS_7TfTokenERKNS_14HdReprSelectorERKNS_7SdfPathEbS3_, 
                       __ZN38pxrInternal_v0_21__aapl__pxrReserved__17HdRprimCollectionC1ERKNS_7TfTokenERKNS_14HdReprSelectorEbS3_, 
                       __ZN38pxrInternal_v0_21__aapl__pxrReserved__17HdRprimCollectionC1ERKS0_, 
                       __ZN38pxrInternal_v0_21__aapl__pxrReserved__17HdRprimCollectionC1Ev, 
                       __ZN38pxrInternal_v0_21__aapl__pxrReserved__17HdRprimCollectionC2ERKNS_7TfTokenERKNS_14HdReprSelectorERKNS_7SdfPathEbS3_, 
                       __ZN38pxrInternal_v0_21__aapl__pxrReserved__17HdRprimCollectionC2ERKNS_7TfTokenERKNS_14HdReprSelectorEbS3_, 
                       __ZN38pxrInternal_v0_21__aapl__pxrReserved__17HdRprimCollectionC2ERKS0_, 
                       __ZN38pxrInternal_v0_21__aapl__pxrReserved__17HdRprimCollectionC2Ev, 
                       __ZN38pxrInternal_v0_21__aapl__pxrReserved__17HdRprimCollectionD0Ev, 
                       __ZN38pxrInternal_v0_21__aapl__pxrReserved__17HdRprimCollectionD1Ev, 
                       __ZN38pxrInternal_v0_21__aapl__pxrReserved__17HdRprimCollectionD2Ev, 
                       __ZN38pxrInternal_v0_21__aapl__pxrReserved__17PcpLayerStackSiteC1ERKNS_8TfRefPtrINS_13PcpLayerStackEEERKNS_7SdfPathE, 
                       __ZN38pxrInternal_v0_21__aapl__pxrReserved__17PcpLayerStackSiteC1Ev, 
                       __ZN38pxrInternal_v0_21__aapl__pxrReserved__17PcpLayerStackSiteC2ERKNS_8TfRefPtrINS_13PcpLayerStackEEERKNS_7SdfPathE, 
                       __ZN38pxrInternal_v0_21__aapl__pxrReserved__17PcpLayerStackSiteC2Ev, 
                       __ZN38pxrInternal_v0_21__aapl__pxrReserved__17PxOsdMeshTopologyC1ERKNS_7TfTokenES3_RKNS_7VtArrayIiEES7_, 
                       __ZN38pxrInternal_v0_21__aapl__pxrReserved__17PxOsdMeshTopologyC1ERKNS_7TfTokenES3_RKNS_7VtArrayIiEES7_RKNS_15PxOsdSubdivTagsE, 
                       __ZN38pxrInternal_v0_21__aapl__pxrReserved__17PxOsdMeshTopologyC1ERKNS_7TfTokenES3_RKNS_7VtArrayIiEES7_S7_, 
                       __ZN38pxrInternal_v0_21__aapl__pxrReserved__17PxOsdMeshTopologyC1ERKNS_7TfTokenES3_RKNS_7VtArrayIiEES7_S7_RKNS_15PxOsdSubdivTagsE, 
                       __ZN38pxrInternal_v0_21__aapl__pxrReserved__17PxOsdMeshTopologyC1Ev, 
                       __ZN38pxrInternal_v0_21__aapl__pxrReserved__17PxOsdMeshTopologyC2ERKNS_7TfTokenES3_RKNS_7VtArrayIiEES7_, 
                       __ZN38pxrInternal_v0_21__aapl__pxrReserved__17PxOsdMeshTopologyC2ERKNS_7TfTokenES3_RKNS_7VtArrayIiEES7_RKNS_15PxOsdSubdivTagsE, 
                       __ZN38pxrInternal_v0_21__aapl__pxrReserved__17PxOsdMeshTopologyC2ERKNS_7TfTokenES3_RKNS_7VtArrayIiEES7_S7_, 
                       __ZN38pxrInternal_v0_21__aapl__pxrReserved__17PxOsdMeshTopologyC2ERKNS_7TfTokenES3_RKNS_7VtArrayIiEES7_S7_RKNS_15PxOsdSubdivTagsE, 
                       __ZN38pxrInternal_v0_21__aapl__pxrReserved__17PxOsdMeshTopologyC2Ev, 
                       __ZN38pxrInternal_v0_21__aapl__pxrReserved__17SdfCleanupEnabler16IsCleanupEnabledEv, 
                       __ZN38pxrInternal_v0_21__aapl__pxrReserved__17SdfCleanupEnablerC1Ev, 
                       __ZN38pxrInternal_v0_21__aapl__pxrReserved__17SdfCleanupEnablerC2Ev, 
                       __ZN38pxrInternal_v0_21__aapl__pxrReserved__17SdfCleanupEnablerD1Ev, 
                       __ZN38pxrInternal_v0_21__aapl__pxrReserved__17SdfCleanupEnablerD2Ev, 
                       __ZN38pxrInternal_v0_21__aapl__pxrReserved__17SdfGetNameForUnitERKNS_6TfEnumE, 
                       __ZN38pxrInternal_v0_21__aapl__pxrReserved__17SdfTextFileFormatC1ERKNS_7TfTokenES3_S3_, 
                       __ZN38pxrInternal_v0_21__aapl__pxrReserved__17SdfTextFileFormatC1Ev, 
                       __ZN38pxrInternal_v0_21__aapl__pxrReserved__17SdfTextFileFormatC2ERKNS_7TfTokenES3_S3_, 
                       __ZN38pxrInternal_v0_21__aapl__pxrReserved__17SdfTextFileFormatC2Ev, 
                       __ZN38pxrInternal_v0_21__aapl__pxrReserved__17SdfTextFileFormatD0Ev, 
                       __ZN38pxrInternal_v0_21__aapl__pxrReserved__17SdfTextFileFormatD1Ev, 
                       __ZN38pxrInternal_v0_21__aapl__pxrReserved__17SdfTextFileFormatD2Ev, 
                       __ZN38pxrInternal_v0_21__aapl__pxrReserved__17SdfValueRoleNamesE, 
                       __ZN38pxrInternal_v0_21__aapl__pxrReserved__17SdfValueTypeNamesE, 
                       __ZN38pxrInternal_v0_21__aapl__pxrReserved__17SdfVariantSetSpec13RemoveVariantERKNS_9SdfHandleINS_14SdfVariantSpecEEE, 
                       __ZN38pxrInternal_v0_21__aapl__pxrReserved__17SdfVariantSetSpec3NewERKNS_9SdfHandleINS_11SdfPrimSpecEEERKNSt3__112basic_stringIcNS6_11char_traitsIcEENS6_9allocatorIcEEEE, 
                       __ZN38pxrInternal_v0_21__aapl__pxrReserved__17SdfVariantSetSpec3NewERKNS_9SdfHandleINS_14SdfVariantSpecEEERKNSt3__112basic_stringIcNS6_11char_traitsIcEENS6_9allocatorIcEEEE, 
                       __ZN38pxrInternal_v0_21__aapl__pxrReserved__17Sdf_CanCastToTypeERKNS_7SdfSpecERKSt9type_info, 
                       __ZN38pxrInternal_v0_21__aapl__pxrReserved__17Sdf_DumpPathStatsEv, 
                       __ZN38pxrInternal_v0_21__aapl__pxrReserved__17SdrShaderPropertyC1ERKNS_7TfTokenES3_RKNS_7VtValueEbmRKNSt3__113unordered_mapIS1_NS7_12basic_stringIcNS7_11char_traitsIcEENS7_9allocatorIcEEEENS1_11HashFunctorENS7_8equal_toIS1_EENSC_INS7_4pairIS2_SE_EEEEEESN_RKNS7_6vectorINSI_IS1_S1_EENSC_ISP_EEEE, 
                       __ZN38pxrInternal_v0_21__aapl__pxrReserved__17SdrShaderPropertyC2ERKNS_7TfTokenES3_RKNS_7VtValueEbmRKNSt3__113unordered_mapIS1_NS7_12basic_stringIcNS7_11char_traitsIcEENS7_9allocatorIcEEEENS1_11HashFunctorENS7_8equal_toIS1_EENSC_INS7_4pairIS2_SE_EEEEEESN_RKNS7_6vectorINSI_IS1_S1_EENSC_ISP_EEEE, 
                       __ZN38pxrInternal_v0_21__aapl__pxrReserved__17TfFastCompression15GetMaxInputSizeEv, 
                       __ZN38pxrInternal_v0_21__aapl__pxrReserved__17TfFastCompression16CompressToBufferEPKcPcm, 
                       __ZN38pxrInternal_v0_21__aapl__pxrReserved__17TfFastCompression20DecompressFromBufferEPKcPcmm, 
                       __ZN38pxrInternal_v0_21__aapl__pxrReserved__17TfFastCompression23GetCompressedBufferSizeEm, 
                       __ZN38pxrInternal_v0_21__aapl__pxrReserved__17TfPrintStackTraceEP7__sFILERKNSt3__112basic_stringIcNS2_11char_traitsIcEENS2_9allocatorIcEEEE, 
                       __ZN38pxrInternal_v0_21__aapl__pxrReserved__17TfPrintStackTraceERNSt3__113basic_ostreamIcNS0_11char_traitsIcEEEERKNS0_12basic_stringIcS3_NS0_9allocatorIcEEEE, 
                       __ZN38pxrInternal_v0_21__aapl__pxrReserved__17TfRegistryManager11GetInstanceEv, 
                       __ZN38pxrInternal_v0_21__aapl__pxrReserved__17TfRegistryManager12_SubscribeToERKSt9type_info, 
                       __ZN38pxrInternal_v0_21__aapl__pxrReserved__17TfRegistryManager16_UnsubscribeFromERKSt9type_info, 
                       __ZN38pxrInternal_v0_21__aapl__pxrReserved__17TfRegistryManager18RunUnloadersAtExitEv, 
                       __ZN38pxrInternal_v0_21__aapl__pxrReserved__17TfRegistryManager20AddFunctionForUnloadERKNSt3__18functionIFvvEEE, 
                       __ZN38pxrInternal_v0_21__aapl__pxrReserved__17TfRegistryManagerC1Ev, 
                       __ZN38pxrInternal_v0_21__aapl__pxrReserved__17TfRegistryManagerC2Ev, 
                       __ZN38pxrInternal_v0_21__aapl__pxrReserved__17TfRegistryManagerD1Ev, 
                       __ZN38pxrInternal_v0_21__aapl__pxrReserved__17TfRegistryManagerD2Ev, 
                       __ZN38pxrInternal_v0_21__aapl__pxrReserved__17TfStringGetSuffixERKNSt3__112basic_stringIcNS0_11char_traitsIcEENS0_9allocatorIcEEEEc, 
                       __ZN38pxrInternal_v0_21__aapl__pxrReserved__17TfStringTrimRightERKNSt3__112basic_stringIcNS0_11char_traitsIcEENS0_9allocatorIcEEEEPKc, 
                       __ZN38pxrInternal_v0_21__aapl__pxrReserved__17Tf_DlOpenIsActiveEv, 
                       __ZN38pxrInternal_v0_21__aapl__pxrReserved__17Tf_ExpiryNotifier11SetNotifierEPFvPKvE, 
                       __ZN38pxrInternal_v0_21__aapl__pxrReserved__17Tf_ExpiryNotifier12SetNotifier2EPFvPKvE, 
                       __ZN38pxrInternal_v0_21__aapl__pxrReserved__17Tf_ExpiryNotifier5_funcE, 
                       __ZN38pxrInternal_v0_21__aapl__pxrReserved__17Tf_ExpiryNotifier6InvokeEPKv, 
                       __ZN38pxrInternal_v0_21__aapl__pxrReserved__17Tf_ExpiryNotifier6_func2E, 
                       __ZN38pxrInternal_v0_21__aapl__pxrReserved__17Tf_ExpiryNotifier7Invoke2EPKv, 
                       __ZN38pxrInternal_v0_21__aapl__pxrReserved__17TraceReporterBase6_ClearEv, 
                       __ZN38pxrInternal_v0_21__aapl__pxrReserved__17TraceReporterBase7_UpdateEv, 
                       __ZN38pxrInternal_v0_21__aapl__pxrReserved__17TraceReporterBaseC2ENSt3__110unique_ptrINS_27TraceReporterDataSourceBaseENS1_14default_deleteIS3_EEEE, 
                       __ZN38pxrInternal_v0_21__aapl__pxrReserved__17TraceReporterBaseD0Ev, 
                       __ZN38pxrInternal_v0_21__aapl__pxrReserved__17TraceReporterBaseD1Ev, 
                       __ZN38pxrInternal_v0_21__aapl__pxrReserved__17TraceReporterBaseD2Ev, 
                       __ZN38pxrInternal_v0_21__aapl__pxrReserved__17UsdAttributeQuery11_InitializeERKNS_12UsdAttributeE, 
                       __ZN38pxrInternal_v0_21__aapl__pxrReserved__17UsdAttributeQuery13CreateQueriesERKNS_7UsdPrimERKNSt3__16vectorINS_7TfTokenENS4_9allocatorIS6_EEEE, 
                       __ZN38pxrInternal_v0_21__aapl__pxrReserved__17UsdAttributeQuery21GetUnionedTimeSamplesERKNSt3__16vectorIS0_NS1_9allocatorIS0_EEEEPNS2_IdNS3_IdEEEE, 
                       __ZN38pxrInternal_v0_21__aapl__pxrReserved__17UsdAttributeQuery31GetUnionedTimeSamplesInIntervalERKNSt3__16vectorIS0_NS1_9allocatorIS0_EEEERKNS_10GfIntervalEPNS2_IdNS3_IdEEEE, 
                       __ZN38pxrInternal_v0_21__aapl__pxrReserved__17UsdAttributeQueryC1ERKNS_12UsdAttributeE, 
                       __ZN38pxrInternal_v0_21__aapl__pxrReserved__17UsdAttributeQueryC1ERKNS_7UsdPrimERKNS_7TfTokenE, 
                       __ZN38pxrInternal_v0_21__aapl__pxrReserved__17UsdAttributeQueryC1Ev, 
                       __ZN38pxrInternal_v0_21__aapl__pxrReserved__17UsdAttributeQueryC2ERKNS_12UsdAttributeE, 
                       __ZN38pxrInternal_v0_21__aapl__pxrReserved__17UsdAttributeQueryC2ERKNS_7UsdPrimERKNS_7TfTokenE, 
                       __ZN38pxrInternal_v0_21__aapl__pxrReserved__17UsdAttributeQueryC2Ev, 
                       __ZN38pxrInternal_v0_21__aapl__pxrReserved__17UsdGeomNurbsPatch14_IsTypedSchemaEv, 
                       __ZN38pxrInternal_v0_21__aapl__pxrReserved__17UsdGeomNurbsPatch16_GetStaticTfTypeEv, 
                       __ZN38pxrInternal_v0_21__aapl__pxrReserved__17UsdGeomNurbsPatch23GetSchemaAttributeNamesEb, 
                       __ZN38pxrInternal_v0_21__aapl__pxrReserved__17UsdGeomNurbsPatch3GetERKNS_9TfWeakPtrINS_8UsdStageEEERKNS_7SdfPathE, 
                       __ZN38pxrInternal_v0_21__aapl__pxrReserved__17UsdGeomNurbsPatch6DefineERKNS_9TfWeakPtrINS_8UsdStageEEERKNS_7SdfPathE, 
                       __ZN38pxrInternal_v0_21__aapl__pxrReserved__17UsdGeomNurbsPatchD0Ev, 
                       __ZN38pxrInternal_v0_21__aapl__pxrReserved__17UsdGeomNurbsPatchD1Ev, 
                       __ZN38pxrInternal_v0_21__aapl__pxrReserved__17UsdGeomNurbsPatchD2Ev, 
                       __ZN38pxrInternal_v0_21__aapl__pxrReserved__17UsdGeomPointBased13ComputeExtentERKNS_7VtArrayINS_7GfVec3fEEEPS3_, 
                       __ZN38pxrInternal_v0_21__aapl__pxrReserved__17UsdGeomPointBased13ComputeExtentERKNS_7VtArrayINS_7GfVec3fEEERKNS_10GfMatrix4dEPS3_, 
                       __ZN38pxrInternal_v0_21__aapl__pxrReserved__17UsdGeomPointBased14_IsTypedSchemaEv, 
                       __ZN38pxrInternal_v0_21__aapl__pxrReserved__17UsdGeomPointBased16_GetStaticTfTypeEv, 
                       __ZN38pxrInternal_v0_21__aapl__pxrReserved__17UsdGeomPointBased19ComputePointsAtTimeEPNS_7VtArrayINS_7GfVec3fEEERNS_9TfWeakPtrINS_8UsdStageEEENS_11UsdTimeCodeERKS3_SB_S9_SB_f, 
                       __ZN38pxrInternal_v0_21__aapl__pxrReserved__17UsdGeomPointBased23GetSchemaAttributeNamesEb, 
                       __ZN38pxrInternal_v0_21__aapl__pxrReserved__17UsdGeomPointBased23SetNormalsInterpolationERKNS_7TfTokenE, 
                       __ZN38pxrInternal_v0_21__aapl__pxrReserved__17UsdGeomPointBased3GetERKNS_9TfWeakPtrINS_8UsdStageEEERKNS_7SdfPathE, 
                       __ZN38pxrInternal_v0_21__aapl__pxrReserved__17UsdGeomPointBasedD0Ev, 
                       __ZN38pxrInternal_v0_21__aapl__pxrReserved__17UsdGeomPointBasedD1Ev, 
                       __ZN38pxrInternal_v0_21__aapl__pxrReserved__17UsdGeomPointBasedD2Ev, 
                       __ZN38pxrInternal_v0_21__aapl__pxrReserved__17UsdGeomTokensTypeC1Ev, 
                       __ZN38pxrInternal_v0_21__aapl__pxrReserved__17UsdGeomTokensTypeC2Ev, 
                       __ZN38pxrInternal_v0_21__aapl__pxrReserved__17UsdGeomXformCache18GetResetXformStackERKNS_7UsdPrimE, 
                       __ZN38pxrInternal_v0_21__aapl__pxrReserved__17UsdGeomXformCache21_GetCacheEntryForPrimERKNS_7UsdPrimE, 
                       __ZN38pxrInternal_v0_21__aapl__pxrReserved__17UsdGeomXformCache22GetLocalTransformationERKNS_7UsdPrimEPb, 
                       __ZN38pxrInternal_v0_21__aapl__pxrReserved__17UsdGeomXformCache24ComputeRelativeTransformERKNS_7UsdPrimES3_Pb, 
                       __ZN38pxrInternal_v0_21__aapl__pxrReserved__17UsdGeomXformCache24GetLocalToWorldTransformERKNS_7UsdPrimE, 
                       __ZN38pxrInternal_v0_21__aapl__pxrReserved__17UsdGeomXformCache25GetParentToWorldTransformERKNS_7UsdPrimE, 
                       __ZN38pxrInternal_v0_21__aapl__pxrReserved__17UsdGeomXformCache27TransformMightBeTimeVaryingERKNS_7UsdPrimE, 
                       __ZN38pxrInternal_v0_21__aapl__pxrReserved__17UsdGeomXformCache35IsAttributeIncludedInLocalTransformERKNS_7UsdPrimERKNS_7TfTokenE, 
                       __ZN38pxrInternal_v0_21__aapl__pxrReserved__17UsdGeomXformCache4SwapERS0_, 
                       __ZN38pxrInternal_v0_21__aapl__pxrReserved__17UsdGeomXformCache5ClearEv, 
                       __ZN38pxrInternal_v0_21__aapl__pxrReserved__17UsdGeomXformCache7SetTimeENS_11UsdTimeCodeE, 
                       __ZN38pxrInternal_v0_21__aapl__pxrReserved__17UsdGeomXformCache7_GetCtmERKNS_7UsdPrimE, 
                       __ZN38pxrInternal_v0_21__aapl__pxrReserved__17UsdGeomXformCacheC1ENS_11UsdTimeCodeE, 
                       __ZN38pxrInternal_v0_21__aapl__pxrReserved__17UsdGeomXformCacheC1Ev, 
                       __ZN38pxrInternal_v0_21__aapl__pxrReserved__17UsdGeomXformCacheC2ENS_11UsdTimeCodeE, 
                       __ZN38pxrInternal_v0_21__aapl__pxrReserved__17UsdGeomXformCacheC2Ev, 
                       __ZN38pxrInternal_v0_21__aapl__pxrReserved__17UsdLuxLightFilter11CreateInputERKNS_7TfTokenERKNS_16SdfValueTypeNameE, 
                       __ZN38pxrInternal_v0_21__aapl__pxrReserved__17UsdLuxLightFilter12CreateOutputERKNS_7TfTokenERKNS_16SdfValueTypeNameE, 
                       __ZN38pxrInternal_v0_21__aapl__pxrReserved__17UsdLuxLightFilter14_IsTypedSchemaEv, 
                       __ZN38pxrInternal_v0_21__aapl__pxrReserved__17UsdLuxLightFilter16_GetStaticTfTypeEv, 
                       __ZN38pxrInternal_v0_21__aapl__pxrReserved__17UsdLuxLightFilter23GetSchemaAttributeNamesEb, 
                       __ZN38pxrInternal_v0_21__aapl__pxrReserved__17UsdLuxLightFilter3GetERKNS_9TfWeakPtrINS_8UsdStageEEERKNS_7SdfPathE, 
                       __ZN38pxrInternal_v0_21__aapl__pxrReserved__17UsdLuxLightFilter6DefineERKNS_9TfWeakPtrINS_8UsdStageEEERKNS_7SdfPathE, 
                       __ZN38pxrInternal_v0_21__aapl__pxrReserved__17UsdLuxLightFilterC1ERKNS_22UsdShadeConnectableAPIE, 
                       __ZN38pxrInternal_v0_21__aapl__pxrReserved__17UsdLuxLightFilterC2ERKNS_22UsdShadeConnectableAPIE, 
                       __ZN38pxrInternal_v0_21__aapl__pxrReserved__17UsdLuxLightFilterD0Ev, 
                       __ZN38pxrInternal_v0_21__aapl__pxrReserved__17UsdLuxLightFilterD1Ev, 
                       __ZN38pxrInternal_v0_21__aapl__pxrReserved__17UsdLuxLightFilterD2Ev, 
                       __ZN38pxrInternal_v0_21__aapl__pxrReserved__17UsdLuxLightPortal14_IsTypedSchemaEv, 
                       __ZN38pxrInternal_v0_21__aapl__pxrReserved__17UsdLuxLightPortal16_GetStaticTfTypeEv, 
                       __ZN38pxrInternal_v0_21__aapl__pxrReserved__17UsdLuxLightPortal23GetSchemaAttributeNamesEb, 
                       __ZN38pxrInternal_v0_21__aapl__pxrReserved__17UsdLuxLightPortal3GetERKNS_9TfWeakPtrINS_8UsdStageEEERKNS_7SdfPathE, 
                       __ZN38pxrInternal_v0_21__aapl__pxrReserved__17UsdLuxLightPortal6DefineERKNS_9TfWeakPtrINS_8UsdStageEEERKNS_7SdfPathE, 
                       __ZN38pxrInternal_v0_21__aapl__pxrReserved__17UsdLuxLightPortalD0Ev, 
                       __ZN38pxrInternal_v0_21__aapl__pxrReserved__17UsdLuxLightPortalD1Ev, 
                       __ZN38pxrInternal_v0_21__aapl__pxrReserved__17UsdLuxLightPortalD2Ev, 
                       __ZN38pxrInternal_v0_21__aapl__pxrReserved__17UsdLuxPluginLight14_IsTypedSchemaEv, 
                       __ZN38pxrInternal_v0_21__aapl__pxrReserved__17UsdLuxPluginLight16_GetStaticTfTypeEv, 
                       __ZN38pxrInternal_v0_21__aapl__pxrReserved__17UsdLuxPluginLight23GetSchemaAttributeNamesEb, 
                       __ZN38pxrInternal_v0_21__aapl__pxrReserved__17UsdLuxPluginLight3GetERKNS_9TfWeakPtrINS_8UsdStageEEERKNS_7SdfPathE, 
                       __ZN38pxrInternal_v0_21__aapl__pxrReserved__17UsdLuxPluginLight6DefineERKNS_9TfWeakPtrINS_8UsdStageEEERKNS_7SdfPathE, 
                       __ZN38pxrInternal_v0_21__aapl__pxrReserved__17UsdLuxPluginLightD0Ev, 
                       __ZN38pxrInternal_v0_21__aapl__pxrReserved__17UsdLuxPluginLightD1Ev, 
                       __ZN38pxrInternal_v0_21__aapl__pxrReserved__17UsdLuxPluginLightD2Ev, 
                       __ZN38pxrInternal_v0_21__aapl__pxrReserved__17UsdLuxPortalLight14_IsTypedSchemaEv, 
                       __ZN38pxrInternal_v0_21__aapl__pxrReserved__17UsdLuxPortalLight16_GetStaticTfTypeEv, 
                       __ZN38pxrInternal_v0_21__aapl__pxrReserved__17UsdLuxPortalLight23GetSchemaAttributeNamesEb, 
                       __ZN38pxrInternal_v0_21__aapl__pxrReserved__17UsdLuxPortalLight3GetERKNS_9TfWeakPtrINS_8UsdStageEEERKNS_7SdfPathE, 
                       __ZN38pxrInternal_v0_21__aapl__pxrReserved__17UsdLuxPortalLight6DefineERKNS_9TfWeakPtrINS_8UsdStageEEERKNS_7SdfPathE, 
                       __ZN38pxrInternal_v0_21__aapl__pxrReserved__17UsdLuxPortalLightD0Ev, 
                       __ZN38pxrInternal_v0_21__aapl__pxrReserved__17UsdLuxPortalLightD1Ev, 
                       __ZN38pxrInternal_v0_21__aapl__pxrReserved__17UsdLuxPortalLightD2Ev, 
                       __ZN38pxrInternal_v0_21__aapl__pxrReserved__17UsdLuxSphereLight14_IsTypedSchemaEv, 
                       __ZN38pxrInternal_v0_21__aapl__pxrReserved__17UsdLuxSphereLight16_GetStaticTfTypeEv, 
                       __ZN38pxrInternal_v0_21__aapl__pxrReserved__17UsdLuxSphereLight23GetSchemaAttributeNamesEb, 
                       __ZN38pxrInternal_v0_21__aapl__pxrReserved__17UsdLuxSphereLight3GetERKNS_9TfWeakPtrINS_8UsdStageEEERKNS_7SdfPathE, 
                       __ZN38pxrInternal_v0_21__aapl__pxrReserved__17UsdLuxSphereLight6DefineERKNS_9TfWeakPtrINS_8UsdStageEEERKNS_7SdfPathE, 
                       __ZN38pxrInternal_v0_21__aapl__pxrReserved__17UsdLuxSphereLightD0Ev, 
                       __ZN38pxrInternal_v0_21__aapl__pxrReserved__17UsdLuxSphereLightD1Ev, 
                       __ZN38pxrInternal_v0_21__aapl__pxrReserved__17UsdLuxSphereLightD2Ev, 
                       __ZN38pxrInternal_v0_21__aapl__pxrReserved__17UsdPhysicsMassAPI14_IsTypedSchemaEv, 
                       __ZN38pxrInternal_v0_21__aapl__pxrReserved__17UsdPhysicsMassAPI16_GetStaticTfTypeEv, 
                       __ZN38pxrInternal_v0_21__aapl__pxrReserved__17UsdPhysicsMassAPI23GetSchemaAttributeNamesEb, 
                       __ZN38pxrInternal_v0_21__aapl__pxrReserved__17UsdPhysicsMassAPI3GetERKNS_9TfWeakPtrINS_8UsdStageEEERKNS_7SdfPathE, 
                       __ZN38pxrInternal_v0_21__aapl__pxrReserved__17UsdPhysicsMassAPI5ApplyERKNS_7UsdPrimE, 
                       __ZN38pxrInternal_v0_21__aapl__pxrReserved__17UsdPhysicsMassAPI8CanApplyERKNS_7UsdPrimEPNSt3__112basic_stringIcNS4_11char_traitsIcEENS4_9allocatorIcEEEE, 
                       __ZN38pxrInternal_v0_21__aapl__pxrReserved__17UsdPhysicsMassAPID0Ev, 
                       __ZN38pxrInternal_v0_21__aapl__pxrReserved__17UsdPhysicsMassAPID1Ev, 
                       __ZN38pxrInternal_v0_21__aapl__pxrReserved__17UsdPhysicsMassAPID2Ev, 
                       __ZN38pxrInternal_v0_21__aapl__pxrReserved__17UsdPrimDefinition12_SetPrimSpecERKNS_9SdfHandleINS_11SdfPrimSpecEEEb, 
                       __ZN38pxrInternal_v0_21__aapl__pxrReserved__17UsdPrimDefinition27_ApplyPropertiesFromPrimDefERKS0_RKNSt3__112basic_stringIcNS3_11char_traitsIcEENS3_9allocatorIcEEEE, 
                       __ZN38pxrInternal_v0_21__aapl__pxrReserved__17UsdPrimDefinitionC1ERKNS_9SdfHandleINS_11SdfPrimSpecEEEb, 
                       __ZN38pxrInternal_v0_21__aapl__pxrReserved__17UsdPrimDefinitionC2ERKNS_9SdfHandleINS_11SdfPrimSpecEEEb, 
                       __ZN38pxrInternal_v0_21__aapl__pxrReserved__17UsdRenderSettings14_IsTypedSchemaEv, 
                       __ZN38pxrInternal_v0_21__aapl__pxrReserved__17UsdRenderSettings16_GetStaticTfTypeEv, 
                       __ZN38pxrInternal_v0_21__aapl__pxrReserved__17UsdRenderSettings22GetStageRenderSettingsERKNS_9TfWeakPtrINS_8UsdStageEEE, 
                       __ZN38pxrInternal_v0_21__aapl__pxrReserved__17UsdRenderSettings23GetSchemaAttributeNamesEb, 
                       __ZN38pxrInternal_v0_21__aapl__pxrReserved__17UsdRenderSettings3GetERKNS_9TfWeakPtrINS_8UsdStageEEERKNS_7SdfPathE, 
                       __ZN38pxrInternal_v0_21__aapl__pxrReserved__17UsdRenderSettings6DefineERKNS_9TfWeakPtrINS_8UsdStageEEERKNS_7SdfPathE, 
                       __ZN38pxrInternal_v0_21__aapl__pxrReserved__17UsdRenderSettingsD0Ev, 
                       __ZN38pxrInternal_v0_21__aapl__pxrReserved__17UsdRenderSettingsD1Ev, 
                       __ZN38pxrInternal_v0_21__aapl__pxrReserved__17UsdRenderSettingsD2Ev, 
                       __ZN38pxrInternal_v0_21__aapl__pxrReserved__17UsdSchemaRegistry10IsConcreteERKNS_6TfTypeE, 
                       __ZN38pxrInternal_v0_21__aapl__pxrReserved__17UsdSchemaRegistry10IsConcreteERKNS_7TfTokenE, 
                       __ZN38pxrInternal_v0_21__aapl__pxrReserved__17UsdSchemaRegistry13GetSchemaKindERKNS_6TfTypeE, 
                       __ZN38pxrInternal_v0_21__aapl__pxrReserved__17UsdSchemaRegistry13GetSchemaKindERKNS_7TfTokenE, 
                       __ZN38pxrInternal_v0_21__aapl__pxrReserved__17UsdSchemaRegistry15GetTypeFromNameERKNS_7TfTokenE, 
                       __ZN38pxrInternal_v0_21__aapl__pxrReserved__17UsdSchemaRegistry17GetSchemaTypeNameERKNS_6TfTypeE, 
                       __ZN38pxrInternal_v0_21__aapl__pxrReserved__17UsdSchemaRegistry17IsDisallowedFieldERKNS_7TfTokenE, 
                       __ZN38pxrInternal_v0_21__aapl__pxrReserved__17UsdSchemaRegistry18IsAppliedAPISchemaERKNS_6TfTypeE, 
                       __ZN38pxrInternal_v0_21__aapl__pxrReserved__17UsdSchemaRegistry18IsAppliedAPISchemaERKNS_7TfTokenE, 
                       __ZN38pxrInternal_v0_21__aapl__pxrReserved__17UsdSchemaRegistry20GetAPISchemaTypeNameERKNS_6TfTypeE, 
                       __ZN38pxrInternal_v0_21__aapl__pxrReserved__17UsdSchemaRegistry22GetAutoApplyAPISchemasEv, 
                       __ZN38pxrInternal_v0_21__aapl__pxrReserved__17UsdSchemaRegistry22GetTypeNameAndInstanceERKNS_7TfTokenE, 
                       __ZN38pxrInternal_v0_21__aapl__pxrReserved__17UsdSchemaRegistry23_FindAndAddPluginSchemaEv, 
                       __ZN38pxrInternal_v0_21__aapl__pxrReserved__17UsdSchemaRegistry24IsMultipleApplyAPISchemaERKNS_6TfTypeE, 
                       __ZN38pxrInternal_v0_21__aapl__pxrReserved__17UsdSchemaRegistry24IsMultipleApplyAPISchemaERKNS_7TfTokenE, 
                       __ZN38pxrInternal_v0_21__aapl__pxrReserved__17UsdSchemaRegistry25GetConcreteSchemaTypeNameERKNS_6TfTypeE, 
                       __ZN38pxrInternal_v0_21__aapl__pxrReserved__17UsdSchemaRegistry25GetTypeFromSchemaTypeNameERKNS_7TfTokenE, 
                       __ZN38pxrInternal_v0_21__aapl__pxrReserved__17UsdSchemaRegistry28GetAPITypeFromSchemaTypeNameERKNS_7TfTokenE, 
                       __ZN38pxrInternal_v0_21__aapl__pxrReserved__17UsdSchemaRegistry30IsAllowedAPISchemaInstanceNameERKNS_7TfTokenES3_, 
                       __ZN38pxrInternal_v0_21__aapl__pxrReserved__17UsdSchemaRegistry33GetConcreteTypeFromSchemaTypeNameERKNS_7TfTokenE, 
                       __ZN38pxrInternal_v0_21__aapl__pxrReserved__17UsdSchemaRegistry35GetAPISchemaCanOnlyApplyToTypeNamesERKNS_7TfTokenES3_, 
                       __ZN38pxrInternal_v0_21__aapl__pxrReserved__17UsdSchemaRegistry46CollectAddtionalAutoApplyAPISchemasFromPluginsEPNSt3__13mapINS_7TfTokenENS1_6vectorIS3_NS1_9allocatorIS3_EEEENS1_4lessIS3_EENS5_INS1_4pairIKS3_S7_EEEEEE, 
                       __ZN38pxrInternal_v0_21__aapl__pxrReserved__17UsdSchemaRegistry7IsTypedERKNS_6TfTypeE, 
                       __ZN38pxrInternal_v0_21__aapl__pxrReserved__17UsdSchemaRegistryC1Ev, 
                       __ZN38pxrInternal_v0_21__aapl__pxrReserved__17UsdSchemaRegistryC2Ev, 
                       __ZN38pxrInternal_v0_21__aapl__pxrReserved__17UsdShadeNodeGraph14_IsTypedSchemaEv, 
                       __ZN38pxrInternal_v0_21__aapl__pxrReserved__17UsdShadeNodeGraph16_GetStaticTfTypeEv, 
                       __ZN38pxrInternal_v0_21__aapl__pxrReserved__17UsdShadeNodeGraph23GetSchemaAttributeNamesEb, 
                       __ZN38pxrInternal_v0_21__aapl__pxrReserved__17UsdShadeNodeGraph3GetERKNS_9TfWeakPtrINS_8UsdStageEEERKNS_7SdfPathE, 
                       __ZN38pxrInternal_v0_21__aapl__pxrReserved__17UsdShadeNodeGraph6DefineERKNS_9TfWeakPtrINS_8UsdStageEEERKNS_7SdfPathE, 
                       __ZN38pxrInternal_v0_21__aapl__pxrReserved__17UsdShadeNodeGraphC1ERKNS_22UsdShadeConnectableAPIE, 
                       __ZN38pxrInternal_v0_21__aapl__pxrReserved__17UsdShadeNodeGraphC2ERKNS_22UsdShadeConnectableAPIE, 
                       __ZN38pxrInternal_v0_21__aapl__pxrReserved__17UsdShadeNodeGraphD0Ev, 
                       __ZN38pxrInternal_v0_21__aapl__pxrReserved__17UsdShadeNodeGraphD1Ev, 
                       __ZN38pxrInternal_v0_21__aapl__pxrReserved__17UsdShadeNodeGraphD2Ev, 
                       __ZN38pxrInternal_v0_21__aapl__pxrReserved__17UsdSkelAnimMapperC1EPKNS_7TfTokenEmS3_m, 
                       __ZN38pxrInternal_v0_21__aapl__pxrReserved__17UsdSkelAnimMapperC1ERKNS_7VtArrayINS_7TfTokenEEES5_, 
                       __ZN38pxrInternal_v0_21__aapl__pxrReserved__17UsdSkelAnimMapperC1Em, 
                       __ZN38pxrInternal_v0_21__aapl__pxrReserved__17UsdSkelAnimMapperC1Ev, 
                       __ZN38pxrInternal_v0_21__aapl__pxrReserved__17UsdSkelAnimMapperC2EPKNS_7TfTokenEmS3_m, 
                       __ZN38pxrInternal_v0_21__aapl__pxrReserved__17UsdSkelAnimMapperC2ERKNS_7VtArrayINS_7TfTokenEEES5_, 
                       __ZN38pxrInternal_v0_21__aapl__pxrReserved__17UsdSkelAnimMapperC2Em, 
                       __ZN38pxrInternal_v0_21__aapl__pxrReserved__17UsdSkelAnimMapperC2Ev, 
                       __ZN38pxrInternal_v0_21__aapl__pxrReserved__17UsdSkelBindingAPI14_IsTypedSchemaEv, 
                       __ZN38pxrInternal_v0_21__aapl__pxrReserved__17UsdSkelBindingAPI16_GetStaticTfTypeEv, 
                       __ZN38pxrInternal_v0_21__aapl__pxrReserved__17UsdSkelBindingAPI20ValidateJointIndicesENS_6TfSpanIKiEEmPNSt3__112basic_stringIcNS4_11char_traitsIcEENS4_9allocatorIcEEEE, 
                       __ZN38pxrInternal_v0_21__aapl__pxrReserved__17UsdSkelBindingAPI23GetSchemaAttributeNamesEb, 
                       __ZN38pxrInternal_v0_21__aapl__pxrReserved__17UsdSkelBindingAPI3GetERKNS_9TfWeakPtrINS_8UsdStageEEERKNS_7SdfPathE, 
                       __ZN38pxrInternal_v0_21__aapl__pxrReserved__17UsdSkelBindingAPI5ApplyERKNS_7UsdPrimE, 
                       __ZN38pxrInternal_v0_21__aapl__pxrReserved__17UsdSkelBindingAPI8CanApplyERKNS_7UsdPrimEPNSt3__112basic_stringIcNS4_11char_traitsIcEENS4_9allocatorIcEEEE, 
                       __ZN38pxrInternal_v0_21__aapl__pxrReserved__17UsdSkelBindingAPID0Ev, 
                       __ZN38pxrInternal_v0_21__aapl__pxrReserved__17UsdSkelBindingAPID1Ev, 
                       __ZN38pxrInternal_v0_21__aapl__pxrReserved__17UsdSkelBindingAPID2Ev, 
                       __ZN38pxrInternal_v0_21__aapl__pxrReserved__17UsdSkelBlendShape14_IsTypedSchemaEv, 
                       __ZN38pxrInternal_v0_21__aapl__pxrReserved__17UsdSkelBlendShape16_GetStaticTfTypeEv, 
                       __ZN38pxrInternal_v0_21__aapl__pxrReserved__17UsdSkelBlendShape20ValidatePointIndicesENS_6TfSpanIKiEEmPNSt3__112basic_stringIcNS4_11char_traitsIcEENS4_9allocatorIcEEEE, 
                       __ZN38pxrInternal_v0_21__aapl__pxrReserved__17UsdSkelBlendShape23GetSchemaAttributeNamesEb, 
                       __ZN38pxrInternal_v0_21__aapl__pxrReserved__17UsdSkelBlendShape3GetERKNS_9TfWeakPtrINS_8UsdStageEEERKNS_7SdfPathE, 
                       __ZN38pxrInternal_v0_21__aapl__pxrReserved__17UsdSkelBlendShape6DefineERKNS_9TfWeakPtrINS_8UsdStageEEERKNS_7SdfPathE, 
                       __ZN38pxrInternal_v0_21__aapl__pxrReserved__17UsdSkelBlendShapeD0Ev, 
                       __ZN38pxrInternal_v0_21__aapl__pxrReserved__17UsdSkelBlendShapeD1Ev, 
                       __ZN38pxrInternal_v0_21__aapl__pxrReserved__17UsdSkelBlendShapeD2Ev, 
                       __ZN38pxrInternal_v0_21__aapl__pxrReserved__17UsdSkelTokensTypeC1Ev, 
                       __ZN38pxrInternal_v0_21__aapl__pxrReserved__17UsdSkelTokensTypeC2Ev, 
                       __ZN38pxrInternal_v0_21__aapl__pxrReserved__17UsdStageLoadRules11_LowerBoundERKNS_7SdfPathE, 
                       __ZN38pxrInternal_v0_21__aapl__pxrReserved__17UsdStageLoadRules13LoadAndUnloadERKNSt3__13setINS_7SdfPathENS1_4lessIS3_EENS1_9allocatorIS3_EEEESA_NS_13UsdLoadPolicyE, 
                       __ZN38pxrInternal_v0_21__aapl__pxrReserved__17UsdStageLoadRules19LoadWithDescendantsERKNS_7SdfPathE, 
                       __ZN38pxrInternal_v0_21__aapl__pxrReserved__17UsdStageLoadRules22LoadWithoutDescendantsERKNS_7SdfPathE, 
                       __ZN38pxrInternal_v0_21__aapl__pxrReserved__17UsdStageLoadRules6UnloadERKNS_7SdfPathE, 
                       __ZN38pxrInternal_v0_21__aapl__pxrReserved__17UsdStageLoadRules7AddRuleERKNS_7SdfPathENS0_4RuleE, 
                       __ZN38pxrInternal_v0_21__aapl__pxrReserved__17UsdStageLoadRules8LoadNoneEv, 
                       __ZN38pxrInternal_v0_21__aapl__pxrReserved__17UsdStageLoadRules8MinimizeEv, 
                       __ZN38pxrInternal_v0_21__aapl__pxrReserved__17UsdStageLoadRules8SetRulesERKNSt3__16vectorINS1_4pairINS_7SdfPathENS0_4RuleEEENS1_9allocatorIS6_EEEE, 
                       __ZN38pxrInternal_v0_21__aapl__pxrReserved__17UsdTimeCodeTokensE, 
                       __ZN38pxrInternal_v0_21__aapl__pxrReserved__17UsdUsdaFileFormatC1Ev, 
                       __ZN38pxrInternal_v0_21__aapl__pxrReserved__17UsdUsdaFileFormatC2Ev, 
                       __ZN38pxrInternal_v0_21__aapl__pxrReserved__17UsdUsdaFileFormatD0Ev, 
                       __ZN38pxrInternal_v0_21__aapl__pxrReserved__17UsdUsdaFileFormatD1Ev, 
                       __ZN38pxrInternal_v0_21__aapl__pxrReserved__17UsdUsdaFileFormatD2Ev, 
                       __ZN38pxrInternal_v0_21__aapl__pxrReserved__17UsdUsdcFileFormatC1Ev, 
                       __ZN38pxrInternal_v0_21__aapl__pxrReserved__17UsdUsdcFileFormatC2Ev, 
                       __ZN38pxrInternal_v0_21__aapl__pxrReserved__17UsdUsdcFileFormatD0Ev, 
                       __ZN38pxrInternal_v0_21__aapl__pxrReserved__17UsdUsdcFileFormatD1Ev, 
                       __ZN38pxrInternal_v0_21__aapl__pxrReserved__17UsdUsdcFileFormatD2Ev, 
                       __ZN38pxrInternal_v0_21__aapl__pxrReserved__17UsdUsdzFileFormatC1Ev, 
                       __ZN38pxrInternal_v0_21__aapl__pxrReserved__17UsdUsdzFileFormatC2Ev, 
                       __ZN38pxrInternal_v0_21__aapl__pxrReserved__17UsdUsdzFileFormatD0Ev, 
                       __ZN38pxrInternal_v0_21__aapl__pxrReserved__17UsdUsdzFileFormatD1Ev, 
                       __ZN38pxrInternal_v0_21__aapl__pxrReserved__17UsdUsdzFileFormatD2Ev, 
                       __ZN38pxrInternal_v0_21__aapl__pxrReserved__18ArchDebuggerAttachEv, 
                       __ZN38pxrInternal_v0_21__aapl__pxrReserved__18ArchGetAddressInfoEPvPNSt3__112basic_stringIcNS1_11char_traitsIcEENS1_9allocatorIcEEEEPS0_S8_S9_, 
                       __ZN38pxrInternal_v0_21__aapl__pxrReserved__18ArchGetStackFramesEmPNSt3__16vectorImNS0_9allocatorImEEEE, 
                       __ZN38pxrInternal_v0_21__aapl__pxrReserved__18ArchGetStackFramesEmmPNSt3__16vectorImNS0_9allocatorImEEEE, 
                       __ZN38pxrInternal_v0_21__aapl__pxrReserved__18ArchLogSessionInfoEPKc, 
                       __ZN38pxrInternal_v0_21__aapl__pxrReserved__18ArchSecondsToTicksEd, 
                       __ZN38pxrInternal_v0_21__aapl__pxrReserved__18ArchStatIsWritableEPK4stat, 
                       __ZN38pxrInternal_v0_21__aapl__pxrReserved__18ArchTicksToSecondsEy, 
                       __ZN38pxrInternal_v0_21__aapl__pxrReserved__18GfFitPlaneToPointsERKNSt3__16vectorINS_7GfVec3dENS0_9allocatorIS2_EEEEPNS_7GfPlaneE, 
                       __ZN38pxrInternal_v0_21__aapl__pxrReserved__18GfHomogeneousCrossERKNS_7GfVec4dES2_, 
                       __ZN38pxrInternal_v0_21__aapl__pxrReserved__18GfHomogeneousCrossERKNS_7GfVec4fES2_, 
                       __ZN38pxrInternal_v0_21__aapl__pxrReserved__18HdAovTokensMakeLpeERKNS_7TfTokenE, 
                       __ZN38pxrInternal_v0_21__aapl__pxrReserved__18HdBufferArrayRangeC2Ev, 
                       __ZN38pxrInternal_v0_21__aapl__pxrReserved__18HdBufferArrayRangeD0Ev, 
                       __ZN38pxrInternal_v0_21__aapl__pxrReserved__18HdBufferArrayRangeD1Ev, 
                       __ZN38pxrInternal_v0_21__aapl__pxrReserved__18HdBufferArrayRangeD2Ev, 
                       __ZN38pxrInternal_v0_21__aapl__pxrReserved__18HdDataSizeOfFormatENS_8HdFormatE, 
                       __ZN38pxrInternal_v0_21__aapl__pxrReserved__18HdGetComponentTypeENS_6HdTypeE, 
                       __ZN38pxrInternal_v0_21__aapl__pxrReserved__18HdResourceRegistry14GarbageCollectEv, 
                       __ZN38pxrInternal_v0_21__aapl__pxrReserved__18HdResourceRegistry14ReloadResourceERKNS_7TfTokenERKNSt3__112basic_stringIcNS4_11char_traitsIcEENS4_9allocatorIcEEEE, 
                       __ZN38pxrInternal_v0_21__aapl__pxrReserved__18HdResourceRegistry15_GarbageCollectEv, 
                       __ZN38pxrInternal_v0_21__aapl__pxrReserved__18HdResourceRegistry24InvalidateShaderRegistryEv, 
                       __ZN38pxrInternal_v0_21__aapl__pxrReserved__18HdResourceRegistry6CommitEv, 
                       __ZN38pxrInternal_v0_21__aapl__pxrReserved__18HdResourceRegistry7_CommitEv, 
                       __ZN38pxrInternal_v0_21__aapl__pxrReserved__18HdResourceRegistryC1Ev, 
                       __ZN38pxrInternal_v0_21__aapl__pxrReserved__18HdResourceRegistryC2Ev, 
                       __ZN38pxrInternal_v0_21__aapl__pxrReserved__18HdResourceRegistryD0Ev, 
                       __ZN38pxrInternal_v0_21__aapl__pxrReserved__18HdResourceRegistryD1Ev, 
                       __ZN38pxrInternal_v0_21__aapl__pxrReserved__18HdResourceRegistryD2Ev, 
                       __ZN38pxrInternal_v0_21__aapl__pxrReserved__18HdUnitTestDelegate10AddPrimvarERKNS_7SdfPathERKNS_7TfTokenERKNS_7VtValueERKNS_15HdInterpolationES6_RKNS_7VtArrayIiEE, 
                       __ZN38pxrInternal_v0_21__aapl__pxrReserved__18HdUnitTestDelegate10GetVisibleERKNS_7SdfPathE, 
                       __ZN38pxrInternal_v0_21__aapl__pxrReserved__18HdUnitTestDelegate10UpdateTaskERKNS_7SdfPathERKNS_7TfTokenENS_7VtValueE, 
                       __ZN38pxrInternal_v0_21__aapl__pxrReserved__18HdUnitTestDelegate11AddPolygonsERKNS_7SdfPathERKNS_10GfMatrix4fENS_15HdInterpolationES3_, 
                       __ZN38pxrInternal_v0_21__aapl__pxrReserved__18HdUnitTestDelegate11UnhideRprimERKNS_7SdfPathE, 
                       __ZN38pxrInternal_v0_21__aapl__pxrReserved__18HdUnitTestDelegate12AddInstancerERKNS_7SdfPathES3_RKNS_10GfMatrix4fE, 
                       __ZN38pxrInternal_v0_21__aapl__pxrReserved__18HdUnitTestDelegate12BindMaterialERKNS_7SdfPathES3_, 
                       __ZN38pxrInternal_v0_21__aapl__pxrReserved__18HdUnitTestDelegate12GetRenderTagERKNS_7SdfPathE, 
                       __ZN38pxrInternal_v0_21__aapl__pxrReserved__18HdUnitTestDelegate12GetTransformERKNS_7SdfPathE, 
                       __ZN38pxrInternal_v0_21__aapl__pxrReserved__18HdUnitTestDelegate12UpdateCameraERKNS_7SdfPathERKNS_7TfTokenENS_7VtValueE, 
                       __ZN38pxrInternal_v0_21__aapl__pxrReserved__18HdUnitTestDelegate12UpdateRprimsEf, 
                       __ZN38pxrInternal_v0_21__aapl__pxrReserved__18HdUnitTestDelegate12_FindPrimvarERKNS_7SdfPathERKNS_7TfTokenEPNSt3__111__wrap_iterIPNS0_8_PrimvarEEE, 
                       __ZN38pxrInternal_v0_21__aapl__pxrReserved__18HdUnitTestDelegate13GetMaterialIdERKNS_7SdfPathE, 
                       __ZN38pxrInternal_v0_21__aapl__pxrReserved__18HdUnitTestDelegate13GetSubdivTagsERKNS_7SdfPathE, 
                       __ZN38pxrInternal_v0_21__aapl__pxrReserved__18HdUnitTestDelegate13RemovePrimvarERKNS_7SdfPathERKNS_7TfTokenE, 
                       __ZN38pxrInternal_v0_21__aapl__pxrReserved__18HdUnitTestDelegate13SetVisibilityERKNS_7SdfPathEb, 
                       __ZN38pxrInternal_v0_21__aapl__pxrReserved__18HdUnitTestDelegate13SetVisibilityEb, 
                       __ZN38pxrInternal_v0_21__aapl__pxrReserved__18HdUnitTestDelegate14AddBasisCurvesERKNS_7SdfPathERKNS_7VtArrayINS_7GfVec3fEEERKNS4_IiEES8_RKNS_7TfTokenESE_RKNS_7VtValueENS_15HdInterpolationESH_SI_SH_SI_S3_, 
                       __ZN38pxrInternal_v0_21__aapl__pxrReserved__18HdUnitTestDelegate14GetDoubleSidedERKNS_7SdfPathE, 
                       __ZN38pxrInternal_v0_21__aapl__pxrReserved__18HdUnitTestDelegate14GetInstancerIdERKNS_7SdfPathE, 
                       __ZN38pxrInternal_v0_21__aapl__pxrReserved__18HdUnitTestDelegate14MarkRprimDirtyENS_7SdfPathEj, 
                       __ZN38pxrInternal_v0_21__aapl__pxrReserved__18HdUnitTestDelegate14RebindMaterialERKNS_7SdfPathES3_, 
                       __ZN38pxrInternal_v0_21__aapl__pxrReserved__18HdUnitTestDelegate14SetRefineLevelERKNS_7SdfPathEi, 
                       __ZN38pxrInternal_v0_21__aapl__pxrReserved__18HdUnitTestDelegate14SetRefineLevelEi, 
                       __ZN38pxrInternal_v0_21__aapl__pxrReserved__18HdUnitTestDelegate15AddRenderBufferERKNS_7SdfPathERKNS_7GfVec3iENS_8HdFormatEb, 
                       __ZN38pxrInternal_v0_21__aapl__pxrReserved__18HdUnitTestDelegate15GetDisplayStyleERKNS_7SdfPathE, 
                       __ZN38pxrInternal_v0_21__aapl__pxrReserved__18HdUnitTestDelegate15GetMeshTopologyERKNS_7SdfPathE, 
                       __ZN38pxrInternal_v0_21__aapl__pxrReserved__18HdUnitTestDelegate15GetReprSelectorERKNS_7SdfPathE, 
                       __ZN38pxrInternal_v0_21__aapl__pxrReserved__18HdUnitTestDelegate15SetReprSelectorERKNS_7SdfPathERKNS_14HdReprSelectorE, 
                       __ZN38pxrInternal_v0_21__aapl__pxrReserved__18HdUnitTestDelegate15UpdateInstancerERKNS_7SdfPathES3_, 
                       __ZN38pxrInternal_v0_21__aapl__pxrReserved__18HdUnitTestDelegate15UpdatePositionsERKNS_7SdfPathEf, 
                       __ZN38pxrInternal_v0_21__aapl__pxrReserved__18HdUnitTestDelegate15UpdateTransformERKNS_7SdfPathERKNS_10GfMatrix4fE, 
                       __ZN38pxrInternal_v0_21__aapl__pxrReserved__18HdUnitTestDelegate16_GetPrimvarValueERKNS_7SdfPathERKNS_7TfTokenE, 
                       __ZN38pxrInternal_v0_21__aapl__pxrReserved__18HdUnitTestDelegate17GetIndexedPrimvarERKNS_7SdfPathERKNS_7TfTokenEPNS_7VtArrayIiEE, 
                       __ZN38pxrInternal_v0_21__aapl__pxrReserved__18HdUnitTestDelegate18GetInstanceIndicesERKNS_7SdfPathES3_, 
                       __ZN38pxrInternal_v0_21__aapl__pxrReserved__18HdUnitTestDelegate18UpdatePrimvarValueERKNS_7SdfPathERKNS_7TfTokenERKNS_7VtValueERKNS_7VtArrayIiEE, 
                       __ZN38pxrInternal_v0_21__aapl__pxrReserved__18HdUnitTestDelegate19AddMaterialResourceERKNS_7SdfPathENS_7VtValueE, 
                       __ZN38pxrInternal_v0_21__aapl__pxrReserved__18HdUnitTestDelegate19GetCameraParamValueERKNS_7SdfPathERKNS_7TfTokenE, 
                       __ZN38pxrInternal_v0_21__aapl__pxrReserved__18HdUnitTestDelegate19GetMaterialResourceERKNS_7SdfPathE, 
                       __ZN38pxrInternal_v0_21__aapl__pxrReserved__18HdUnitTestDelegate20AddGridWithFaceColorERKNS_7SdfPathEiiRKNS_10GfMatrix4fEbbS3_, 
                       __ZN38pxrInternal_v0_21__aapl__pxrReserved__18HdUnitTestDelegate20PopulateBasicTestSetEv, 
                       __ZN38pxrInternal_v0_21__aapl__pxrReserved__18HdUnitTestDelegate21GetInstancerTransformERKNS_7SdfPathE, 
                       __ZN38pxrInternal_v0_21__aapl__pxrReserved__18HdUnitTestDelegate21GetPrimvarDescriptorsERKNS_7SdfPathENS_15HdInterpolationE, 
                       __ZN38pxrInternal_v0_21__aapl__pxrReserved__18HdUnitTestDelegate22AddFaceVaryingPolygonsERKNS_7SdfPathERKNS_10GfMatrix4fES3_, 
                       __ZN38pxrInternal_v0_21__aapl__pxrReserved__18HdUnitTestDelegate22AddGridWithCustomColorERKNS_7SdfPathEiiRKNS_10GfMatrix4fERKNS_7VtValueENS_15HdInterpolationEbbS3_, 
                       __ZN38pxrInternal_v0_21__aapl__pxrReserved__18HdUnitTestDelegate22AddGridWithVertexColorERKNS_7SdfPathEiiRKNS_10GfMatrix4fEbbS3_, 
                       __ZN38pxrInternal_v0_21__aapl__pxrReserved__18HdUnitTestDelegate22GetBasisCurvesTopologyERKNS_7SdfPathE, 
                       __ZN38pxrInternal_v0_21__aapl__pxrReserved__18HdUnitTestDelegate22SetInstancerPropertiesERKNS_7SdfPathERKNS_7VtArrayIiEERKNS4_INS_7GfVec3fEEERKNS4_INS_7GfVec4fEEESB_, 
                       __ZN38pxrInternal_v0_21__aapl__pxrReserved__18HdUnitTestDelegate22UpdateMaterialResourceERKNS_7SdfPathENS_7VtValueE, 
                       __ZN38pxrInternal_v0_21__aapl__pxrReserved__18HdUnitTestDelegate23PopulateInvalidPrimsSetEv, 
                       __ZN38pxrInternal_v0_21__aapl__pxrReserved__18HdUnitTestDelegate23UpdateInstancerPrimvarsEf, 
                       __ZN38pxrInternal_v0_21__aapl__pxrReserved__18HdUnitTestDelegate25GetRenderBufferDescriptorERKNS_7SdfPathE, 
                       __ZN38pxrInternal_v0_21__aapl__pxrReserved__18HdUnitTestDelegate25UpdateInstancerPrototypesEf, 
                       __ZN38pxrInternal_v0_21__aapl__pxrReserved__18HdUnitTestDelegate27AddGridWithFaceVaryingColorERKNS_7SdfPathEiiRKNS_10GfMatrix4fEbbS3_, 
                       __ZN38pxrInternal_v0_21__aapl__pxrReserved__18HdUnitTestDelegate3GetERKNS_7SdfPathERKNS_7TfTokenE, 
                       __ZN38pxrInternal_v0_21__aapl__pxrReserved__18HdUnitTestDelegate5ClearEv, 
                       __ZN38pxrInternal_v0_21__aapl__pxrReserved__18HdUnitTestDelegate6RemoveERKNS_7SdfPathE, 
                       __ZN38pxrInternal_v0_21__aapl__pxrReserved__18HdUnitTestDelegate7AddCubeERKNS_7SdfPathERKNS_10GfMatrix4fEbS3_RKNS_7TfTokenE, 
                       __ZN38pxrInternal_v0_21__aapl__pxrReserved__18HdUnitTestDelegate7AddGridERKNS_7SdfPathEiiRKNS_10GfMatrix4fEbbS3_, 
                       __ZN38pxrInternal_v0_21__aapl__pxrReserved__18HdUnitTestDelegate7AddMeshERKNS_7SdfPathE, 
                       __ZN38pxrInternal_v0_21__aapl__pxrReserved__18HdUnitTestDelegate7AddMeshERKNS_7SdfPathERKNS_10GfMatrix4fERKNS_7VtArrayINS_7GfVec3fEEERKNS7_IiEESE_SE_RKNS_15PxOsdSubdivTagsERKNS_7VtValueENS_15HdInterpolationESK_SL_bS3_RKNS_7TfTokenESO_b, 
                       __ZN38pxrInternal_v0_21__aapl__pxrReserved__18HdUnitTestDelegate7AddMeshERKNS_7SdfPathERKNS_10GfMatrix4fERKNS_7VtArrayINS_7GfVec3fEEERKNS7_IiEESE_SE_RKNS_15PxOsdSubdivTagsERKNS_7VtValueESE_NS_15HdInterpolationESK_SE_SL_bS3_RKNS_7TfTokenESO_b, 
                       __ZN38pxrInternal_v0_21__aapl__pxrReserved__18HdUnitTestDelegate7AddMeshERKNS_7SdfPathERKNS_10GfMatrix4fERKNS_7VtArrayINS_7GfVec3fEEERKNS7_IiEESE_bS3_RKNS_7TfTokenESH_b, 
                       __ZN38pxrInternal_v0_21__aapl__pxrReserved__18HdUnitTestDelegate9AddCameraERKNS_7SdfPathE, 
                       __ZN38pxrInternal_v0_21__aapl__pxrReserved__18HdUnitTestDelegate9AddCurvesERKNS_7SdfPathERKNS_7TfTokenES6_RKNS_10GfMatrix4fENS_15HdInterpolationESA_bS3_, 
                       __ZN38pxrInternal_v0_21__aapl__pxrReserved__18HdUnitTestDelegate9AddPointsERKNS_7SdfPathERKNS_10GfMatrix4fENS_15HdInterpolationES7_S3_, 
                       __ZN38pxrInternal_v0_21__aapl__pxrReserved__18HdUnitTestDelegate9AddPointsERKNS_7SdfPathERKNS_7VtArrayINS_7GfVec3fEEERKNS_7VtValueENS_15HdInterpolationESB_SC_SB_SC_S3_, 
                       __ZN38pxrInternal_v0_21__aapl__pxrReserved__18HdUnitTestDelegate9AddSubdivERKNS_7SdfPathERKNS_10GfMatrix4fES3_, 
                       __ZN38pxrInternal_v0_21__aapl__pxrReserved__18HdUnitTestDelegate9GetExtentERKNS_7SdfPathE, 
                       __ZN38pxrInternal_v0_21__aapl__pxrReserved__18HdUnitTestDelegate9HideRprimERKNS_7SdfPathE, 
                       __ZN38pxrInternal_v0_21__aapl__pxrReserved__18HdUnitTestDelegateC1EPNS_13HdRenderIndexERKNS_7SdfPathE, 
                       __ZN38pxrInternal_v0_21__aapl__pxrReserved__18HdUnitTestDelegateC2EPNS_13HdRenderIndexERKNS_7SdfPathE, 
                       __ZN38pxrInternal_v0_21__aapl__pxrReserved__18Hd_VertexAdjacency19BuildAdjacencyTableEPKNS_14HdMeshTopologyE, 
                       __ZN38pxrInternal_v0_21__aapl__pxrReserved__18Hd_VertexAdjacency36GetSharedAdjacencyBuilderComputationEPKNS_14HdMeshTopologyE, 
                       __ZN38pxrInternal_v0_21__aapl__pxrReserved__18Hd_VertexAdjacencyC1Ev, 
                       __ZN38pxrInternal_v0_21__aapl__pxrReserved__18Hd_VertexAdjacencyC2Ev, 
                       __ZN38pxrInternal_v0_21__aapl__pxrReserved__18Hd_VertexAdjacencyD1Ev, 
                       __ZN38pxrInternal_v0_21__aapl__pxrReserved__18Hd_VertexAdjacencyD2Ev, 
                       __ZN38pxrInternal_v0_21__aapl__pxrReserved__18NdrDiscoveryPluginC2Ev, 
                       __ZN38pxrInternal_v0_21__aapl__pxrReserved__18NdrDiscoveryPluginD0Ev, 
                       __ZN38pxrInternal_v0_21__aapl__pxrReserved__18NdrDiscoveryPluginD1Ev, 
                       __ZN38pxrInternal_v0_21__aapl__pxrReserved__18NdrDiscoveryPluginD2Ev, 
                       __ZN38pxrInternal_v0_21__aapl__pxrReserved__18Pcp_RescanForSpecsEPNS_12PcpPrimIndexEbb, 
                       __ZN38pxrInternal_v0_21__aapl__pxrReserved__18SdfGetUnitFromNameERKNSt3__112basic_stringIcNS0_11char_traitsIcEENS0_9allocatorIcEEEE, 
                       __ZN38pxrInternal_v0_21__aapl__pxrReserved__18SdfShouldCopyValueERKNS_7SdfPathES2_NS_11SdfSpecTypeERKNS_7TfTokenERKNS_9TfWeakPtrINS_8SdfLayerEEES2_bSB_S2_bPN5boost8optionalINS_7VtValueEEE, 
                       __ZN38pxrInternal_v0_21__aapl__pxrReserved__18Sdf_MapperPathNodeD1Ev, 
                       __ZN38pxrInternal_v0_21__aapl__pxrReserved__18Sdf_MapperPathNodeD2Ev, 
                       __ZN38pxrInternal_v0_21__aapl__pxrReserved__18Sdf_TargetPathNodeD1Ev, 
                       __ZN38pxrInternal_v0_21__aapl__pxrReserved__18Sdf_TargetPathNodeD2Ev, 
                       __ZN38pxrInternal_v0_21__aapl__pxrReserved__18TfGetAppLaunchTimeEv, 
                       __ZN38pxrInternal_v0_21__aapl__pxrReserved__18TfScopeDescription14SetDescriptionEONSt3__112basic_stringIcNS1_11char_traitsIcEENS1_9allocatorIcEEEE, 
                       __ZN38pxrInternal_v0_21__aapl__pxrReserved__18TfScopeDescription14SetDescriptionEPKc, 
                       __ZN38pxrInternal_v0_21__aapl__pxrReserved__18TfScopeDescription14SetDescriptionERKNSt3__112basic_stringIcNS1_11char_traitsIcEENS1_9allocatorIcEEEE, 
                       __ZN38pxrInternal_v0_21__aapl__pxrReserved__18TfScopeDescriptionC1EONSt3__112basic_stringIcNS1_11char_traitsIcEENS1_9allocatorIcEEEERKNS_13TfCallContextE, 
                       __ZN38pxrInternal_v0_21__aapl__pxrReserved__18TfScopeDescriptionC1EPKcRKNS_13TfCallContextE, 
                       __ZN38pxrInternal_v0_21__aapl__pxrReserved__18TfScopeDescriptionC1ERKNSt3__112basic_stringIcNS1_11char_traitsIcEENS1_9allocatorIcEEEERKNS_13TfCallContextE, 
                       __ZN38pxrInternal_v0_21__aapl__pxrReserved__18TfScopeDescriptionC2EONSt3__112basic_stringIcNS1_11char_traitsIcEENS1_9allocatorIcEEEERKNS_13TfCallContextE, 
                       __ZN38pxrInternal_v0_21__aapl__pxrReserved__18TfScopeDescriptionC2EPKcRKNS_13TfCallContextE, 
                       __ZN38pxrInternal_v0_21__aapl__pxrReserved__18TfScopeDescriptionC2ERKNSt3__112basic_stringIcNS1_11char_traitsIcEENS1_9allocatorIcEEEERKNS_13TfCallContextE, 
                       __ZN38pxrInternal_v0_21__aapl__pxrReserved__18TfScopeDescriptionD1Ev, 
                       __ZN38pxrInternal_v0_21__aapl__pxrReserved__18TfScopeDescriptionD2Ev, 
                       __ZN38pxrInternal_v0_21__aapl__pxrReserved__18TfStringCapitalizeERKNSt3__112basic_stringIcNS0_11char_traitsIcEENS0_9allocatorIcEEEE, 
                       __ZN38pxrInternal_v0_21__aapl__pxrReserved__18TfStringStartsWithERKNSt3__112basic_stringIcNS0_11char_traitsIcEENS0_9allocatorIcEEEERKNS_7TfTokenE, 
                       __ZN38pxrInternal_v0_21__aapl__pxrReserved__18Tf_DlCloseIsActiveEv, 
                       __ZN38pxrInternal_v0_21__aapl__pxrReserved__18Tf_InitEnvSettingsEv, 
                       __ZN38pxrInternal_v0_21__aapl__pxrReserved__18Tf_PostErrorHelperERKNS_13TfCallContextENS_16TfDiagnosticTypeEPKcz, 
                       __ZN38pxrInternal_v0_21__aapl__pxrReserved__18Tf_PostErrorHelperERKNS_13TfCallContextENS_16TfDiagnosticTypeERKNSt3__112basic_stringIcNS4_11char_traitsIcEENS4_9allocatorIcEEEE, 
                       __ZN38pxrInternal_v0_21__aapl__pxrReserved__18Tf_PostErrorHelperERKNS_13TfCallContextERKN5boost3anyERKNS_6TfEnumEPKcz, 
                       __ZN38pxrInternal_v0_21__aapl__pxrReserved__18Tf_PostErrorHelperERKNS_13TfCallContextERKN5boost3anyERKNS_6TfEnumERKNSt3__112basic_stringIcNSA_11char_traitsIcEENSA_9allocatorIcEEEE, 
                       __ZN38pxrInternal_v0_21__aapl__pxrReserved__18Tf_PostErrorHelperERKNS_13TfCallContextERKNS_6TfEnumEPKcz, 
                       __ZN38pxrInternal_v0_21__aapl__pxrReserved__18Tf_PostErrorHelperERKNS_13TfCallContextERKNS_6TfEnumERKNSt3__112basic_stringIcNS6_11char_traitsIcEENS6_9allocatorIcEEEE, 
                       __ZN38pxrInternal_v0_21__aapl__pxrReserved__18TraceAggregateNode15_MergeRecursiveERKNS_8TfRefPtrIS0_EE, 
                       __ZN38pxrInternal_v0_21__aapl__pxrReserved__18TraceAggregateNode16GetExclusiveTimeEb, 
                       __ZN38pxrInternal_v0_21__aapl__pxrReserved__18TraceAggregateNode21MarkRecursiveChildrenEv, 
                       __ZN38pxrInternal_v0_21__aapl__pxrReserved__18TraceAggregateNode21_SetAsRecursionMarkerENS_9TfWeakPtrIS0_EE, 
                       __ZN38pxrInternal_v0_21__aapl__pxrReserved__18TraceAggregateNode27AppendExclusiveCounterValueEid, 
                       __ZN38pxrInternal_v0_21__aapl__pxrReserved__18TraceAggregateNode27AppendInclusiveCounterValueEid, 
                       __ZN38pxrInternal_v0_21__aapl__pxrReserved__18TraceAggregateNode31CalculateInclusiveCounterValuesEv, 
                       __ZN38pxrInternal_v0_21__aapl__pxrReserved__18TraceAggregateNode6AppendENS0_2IdERKNS_7TfTokenEyii, 
                       __ZN38pxrInternal_v0_21__aapl__pxrReserved__18TraceAggregateNode6AppendENS_8TfRefPtrIS0_EE, 
                       __ZN38pxrInternal_v0_21__aapl__pxrReserved__18TraceAggregateNode8GetChildERKNS_7TfTokenE, 
                       __ZN38pxrInternal_v0_21__aapl__pxrReserved__18TraceAggregateTree10AddCounterERKNS_7TfTokenEid, 
                       __ZN38pxrInternal_v0_21__aapl__pxrReserved__18TraceAggregateTree5ClearEv, 
                       __ZN38pxrInternal_v0_21__aapl__pxrReserved__18TraceAggregateTree6AppendERKNS_8TfRefPtrINS_14TraceEventTreeEEERKNS_15TraceCollectionE, 
                       __ZN38pxrInternal_v0_21__aapl__pxrReserved__18TraceAggregateTreeC1Ev, 
                       __ZN38pxrInternal_v0_21__aapl__pxrReserved__18TraceAggregateTreeC2Ev, 
                       __ZN38pxrInternal_v0_21__aapl__pxrReserved__18TraceSerialization4ReadERNSt3__113basic_istreamIcNS1_11char_traitsIcEEEEPNS1_12basic_stringIcS4_NS1_9allocatorIcEEEE, 
                       __ZN38pxrInternal_v0_21__aapl__pxrReserved__18TraceSerialization5WriteERNSt3__113basic_ostreamIcNS1_11char_traitsIcEEEERKNS1_10shared_ptrINS_15TraceCollectionEEE, 
                       __ZN38pxrInternal_v0_21__aapl__pxrReserved__18TraceSerialization5WriteERNSt3__113basic_ostreamIcNS1_11char_traitsIcEEEERKNS1_6vectorINS1_10shared_ptrINS_15TraceCollectionEEENS1_9allocatorISA_EEEE, 
                       __ZN38pxrInternal_v0_21__aapl__pxrReserved__18UsdDeformersTokensE, 
                       __ZN38pxrInternal_v0_21__aapl__pxrReserved__18UsdGeomBasisCurves14_IsTypedSchemaEv, 
                       __ZN38pxrInternal_v0_21__aapl__pxrReserved__18UsdGeomBasisCurves16_GetStaticTfTypeEv, 
                       __ZN38pxrInternal_v0_21__aapl__pxrReserved__18UsdGeomBasisCurves23GetSchemaAttributeNamesEb, 
                       __ZN38pxrInternal_v0_21__aapl__pxrReserved__18UsdGeomBasisCurves3GetERKNS_9TfWeakPtrINS_8UsdStageEEERKNS_7SdfPathE, 
                       __ZN38pxrInternal_v0_21__aapl__pxrReserved__18UsdGeomBasisCurves6DefineERKNS_9TfWeakPtrINS_8UsdStageEEERKNS_7SdfPathE, 
                       __ZN38pxrInternal_v0_21__aapl__pxrReserved__18UsdGeomBasisCurvesD0Ev, 
                       __ZN38pxrInternal_v0_21__aapl__pxrReserved__18UsdGeomBasisCurvesD1Ev, 
                       __ZN38pxrInternal_v0_21__aapl__pxrReserved__18UsdGeomBasisCurvesD2Ev, 
                       __ZN38pxrInternal_v0_21__aapl__pxrReserved__18UsdGeomNurbsCurves14_IsTypedSchemaEv, 
                       __ZN38pxrInternal_v0_21__aapl__pxrReserved__18UsdGeomNurbsCurves16_GetStaticTfTypeEv, 
                       __ZN38pxrInternal_v0_21__aapl__pxrReserved__18UsdGeomNurbsCurves23GetSchemaAttributeNamesEb, 
                       __ZN38pxrInternal_v0_21__aapl__pxrReserved__18UsdGeomNurbsCurves3GetERKNS_9TfWeakPtrINS_8UsdStageEEERKNS_7SdfPathE, 
                       __ZN38pxrInternal_v0_21__aapl__pxrReserved__18UsdGeomNurbsCurves6DefineERKNS_9TfWeakPtrINS_8UsdStageEEERKNS_7SdfPathE, 
                       __ZN38pxrInternal_v0_21__aapl__pxrReserved__18UsdGeomNurbsCurvesD0Ev, 
                       __ZN38pxrInternal_v0_21__aapl__pxrReserved__18UsdGeomNurbsCurvesD1Ev, 
                       __ZN38pxrInternal_v0_21__aapl__pxrReserved__18UsdGeomNurbsCurvesD2Ev, 
                       __ZN38pxrInternal_v0_21__aapl__pxrReserved__18UsdGeomPrimvarsAPI12BlockPrimvarERKNS_7TfTokenE, 
                       __ZN38pxrInternal_v0_21__aapl__pxrReserved__18UsdGeomPrimvarsAPI13RemovePrimvarERKNS_7TfTokenE, 
                       __ZN38pxrInternal_v0_21__aapl__pxrReserved__18UsdGeomPrimvarsAPI14_IsTypedSchemaEv, 
                       __ZN38pxrInternal_v0_21__aapl__pxrReserved__18UsdGeomPrimvarsAPI16_GetStaticTfTypeEv, 
                       __ZN38pxrInternal_v0_21__aapl__pxrReserved__18UsdGeomPrimvarsAPI22CanContainPropertyNameERKNS_7TfTokenE, 
                       __ZN38pxrInternal_v0_21__aapl__pxrReserved__18UsdGeomPrimvarsAPI23GetSchemaAttributeNamesEb, 
                       __ZN38pxrInternal_v0_21__aapl__pxrReserved__18UsdGeomPrimvarsAPI3GetERKNS_9TfWeakPtrINS_8UsdStageEEERKNS_7SdfPathE, 
                       __ZN38pxrInternal_v0_21__aapl__pxrReserved__18UsdGeomPrimvarsAPID0Ev, 
                       __ZN38pxrInternal_v0_21__aapl__pxrReserved__18UsdGeomPrimvarsAPID1Ev, 
                       __ZN38pxrInternal_v0_21__aapl__pxrReserved__18UsdGeomPrimvarsAPID2Ev, 
                       __ZN38pxrInternal_v0_21__aapl__pxrReserved__18UsdHydraTokensTypeC1Ev, 
                       __ZN38pxrInternal_v0_21__aapl__pxrReserved__18UsdHydraTokensTypeC2Ev, 
                       __ZN38pxrInternal_v0_21__aapl__pxrReserved__18UsdLuxDistantLight14_IsTypedSchemaEv, 
                       __ZN38pxrInternal_v0_21__aapl__pxrReserved__18UsdLuxDistantLight16_GetStaticTfTypeEv, 
                       __ZN38pxrInternal_v0_21__aapl__pxrReserved__18UsdLuxDistantLight23GetSchemaAttributeNamesEb, 
                       __ZN38pxrInternal_v0_21__aapl__pxrReserved__18UsdLuxDistantLight3GetERKNS_9TfWeakPtrINS_8UsdStageEEERKNS_7SdfPathE, 
                       __ZN38pxrInternal_v0_21__aapl__pxrReserved__18UsdLuxDistantLight6DefineERKNS_9TfWeakPtrINS_8UsdStageEEERKNS_7SdfPathE, 
                       __ZN38pxrInternal_v0_21__aapl__pxrReserved__18UsdLuxDistantLightD0Ev, 
                       __ZN38pxrInternal_v0_21__aapl__pxrReserved__18UsdLuxDistantLightD1Ev, 
                       __ZN38pxrInternal_v0_21__aapl__pxrReserved__18UsdLuxDistantLightD2Ev, 
                       __ZN38pxrInternal_v0_21__aapl__pxrReserved__18UsdMediaTokensTypeC1Ev, 
                       __ZN38pxrInternal_v0_21__aapl__pxrReserved__18UsdMediaTokensTypeC2Ev, 
                       __ZN38pxrInternal_v0_21__aapl__pxrReserved__18UsdPhysicsDriveAPI14_IsTypedSchemaEv, 
                       __ZN38pxrInternal_v0_21__aapl__pxrReserved__18UsdPhysicsDriveAPI16_GetStaticTfTypeEv, 
                       __ZN38pxrInternal_v0_21__aapl__pxrReserved__18UsdPhysicsDriveAPI21IsPhysicsDriveAPIPathERKNS_7SdfPathEPNS_7TfTokenE, 
                       __ZN38pxrInternal_v0_21__aapl__pxrReserved__18UsdPhysicsDriveAPI23GetSchemaAttributeNamesEbNS_7TfTokenE, 
                       __ZN38pxrInternal_v0_21__aapl__pxrReserved__18UsdPhysicsDriveAPI24IsSchemaPropertyBaseNameERKNS_7TfTokenE, 
                       __ZN38pxrInternal_v0_21__aapl__pxrReserved__18UsdPhysicsDriveAPI3GetERKNS_7UsdPrimERKNS_7TfTokenE, 
                       __ZN38pxrInternal_v0_21__aapl__pxrReserved__18UsdPhysicsDriveAPI3GetERKNS_9TfWeakPtrINS_8UsdStageEEERKNS_7SdfPathE, 
                       __ZN38pxrInternal_v0_21__aapl__pxrReserved__18UsdPhysicsDriveAPI5ApplyERKNS_7UsdPrimERKNS_7TfTokenE, 
                       __ZN38pxrInternal_v0_21__aapl__pxrReserved__18UsdPhysicsDriveAPI8CanApplyERKNS_7UsdPrimERKNS_7TfTokenEPNSt3__112basic_stringIcNS7_11char_traitsIcEENS7_9allocatorIcEEEE, 
                       __ZN38pxrInternal_v0_21__aapl__pxrReserved__18UsdPhysicsDriveAPID0Ev, 
                       __ZN38pxrInternal_v0_21__aapl__pxrReserved__18UsdPhysicsDriveAPID1Ev, 
                       __ZN38pxrInternal_v0_21__aapl__pxrReserved__18UsdPhysicsDriveAPID2Ev, 
                       __ZN38pxrInternal_v0_21__aapl__pxrReserved__18UsdPhysicsLimitAPI14_IsTypedSchemaEv, 
                       __ZN38pxrInternal_v0_21__aapl__pxrReserved__18UsdPhysicsLimitAPI16_GetStaticTfTypeEv, 
                       __ZN38pxrInternal_v0_21__aapl__pxrReserved__18UsdPhysicsLimitAPI21IsPhysicsLimitAPIPathERKNS_7SdfPathEPNS_7TfTokenE, 
                       __ZN38pxrInternal_v0_21__aapl__pxrReserved__18UsdPhysicsLimitAPI23GetSchemaAttributeNamesEbNS_7TfTokenE, 
                       __ZN38pxrInternal_v0_21__aapl__pxrReserved__18UsdPhysicsLimitAPI24IsSchemaPropertyBaseNameERKNS_7TfTokenE, 
                       __ZN38pxrInternal_v0_21__aapl__pxrReserved__18UsdPhysicsLimitAPI3GetERKNS_7UsdPrimERKNS_7TfTokenE, 
                       __ZN38pxrInternal_v0_21__aapl__pxrReserved__18UsdPhysicsLimitAPI3GetERKNS_9TfWeakPtrINS_8UsdStageEEERKNS_7SdfPathE, 
                       __ZN38pxrInternal_v0_21__aapl__pxrReserved__18UsdPhysicsLimitAPI5ApplyERKNS_7UsdPrimERKNS_7TfTokenE, 
                       __ZN38pxrInternal_v0_21__aapl__pxrReserved__18UsdPhysicsLimitAPI8CanApplyERKNS_7UsdPrimERKNS_7TfTokenEPNSt3__112basic_stringIcNS7_11char_traitsIcEENS7_9allocatorIcEEEE, 
                       __ZN38pxrInternal_v0_21__aapl__pxrReserved__18UsdPhysicsLimitAPID0Ev, 
                       __ZN38pxrInternal_v0_21__aapl__pxrReserved__18UsdPhysicsLimitAPID1Ev, 
                       __ZN38pxrInternal_v0_21__aapl__pxrReserved__18UsdPhysicsLimitAPID2Ev, 
                       __ZN38pxrInternal_v0_21__aapl__pxrReserved__18UsdRiRisIntegrator14_IsTypedSchemaEv, 
                       __ZN38pxrInternal_v0_21__aapl__pxrReserved__18UsdRiRisIntegrator16_GetStaticTfTypeEv, 
                       __ZN38pxrInternal_v0_21__aapl__pxrReserved__18UsdRiRisIntegrator23GetSchemaAttributeNamesEb, 
                       __ZN38pxrInternal_v0_21__aapl__pxrReserved__18UsdRiRisIntegrator3GetERKNS_9TfWeakPtrINS_8UsdStageEEERKNS_7SdfPathE, 
                       __ZN38pxrInternal_v0_21__aapl__pxrReserved__18UsdRiRisIntegrator6DefineERKNS_9TfWeakPtrINS_8UsdStageEEERKNS_7SdfPathE, 
                       __ZN38pxrInternal_v0_21__aapl__pxrReserved__18UsdRiRisIntegratorD0Ev, 
                       __ZN38pxrInternal_v0_21__aapl__pxrReserved__18UsdRiRisIntegratorD1Ev, 
                       __ZN38pxrInternal_v0_21__aapl__pxrReserved__18UsdRiRisIntegratorD2Ev, 
                       __ZN38pxrInternal_v0_21__aapl__pxrReserved__18UsdRiRisOslPattern14_IsTypedSchemaEv, 
                       __ZN38pxrInternal_v0_21__aapl__pxrReserved__18UsdRiRisOslPattern16_GetStaticTfTypeEv, 
                       __ZN38pxrInternal_v0_21__aapl__pxrReserved__18UsdRiRisOslPattern23GetSchemaAttributeNamesEb, 
                       __ZN38pxrInternal_v0_21__aapl__pxrReserved__18UsdRiRisOslPattern3GetERKNS_9TfWeakPtrINS_8UsdStageEEERKNS_7SdfPathE, 
                       __ZN38pxrInternal_v0_21__aapl__pxrReserved__18UsdRiRisOslPattern6DefineERKNS_9TfWeakPtrINS_8UsdStageEEERKNS_7SdfPathE, 
                       __ZN38pxrInternal_v0_21__aapl__pxrReserved__18UsdRiRisOslPatternD0Ev, 
                       __ZN38pxrInternal_v0_21__aapl__pxrReserved__18UsdRiRisOslPatternD1Ev, 
                       __ZN38pxrInternal_v0_21__aapl__pxrReserved__18UsdRiRisOslPatternD2Ev, 
                       __ZN38pxrInternal_v0_21__aapl__pxrReserved__18UsdRiStatementsAPI13IsRiAttributeERKNS_11UsdPropertyE, 
                       __ZN38pxrInternal_v0_21__aapl__pxrReserved__18UsdRiStatementsAPI14GetRiAttributeERKNS_7TfTokenERKNSt3__112basic_stringIcNS4_11char_traitsIcEENS4_9allocatorIcEEEE, 
                       __ZN38pxrInternal_v0_21__aapl__pxrReserved__18UsdRiStatementsAPI14_IsTypedSchemaEv, 
                       __ZN38pxrInternal_v0_21__aapl__pxrReserved__18UsdRiStatementsAPI16_GetStaticTfTypeEv, 
                       __ZN38pxrInternal_v0_21__aapl__pxrReserved__18UsdRiStatementsAPI17CreateRiAttributeERKNS_7TfTokenERKNS_6TfTypeERKNSt3__112basic_stringIcNS7_11char_traitsIcEENS7_9allocatorIcEEEE, 
                       __ZN38pxrInternal_v0_21__aapl__pxrReserved__18UsdRiStatementsAPI17CreateRiAttributeERKNS_7TfTokenERKNSt3__112basic_stringIcNS4_11char_traitsIcEENS4_9allocatorIcEEEESC_, 
                       __ZN38pxrInternal_v0_21__aapl__pxrReserved__18UsdRiStatementsAPI19SetCoordinateSystemERKNSt3__112basic_stringIcNS1_11char_traitsIcEENS1_9allocatorIcEEEE, 
                       __ZN38pxrInternal_v0_21__aapl__pxrReserved__18UsdRiStatementsAPI23GetRiAttributeNameSpaceERKNS_11UsdPropertyE, 
                       __ZN38pxrInternal_v0_21__aapl__pxrReserved__18UsdRiStatementsAPI23GetSchemaAttributeNamesEb, 
                       __ZN38pxrInternal_v0_21__aapl__pxrReserved__18UsdRiStatementsAPI25SetScopedCoordinateSystemERKNSt3__112basic_stringIcNS1_11char_traitsIcEENS1_9allocatorIcEEEE, 
                       __ZN38pxrInternal_v0_21__aapl__pxrReserved__18UsdRiStatementsAPI27MakeRiAttributePropertyNameERKNSt3__112basic_stringIcNS1_11char_traitsIcEENS1_9allocatorIcEEEE, 
                       __ZN38pxrInternal_v0_21__aapl__pxrReserved__18UsdRiStatementsAPI3GetERKNS_9TfWeakPtrINS_8UsdStageEEERKNS_7SdfPathE, 
                       __ZN38pxrInternal_v0_21__aapl__pxrReserved__18UsdRiStatementsAPI5ApplyERKNS_7UsdPrimE, 
                       __ZN38pxrInternal_v0_21__aapl__pxrReserved__18UsdRiStatementsAPI8CanApplyERKNS_7UsdPrimEPNSt3__112basic_stringIcNS4_11char_traitsIcEENS4_9allocatorIcEEEE, 
                       __ZN38pxrInternal_v0_21__aapl__pxrReserved__18UsdRiStatementsAPID0Ev, 
                       __ZN38pxrInternal_v0_21__aapl__pxrReserved__18UsdRiStatementsAPID1Ev, 
                       __ZN38pxrInternal_v0_21__aapl__pxrReserved__18UsdRiStatementsAPID2Ev, 
                       __ZN38pxrInternal_v0_21__aapl__pxrReserved__18UsdShadeNodeDefAPI14_IsTypedSchemaEv, 
                       __ZN38pxrInternal_v0_21__aapl__pxrReserved__18UsdShadeNodeDefAPI16_GetStaticTfTypeEv, 
                       __ZN38pxrInternal_v0_21__aapl__pxrReserved__18UsdShadeNodeDefAPI23GetSchemaAttributeNamesEb, 
                       __ZN38pxrInternal_v0_21__aapl__pxrReserved__18UsdShadeNodeDefAPI3GetERKNS_9TfWeakPtrINS_8UsdStageEEERKNS_7SdfPathE, 
                       __ZN38pxrInternal_v0_21__aapl__pxrReserved__18UsdShadeNodeDefAPI5ApplyERKNS_7UsdPrimE, 
                       __ZN38pxrInternal_v0_21__aapl__pxrReserved__18UsdShadeNodeDefAPI8CanApplyERKNS_7UsdPrimEPNSt3__112basic_stringIcNS4_11char_traitsIcEENS4_9allocatorIcEEEE, 
                       __ZN38pxrInternal_v0_21__aapl__pxrReserved__18UsdShadeNodeDefAPID0Ev, 
                       __ZN38pxrInternal_v0_21__aapl__pxrReserved__18UsdShadeNodeDefAPID1Ev, 
                       __ZN38pxrInternal_v0_21__aapl__pxrReserved__18UsdShadeNodeDefAPID2Ev, 
                       __ZN38pxrInternal_v0_21__aapl__pxrReserved__18UsdShadeTokensTypeC1Ev, 
                       __ZN38pxrInternal_v0_21__aapl__pxrReserved__18UsdShadeTokensTypeC2Ev, 
                       __ZN38pxrInternal_v0_21__aapl__pxrReserved__18UsdUtilsStageCache35GetSessionLayerForVariantSelectionsERKNS_7TfTokenERKNSt3__16vectorINS4_4pairINS4_12basic_stringIcNS4_11char_traitsIcEENS4_9allocatorIcEEEESC_EENSA_ISD_EEEE, 
                       __ZN38pxrInternal_v0_21__aapl__pxrReserved__18UsdUtilsStageCache3GetEv, 
                       __ZN38pxrInternal_v0_21__aapl__pxrReserved__18UsdUtilsStitchInfoERKNS_9SdfHandleINS_7SdfSpecEEES4_, 
                       __ZN38pxrInternal_v0_21__aapl__pxrReserved__18UsdUtilsStitchInfoERKNS_9SdfHandleINS_7SdfSpecEEES4_RKNSt3__18functionIFNS_25UsdUtilsStitchValueStatusERKNS_7TfTokenERKNS_7SdfPathERKNS_9TfWeakPtrINS_8SdfLayerEEEbSI_bPNS_7VtValueEEEE, 
                       __ZN38pxrInternal_v0_21__aapl__pxrReserved__18UsdVolField3DAsset14_IsTypedSchemaEv, 
                       __ZN38pxrInternal_v0_21__aapl__pxrReserved__18UsdVolField3DAsset16_GetStaticTfTypeEv, 
                       __ZN38pxrInternal_v0_21__aapl__pxrReserved__18UsdVolField3DAsset23GetSchemaAttributeNamesEb, 
                       __ZN38pxrInternal_v0_21__aapl__pxrReserved__18UsdVolField3DAsset3GetERKNS_9TfWeakPtrINS_8UsdStageEEERKNS_7SdfPathE, 
                       __ZN38pxrInternal_v0_21__aapl__pxrReserved__18UsdVolField3DAsset6DefineERKNS_9TfWeakPtrINS_8UsdStageEEERKNS_7SdfPathE, 
                       __ZN38pxrInternal_v0_21__aapl__pxrReserved__18UsdVolField3DAssetD0Ev, 
                       __ZN38pxrInternal_v0_21__aapl__pxrReserved__18UsdVolField3DAssetD1Ev, 
                       __ZN38pxrInternal_v0_21__aapl__pxrReserved__18UsdVolField3DAssetD2Ev, 
                       __ZN38pxrInternal_v0_21__aapl__pxrReserved__18UsdVolOpenVDBAsset14_IsTypedSchemaEv, 
                       __ZN38pxrInternal_v0_21__aapl__pxrReserved__18UsdVolOpenVDBAsset16_GetStaticTfTypeEv, 
                       __ZN38pxrInternal_v0_21__aapl__pxrReserved__18UsdVolOpenVDBAsset23GetSchemaAttributeNamesEb, 
                       __ZN38pxrInternal_v0_21__aapl__pxrReserved__18UsdVolOpenVDBAsset3GetERKNS_9TfWeakPtrINS_8UsdStageEEERKNS_7SdfPathE, 
                       __ZN38pxrInternal_v0_21__aapl__pxrReserved__18UsdVolOpenVDBAsset6DefineERKNS_9TfWeakPtrINS_8UsdStageEEERKNS_7SdfPathE, 
                       __ZN38pxrInternal_v0_21__aapl__pxrReserved__18UsdVolOpenVDBAssetD0Ev, 
                       __ZN38pxrInternal_v0_21__aapl__pxrReserved__18UsdVolOpenVDBAssetD1Ev, 
                       __ZN38pxrInternal_v0_21__aapl__pxrReserved__18UsdVolOpenVDBAssetD2Ev, 
                       __ZN38pxrInternal_v0_21__aapl__pxrReserved__18WorkHasConcurrencyEv, 
                       __ZN38pxrInternal_v0_21__aapl__pxrReserved__19ArchGetMainThreadIdEv, 
                       __ZN38pxrInternal_v0_21__aapl__pxrReserved__19ArchMakeTmpFileNameERKNSt3__112basic_stringIcNS0_11char_traitsIcEENS0_9allocatorIcEEEES8_, 
                       __ZN38pxrInternal_v0_21__aapl__pxrReserved__19ArchMapFileReadOnlyEP7__sFILEPNSt3__112basic_stringIcNS2_11char_traitsIcEENS2_9allocatorIcEEEE, 
                       __ZN38pxrInternal_v0_21__aapl__pxrReserved__19ArchMapFileReadOnlyERKNSt3__112basic_stringIcNS0_11char_traitsIcEENS0_9allocatorIcEEEEPS6_, 
                       __ZN38pxrInternal_v0_21__aapl__pxrReserved__19ArchPrintStackTraceEP7__sFILERKNSt3__112basic_stringIcNS2_11char_traitsIcEENS2_9allocatorIcEEEE, 
                       __ZN38pxrInternal_v0_21__aapl__pxrReserved__19ArchPrintStackTraceEP7__sFILERKNSt3__112basic_stringIcNS2_11char_traitsIcEENS2_9allocatorIcEEEESA_, 
                       __ZN38pxrInternal_v0_21__aapl__pxrReserved__19ArchPrintStackTraceERNSt3__113basic_ostreamIcNS0_11char_traitsIcEEEERKNS0_12basic_stringIcS3_NS0_9allocatorIcEEEE, 
                       __ZN38pxrInternal_v0_21__aapl__pxrReserved__19ArchPrintStackTraceERNSt3__113basic_ostreamIcNS0_11char_traitsIcEEEERKNS0_12basic_stringIcS3_NS0_9allocatorIcEEEESB_, 
                       __ZN38pxrInternal_v0_21__aapl__pxrReserved__19GfFindClosestPointsERKNS_11GfLineSeg2dES2_PNS_7GfVec2dES4_PdS5_, 
                       __ZN38pxrInternal_v0_21__aapl__pxrReserved__19GfFindClosestPointsERKNS_5GfRayERKNS_6GfLineEPNS_7GfVec3dES7_PdS8_, 
                       __ZN38pxrInternal_v0_21__aapl__pxrReserved__19GfFindClosestPointsERKNS_5GfRayERKNS_9GfLineSegEPNS_7GfVec3dES7_PdS8_, 
                       __ZN38pxrInternal_v0_21__aapl__pxrReserved__19GfFindClosestPointsERKNS_6GfLineERKNS_9GfLineSegEPNS_7GfVec3dES7_PdS8_, 
                       __ZN38pxrInternal_v0_21__aapl__pxrReserved__19GfFindClosestPointsERKNS_6GfLineES2_PNS_7GfVec3dES4_PdS5_, 
                       __ZN38pxrInternal_v0_21__aapl__pxrReserved__19GfFindClosestPointsERKNS_8GfLine2dERKNS_11GfLineSeg2dEPNS_7GfVec2dES7_PdS8_, 
                       __ZN38pxrInternal_v0_21__aapl__pxrReserved__19GfFindClosestPointsERKNS_8GfLine2dES2_PNS_7GfVec2dES4_PdS5_, 
                       __ZN38pxrInternal_v0_21__aapl__pxrReserved__19GfFindClosestPointsERKNS_9GfLineSegES2_PNS_7GfVec3dES4_PdS5_, 
                       __ZN38pxrInternal_v0_21__aapl__pxrReserved__19HdCommandDescriptorC1Ev, 
                       __ZN38pxrInternal_v0_21__aapl__pxrReserved__19HdCommandDescriptorC2Ev, 
                       __ZN38pxrInternal_v0_21__aapl__pxrReserved__19HdGetComponentCountENS_6HdTypeE, 
                       __ZN38pxrInternal_v0_21__aapl__pxrReserved__19HdGetComponentCountENS_8HdFormatE, 
                       __ZN38pxrInternal_v0_21__aapl__pxrReserved__19HdGetValueTupleTypeERKNS_7VtValueE, 
                       __ZN38pxrInternal_v0_21__aapl__pxrReserved__19HdMaterialTagTokensE, 
                       __ZN38pxrInternal_v0_21__aapl__pxrReserved__19HdPrimvarRoleTokensE, 
                       __ZN38pxrInternal_v0_21__aapl__pxrReserved__19HdResampleNeighborsEfRKNS_7VtValueES2_, 
                       __ZN38pxrInternal_v0_21__aapl__pxrReserved__19PcpBuildTargetIndexERKNS_7PcpSiteERKNS_16PcpPropertyIndexENS_11SdfSpecTypeEPNS_14PcpTargetIndexEPNSt3__16vectorINS9_10shared_ptrINS_12PcpErrorBaseEEENS9_9allocatorISD_EEEE, 
                       __ZN38pxrInternal_v0_21__aapl__pxrReserved__19PcpComputePrimIndexERKNS_7SdfPathERKNS_9TfWeakPtrINS_13PcpLayerStackEEERKNS_18PcpPrimIndexInputsEPNS_19PcpPrimIndexOutputsEPNS_10ArResolverE, 
                       __ZN38pxrInternal_v0_21__aapl__pxrReserved__19PcpPrimIndexOutputs6AppendEOS0_RKNS_6PcpArcEPNSt3__110shared_ptrINS_12PcpErrorBaseEEE, 
                       __ZN38pxrInternal_v0_21__aapl__pxrReserved__19PcpPropertyIterator7advanceEl, 
                       __ZN38pxrInternal_v0_21__aapl__pxrReserved__19PcpPropertyIterator9decrementEv, 
                       __ZN38pxrInternal_v0_21__aapl__pxrReserved__19PcpPropertyIterator9incrementEv, 
                       __ZN38pxrInternal_v0_21__aapl__pxrReserved__19PcpPropertyIteratorC1ERKNS_16PcpPropertyIndexEm, 
                       __ZN38pxrInternal_v0_21__aapl__pxrReserved__19PcpPropertyIteratorC1Ev, 
                       __ZN38pxrInternal_v0_21__aapl__pxrReserved__19PcpPropertyIteratorC2ERKNS_16PcpPropertyIndexEm, 
                       __ZN38pxrInternal_v0_21__aapl__pxrReserved__19PcpPropertyIteratorC2Ev, 
                       __ZN38pxrInternal_v0_21__aapl__pxrReserved__19PxOsdRefinerFactory6CreateERKNS_17PxOsdMeshTopologyENS_7TfTokenE, 
                       __ZN38pxrInternal_v0_21__aapl__pxrReserved__19PxOsdRefinerFactory6CreateERKNS_17PxOsdMeshTopologyERKNSt3__16vectorINS_7VtArrayIiEENS4_9allocatorIS7_EEEENS_7TfTokenE, 
                       __ZN38pxrInternal_v0_21__aapl__pxrReserved__19SdfFileFormatTokensE, 
                       __ZN38pxrInternal_v0_21__aapl__pxrReserved__19SdfRelationshipSpec13SetNoLoadHintEb, 
                       __ZN38pxrInternal_v0_21__aapl__pxrReserved__19SdfRelationshipSpec16RemoveTargetPathERKNS_7SdfPathEb, 
                       __ZN38pxrInternal_v0_21__aapl__pxrReserved__19SdfRelationshipSpec17ReplaceTargetPathERKNS_7SdfPathES3_, 
                       __ZN38pxrInternal_v0_21__aapl__pxrReserved__19SdfRelationshipSpec3NewERKNS_9SdfHandleINS_11SdfPrimSpecEEERKNSt3__112basic_stringIcNS6_11char_traitsIcEENS6_9allocatorIcEEEEbNS_14SdfVariabilityE, 
                       __ZN38pxrInternal_v0_21__aapl__pxrReserved__19SdrPropertyMetadataE, 
                       __ZN38pxrInternal_v0_21__aapl__pxrReserved__19TfStringGlobToRegexERKNSt3__112basic_stringIcNS0_11char_traitsIcEENS0_9allocatorIcEEEE, 
                       __ZN38pxrInternal_v0_21__aapl__pxrReserved__19Tf_PostStatusHelperERKNS_13TfCallContextEPKcz, 
                       __ZN38pxrInternal_v0_21__aapl__pxrReserved__19Tf_PostStatusHelperERKNS_13TfCallContextERKN5boost3anyERKNS_6TfEnumEPKcz, 
                       __ZN38pxrInternal_v0_21__aapl__pxrReserved__19Tf_PostStatusHelperERKNS_13TfCallContextERKN5boost3anyERKNS_6TfEnumERKNSt3__112basic_stringIcNSA_11char_traitsIcEENSA_9allocatorIcEEEE, 
                       __ZN38pxrInternal_v0_21__aapl__pxrReserved__19Tf_PostStatusHelperERKNS_13TfCallContextERKNS_6TfEnumEPKcz, 
                       __ZN38pxrInternal_v0_21__aapl__pxrReserved__19Tf_PostStatusHelperERKNS_13TfCallContextERKNS_6TfEnumERKNSt3__112basic_stringIcNS6_11char_traitsIcEENS6_9allocatorIcEEEE, 
                       __ZN38pxrInternal_v0_21__aapl__pxrReserved__19Tf_PostStatusHelperERKNS_13TfCallContextERKNSt3__112basic_stringIcNS3_11char_traitsIcEENS3_9allocatorIcEEEE, 
                       __ZN38pxrInternal_v0_21__aapl__pxrReserved__19Tf_TerminateHandlerEv, 
                       __ZN38pxrInternal_v0_21__aapl__pxrReserved__19TraceEventContainer5_Node11DestroyListEPS1_, 
                       __ZN38pxrInternal_v0_21__aapl__pxrReserved__19TraceEventContainer5_Node3NewEm, 
                       __ZN38pxrInternal_v0_21__aapl__pxrReserved__19TraceEventContainer5_Node4JoinEPS1_S2_, 
                       __ZN38pxrInternal_v0_21__aapl__pxrReserved__19TraceEventContainer5_NodeC1EPNS_10TraceEventEm, 
                       __ZN38pxrInternal_v0_21__aapl__pxrReserved__19TraceEventContainer5_NodeC2EPNS_10TraceEventEm, 
                       __ZN38pxrInternal_v0_21__aapl__pxrReserved__19TraceEventContainer5_NodeD1Ev, 
                       __ZN38pxrInternal_v0_21__aapl__pxrReserved__19TraceEventContainer5_NodeD2Ev, 
                       __ZN38pxrInternal_v0_21__aapl__pxrReserved__19TraceEventContainer6AppendEOS0_, 
                       __ZN38pxrInternal_v0_21__aapl__pxrReserved__19TraceEventContainer8AllocateEv, 
                       __ZN38pxrInternal_v0_21__aapl__pxrReserved__19TraceEventContainerC1EOS0_, 
                       __ZN38pxrInternal_v0_21__aapl__pxrReserved__19TraceEventContainerC1Ev, 
                       __ZN38pxrInternal_v0_21__aapl__pxrReserved__19TraceEventContainerC2EOS0_, 
                       __ZN38pxrInternal_v0_21__aapl__pxrReserved__19TraceEventContainerC2Ev, 
                       __ZN38pxrInternal_v0_21__aapl__pxrReserved__19TraceEventContainerD1Ev, 
                       __ZN38pxrInternal_v0_21__aapl__pxrReserved__19TraceEventContainerD2Ev, 
                       __ZN38pxrInternal_v0_21__aapl__pxrReserved__19TraceEventContaineraSEOS0_, 
                       __ZN38pxrInternal_v0_21__aapl__pxrReserved__19TraceReporterTokensE, 
                       __ZN38pxrInternal_v0_21__aapl__pxrReserved__19UsdClipsAPIInfoKeysE, 
                       __ZN38pxrInternal_v0_21__aapl__pxrReserved__19UsdClipsAPISetNamesE, 
                       __ZN38pxrInternal_v0_21__aapl__pxrReserved__19UsdGeomXformOpTypesE, 
                       __ZN38pxrInternal_v0_21__aapl__pxrReserved__19UsdLuxCylinderLight14_IsTypedSchemaEv, 
                       __ZN38pxrInternal_v0_21__aapl__pxrReserved__19UsdLuxCylinderLight16_GetStaticTfTypeEv, 
                       __ZN38pxrInternal_v0_21__aapl__pxrReserved__19UsdLuxCylinderLight23GetSchemaAttributeNamesEb, 
                       __ZN38pxrInternal_v0_21__aapl__pxrReserved__19UsdLuxCylinderLight3GetERKNS_9TfWeakPtrINS_8UsdStageEEERKNS_7SdfPathE, 
                       __ZN38pxrInternal_v0_21__aapl__pxrReserved__19UsdLuxCylinderLight6DefineERKNS_9TfWeakPtrINS_8UsdStageEEERKNS_7SdfPathE, 
                       __ZN38pxrInternal_v0_21__aapl__pxrReserved__19UsdLuxCylinderLightD0Ev, 
                       __ZN38pxrInternal_v0_21__aapl__pxrReserved__19UsdLuxCylinderLightD1Ev, 
                       __ZN38pxrInternal_v0_21__aapl__pxrReserved__19UsdLuxCylinderLightD2Ev, 
                       __ZN38pxrInternal_v0_21__aapl__pxrReserved__19UsdLuxGeometryLight14_IsTypedSchemaEv, 
                       __ZN38pxrInternal_v0_21__aapl__pxrReserved__19UsdLuxGeometryLight16_GetStaticTfTypeEv, 
                       __ZN38pxrInternal_v0_21__aapl__pxrReserved__19UsdLuxGeometryLight23GetSchemaAttributeNamesEb, 
                       __ZN38pxrInternal_v0_21__aapl__pxrReserved__19UsdLuxGeometryLight3GetERKNS_9TfWeakPtrINS_8UsdStageEEERKNS_7SdfPathE, 
                       __ZN38pxrInternal_v0_21__aapl__pxrReserved__19UsdLuxGeometryLight6DefineERKNS_9TfWeakPtrINS_8UsdStageEEERKNS_7SdfPathE, 
                       __ZN38pxrInternal_v0_21__aapl__pxrReserved__19UsdLuxGeometryLightD0Ev, 
                       __ZN38pxrInternal_v0_21__aapl__pxrReserved__19UsdLuxGeometryLightD1Ev, 
                       __ZN38pxrInternal_v0_21__aapl__pxrReserved__19UsdLuxGeometryLightD2Ev, 
                       __ZN38pxrInternal_v0_21__aapl__pxrReserved__19UsdRenderTokensTypeC1Ev, 
                       __ZN38pxrInternal_v0_21__aapl__pxrReserved__19UsdRenderTokensTypeC2Ev, 
                       __ZN38pxrInternal_v0_21__aapl__pxrReserved__19UsdRiLightFilterAPI14_IsTypedSchemaEv, 
                       __ZN38pxrInternal_v0_21__aapl__pxrReserved__19UsdRiLightFilterAPI16_GetStaticTfTypeEv, 
                       __ZN38pxrInternal_v0_21__aapl__pxrReserved__19UsdRiLightFilterAPI23GetSchemaAttributeNamesEb, 
                       __ZN38pxrInternal_v0_21__aapl__pxrReserved__19UsdRiLightFilterAPI3GetERKNS_9TfWeakPtrINS_8UsdStageEEERKNS_7SdfPathE, 
                       __ZN38pxrInternal_v0_21__aapl__pxrReserved__19UsdRiLightFilterAPI5ApplyERKNS_7UsdPrimE, 
                       __ZN38pxrInternal_v0_21__aapl__pxrReserved__19UsdRiLightFilterAPI8CanApplyERKNS_7UsdPrimEPNSt3__112basic_stringIcNS4_11char_traitsIcEENS4_9allocatorIcEEEE, 
                       __ZN38pxrInternal_v0_21__aapl__pxrReserved__19UsdRiLightFilterAPID0Ev, 
                       __ZN38pxrInternal_v0_21__aapl__pxrReserved__19UsdRiLightFilterAPID1Ev, 
                       __ZN38pxrInternal_v0_21__aapl__pxrReserved__19UsdRiLightFilterAPID2Ev, 
                       __ZN38pxrInternal_v0_21__aapl__pxrReserved__19UsdRiLightPortalAPI14_IsTypedSchemaEv, 
                       __ZN38pxrInternal_v0_21__aapl__pxrReserved__19UsdRiLightPortalAPI16_GetStaticTfTypeEv, 
                       __ZN38pxrInternal_v0_21__aapl__pxrReserved__19UsdRiLightPortalAPI23GetSchemaAttributeNamesEb, 
                       __ZN38pxrInternal_v0_21__aapl__pxrReserved__19UsdRiLightPortalAPI3GetERKNS_9TfWeakPtrINS_8UsdStageEEERKNS_7SdfPathE, 
                       __ZN38pxrInternal_v0_21__aapl__pxrReserved__19UsdRiLightPortalAPI5ApplyERKNS_7UsdPrimE, 
                       __ZN38pxrInternal_v0_21__aapl__pxrReserved__19UsdRiLightPortalAPI8CanApplyERKNS_7UsdPrimEPNSt3__112basic_stringIcNS4_11char_traitsIcEENS4_9allocatorIcEEEE, 
                       __ZN38pxrInternal_v0_21__aapl__pxrReserved__19UsdRiLightPortalAPID0Ev, 
                       __ZN38pxrInternal_v0_21__aapl__pxrReserved__19UsdRiLightPortalAPID1Ev, 
                       __ZN38pxrInternal_v0_21__aapl__pxrReserved__19UsdRiLightPortalAPID2Ev, 
                       __ZN38pxrInternal_v0_21__aapl__pxrReserved__19UsdRiPxrEnvDayLight14_IsTypedSchemaEv, 
                       __ZN38pxrInternal_v0_21__aapl__pxrReserved__19UsdRiPxrEnvDayLight16_GetStaticTfTypeEv, 
                       __ZN38pxrInternal_v0_21__aapl__pxrReserved__19UsdRiPxrEnvDayLight23GetSchemaAttributeNamesEb, 
                       __ZN38pxrInternal_v0_21__aapl__pxrReserved__19UsdRiPxrEnvDayLight3GetERKNS_9TfWeakPtrINS_8UsdStageEEERKNS_7SdfPathE, 
                       __ZN38pxrInternal_v0_21__aapl__pxrReserved__19UsdRiPxrEnvDayLight6DefineERKNS_9TfWeakPtrINS_8UsdStageEEERKNS_7SdfPathE, 
                       __ZN38pxrInternal_v0_21__aapl__pxrReserved__19UsdRiPxrEnvDayLightD0Ev, 
                       __ZN38pxrInternal_v0_21__aapl__pxrReserved__19UsdRiPxrEnvDayLightD1Ev, 
                       __ZN38pxrInternal_v0_21__aapl__pxrReserved__19UsdRiPxrEnvDayLightD2Ev, 
                       __ZN38pxrInternal_v0_21__aapl__pxrReserved__19UsdShadeCoordSysAPI14_IsTypedSchemaEv, 
                       __ZN38pxrInternal_v0_21__aapl__pxrReserved__19UsdShadeCoordSysAPI16_GetStaticTfTypeEv, 
                       __ZN38pxrInternal_v0_21__aapl__pxrReserved__19UsdShadeCoordSysAPI22CanContainPropertyNameERKNS_7TfTokenE, 
                       __ZN38pxrInternal_v0_21__aapl__pxrReserved__19UsdShadeCoordSysAPI23GetSchemaAttributeNamesEb, 
                       __ZN38pxrInternal_v0_21__aapl__pxrReserved__19UsdShadeCoordSysAPI27GetCoordSysRelationshipNameERKNSt3__112basic_stringIcNS1_11char_traitsIcEENS1_9allocatorIcEEEE, 
                       __ZN38pxrInternal_v0_21__aapl__pxrReserved__19UsdShadeCoordSysAPI3GetERKNS_9TfWeakPtrINS_8UsdStageEEERKNS_7SdfPathE, 
                       __ZN38pxrInternal_v0_21__aapl__pxrReserved__19UsdShadeCoordSysAPID0Ev, 
                       __ZN38pxrInternal_v0_21__aapl__pxrReserved__19UsdShadeCoordSysAPID1Ev, 
                       __ZN38pxrInternal_v0_21__aapl__pxrReserved__19UsdShadeCoordSysAPID2Ev, 
                       __ZN38pxrInternal_v0_21__aapl__pxrReserved__19UsdSkelBakeSkinningERKNS_11UsdSkelRootERKNS_10GfIntervalE, 
                       __ZN38pxrInternal_v0_21__aapl__pxrReserved__19UsdSkelBakeSkinningERKNS_12UsdPrimRangeERKNS_10GfIntervalE, 
                       __ZN38pxrInternal_v0_21__aapl__pxrReserved__19UsdSkelBakeSkinningERKNS_12UsdSkelCacheERKNS_24UsdSkelBakeSkinningParmsERKNS_10GfIntervalE, 
                       __ZN38pxrInternal_v0_21__aapl__pxrReserved__19UsdUtilsGetPrefNameEv, 
                       __ZN38pxrInternal_v0_21__aapl__pxrReserved__19UsdUtilsStitchClipsERKNS_9TfWeakPtrINS_8SdfLayerEEERKNSt3__16vectorINS5_12basic_stringIcNS5_11char_traitsIcEENS5_9allocatorIcEEEENSA_ISC_EEEERKNS_7SdfPathEddbRKNS_7TfTokenE, 
                       __ZN38pxrInternal_v0_21__aapl__pxrReserved__19VtStreamOutIteratorD0Ev, 
                       __ZN38pxrInternal_v0_21__aapl__pxrReserved__19VtStreamOutIteratorD1Ev, 
                       __ZN38pxrInternal_v0_21__aapl__pxrReserved__19VtStreamOutIteratorD2Ev, 
                       __ZN38pxrInternal_v0_21__aapl__pxrReserved__19Vt_StreamOutGenericERKSt9type_infoPKvRNSt3__113basic_ostreamIcNS5_11char_traitsIcEEEE, 
                       __ZN38pxrInternal_v0_21__aapl__pxrReserved__20AaplUsdPhysicsTokensE, 
                       __ZN38pxrInternal_v0_21__aapl__pxrReserved__20ArchGetAppLaunchTimeEv, 
                       __ZN38pxrInternal_v0_21__aapl__pxrReserved__20ArchIsPtmallocActiveEv, 
                       __ZN38pxrInternal_v0_21__aapl__pxrReserved__20ArchMapFileReadWriteEP7__sFILEPNSt3__112basic_stringIcNS2_11char_traitsIcEENS2_9allocatorIcEEEE, 
                       __ZN38pxrInternal_v0_21__aapl__pxrReserved__20ArchMapFileReadWriteERKNSt3__112basic_stringIcNS0_11char_traitsIcEENS0_9allocatorIcEEEEPS6_, 
                       __ZN38pxrInternal_v0_21__aapl__pxrReserved__20ArchPrintStackFramesERNSt3__113basic_ostreamIcNS0_11char_traitsIcEEEERKNS0_6vectorImNS0_9allocatorImEEEE, 
                       __ZN38pxrInternal_v0_21__aapl__pxrReserved__20GfOrthogonalizeBasisEPNS_7GfVec3dES1_S1_bd, 
                       __ZN38pxrInternal_v0_21__aapl__pxrReserved__20GfOrthogonalizeBasisEPNS_7GfVec3fES1_S1_bd, 
                       __ZN38pxrInternal_v0_21__aapl__pxrReserved__20GfOrthogonalizeBasisEPNS_7GfVec3hES1_S1_bd, 
                       __ZN38pxrInternal_v0_21__aapl__pxrReserved__20HdGetComponentFormatENS_8HdFormatE, 
                       __ZN38pxrInternal_v0_21__aapl__pxrReserved__20HdMeshEdgeIndexTableC1EPKNS_14HdMeshTopologyE, 
                       __ZN38pxrInternal_v0_21__aapl__pxrReserved__20HdMeshEdgeIndexTableC2EPKNS_14HdMeshTopologyE, 
                       __ZN38pxrInternal_v0_21__aapl__pxrReserved__20HdMeshEdgeIndexTableD1Ev, 
                       __ZN38pxrInternal_v0_21__aapl__pxrReserved__20HdMeshEdgeIndexTableD2Ev, 
                       __ZN38pxrInternal_v0_21__aapl__pxrReserved__20HdMeshReprDescTokensE, 
                       __ZN38pxrInternal_v0_21__aapl__pxrReserved__20HdResourceTypeTokensE, 
                       __ZN38pxrInternal_v0_21__aapl__pxrReserved__20SdfCreatePrimInLayerERKNS_9TfWeakPtrINS_8SdfLayerEEERKNS_7SdfPathE, 
                       __ZN38pxrInternal_v0_21__aapl__pxrReserved__20SdfGetNameOrderProxyERKNS_9SdfHandleINS_7SdfSpecEEERKNS_7TfTokenE, 
                       __ZN38pxrInternal_v0_21__aapl__pxrReserved__20SdfUnregisteredValueC1ERKNS_12VtDictionaryE, 
                       __ZN38pxrInternal_v0_21__aapl__pxrReserved__20SdfUnregisteredValueC1ERKNS_9SdfListOpIS0_EE, 
                       __ZN38pxrInternal_v0_21__aapl__pxrReserved__20SdfUnregisteredValueC1ERKNSt3__112basic_stringIcNS1_11char_traitsIcEENS1_9allocatorIcEEEE, 
                       __ZN38pxrInternal_v0_21__aapl__pxrReserved__20SdfUnregisteredValueC1Ev, 
                       __ZN38pxrInternal_v0_21__aapl__pxrReserved__20SdfUnregisteredValueC2ERKNS_12VtDictionaryE, 
                       __ZN38pxrInternal_v0_21__aapl__pxrReserved__20SdfUnregisteredValueC2ERKNS_9SdfListOpIS0_EE, 
                       __ZN38pxrInternal_v0_21__aapl__pxrReserved__20SdfUnregisteredValueC2ERKNSt3__112basic_stringIcNS1_11char_traitsIcEENS1_9allocatorIcEEEE, 
                       __ZN38pxrInternal_v0_21__aapl__pxrReserved__20SdfUnregisteredValueC2Ev, 
                       __ZN38pxrInternal_v0_21__aapl__pxrReserved__20SdfValueHasValidTypeERKNS_7VtValueE, 
                       __ZN38pxrInternal_v0_21__aapl__pxrReserved__20Sdf_IdentityRegistry12MoveIdentityERKNS_7SdfPathES3_, 
                       __ZN38pxrInternal_v0_21__aapl__pxrReserved__20Sdf_IdentityRegistry7_RemoveERKNS_7SdfPathEPNS_12Sdf_IdentityE, 
                       __ZN38pxrInternal_v0_21__aapl__pxrReserved__20Sdf_IdentityRegistry8IdentifyERKNS_7SdfPathE, 
                       __ZN38pxrInternal_v0_21__aapl__pxrReserved__20Sdf_IdentityRegistryC1ERKNS_9TfWeakPtrINS_8SdfLayerEEE, 
                       __ZN38pxrInternal_v0_21__aapl__pxrReserved__20Sdf_IdentityRegistryC2ERKNS_9TfWeakPtrINS_8SdfLayerEEE, 
                       __ZN38pxrInternal_v0_21__aapl__pxrReserved__20Sdf_IdentityRegistryD1Ev, 
                       __ZN38pxrInternal_v0_21__aapl__pxrReserved__20Sdf_IdentityRegistryD2Ev, 
                       __ZN38pxrInternal_v0_21__aapl__pxrReserved__20Sdf_PrimPartPathNodedlEPv, 
                       __ZN38pxrInternal_v0_21__aapl__pxrReserved__20Sdf_PropPartPathNodedlEPv, 
                       __ZN38pxrInternal_v0_21__aapl__pxrReserved__20Tf_PostWarningHelperERKNS_13TfCallContextENS_16TfDiagnosticTypeEPKcz, 
                       __ZN38pxrInternal_v0_21__aapl__pxrReserved__20Tf_PostWarningHelperERKNS_13TfCallContextENS_16TfDiagnosticTypeERKNSt3__112basic_stringIcNS4_11char_traitsIcEENS4_9allocatorIcEEEE, 
                       __ZN38pxrInternal_v0_21__aapl__pxrReserved__20Tf_PostWarningHelperERKNS_13TfCallContextEPKcz, 
                       __ZN38pxrInternal_v0_21__aapl__pxrReserved__20Tf_PostWarningHelperERKNS_13TfCallContextERKN5boost3anyERKNS_6TfEnumEPKcz, 
                       __ZN38pxrInternal_v0_21__aapl__pxrReserved__20Tf_PostWarningHelperERKNS_13TfCallContextERKN5boost3anyERKNS_6TfEnumERKNSt3__112basic_stringIcNSA_11char_traitsIcEENSA_9allocatorIcEEEE, 
                       __ZN38pxrInternal_v0_21__aapl__pxrReserved__20Tf_PostWarningHelperERKNS_13TfCallContextERKNS_6TfEnumEPKcz, 
                       __ZN38pxrInternal_v0_21__aapl__pxrReserved__20Tf_PostWarningHelperERKNS_13TfCallContextERKNS_6TfEnumERKNSt3__112basic_stringIcNS6_11char_traitsIcEENS6_9allocatorIcEEEE, 
                       __ZN38pxrInternal_v0_21__aapl__pxrReserved__20Tf_PostWarningHelperERKNS_13TfCallContextERKNSt3__112basic_stringIcNS3_11char_traitsIcEENS3_9allocatorIcEEEE, 
                       __ZN38pxrInternal_v0_21__aapl__pxrReserved__20UsdFlattenLayerStackERKNS_8TfRefPtrINS_13PcpLayerStackEEERKNSt3__112basic_stringIcNS5_11char_traitsIcEENS5_9allocatorIcEEEE, 
                       __ZN38pxrInternal_v0_21__aapl__pxrReserved__20UsdFlattenLayerStackERKNS_8TfRefPtrINS_13PcpLayerStackEEERKNSt3__18functionIFNS5_12basic_stringIcNS5_11char_traitsIcEENS5_9allocatorIcEEEERKNS_9TfWeakPtrINS_8SdfLayerEEERKSC_EEESJ_, 
                       __ZN38pxrInternal_v0_21__aapl__pxrReserved__20UsdGeomHermiteCurves14_IsTypedSchemaEv, 
                       __ZN38pxrInternal_v0_21__aapl__pxrReserved__20UsdGeomHermiteCurves16_GetStaticTfTypeEv, 
                       __ZN38pxrInternal_v0_21__aapl__pxrReserved__20UsdGeomHermiteCurves21PointAndTangentArraysC1ERKNS_7VtArrayINS_7GfVec3fEEE, 
                       __ZN38pxrInternal_v0_21__aapl__pxrReserved__20UsdGeomHermiteCurves21PointAndTangentArraysC2ERKNS_7VtArrayINS_7GfVec3fEEE, 
                       __ZN38pxrInternal_v0_21__aapl__pxrReserved__20UsdGeomHermiteCurves23GetSchemaAttributeNamesEb, 
                       __ZN38pxrInternal_v0_21__aapl__pxrReserved__20UsdGeomHermiteCurves3GetERKNS_9TfWeakPtrINS_8UsdStageEEERKNS_7SdfPathE, 
                       __ZN38pxrInternal_v0_21__aapl__pxrReserved__20UsdGeomHermiteCurves6DefineERKNS_9TfWeakPtrINS_8UsdStageEEERKNS_7SdfPathE, 
                       __ZN38pxrInternal_v0_21__aapl__pxrReserved__20UsdGeomHermiteCurvesD0Ev, 
                       __ZN38pxrInternal_v0_21__aapl__pxrReserved__20UsdGeomHermiteCurvesD1Ev, 
                       __ZN38pxrInternal_v0_21__aapl__pxrReserved__20UsdGeomHermiteCurvesD2Ev, 
                       __ZN38pxrInternal_v0_21__aapl__pxrReserved__20UsdMediaSpatialAudio14_IsTypedSchemaEv, 
                       __ZN38pxrInternal_v0_21__aapl__pxrReserved__20UsdMediaSpatialAudio16_GetStaticTfTypeEv, 
                       __ZN38pxrInternal_v0_21__aapl__pxrReserved__20UsdMediaSpatialAudio23GetSchemaAttributeNamesEb, 
                       __ZN38pxrInternal_v0_21__aapl__pxrReserved__20UsdMediaSpatialAudio3GetERKNS_9TfWeakPtrINS_8UsdStageEEERKNS_7SdfPathE, 
                       __ZN38pxrInternal_v0_21__aapl__pxrReserved__20UsdMediaSpatialAudio6DefineERKNS_9TfWeakPtrINS_8UsdStageEEERKNS_7SdfPathE, 
                       __ZN38pxrInternal_v0_21__aapl__pxrReserved__20UsdMediaSpatialAudioD0Ev, 
                       __ZN38pxrInternal_v0_21__aapl__pxrReserved__20UsdMediaSpatialAudioD1Ev, 
                       __ZN38pxrInternal_v0_21__aapl__pxrReserved__20UsdMediaSpatialAudioD2Ev, 
                       __ZN38pxrInternal_v0_21__aapl__pxrReserved__20UsdPhysicsFixedJoint14_IsTypedSchemaEv, 
                       __ZN38pxrInternal_v0_21__aapl__pxrReserved__20UsdPhysicsFixedJoint16_GetStaticTfTypeEv, 
                       __ZN38pxrInternal_v0_21__aapl__pxrReserved__20UsdPhysicsFixedJoint23GetSchemaAttributeNamesEb, 
                       __ZN38pxrInternal_v0_21__aapl__pxrReserved__20UsdPhysicsFixedJoint3GetERKNS_9TfWeakPtrINS_8UsdStageEEERKNS_7SdfPathE, 
                       __ZN38pxrInternal_v0_21__aapl__pxrReserved__20UsdPhysicsFixedJoint6DefineERKNS_9TfWeakPtrINS_8UsdStageEEERKNS_7SdfPathE, 
                       __ZN38pxrInternal_v0_21__aapl__pxrReserved__20UsdPhysicsFixedJointD0Ev, 
                       __ZN38pxrInternal_v0_21__aapl__pxrReserved__20UsdPhysicsFixedJointD1Ev, 
                       __ZN38pxrInternal_v0_21__aapl__pxrReserved__20UsdPhysicsFixedJointD2Ev, 
                       __ZN38pxrInternal_v0_21__aapl__pxrReserved__20UsdPhysicsTokensTypeC1Ev, 
                       __ZN38pxrInternal_v0_21__aapl__pxrReserved__20UsdPhysicsTokensTypeC2Ev, 
                       __ZN38pxrInternal_v0_21__aapl__pxrReserved__20UsdRenderComputeSpecERKNS_17UsdRenderSettingsENS_11UsdTimeCodeERKNSt3__16vectorINS4_12basic_stringIcNS4_11char_traitsIcEENS4_9allocatorIcEEEENS9_ISB_EEEE, 
                       __ZN38pxrInternal_v0_21__aapl__pxrReserved__20UsdRenderSettingsAPI14_IsTypedSchemaEv, 
                       __ZN38pxrInternal_v0_21__aapl__pxrReserved__20UsdRenderSettingsAPI16_GetStaticTfTypeEv, 
                       __ZN38pxrInternal_v0_21__aapl__pxrReserved__20UsdRenderSettingsAPI23GetSchemaAttributeNamesEb, 
                       __ZN38pxrInternal_v0_21__aapl__pxrReserved__20UsdRenderSettingsAPI3GetERKNS_9TfWeakPtrINS_8UsdStageEEERKNS_7SdfPathE, 
                       __ZN38pxrInternal_v0_21__aapl__pxrReserved__20UsdRenderSettingsAPI5ApplyERKNS_7UsdPrimE, 
                       __ZN38pxrInternal_v0_21__aapl__pxrReserved__20UsdRenderSettingsAPI8CanApplyERKNS_7UsdPrimEPNSt3__112basic_stringIcNS4_11char_traitsIcEENS4_9allocatorIcEEEE, 
                       __ZN38pxrInternal_v0_21__aapl__pxrReserved__20UsdRenderSettingsAPID0Ev, 
                       __ZN38pxrInternal_v0_21__aapl__pxrReserved__20UsdRenderSettingsAPID1Ev, 
                       __ZN38pxrInternal_v0_21__aapl__pxrReserved__20UsdRenderSettingsAPID2Ev, 
                       __ZN38pxrInternal_v0_21__aapl__pxrReserved__20UsdSkelSkeletonQueryC1ERKNS_8TfRefPtrINS_22UsdSkel_SkelDefinitionEEERKNS_16UsdSkelAnimQueryE, 
                       __ZN38pxrInternal_v0_21__aapl__pxrReserved__20UsdSkelSkeletonQueryC2ERKNS_8TfRefPtrINS_22UsdSkel_SkelDefinitionEEERKNS_16UsdSkelAnimQueryE, 
                       __ZN38pxrInternal_v0_21__aapl__pxrReserved__20UsdSkelSkinPointsLBSERKNS_10GfMatrix4dENS_6TfSpanIS1_EENS3_IKNS_7GfVec2fEEEiNS3_INS_7GfVec3fEEEb, 
                       __ZN38pxrInternal_v0_21__aapl__pxrReserved__20UsdSkelSkinPointsLBSERKNS_10GfMatrix4dENS_6TfSpanIS1_EENS3_IKiEENS3_IKfEEiNS3_INS_7GfVec3fEEEb, 
                       __ZN38pxrInternal_v0_21__aapl__pxrReserved__20UsdSkelSkinPointsLBSERKNS_10GfMatrix4dEPS1_mPKiPKfmiPNS_7GfVec3fEmb, 
                       __ZN38pxrInternal_v0_21__aapl__pxrReserved__20UsdSkelSkinPointsLBSERKNS_10GfMatrix4dERKNS_7VtArrayIS0_EERKNS3_IiEERKNS3_IfEEiPNS3_INS_7GfVec3fEEE, 
                       __ZN38pxrInternal_v0_21__aapl__pxrReserved__20UsdSkelSkinPointsLBSERKNS_10GfMatrix4fENS_6TfSpanIS1_EENS3_IKNS_7GfVec2fEEEiNS3_INS_7GfVec3fEEEb, 
                       __ZN38pxrInternal_v0_21__aapl__pxrReserved__20UsdSkelSkinPointsLBSERKNS_10GfMatrix4fENS_6TfSpanIS1_EENS3_IKiEENS3_IKfEEiNS3_INS_7GfVec3fEEEb, 
                       __ZN38pxrInternal_v0_21__aapl__pxrReserved__20UsdSkelSkinningQuery29_InitializeBlendShapeBindingsERKNS_12UsdAttributeERKNS_15UsdRelationshipE, 
                       __ZN38pxrInternal_v0_21__aapl__pxrReserved__20UsdSkelSkinningQuery33_InitializeJointInfluenceBindingsERKNS_12UsdAttributeES3_, 
                       __ZN38pxrInternal_v0_21__aapl__pxrReserved__20UsdSkelSkinningQueryC1ERKNS_7UsdPrimERKNS_7VtArrayINS_7TfTokenEEES8_RKNS_12UsdAttributeESB_SB_SB_SB_RKNS_15UsdRelationshipE, 
                       __ZN38pxrInternal_v0_21__aapl__pxrReserved__20UsdSkelSkinningQueryC1Ev, 
                       __ZN38pxrInternal_v0_21__aapl__pxrReserved__20UsdSkelSkinningQueryC2ERKNS_7UsdPrimERKNS_7VtArrayINS_7TfTokenEEES8_RKNS_12UsdAttributeESB_SB_SB_SB_RKNS_15UsdRelationshipE, 
                       __ZN38pxrInternal_v0_21__aapl__pxrReserved__20UsdSkelSkinningQueryC2Ev, 
                       __ZN38pxrInternal_v0_21__aapl__pxrReserved__20UsdStageCacheContext18_GetReadOnlyCachesEv, 
                       __ZN38pxrInternal_v0_21__aapl__pxrReserved__20UsdStageCacheContext18_GetReadableCachesEv, 
                       __ZN38pxrInternal_v0_21__aapl__pxrReserved__20UsdStageCacheContext18_GetWritableCachesEv, 
                       __ZN38pxrInternal_v0_21__aapl__pxrReserved__20UsdStageCacheRequest10_SubscribeEPNS0_8_MailboxE, 
                       __ZN38pxrInternal_v0_21__aapl__pxrReserved__20UsdStageCacheRequest12_DataDeleterclEPNS0_5_DataE, 
                       __ZN38pxrInternal_v0_21__aapl__pxrReserved__20UsdStageCacheRequestD0Ev, 
                       __ZN38pxrInternal_v0_21__aapl__pxrReserved__20UsdStageCacheRequestD1Ev, 
                       __ZN38pxrInternal_v0_21__aapl__pxrReserved__20UsdStageCacheRequestD2Ev, 
                       __ZN38pxrInternal_v0_21__aapl__pxrReserved__20UsdUtilsStitchLayersERKNS_9TfWeakPtrINS_8SdfLayerEEES4_, 
                       __ZN38pxrInternal_v0_21__aapl__pxrReserved__20UsdUtilsStitchLayersERKNS_9TfWeakPtrINS_8SdfLayerEEES4_RKNSt3__18functionIFNS_25UsdUtilsStitchValueStatusERKNS_7TfTokenERKNS_7SdfPathES4_bS4_bPNS_7VtValueEEEE, 
                       __ZN38pxrInternal_v0_21__aapl__pxrReserved__20Usd_DescribePrimDataEPKNS_12Usd_PrimDataERKNS_7SdfPathE, 
                       __ZN38pxrInternal_v0_21__aapl__pxrReserved__20VtGetEmptyDictionaryEv, 
                       __ZN38pxrInternal_v0_21__aapl__pxrReserved__21ArResolverScopedCacheC1EPKS0_, 
                       __ZN38pxrInternal_v0_21__aapl__pxrReserved__21ArResolverScopedCacheC1Ev, 
                       __ZN38pxrInternal_v0_21__aapl__pxrReserved__21ArResolverScopedCacheC2EPKS0_, 
                       __ZN38pxrInternal_v0_21__aapl__pxrReserved__21ArResolverScopedCacheC2Ev, 
                       __ZN38pxrInternal_v0_21__aapl__pxrReserved__21ArResolverScopedCacheD1Ev, 
                       __ZN38pxrInternal_v0_21__aapl__pxrReserved__21ArResolverScopedCacheD2Ev, 
                       __ZN38pxrInternal_v0_21__aapl__pxrReserved__21ArchFreeVirtualMemoryEPvm, 
                       __ZN38pxrInternal_v0_21__aapl__pxrReserved__21ArchGetExecutablePathEv, 
                       __ZN38pxrInternal_v0_21__aapl__pxrReserved__21ArchIsStlAllocatorOffEv, 
                       __ZN38pxrInternal_v0_21__aapl__pxrReserved__21HdAggregationStrategyD0Ev, 
                       __ZN38pxrInternal_v0_21__aapl__pxrReserved__21HdAggregationStrategyD1Ev, 
                       __ZN38pxrInternal_v0_21__aapl__pxrReserved__21HdAggregationStrategyD2Ev, 
                       __ZN38pxrInternal_v0_21__aapl__pxrReserved__21HdAovHasDepthSemanticERKNS_7TfTokenE, 
                       __ZN38pxrInternal_v0_21__aapl__pxrReserved__21HdAovTokensMakeShaderERKNS_7TfTokenE, 
                       __ZN38pxrInternal_v0_21__aapl__pxrReserved__21HdBasisCurvesTopologyC1ERKNS_7TfTokenES3_S3_RKNS_7VtArrayIiEES7_, 
                       __ZN38pxrInternal_v0_21__aapl__pxrReserved__21HdBasisCurvesTopologyC1ERKS0_, 
                       __ZN38pxrInternal_v0_21__aapl__pxrReserved__21HdBasisCurvesTopologyC1Ev, 
                       __ZN38pxrInternal_v0_21__aapl__pxrReserved__21HdBasisCurvesTopologyC2ERKNS_7TfTokenES3_S3_RKNS_7VtArrayIiEES7_, 
                       __ZN38pxrInternal_v0_21__aapl__pxrReserved__21HdBasisCurvesTopologyC2ERKS0_, 
                       __ZN38pxrInternal_v0_21__aapl__pxrReserved__21HdBasisCurvesTopologyC2Ev, 
                       __ZN38pxrInternal_v0_21__aapl__pxrReserved__21HdBasisCurvesTopologyD0Ev, 
                       __ZN38pxrInternal_v0_21__aapl__pxrReserved__21HdBasisCurvesTopologyD1Ev, 
                       __ZN38pxrInternal_v0_21__aapl__pxrReserved__21HdBasisCurvesTopologyD2Ev, 
                       __ZN38pxrInternal_v0_21__aapl__pxrReserved__21HdBufferArrayRegistry13AllocateRangeEPNS_21HdAggregationStrategyERKNS_7TfTokenERKNSt3__16vectorINS_12HdBufferSpecENS6_9allocatorIS8_EEEENS_22HdBufferArrayUsageHintE, 
                       __ZN38pxrInternal_v0_21__aapl__pxrReserved__21HdBufferArrayRegistry13ReallocateAllEPNS_21HdAggregationStrategyE, 
                       __ZN38pxrInternal_v0_21__aapl__pxrReserved__21HdBufferArrayRegistry14GarbageCollectEv, 
                       __ZN38pxrInternal_v0_21__aapl__pxrReserved__21HdBufferArrayRegistry21_InsertNewBufferArrayERNS0_6_EntryERKNSt3__110shared_ptrINS_13HdBufferArrayEEEPNS_21HdAggregationStrategyERKNS_7TfTokenERKNS3_6vectorINS_12HdBufferSpecENS3_9allocatorISF_EEEENS_22HdBufferArrayUsageHintE, 
                       __ZN38pxrInternal_v0_21__aapl__pxrReserved__21HdBufferArrayRegistryC1Ev, 
                       __ZN38pxrInternal_v0_21__aapl__pxrReserved__21HdBufferArrayRegistryC2Ev, 
                       __ZN38pxrInternal_v0_21__aapl__pxrReserved__21HdDataSizeOfTupleTypeENS_11HdTupleTypeE, 
                       __ZN38pxrInternal_v0_21__aapl__pxrReserved__21HdExtComputationUtils14DependencySortENSt3__113unordered_mapIPKNS_16HdExtComputationENS1_6vectorIS5_NS1_9allocatorIS5_EEEENS1_4hashIS5_EENS1_8equal_toIS5_EENS7_INS1_4pairIKS5_S9_EEEEEEPS9_, 
                       __ZN38pxrInternal_v0_21__aapl__pxrReserved__21HdExtComputationUtils17_LimitTimeSamplesEmPNSt3__16vectorIdNS1_9allocatorIdEEEE, 
                       __ZN38pxrInternal_v0_21__aapl__pxrReserved__21HdExtComputationUtils18PrintDependencyMapERKNSt3__113unordered_mapIPKNS_16HdExtComputationENS1_6vectorIS5_NS1_9allocatorIS5_EEEENS1_4hashIS5_EENS1_8equal_toIS5_EENS7_INS1_4pairIKS5_S9_EEEEEE, 
                       __ZN38pxrInternal_v0_21__aapl__pxrReserved__21HdExtComputationUtils18_InvokeComputationERNS_15HdSceneDelegateERKNS_16HdExtComputationENS_6TfSpanIKNS_7VtValueEEES9_NS6_IS7_EE, 
                       __ZN38pxrInternal_v0_21__aapl__pxrReserved__21HdExtComputationUtils22_GenerateDependencyMapERKNSt3__16vectorINS_33HdExtComputationPrimvarDescriptorENS1_9allocatorIS3_EEEEPNS_15HdSceneDelegateE, 
                       __ZN38pxrInternal_v0_21__aapl__pxrReserved__21HdExtComputationUtils24GetComputedPrimvarValuesERKNSt3__16vectorINS_33HdExtComputationPrimvarDescriptorENS1_9allocatorIS3_EEEEPNS_15HdSceneDelegateE, 
                       __ZN38pxrInternal_v0_21__aapl__pxrReserved__21HdMtlxConvertToStringERKNS_7VtValueE, 
                       __ZN38pxrInternal_v0_21__aapl__pxrReserved__21HdRenderContextTokensE, 
                       __ZN38pxrInternal_v0_21__aapl__pxrReserved__21Hd_ExtCompInputSourceC2ERKNS_7TfTokenE, 
                       __ZN38pxrInternal_v0_21__aapl__pxrReserved__21PcpBuildPropertyIndexERKNS_7SdfPathEPNS_8PcpCacheEPNS_16PcpPropertyIndexEPNSt3__16vectorINS7_10shared_ptrINS_12PcpErrorBaseEEENS7_9allocatorISB_EEEE, 
                       __ZN38pxrInternal_v0_21__aapl__pxrReserved__21PcpErrorSublayerCycle3NewEv, 
                       __ZN38pxrInternal_v0_21__aapl__pxrReserved__21PcpErrorSublayerCycleC1Ev, 
                       __ZN38pxrInternal_v0_21__aapl__pxrReserved__21PcpErrorSublayerCycleC2Ev, 
                       __ZN38pxrInternal_v0_21__aapl__pxrReserved__21PcpErrorSublayerCycleD0Ev, 
                       __ZN38pxrInternal_v0_21__aapl__pxrReserved__21PcpErrorSublayerCycleD1Ev, 
                       __ZN38pxrInternal_v0_21__aapl__pxrReserved__21PcpErrorSublayerCycleD2Ev, 
                       __ZN38pxrInternal_v0_21__aapl__pxrReserved__21PxOsdOpenSubdivTokensE, 
                       __ZN38pxrInternal_v0_21__aapl__pxrReserved__21SdfBatchNamespaceEditC1ERKNSt3__16vectorINS_16SdfNamespaceEditENS1_9allocatorIS3_EEEE, 
                       __ZN38pxrInternal_v0_21__aapl__pxrReserved__21SdfBatchNamespaceEditC1ERKS0_, 
                       __ZN38pxrInternal_v0_21__aapl__pxrReserved__21SdfBatchNamespaceEditC1Ev, 
                       __ZN38pxrInternal_v0_21__aapl__pxrReserved__21SdfBatchNamespaceEditC2ERKNSt3__16vectorINS_16SdfNamespaceEditENS1_9allocatorIS3_EEEE, 
                       __ZN38pxrInternal_v0_21__aapl__pxrReserved__21SdfBatchNamespaceEditC2ERKS0_, 
                       __ZN38pxrInternal_v0_21__aapl__pxrReserved__21SdfBatchNamespaceEditC2Ev, 
                       __ZN38pxrInternal_v0_21__aapl__pxrReserved__21SdfBatchNamespaceEditD1Ev, 
                       __ZN38pxrInternal_v0_21__aapl__pxrReserved__21SdfBatchNamespaceEditD2Ev, 
                       __ZN38pxrInternal_v0_21__aapl__pxrReserved__21SdfBatchNamespaceEditaSERKS0_, 
                       __ZN38pxrInternal_v0_21__aapl__pxrReserved__21SdfGetPathEditorProxyERKNS_9SdfHandleINS_7SdfSpecEEERKNS_7TfTokenE, 
                       __ZN38pxrInternal_v0_21__aapl__pxrReserved__21SdfPathAncestorsRange8iteratorppEv, 
                       __ZN38pxrInternal_v0_21__aapl__pxrReserved__21SdfShouldCopyChildrenERKNS_7SdfPathES2_RKNS_7TfTokenERKNS_9TfWeakPtrINS_8SdfLayerEEES2_bSA_S2_bPN5boost8optionalINS_7VtValueEEESF_, 
                       __ZN38pxrInternal_v0_21__aapl__pxrReserved__21Sdf_MapperArgPathNodeD1Ev, 
                       __ZN38pxrInternal_v0_21__aapl__pxrReserved__21Sdf_MapperArgPathNodeD2Ev, 
                       __ZN38pxrInternal_v0_21__aapl__pxrReserved__21ShaderMetadataHelpers11TokenVecValERKNS_7TfTokenERKNSt3__113unordered_mapIS1_NS4_12basic_stringIcNS4_11char_traitsIcEENS4_9allocatorIcEEEENS1_11HashFunctorENS4_8equal_toIS1_EENS9_INS4_4pairIS2_SB_EEEEEE, 
                       __ZN38pxrInternal_v0_21__aapl__pxrReserved__21ShaderMetadataHelpers12OptionVecValERKNSt3__112basic_stringIcNS1_11char_traitsIcEENS1_9allocatorIcEEEE, 
                       __ZN38pxrInternal_v0_21__aapl__pxrReserved__21ShaderMetadataHelpers12StringVecValERKNS_7TfTokenERKNSt3__113unordered_mapIS1_NS4_12basic_stringIcNS4_11char_traitsIcEENS4_9allocatorIcEEEENS1_11HashFunctorENS4_8equal_toIS1_EENS9_INS4_4pairIS2_SB_EEEEEE, 
                       __ZN38pxrInternal_v0_21__aapl__pxrReserved__21ShaderMetadataHelpers19GetRoleFromMetadataERKNSt3__113unordered_mapINS_7TfTokenENS1_12basic_stringIcNS1_11char_traitsIcEENS1_9allocatorIcEEEENS3_11HashFunctorENS1_8equal_toIS3_EENS7_INS1_4pairIKS3_S9_EEEEEE, 
                       __ZN38pxrInternal_v0_21__aapl__pxrReserved__21ShaderMetadataHelpers19IsPropertyATerminalERKNSt3__113unordered_mapINS_7TfTokenENS1_12basic_stringIcNS1_11char_traitsIcEENS1_9allocatorIcEEEENS3_11HashFunctorENS1_8equal_toIS3_EENS7_INS1_4pairIKS3_S9_EEEEEE, 
                       __ZN38pxrInternal_v0_21__aapl__pxrReserved__21ShaderMetadataHelpers25CreateStringFromStringVecERKNSt3__16vectorINS1_12basic_stringIcNS1_11char_traitsIcEENS1_9allocatorIcEEEENS6_IS8_EEEE, 
                       __ZN38pxrInternal_v0_21__aapl__pxrReserved__21ShaderMetadataHelpers27IsPropertyAnAssetIdentifierERKNSt3__113unordered_mapINS_7TfTokenENS1_12basic_stringIcNS1_11char_traitsIcEENS1_9allocatorIcEEEENS3_11HashFunctorENS1_8equal_toIS3_EENS7_INS1_4pairIKS3_S9_EEEEEE, 
                       __ZN38pxrInternal_v0_21__aapl__pxrReserved__21ShaderMetadataHelpers8IsTruthyERKNS_7TfTokenERKNSt3__113unordered_mapIS1_NS4_12basic_stringIcNS4_11char_traitsIcEENS4_9allocatorIcEEEENS1_11HashFunctorENS4_8equal_toIS1_EENS9_INS4_4pairIS2_SB_EEEEEE, 
                       __ZN38pxrInternal_v0_21__aapl__pxrReserved__21ShaderMetadataHelpers8TokenValERKNS_7TfTokenERKNSt3__113unordered_mapIS1_NS4_12basic_stringIcNS4_11char_traitsIcEENS4_9allocatorIcEEEENS1_11HashFunctorENS4_8equal_toIS1_EENS9_INS4_4pairIS2_SB_EEEEEES3_, 
                       __ZN38pxrInternal_v0_21__aapl__pxrReserved__21ShaderMetadataHelpers9StringValERKNS_7TfTokenERKNSt3__113unordered_mapIS1_NS4_12basic_stringIcNS4_11char_traitsIcEENS4_9allocatorIcEEEENS1_11HashFunctorENS4_8equal_toIS1_EENS9_INS4_4pairIS2_SB_EEEEEERKSB_, 
                       __ZN38pxrInternal_v0_21__aapl__pxrReserved__21TfGetXmlEscapedStringERKNSt3__112basic_stringIcNS0_11char_traitsIcEENS0_9allocatorIcEEEE, 
                       __ZN38pxrInternal_v0_21__aapl__pxrReserved__21TfMakeValidIdentifierERKNSt3__112basic_stringIcNS0_11char_traitsIcEENS0_9allocatorIcEEEE, 
                       __ZN38pxrInternal_v0_21__aapl__pxrReserved__21TfStringTokenizeToSetERKNSt3__112basic_stringIcNS0_11char_traitsIcEENS0_9allocatorIcEEEEPKc, 
                       __ZN38pxrInternal_v0_21__aapl__pxrReserved__21Tf_FailedVerifyHelperERKNS_13TfCallContextEPKcS4_, 
                       __ZN38pxrInternal_v0_21__aapl__pxrReserved__21Tf_VerifyStringFormatEPKcz, 
                       __ZN38pxrInternal_v0_21__aapl__pxrReserved__21UsdGeomGetStageUpAxisERKNS_9TfWeakPtrINS_8UsdStageEEE, 
                       __ZN38pxrInternal_v0_21__aapl__pxrReserved__21UsdGeomLinearUnitsAreEddd, 
                       __ZN38pxrInternal_v0_21__aapl__pxrReserved__21UsdGeomPointInstancer14_IsTypedSchemaEv, 
                       __ZN38pxrInternal_v0_21__aapl__pxrReserved__21UsdGeomPointInstancer16_GetStaticTfTypeEv, 
                       __ZN38pxrInternal_v0_21__aapl__pxrReserved__21UsdGeomPointInstancer23GetSchemaAttributeNamesEb, 
                       __ZN38pxrInternal_v0_21__aapl__pxrReserved__21UsdGeomPointInstancer31ComputeInstanceTransformsAtTimeEPNS_7VtArrayINS_10GfMatrix4dEEERNS_9TfWeakPtrINS_8UsdStageEEENS_11UsdTimeCodeERKNS1_IiEERKNS1_INS_7GfVec3fEEESG_S9_SG_SG_RKNS1_INS_7GfQuathEEESG_S9_RKNSt3__16vectorINS_7SdfPathENSL_9allocatorISN_EEEERKNSM_IbNSO_IbEEEEf, 
                       __ZN38pxrInternal_v0_21__aapl__pxrReserved__21UsdGeomPointInstancer3GetERKNS_9TfWeakPtrINS_8UsdStageEEERKNS_7SdfPathE, 
                       __ZN38pxrInternal_v0_21__aapl__pxrReserved__21UsdGeomPointInstancer6DefineERKNS_9TfWeakPtrINS_8UsdStageEEERKNS_7SdfPathE, 
                       __ZN38pxrInternal_v0_21__aapl__pxrReserved__21UsdGeomPointInstancerD0Ev, 
                       __ZN38pxrInternal_v0_21__aapl__pxrReserved__21UsdGeomPointInstancerD1Ev, 
                       __ZN38pxrInternal_v0_21__aapl__pxrReserved__21UsdGeomPointInstancerD2Ev, 
                       __ZN38pxrInternal_v0_21__aapl__pxrReserved__21UsdGeomSetStageUpAxisERKNS_9TfWeakPtrINS_8UsdStageEEERKNS_7TfTokenE, 
                       __ZN38pxrInternal_v0_21__aapl__pxrReserved__21UsdGeomXformCommonAPI14_IsTypedSchemaEv, 
                       __ZN38pxrInternal_v0_21__aapl__pxrReserved__21UsdGeomXformCommonAPI16_GetStaticTfTypeEv, 
                       __ZN38pxrInternal_v0_21__aapl__pxrReserved__21UsdGeomXformCommonAPI20GetRotationTransformERKNS_7GfVec3fENS0_13RotationOrderE, 
                       __ZN38pxrInternal_v0_21__aapl__pxrReserved__21UsdGeomXformCommonAPI23GetSchemaAttributeNamesEb, 
                       __ZN38pxrInternal_v0_21__aapl__pxrReserved__21UsdGeomXformCommonAPI28ConvertOpTypeToRotationOrderENS_14UsdGeomXformOp4TypeE, 
                       __ZN38pxrInternal_v0_21__aapl__pxrReserved__21UsdGeomXformCommonAPI28ConvertRotationOrderToOpTypeENS0_13RotationOrderE, 
                       __ZN38pxrInternal_v0_21__aapl__pxrReserved__21UsdGeomXformCommonAPI31CanConvertOpTypeToRotationOrderENS_14UsdGeomXformOp4TypeE, 
                       __ZN38pxrInternal_v0_21__aapl__pxrReserved__21UsdGeomXformCommonAPI3GetERKNS_9TfWeakPtrINS_8UsdStageEEERKNS_7SdfPathE, 
                       __ZN38pxrInternal_v0_21__aapl__pxrReserved__21UsdGeomXformCommonAPID0Ev, 
                       __ZN38pxrInternal_v0_21__aapl__pxrReserved__21UsdGeomXformCommonAPID1Ev, 
                       __ZN38pxrInternal_v0_21__aapl__pxrReserved__21UsdGeomXformCommonAPID2Ev, 
                       __ZN38pxrInternal_v0_21__aapl__pxrReserved__21UsdPhysicsMaterialAPI14_IsTypedSchemaEv, 
                       __ZN38pxrInternal_v0_21__aapl__pxrReserved__21UsdPhysicsMaterialAPI16_GetStaticTfTypeEv, 
                       __ZN38pxrInternal_v0_21__aapl__pxrReserved__21UsdPhysicsMaterialAPI23GetSchemaAttributeNamesEb, 
                       __ZN38pxrInternal_v0_21__aapl__pxrReserved__21UsdPhysicsMaterialAPI3GetERKNS_9TfWeakPtrINS_8UsdStageEEERKNS_7SdfPathE, 
                       __ZN38pxrInternal_v0_21__aapl__pxrReserved__21UsdPhysicsMaterialAPI5ApplyERKNS_7UsdPrimE, 
                       __ZN38pxrInternal_v0_21__aapl__pxrReserved__21UsdPhysicsMaterialAPI8CanApplyERKNS_7UsdPrimEPNSt3__112basic_stringIcNS4_11char_traitsIcEENS4_9allocatorIcEEEE, 
                       __ZN38pxrInternal_v0_21__aapl__pxrReserved__21UsdPhysicsMaterialAPID0Ev, 
                       __ZN38pxrInternal_v0_21__aapl__pxrReserved__21UsdPhysicsMaterialAPID1Ev, 
                       __ZN38pxrInternal_v0_21__aapl__pxrReserved__21UsdPhysicsMaterialAPID2Ev, 
                       __ZN38pxrInternal_v0_21__aapl__pxrReserved__21UsdRenderSettingsBase14_IsTypedSchemaEv, 
                       __ZN38pxrInternal_v0_21__aapl__pxrReserved__21UsdRenderSettingsBase16_GetStaticTfTypeEv, 
                       __ZN38pxrInternal_v0_21__aapl__pxrReserved__21UsdRenderSettingsBase23GetSchemaAttributeNamesEb, 
                       __ZN38pxrInternal_v0_21__aapl__pxrReserved__21UsdRenderSettingsBase3GetERKNS_9TfWeakPtrINS_8UsdStageEEERKNS_7SdfPathE, 
                       __ZN38pxrInternal_v0_21__aapl__pxrReserved__21UsdRenderSettingsBaseD0Ev, 
                       __ZN38pxrInternal_v0_21__aapl__pxrReserved__21UsdRenderSettingsBaseD1Ev, 
                       __ZN38pxrInternal_v0_21__aapl__pxrReserved__21UsdRenderSettingsBaseD2Ev, 
                       __ZN38pxrInternal_v0_21__aapl__pxrReserved__21UsdSkelInbetweenShape11IsInbetweenERKNS_12UsdAttributeE, 
                       __ZN38pxrInternal_v0_21__aapl__pxrReserved__21UsdSkelInbetweenShape13_IsNamespacedERKNS_7TfTokenE, 
                       __ZN38pxrInternal_v0_21__aapl__pxrReserved__21UsdSkelInbetweenShape15_MakeNamespacedERKNS_7TfTokenEb, 
                       __ZN38pxrInternal_v0_21__aapl__pxrReserved__21UsdSkelInbetweenShape19_GetNamespacePrefixEv, 
                       __ZN38pxrInternal_v0_21__aapl__pxrReserved__21UsdSkelInbetweenShape21_IsValidInbetweenNameERKNSt3__112basic_stringIcNS1_11char_traitsIcEENS1_9allocatorIcEEEEb, 
                       __ZN38pxrInternal_v0_21__aapl__pxrReserved__21UsdSkelInbetweenShape7_CreateERKNS_7UsdPrimERKNS_7TfTokenE, 
                       __ZN38pxrInternal_v0_21__aapl__pxrReserved__21UsdSkelInbetweenShapeC1ERKNS_12UsdAttributeE, 
                       __ZN38pxrInternal_v0_21__aapl__pxrReserved__21UsdSkelInbetweenShapeC2ERKNS_12UsdAttributeE, 
                       __ZN38pxrInternal_v0_21__aapl__pxrReserved__21UsdSkelMakeTransformsENS_6TfSpanIKNS_7GfVec3fEEENS0_IKNS_7GfQuatfEEENS0_IKNS_7GfVec3hEEENS0_INS_10GfMatrix4dEEE, 
                       __ZN38pxrInternal_v0_21__aapl__pxrReserved__21UsdSkelMakeTransformsENS_6TfSpanIKNS_7GfVec3fEEENS0_IKNS_7GfQuatfEEENS0_IKNS_7GfVec3hEEENS0_INS_10GfMatrix4fEEE, 
                       __ZN38pxrInternal_v0_21__aapl__pxrReserved__21UsdSkelMakeTransformsEPKNS_7GfVec3fEPKNS_7GfQuatfEPKNS_7GfVec3hEPNS_10GfMatrix4dEm, 
                       __ZN38pxrInternal_v0_21__aapl__pxrReserved__21UsdSkelMakeTransformsERKNS_7VtArrayINS_7GfVec3fEEERKNS0_INS_7GfQuatfEEERKNS0_INS_7GfVec3hEEEPNS0_INS_10GfMatrix4dEEE, 
                       __ZN38pxrInternal_v0_21__aapl__pxrReserved__21UsdSkelSkinNormalsLBSERKNS_10GfMatrix3dENS_6TfSpanIS1_EENS3_IKNS_7GfVec2fEEEiNS3_INS_7GfVec3fEEEb, 
                       __ZN38pxrInternal_v0_21__aapl__pxrReserved__21UsdSkelSkinNormalsLBSERKNS_10GfMatrix3dENS_6TfSpanIS1_EENS3_IKiEENS3_IKfEEiNS3_INS_7GfVec3fEEEb, 
                       __ZN38pxrInternal_v0_21__aapl__pxrReserved__21UsdSkelSkinNormalsLBSERKNS_10GfMatrix3fENS_6TfSpanIS1_EENS3_IKNS_7GfVec2fEEEiNS3_INS_7GfVec3fEEEb, 
                       __ZN38pxrInternal_v0_21__aapl__pxrReserved__21UsdSkelSkinNormalsLBSERKNS_10GfMatrix3fENS_6TfSpanIS1_EENS3_IKiEENS3_IKfEEiNS3_INS_7GfVec3fEEEb, 
                       __ZN38pxrInternal_v0_21__aapl__pxrReserved__21UsdSkelSortInfluencesENS_6TfSpanIiEENS0_IfEEi, 
                       __ZN38pxrInternal_v0_21__aapl__pxrReserved__21UsdSkelSortInfluencesEPNS_7VtArrayIiEEPNS0_IfEEi, 
                       __ZN38pxrInternal_v0_21__aapl__pxrReserved__21UsdUINodeGraphNodeAPI14_IsTypedSchemaEv, 
                       __ZN38pxrInternal_v0_21__aapl__pxrReserved__21UsdUINodeGraphNodeAPI16_GetStaticTfTypeEv, 
                       __ZN38pxrInternal_v0_21__aapl__pxrReserved__21UsdUINodeGraphNodeAPI23GetSchemaAttributeNamesEb, 
                       __ZN38pxrInternal_v0_21__aapl__pxrReserved__21UsdUINodeGraphNodeAPI3GetERKNS_9TfWeakPtrINS_8UsdStageEEERKNS_7SdfPathE, 
                       __ZN38pxrInternal_v0_21__aapl__pxrReserved__21UsdUINodeGraphNodeAPI5ApplyERKNS_7UsdPrimE, 
                       __ZN38pxrInternal_v0_21__aapl__pxrReserved__21UsdUINodeGraphNodeAPI8CanApplyERKNS_7UsdPrimEPNSt3__112basic_stringIcNS4_11char_traitsIcEENS4_9allocatorIcEEEE, 
                       __ZN38pxrInternal_v0_21__aapl__pxrReserved__21UsdUINodeGraphNodeAPID0Ev, 
                       __ZN38pxrInternal_v0_21__aapl__pxrReserved__21UsdUINodeGraphNodeAPID1Ev, 
                       __ZN38pxrInternal_v0_21__aapl__pxrReserved__21UsdUINodeGraphNodeAPID2Ev, 
                       __ZN38pxrInternal_v0_21__aapl__pxrReserved__21UsdUtilsTimeCodeRange19CreateFromFrameSpecERKNSt3__112basic_stringIcNS1_11char_traitsIcEENS1_9allocatorIcEEEE, 
                       __ZN38pxrInternal_v0_21__aapl__pxrReserved__21intrusive_ptr_add_refEPNS_16PcpMapExpression5_NodeE, 
                       __ZN38pxrInternal_v0_21__aapl__pxrReserved__21intrusive_ptr_releaseEPNS_16PcpMapExpression5_NodeE, 
                       __ZN38pxrInternal_v0_21__aapl__pxrReserved__22ArSetPreferredResolverERKNSt3__112basic_stringIcNS0_11char_traitsIcEENS0_9allocatorIcEEEE, 
                       __ZN38pxrInternal_v0_21__aapl__pxrReserved__22ArchDebuggerIsAttachedEv, 
                       __ZN38pxrInternal_v0_21__aapl__pxrReserved__22ArchTicksToNanosecondsEy, 
                       __ZN38pxrInternal_v0_21__aapl__pxrReserved__22HdAovTokensMakePrimvarERKNS_7TfTokenE, 
                       __ZN38pxrInternal_v0_21__aapl__pxrReserved__22HdCommandArgDescriptorC1Ev, 
                       __ZN38pxrInternal_v0_21__aapl__pxrReserved__22HdCommandArgDescriptorC2Ev, 
                       __ZN38pxrInternal_v0_21__aapl__pxrReserved__22HdRenderSettingsTokensE, 
                       __ZN38pxrInternal_v0_21__aapl__pxrReserved__22HdRendererPluginHandleC1ERKS0_, 
                       __ZN38pxrInternal_v0_21__aapl__pxrReserved__22HdRendererPluginHandleC2ERKS0_, 
                       __ZN38pxrInternal_v0_21__aapl__pxrReserved__22HdRendererPluginHandleD1Ev, 
                       __ZN38pxrInternal_v0_21__aapl__pxrReserved__22HdRendererPluginHandleD2Ev, 
                       __ZN38pxrInternal_v0_21__aapl__pxrReserved__22HdRendererPluginHandleaSERKDn, 
                       __ZN38pxrInternal_v0_21__aapl__pxrReserved__22HdRendererPluginHandleaSERKS0_, 
                       __ZN38pxrInternal_v0_21__aapl__pxrReserved__22PcpCompareNodeStrengthERKNS_10PcpNodeRefES2_, 
                       __ZN38pxrInternal_v0_21__aapl__pxrReserved__22PcpComposeSiteInheritsERKNS_8TfRefPtrINS_13PcpLayerStackEEERKNS_7SdfPathEPNSt3__16vectorIS5_NS8_9allocatorIS5_EEEE, 
                       __ZN38pxrInternal_v0_21__aapl__pxrReserved__22PcpComposeSiteInheritsERKNS_8TfRefPtrINS_13PcpLayerStackEEERKNS_7SdfPathEPNSt3__16vectorIS5_NS8_9allocatorIS5_EEEEPNS9_INS_16PcpSourceArcInfoENSA_ISE_EEEE, 
                       __ZN38pxrInternal_v0_21__aapl__pxrReserved__22PcpComposeSitePayloadsERKNS_8TfRefPtrINS_13PcpLayerStackEEERKNS_7SdfPathEPNSt3__16vectorINS_10SdfPayloadENS8_9allocatorISA_EEEEPNS9_INS_16PcpSourceArcInfoENSB_ISF_EEEE, 
                       __ZN38pxrInternal_v0_21__aapl__pxrReserved__22PcpErrorMutedAssetPath3NewEv, 
                       __ZN38pxrInternal_v0_21__aapl__pxrReserved__22PcpErrorMutedAssetPathC1Ev, 
                       __ZN38pxrInternal_v0_21__aapl__pxrReserved__22PcpErrorMutedAssetPathC2Ev, 
                       __ZN38pxrInternal_v0_21__aapl__pxrReserved__22PcpErrorMutedAssetPathD0Ev, 
                       __ZN38pxrInternal_v0_21__aapl__pxrReserved__22PcpErrorMutedAssetPathD1Ev, 
                       __ZN38pxrInternal_v0_21__aapl__pxrReserved__22PcpErrorMutedAssetPathD2Ev, 
                       __ZN38pxrInternal_v0_21__aapl__pxrReserved__22PcpErrorTargetPathBaseC2ENS_6TfEnumE, 
                       __ZN38pxrInternal_v0_21__aapl__pxrReserved__22PcpErrorTargetPathBaseD0Ev, 
                       __ZN38pxrInternal_v0_21__aapl__pxrReserved__22PcpErrorTargetPathBaseD1Ev, 
                       __ZN38pxrInternal_v0_21__aapl__pxrReserved__22PcpErrorTargetPathBaseD2Ev, 
                       __ZN38pxrInternal_v0_21__aapl__pxrReserved__22PlugFindPluginResourceERKNS_9TfWeakPtrINS_10PlugPluginEEERKNSt3__112basic_stringIcNS5_11char_traitsIcEENS5_9allocatorIcEEEEb, 
                       __ZN38pxrInternal_v0_21__aapl__pxrReserved__22SdfNamespaceEditDetailC1ENS0_6ResultERKNS_16SdfNamespaceEditERKNSt3__112basic_stringIcNS5_11char_traitsIcEENS5_9allocatorIcEEEE, 
                       __ZN38pxrInternal_v0_21__aapl__pxrReserved__22SdfNamespaceEditDetailC1Ev, 
                       __ZN38pxrInternal_v0_21__aapl__pxrReserved__22SdfNamespaceEditDetailC2ENS0_6ResultERKNS_16SdfNamespaceEditERKNSt3__112basic_stringIcNS5_11char_traitsIcEENS5_9allocatorIcEEEE, 
                       __ZN38pxrInternal_v0_21__aapl__pxrReserved__22SdfNamespaceEditDetailC2Ev, 
                       __ZN38pxrInternal_v0_21__aapl__pxrReserved__22Sdf_ExpressionPathNodeD1Ev, 
                       __ZN38pxrInternal_v0_21__aapl__pxrReserved__22Sdf_ExpressionPathNodeD2Ev, 
                       __ZN38pxrInternal_v0_21__aapl__pxrReserved__22Sdf_ValueTypeNamesType5_Init3NewEv, 
                       __ZN38pxrInternal_v0_21__aapl__pxrReserved__22Sdf_ValueTypeNamesTypeC1Ev, 
                       __ZN38pxrInternal_v0_21__aapl__pxrReserved__22Sdf_ValueTypeNamesTypeC2Ev, 
                       __ZN38pxrInternal_v0_21__aapl__pxrReserved__22Sdf_ValueTypeNamesTypeD1Ev, 
                       __ZN38pxrInternal_v0_21__aapl__pxrReserved__22Sdf_ValueTypeNamesTypeD2Ev, 
                       __ZN38pxrInternal_v0_21__aapl__pxrReserved__22TfQuotedStringTokenizeERKNSt3__112basic_stringIcNS0_11char_traitsIcEENS0_9allocatorIcEEEEPKcPS6_, 
                       __ZN38pxrInternal_v0_21__aapl__pxrReserved__22UsdDeformersBlendShape14_IsTypedSchemaEv, 
                       __ZN38pxrInternal_v0_21__aapl__pxrReserved__22UsdDeformersBlendShape16_GetStaticTfTypeEv, 
                       __ZN38pxrInternal_v0_21__aapl__pxrReserved__22UsdDeformersBlendShape23GetSchemaAttributeNamesEb, 
                       __ZN38pxrInternal_v0_21__aapl__pxrReserved__22UsdDeformersBlendShape3GetERKNS_9TfWeakPtrINS_8UsdStageEEERKNS_7SdfPathE, 
                       __ZN38pxrInternal_v0_21__aapl__pxrReserved__22UsdDeformersBlendShape6DefineERKNS_9TfWeakPtrINS_8UsdStageEEERKNS_7SdfPathE, 
                       __ZN38pxrInternal_v0_21__aapl__pxrReserved__22UsdDeformersBlendShapeD0Ev, 
                       __ZN38pxrInternal_v0_21__aapl__pxrReserved__22UsdDeformersBlendShapeD1Ev, 
                       __ZN38pxrInternal_v0_21__aapl__pxrReserved__22UsdDeformersBlendShapeD2Ev, 
                       __ZN38pxrInternal_v0_21__aapl__pxrReserved__22UsdDeformersTokensTypeC1Ev, 
                       __ZN38pxrInternal_v0_21__aapl__pxrReserved__22UsdDeformersTokensTypeC2Ev, 
                       __ZN38pxrInternal_v0_21__aapl__pxrReserved__22UsdPhysicsCollisionAPI14_IsTypedSchemaEv, 
                       __ZN38pxrInternal_v0_21__aapl__pxrReserved__22UsdPhysicsCollisionAPI16_GetStaticTfTypeEv, 
                       __ZN38pxrInternal_v0_21__aapl__pxrReserved__22UsdPhysicsCollisionAPI23GetSchemaAttributeNamesEb, 
                       __ZN38pxrInternal_v0_21__aapl__pxrReserved__22UsdPhysicsCollisionAPI3GetERKNS_9TfWeakPtrINS_8UsdStageEEERKNS_7SdfPathE, 
                       __ZN38pxrInternal_v0_21__aapl__pxrReserved__22UsdPhysicsCollisionAPI5ApplyERKNS_7UsdPrimE, 
                       __ZN38pxrInternal_v0_21__aapl__pxrReserved__22UsdPhysicsCollisionAPI8CanApplyERKNS_7UsdPrimEPNSt3__112basic_stringIcNS4_11char_traitsIcEENS4_9allocatorIcEEEE, 
                       __ZN38pxrInternal_v0_21__aapl__pxrReserved__22UsdPhysicsCollisionAPID0Ev, 
                       __ZN38pxrInternal_v0_21__aapl__pxrReserved__22UsdPhysicsCollisionAPID1Ev, 
                       __ZN38pxrInternal_v0_21__aapl__pxrReserved__22UsdPhysicsCollisionAPID2Ev, 
                       __ZN38pxrInternal_v0_21__aapl__pxrReserved__22UsdPhysicsMassUnitsAreEddd, 
                       __ZN38pxrInternal_v0_21__aapl__pxrReserved__22UsdPhysicsRigidBodyAPI14_IsTypedSchemaEv, 
                       __ZN38pxrInternal_v0_21__aapl__pxrReserved__22UsdPhysicsRigidBodyAPI16_GetStaticTfTypeEv, 
                       __ZN38pxrInternal_v0_21__aapl__pxrReserved__22UsdPhysicsRigidBodyAPI23GetSchemaAttributeNamesEb, 
                       __ZN38pxrInternal_v0_21__aapl__pxrReserved__22UsdPhysicsRigidBodyAPI3GetERKNS_9TfWeakPtrINS_8UsdStageEEERKNS_7SdfPathE, 
                       __ZN38pxrInternal_v0_21__aapl__pxrReserved__22UsdPhysicsRigidBodyAPI5ApplyERKNS_7UsdPrimE, 
                       __ZN38pxrInternal_v0_21__aapl__pxrReserved__22UsdPhysicsRigidBodyAPI8CanApplyERKNS_7UsdPrimEPNSt3__112basic_stringIcNS4_11char_traitsIcEENS4_9allocatorIcEEEE, 
                       __ZN38pxrInternal_v0_21__aapl__pxrReserved__22UsdPhysicsRigidBodyAPID0Ev, 
                       __ZN38pxrInternal_v0_21__aapl__pxrReserved__22UsdPhysicsRigidBodyAPID1Ev, 
                       __ZN38pxrInternal_v0_21__aapl__pxrReserved__22UsdPhysicsRigidBodyAPID2Ev, 
                       __ZN38pxrInternal_v0_21__aapl__pxrReserved__22UsdRiPxrRodLightFilter14_IsTypedSchemaEv, 
                       __ZN38pxrInternal_v0_21__aapl__pxrReserved__22UsdRiPxrRodLightFilter16_GetStaticTfTypeEv, 
                       __ZN38pxrInternal_v0_21__aapl__pxrReserved__22UsdRiPxrRodLightFilter23GetSchemaAttributeNamesEb, 
                       __ZN38pxrInternal_v0_21__aapl__pxrReserved__22UsdRiPxrRodLightFilter3GetERKNS_9TfWeakPtrINS_8UsdStageEEERKNS_7SdfPathE, 
                       __ZN38pxrInternal_v0_21__aapl__pxrReserved__22UsdRiPxrRodLightFilter6DefineERKNS_9TfWeakPtrINS_8UsdStageEEERKNS_7SdfPathE, 
                       __ZN38pxrInternal_v0_21__aapl__pxrReserved__22UsdRiPxrRodLightFilterD0Ev, 
                       __ZN38pxrInternal_v0_21__aapl__pxrReserved__22UsdRiPxrRodLightFilterD1Ev, 
                       __ZN38pxrInternal_v0_21__aapl__pxrReserved__22UsdRiPxrRodLightFilterD2Ev, 
                       __ZN38pxrInternal_v0_21__aapl__pxrReserved__22UsdShadeConnectableAPI10CanConnectERKNS_13UsdShadeInputERKNS_12UsdAttributeE, 
                       __ZN38pxrInternal_v0_21__aapl__pxrReserved__22UsdShadeConnectableAPI10CanConnectERKNS_14UsdShadeOutputERKNS_12UsdAttributeE, 
                       __ZN38pxrInternal_v0_21__aapl__pxrReserved__22UsdShadeConnectableAPI12ClearSourcesERKNS_12UsdAttributeE, 
                       __ZN38pxrInternal_v0_21__aapl__pxrReserved__22UsdShadeConnectableAPI14_IsTypedSchemaEv, 
                       __ZN38pxrInternal_v0_21__aapl__pxrReserved__22UsdShadeConnectableAPI15ConnectToSourceERKNS_12UsdAttributeERKNS_13UsdShadeInputE, 
                       __ZN38pxrInternal_v0_21__aapl__pxrReserved__22UsdShadeConnectableAPI15ConnectToSourceERKNS_12UsdAttributeERKNS_14UsdShadeOutputE, 
                       __ZN38pxrInternal_v0_21__aapl__pxrReserved__22UsdShadeConnectableAPI15ConnectToSourceERKNS_12UsdAttributeERKNS_28UsdShadeConnectionSourceInfoENS_30UsdShadeConnectionModificationE, 
                       __ZN38pxrInternal_v0_21__aapl__pxrReserved__22UsdShadeConnectableAPI15ConnectToSourceERKNS_12UsdAttributeERKNS_7SdfPathE, 
                       __ZN38pxrInternal_v0_21__aapl__pxrReserved__22UsdShadeConnectableAPI15ConnectToSourceERKNS_12UsdAttributeERKS0_RKNS_7TfTokenENS_21UsdShadeAttributeTypeENS_16SdfValueTypeNameE, 
                       __ZN38pxrInternal_v0_21__aapl__pxrReserved__22UsdShadeConnectableAPI16DisconnectSourceERKNS_12UsdAttributeES3_, 
                       __ZN38pxrInternal_v0_21__aapl__pxrReserved__22UsdShadeConnectableAPI16_GetStaticTfTypeEv, 
                       __ZN38pxrInternal_v0_21__aapl__pxrReserved__22UsdShadeConnectableAPI17HasConnectableAPIERKNS_6TfTypeE, 
                       __ZN38pxrInternal_v0_21__aapl__pxrReserved__22UsdShadeConnectableAPI18GetConnectedSourceERKNS_12UsdAttributeEPS0_PNS_7TfTokenEPNS_21UsdShadeAttributeTypeE, 
                       __ZN38pxrInternal_v0_21__aapl__pxrReserved__22UsdShadeConnectableAPI18HasConnectedSourceERKNS_12UsdAttributeE, 
                       __ZN38pxrInternal_v0_21__aapl__pxrReserved__22UsdShadeConnectableAPI19GetConnectedSourcesERKNS_12UsdAttributeEPNSt3__16vectorINS_7SdfPathENS4_9allocatorIS6_EEEE, 
                       __ZN38pxrInternal_v0_21__aapl__pxrReserved__22UsdShadeConnectableAPI19GetConnectedSourcesERKNS_13UsdShadeInputEPNSt3__16vectorINS_7SdfPathENS4_9allocatorIS6_EEEE, 
                       __ZN38pxrInternal_v0_21__aapl__pxrReserved__22UsdShadeConnectableAPI19GetConnectedSourcesERKNS_14UsdShadeOutputEPNSt3__16vectorINS_7SdfPathENS4_9allocatorIS6_EEEE, 
                       __ZN38pxrInternal_v0_21__aapl__pxrReserved__22UsdShadeConnectableAPI19SetConnectedSourcesERKNS_12UsdAttributeERKNSt3__16vectorINS_28UsdShadeConnectionSourceInfoENS4_9allocatorIS6_EEEE, 
                       __ZN38pxrInternal_v0_21__aapl__pxrReserved__22UsdShadeConnectableAPI23GetSchemaAttributeNamesEb, 
                       __ZN38pxrInternal_v0_21__aapl__pxrReserved__22UsdShadeConnectableAPI26GetRawConnectedSourcePathsERKNS_12UsdAttributeEPNSt3__16vectorINS_7SdfPathENS4_9allocatorIS6_EEEE, 
                       __ZN38pxrInternal_v0_21__aapl__pxrReserved__22UsdShadeConnectableAPI34IsSourceConnectionFromBaseMaterialERKNS_12UsdAttributeE, 
                       __ZN38pxrInternal_v0_21__aapl__pxrReserved__22UsdShadeConnectableAPI3GetERKNS_9TfWeakPtrINS_8UsdStageEEERKNS_7SdfPathE, 
                       __ZN38pxrInternal_v0_21__aapl__pxrReserved__22UsdShadeConnectableAPID0Ev, 
                       __ZN38pxrInternal_v0_21__aapl__pxrReserved__22UsdShadeConnectableAPID1Ev, 
                       __ZN38pxrInternal_v0_21__aapl__pxrReserved__22UsdShadeConnectableAPID2Ev, 
                       __ZN38pxrInternal_v0_21__aapl__pxrReserved__22UsdShadeShaderDefUtils19GetShaderPropertiesERKNS_22UsdShadeConnectableAPIE, 
                       __ZN38pxrInternal_v0_21__aapl__pxrReserved__22UsdShadeShaderDefUtils21SplitShaderIdentifierERKNS_7TfTokenEPS1_S4_PNS_10NdrVersionE, 
                       __ZN38pxrInternal_v0_21__aapl__pxrReserved__22UsdShadeShaderDefUtils23GetNodeDiscoveryResultsERKNS_14UsdShadeShaderERKNSt3__112basic_stringIcNS4_11char_traitsIcEENS4_9allocatorIcEEEE, 
                       __ZN38pxrInternal_v0_21__aapl__pxrReserved__22UsdShadeShaderDefUtils29GetPrimvarNamesMetadataStringENSt3__113unordered_mapINS_7TfTokenENS1_12basic_stringIcNS1_11char_traitsIcEENS1_9allocatorIcEEEENS3_11HashFunctorENS1_8equal_toIS3_EENS7_INS1_4pairIKS3_S9_EEEEEERKNS_22UsdShadeConnectableAPIE, 
                       __ZN38pxrInternal_v0_21__aapl__pxrReserved__22UsdSkelApplyBlendShapeEfNS_6TfSpanIKNS_7GfVec3fEEENS0_IKiEENS0_IS1_EE, 
                       __ZN38pxrInternal_v0_21__aapl__pxrReserved__22UsdSkelBlendShapeQueryC1ERKNS_17UsdSkelBindingAPIE, 
                       __ZN38pxrInternal_v0_21__aapl__pxrReserved__22UsdSkelBlendShapeQueryC2ERKNS_17UsdSkelBindingAPIE, 
                       __ZN38pxrInternal_v0_21__aapl__pxrReserved__22UsdSkelIsSkinnablePrimERKNS_7UsdPrimE, 
                       __ZN38pxrInternal_v0_21__aapl__pxrReserved__22UsdStagePopulationMask12IntersectionERKS0_S2_, 
                       __ZN38pxrInternal_v0_21__aapl__pxrReserved__22UsdStagePopulationMask21_ValidateAndNormalizeEv, 
                       __ZN38pxrInternal_v0_21__aapl__pxrReserved__22UsdStagePopulationMask5UnionERKS0_S2_, 
                       __ZN38pxrInternal_v0_21__aapl__pxrReserved__22UsdStagePopulationMaskC1EONSt3__16vectorINS_7SdfPathENS1_9allocatorIS3_EEEE, 
                       __ZN38pxrInternal_v0_21__aapl__pxrReserved__22UsdStagePopulationMaskC2EONSt3__16vectorINS_7SdfPathENS1_9allocatorIS3_EEEE, 
                       __ZN38pxrInternal_v0_21__aapl__pxrReserved__22UsdUISceneGraphPrimAPI14_IsTypedSchemaEv, 
                       __ZN38pxrInternal_v0_21__aapl__pxrReserved__22UsdUISceneGraphPrimAPI16_GetStaticTfTypeEv, 
                       __ZN38pxrInternal_v0_21__aapl__pxrReserved__22UsdUISceneGraphPrimAPI23GetSchemaAttributeNamesEb, 
                       __ZN38pxrInternal_v0_21__aapl__pxrReserved__22UsdUISceneGraphPrimAPI3GetERKNS_9TfWeakPtrINS_8UsdStageEEERKNS_7SdfPathE, 
                       __ZN38pxrInternal_v0_21__aapl__pxrReserved__22UsdUISceneGraphPrimAPI5ApplyERKNS_7UsdPrimE, 
                       __ZN38pxrInternal_v0_21__aapl__pxrReserved__22UsdUISceneGraphPrimAPI8CanApplyERKNS_7UsdPrimEPNSt3__112basic_stringIcNS4_11char_traitsIcEENS4_9allocatorIcEEEE, 
                       __ZN38pxrInternal_v0_21__aapl__pxrReserved__22UsdUISceneGraphPrimAPID0Ev, 
                       __ZN38pxrInternal_v0_21__aapl__pxrReserved__22UsdUISceneGraphPrimAPID1Ev, 
                       __ZN38pxrInternal_v0_21__aapl__pxrReserved__22UsdUISceneGraphPrimAPID2Ev, 
                       __ZN38pxrInternal_v0_21__aapl__pxrReserved__22UsdUsdFileFormatTokensE, 
                       __ZN38pxrInternal_v0_21__aapl__pxrReserved__22UsdUtilsGetDirtyLayersENS_9TfWeakPtrINS_8UsdStageEEEb, 
                       __ZN38pxrInternal_v0_21__aapl__pxrReserved__22Vt_DefaultValueFactoryINS_10GfMatrix2dEE6InvokeEv, 
                       __ZN38pxrInternal_v0_21__aapl__pxrReserved__22Vt_DefaultValueFactoryINS_10GfMatrix2fEE6InvokeEv, 
                       __ZN38pxrInternal_v0_21__aapl__pxrReserved__22Vt_DefaultValueFactoryINS_10GfMatrix3dEE6InvokeEv, 
                       __ZN38pxrInternal_v0_21__aapl__pxrReserved__22Vt_DefaultValueFactoryINS_10GfMatrix3fEE6InvokeEv, 
                       __ZN38pxrInternal_v0_21__aapl__pxrReserved__22Vt_DefaultValueFactoryINS_10GfMatrix4dEE6InvokeEv, 
                       __ZN38pxrInternal_v0_21__aapl__pxrReserved__22Vt_DefaultValueFactoryINS_10GfMatrix4fEE6InvokeEv, 
                       __ZN38pxrInternal_v0_21__aapl__pxrReserved__22Vt_DefaultValueFactoryINS_12GfQuaternionEE6InvokeEv, 
                       __ZN38pxrInternal_v0_21__aapl__pxrReserved__22Vt_DefaultValueFactoryINS_7GfQuatdEE6InvokeEv, 
                       __ZN38pxrInternal_v0_21__aapl__pxrReserved__22Vt_DefaultValueFactoryINS_7GfQuatfEE6InvokeEv, 
                       __ZN38pxrInternal_v0_21__aapl__pxrReserved__22Vt_DefaultValueFactoryINS_7GfQuathEE6InvokeEv, 
                       __ZN38pxrInternal_v0_21__aapl__pxrReserved__22Vt_DefaultValueFactoryINS_7GfVec2dEE6InvokeEv, 
                       __ZN38pxrInternal_v0_21__aapl__pxrReserved__22Vt_DefaultValueFactoryINS_7GfVec2fEE6InvokeEv, 
                       __ZN38pxrInternal_v0_21__aapl__pxrReserved__22Vt_DefaultValueFactoryINS_7GfVec2hEE6InvokeEv, 
                       __ZN38pxrInternal_v0_21__aapl__pxrReserved__22Vt_DefaultValueFactoryINS_7GfVec2iEE6InvokeEv, 
                       __ZN38pxrInternal_v0_21__aapl__pxrReserved__22Vt_DefaultValueFactoryINS_7GfVec3dEE6InvokeEv, 
                       __ZN38pxrInternal_v0_21__aapl__pxrReserved__22Vt_DefaultValueFactoryINS_7GfVec3fEE6InvokeEv, 
                       __ZN38pxrInternal_v0_21__aapl__pxrReserved__22Vt_DefaultValueFactoryINS_7GfVec3hEE6InvokeEv, 
                       __ZN38pxrInternal_v0_21__aapl__pxrReserved__22Vt_DefaultValueFactoryINS_7GfVec3iEE6InvokeEv, 
                       __ZN38pxrInternal_v0_21__aapl__pxrReserved__22Vt_DefaultValueFactoryINS_7GfVec4dEE6InvokeEv, 
                       __ZN38pxrInternal_v0_21__aapl__pxrReserved__22Vt_DefaultValueFactoryINS_7GfVec4fEE6InvokeEv, 
                       __ZN38pxrInternal_v0_21__aapl__pxrReserved__22Vt_DefaultValueFactoryINS_7GfVec4hEE6InvokeEv, 
                       __ZN38pxrInternal_v0_21__aapl__pxrReserved__22Vt_DefaultValueFactoryINS_7GfVec4iEE6InvokeEv, 
                       __ZN38pxrInternal_v0_21__aapl__pxrReserved__23ArGetAvailableResolversEv, 
                       __ZN38pxrInternal_v0_21__aapl__pxrReserved__23ArGetUnderlyingResolverEv, 
                       __ZN38pxrInternal_v0_21__aapl__pxrReserved__23ArIsPackageRelativePathERKNSt3__112basic_stringIcNS0_11char_traitsIcEENS0_9allocatorIcEEEE, 
                       __ZN38pxrInternal_v0_21__aapl__pxrReserved__23ArResolverContextBinderC1EPNS_10ArResolverERKNS_17ArResolverContextE, 
                       __ZN38pxrInternal_v0_21__aapl__pxrReserved__23ArResolverContextBinderC1ERKNS_17ArResolverContextE, 
                       __ZN38pxrInternal_v0_21__aapl__pxrReserved__23ArResolverContextBinderC2EPNS_10ArResolverERKNS_17ArResolverContextE, 
                       __ZN38pxrInternal_v0_21__aapl__pxrReserved__23ArResolverContextBinderC2ERKNS_17ArResolverContextE, 
                       __ZN38pxrInternal_v0_21__aapl__pxrReserved__23ArResolverContextBinderD1Ev, 
                       __ZN38pxrInternal_v0_21__aapl__pxrReserved__23ArResolverContextBinderD2Ev, 
                       __ZN38pxrInternal_v0_21__aapl__pxrReserved__23ArchCrashHandlerSystemvEPKcPKPciPFvPvES5_, 
                       __ZN38pxrInternal_v0_21__aapl__pxrReserved__23ArchGetModificationTimeEPKcPd, 
                       __ZN38pxrInternal_v0_21__aapl__pxrReserved__23ArchGetModificationTimeERK4stat, 
                       __ZN38pxrInternal_v0_21__aapl__pxrReserved__23CameraUtilConformWindowEPNS_8GfCameraENS_29CameraUtilConformWindowPolicyEd, 
                       __ZN38pxrInternal_v0_21__aapl__pxrReserved__23CameraUtilConformWindowEPNS_9GfFrustumENS_29CameraUtilConformWindowPolicyEd, 
                       __ZN38pxrInternal_v0_21__aapl__pxrReserved__23GfBuildOrthonormalFrameERKNS_7GfVec3dEPS0_S3_d, 
                       __ZN38pxrInternal_v0_21__aapl__pxrReserved__23GfBuildOrthonormalFrameERKNS_7GfVec3fEPS0_S3_f, 
                       __ZN38pxrInternal_v0_21__aapl__pxrReserved__23GfBuildOrthonormalFrameERKNS_7GfVec3hEPS0_S3_NS_8pxr_half4halfE, 
                       __ZN38pxrInternal_v0_21__aapl__pxrReserved__23HdExtCompCpuComputation17CreateComputationEPNS_15HdSceneDelegateERKNS_16HdExtComputationEPNSt3__16vectorINS6_10shared_ptrINS_14HdBufferSourceEEENS6_9allocatorISA_EEEE, 
                       __ZN38pxrInternal_v0_21__aapl__pxrReserved__23HdExtCompCpuComputation20INVALID_OUTPUT_INDEXE, 
                       __ZN38pxrInternal_v0_21__aapl__pxrReserved__23HdExtCompCpuComputation7ResolveEv, 
                       __ZN38pxrInternal_v0_21__aapl__pxrReserved__23HdExtCompCpuComputationC1ERKNS_7SdfPathERKNSt3__16vectorINS4_10shared_ptrINS_21Hd_ExtCompInputSourceEEENS4_9allocatorIS8_EEEERKNS5_INS_7TfTokenENS9_ISE_EEEEiPNS_15HdSceneDelegateE, 
                       __ZN38pxrInternal_v0_21__aapl__pxrReserved__23HdExtCompCpuComputationC2ERKNS_7SdfPathERKNSt3__16vectorINS4_10shared_ptrINS_21Hd_ExtCompInputSourceEEENS4_9allocatorIS8_EEEERKNS5_INS_7TfTokenENS9_ISE_EEEEiPNS_15HdSceneDelegateE, 
                       __ZN38pxrInternal_v0_21__aapl__pxrReserved__23HdExtComputationContextD0Ev, 
                       __ZN38pxrInternal_v0_21__aapl__pxrReserved__23HdExtComputationContextD1Ev, 
                       __ZN38pxrInternal_v0_21__aapl__pxrReserved__23HdExtComputationContextD2Ev, 
                       __ZN38pxrInternal_v0_21__aapl__pxrReserved__23PcpComposeSitePrimSitesERKNS_8TfRefPtrINS_13PcpLayerStackEEERKNS_7SdfPathEPNSt3__16vectorINS_7SdfSiteENS8_9allocatorISA_EEEE, 
                       __ZN38pxrInternal_v0_21__aapl__pxrReserved__23PcpComposeSiteRelocatesERKNS_8TfRefPtrINS_13PcpLayerStackEEERKNS_7SdfPathEPNSt3__13mapIS5_S5_NS8_4lessIS5_EENS8_9allocatorINS8_4pairIS6_S5_EEEEEE, 
                       __ZN38pxrInternal_v0_21__aapl__pxrReserved__23PcpErrorInvalidPrimPath3NewEv, 
                       __ZN38pxrInternal_v0_21__aapl__pxrReserved__23PcpErrorInvalidPrimPathC1Ev, 
                       __ZN38pxrInternal_v0_21__aapl__pxrReserved__23PcpErrorInvalidPrimPathC2Ev, 
                       __ZN38pxrInternal_v0_21__aapl__pxrReserved__23PcpErrorInvalidPrimPathD0Ev, 
                       __ZN38pxrInternal_v0_21__aapl__pxrReserved__23PcpErrorInvalidPrimPathD1Ev, 
                       __ZN38pxrInternal_v0_21__aapl__pxrReserved__23PcpErrorInvalidPrimPathD2Ev, 
                       __ZN38pxrInternal_v0_21__aapl__pxrReserved__23PcpLayerPrefetchRequest20RequestSublayerStackERKNS_8TfRefPtrINS_8SdfLayerEEERKNSt3__13mapINS6_12basic_stringIcNS6_11char_traitsIcEENS6_9allocatorIcEEEESD_NS6_4lessISD_EENSB_INS6_4pairIKSD_SD_EEEEEE, 
                       __ZN38pxrInternal_v0_21__aapl__pxrReserved__23PcpLayerPrefetchRequest3RunERKNS_15Pcp_MutedLayersE, 
                       __ZN38pxrInternal_v0_21__aapl__pxrReserved__23PcpLayerStackIdentifierC1ERKNS_9TfWeakPtrINS_8SdfLayerEEES5_RKNS_17ArResolverContextE, 
                       __ZN38pxrInternal_v0_21__aapl__pxrReserved__23PcpLayerStackIdentifierC1Ev, 
                       __ZN38pxrInternal_v0_21__aapl__pxrReserved__23PcpLayerStackIdentifierC2ERKNS_9TfWeakPtrINS_8SdfLayerEEES5_RKNS_17ArResolverContextE, 
                       __ZN38pxrInternal_v0_21__aapl__pxrReserved__23PcpLayerStackIdentifierC2Ev, 
                       __ZN38pxrInternal_v0_21__aapl__pxrReserved__23PcpLayerStackIdentifieraSERKS0_, 
                       __ZN38pxrInternal_v0_21__aapl__pxrReserved__23SdfCreateVariantInLayerERKNS_9TfWeakPtrINS_8SdfLayerEEERKNS_7SdfPathERKNSt3__112basic_stringIcNS8_11char_traitsIcEENS8_9allocatorIcEEEESG_, 
                       __ZN38pxrInternal_v0_21__aapl__pxrReserved__23SdfSpecTypeRegistration17_RegisterSpecTypeERKSt9type_infoNS_11SdfSpecTypeES3_, 
                       __ZN38pxrInternal_v0_21__aapl__pxrReserved__23SdfSpecTypeRegistration25_RegisterAbstractSpecTypeERKSt9type_infoS3_, 
                       __ZN38pxrInternal_v0_21__aapl__pxrReserved__23SdfTextFileFormatTokensE, 
                       __ZN38pxrInternal_v0_21__aapl__pxrReserved__23TfAtomicOfstreamWrapper4OpenEPNSt3__112basic_stringIcNS1_11char_traitsIcEENS1_9allocatorIcEEEE, 
                       __ZN38pxrInternal_v0_21__aapl__pxrReserved__23TfAtomicOfstreamWrapper6CancelEPNSt3__112basic_stringIcNS1_11char_traitsIcEENS1_9allocatorIcEEEE, 
                       __ZN38pxrInternal_v0_21__aapl__pxrReserved__23TfAtomicOfstreamWrapper6CommitEPNSt3__112basic_stringIcNS1_11char_traitsIcEENS1_9allocatorIcEEEE, 
                       __ZN38pxrInternal_v0_21__aapl__pxrReserved__23TfAtomicOfstreamWrapperC1ERKNSt3__112basic_stringIcNS1_11char_traitsIcEENS1_9allocatorIcEEEE, 
                       __ZN38pxrInternal_v0_21__aapl__pxrReserved__23TfAtomicOfstreamWrapperC2ERKNSt3__112basic_stringIcNS1_11char_traitsIcEENS1_9allocatorIcEEEE, 
                       __ZN38pxrInternal_v0_21__aapl__pxrReserved__23TfAtomicOfstreamWrapperD1Ev, 
                       __ZN38pxrInternal_v0_21__aapl__pxrReserved__23TfAtomicOfstreamWrapperD2Ev, 
                       __ZN38pxrInternal_v0_21__aapl__pxrReserved__23TfMatchedStringTokenizeERKNSt3__112basic_stringIcNS0_11char_traitsIcEENS0_9allocatorIcEEEEcccPS6_, 
                       __ZN38pxrInternal_v0_21__aapl__pxrReserved__23TfStringGetBeforeSuffixERKNSt3__112basic_stringIcNS0_11char_traitsIcEENS0_9allocatorIcEEEEc, 
                       __ZN38pxrInternal_v0_21__aapl__pxrReserved__23TfStringGetCommonPrefixENSt3__112basic_stringIcNS0_11char_traitsIcEENS0_9allocatorIcEEEES6_, 
                       __ZN38pxrInternal_v0_21__aapl__pxrReserved__23TfTypeWasDeclaredNoticeC1ENS_6TfTypeE, 
                       __ZN38pxrInternal_v0_21__aapl__pxrReserved__23TfTypeWasDeclaredNoticeC2ENS_6TfTypeE, 
                       __ZN38pxrInternal_v0_21__aapl__pxrReserved__23TfTypeWasDeclaredNoticeD0Ev, 
                       __ZN38pxrInternal_v0_21__aapl__pxrReserved__23TfTypeWasDeclaredNoticeD1Ev, 
                       __ZN38pxrInternal_v0_21__aapl__pxrReserved__23TfTypeWasDeclaredNoticeD2Ev, 
                       __ZN38pxrInternal_v0_21__aapl__pxrReserved__23TraceCounterAccumulator11OnEndThreadERKNS_13TraceThreadIdE, 
                       __ZN38pxrInternal_v0_21__aapl__pxrReserved__23TraceCounterAccumulator13OnBeginThreadERKNS_13TraceThreadIdE, 
                       __ZN38pxrInternal_v0_21__aapl__pxrReserved__23TraceCounterAccumulator15AcceptsCategoryEj, 
                       __ZN38pxrInternal_v0_21__aapl__pxrReserved__23TraceCounterAccumulator15OnEndCollectionEv, 
                       __ZN38pxrInternal_v0_21__aapl__pxrReserved__23TraceCounterAccumulator16SetCurrentValuesERKNSt3__113unordered_mapINS_7TfTokenEdNS3_11HashFunctorENS1_8equal_toIS3_EENS1_9allocatorINS1_4pairIKS3_dEEEEEE, 
                       __ZN38pxrInternal_v0_21__aapl__pxrReserved__23TraceCounterAccumulator17OnBeginCollectionEv, 
                       __ZN38pxrInternal_v0_21__aapl__pxrReserved__23TraceCounterAccumulator6UpdateERKNS_15TraceCollectionE, 
                       __ZN38pxrInternal_v0_21__aapl__pxrReserved__23TraceCounterAccumulator7OnEventERKNS_13TraceThreadIdERKNS_7TfTokenERKNS_10TraceEventE, 
                       __ZN38pxrInternal_v0_21__aapl__pxrReserved__23UsdGeomConstraintTarget13SetIdentifierERKNS_7TfTokenE, 
                       __ZN38pxrInternal_v0_21__aapl__pxrReserved__23UsdGeomConstraintTarget21GetConstraintAttrNameERKNSt3__112basic_stringIcNS1_11char_traitsIcEENS1_9allocatorIcEEEE, 
                       __ZN38pxrInternal_v0_21__aapl__pxrReserved__23UsdGeomConstraintTarget7IsValidERKNS_12UsdAttributeE, 
                       __ZN38pxrInternal_v0_21__aapl__pxrReserved__23UsdGeomConstraintTargetC1ERKNS_12UsdAttributeE, 
                       __ZN38pxrInternal_v0_21__aapl__pxrReserved__23UsdGeomConstraintTargetC2ERKNS_12UsdAttributeE, 
                       __ZN38pxrInternal_v0_21__aapl__pxrReserved__23UsdHydraDiscoveryPlugin13DiscoverNodesERKNS_25NdrDiscoveryPluginContextE, 
                       __ZN38pxrInternal_v0_21__aapl__pxrReserved__23UsdLuxPluginLightFilter14_IsTypedSchemaEv, 
                       __ZN38pxrInternal_v0_21__aapl__pxrReserved__23UsdLuxPluginLightFilter16_GetStaticTfTypeEv, 
                       __ZN38pxrInternal_v0_21__aapl__pxrReserved__23UsdLuxPluginLightFilter23GetSchemaAttributeNamesEb, 
                       __ZN38pxrInternal_v0_21__aapl__pxrReserved__23UsdLuxPluginLightFilter3GetERKNS_9TfWeakPtrINS_8UsdStageEEERKNS_7SdfPathE, 
                       __ZN38pxrInternal_v0_21__aapl__pxrReserved__23UsdLuxPluginLightFilter6DefineERKNS_9TfWeakPtrINS_8UsdStageEEERKNS_7SdfPathE, 
                       __ZN38pxrInternal_v0_21__aapl__pxrReserved__23UsdLuxPluginLightFilterD0Ev, 
                       __ZN38pxrInternal_v0_21__aapl__pxrReserved__23UsdLuxPluginLightFilterD1Ev, 
                       __ZN38pxrInternal_v0_21__aapl__pxrReserved__23UsdLuxPluginLightFilterD2Ev, 
                       __ZN38pxrInternal_v0_21__aapl__pxrReserved__23UsdPhysicsDistanceJoint14_IsTypedSchemaEv, 
                       __ZN38pxrInternal_v0_21__aapl__pxrReserved__23UsdPhysicsDistanceJoint16_GetStaticTfTypeEv, 
                       __ZN38pxrInternal_v0_21__aapl__pxrReserved__23UsdPhysicsDistanceJoint23GetSchemaAttributeNamesEb, 
                       __ZN38pxrInternal_v0_21__aapl__pxrReserved__23UsdPhysicsDistanceJoint3GetERKNS_9TfWeakPtrINS_8UsdStageEEERKNS_7SdfPathE, 
                       __ZN38pxrInternal_v0_21__aapl__pxrReserved__23UsdPhysicsDistanceJoint6DefineERKNS_9TfWeakPtrINS_8UsdStageEEERKNS_7SdfPathE, 
                       __ZN38pxrInternal_v0_21__aapl__pxrReserved__23UsdPhysicsDistanceJointD0Ev, 
                       __ZN38pxrInternal_v0_21__aapl__pxrReserved__23UsdPhysicsDistanceJointD1Ev, 
                       __ZN38pxrInternal_v0_21__aapl__pxrReserved__23UsdPhysicsDistanceJointD2Ev, 
                       __ZN38pxrInternal_v0_21__aapl__pxrReserved__23UsdPhysicsRevoluteJoint14_IsTypedSchemaEv, 
                       __ZN38pxrInternal_v0_21__aapl__pxrReserved__23UsdPhysicsRevoluteJoint16_GetStaticTfTypeEv, 
                       __ZN38pxrInternal_v0_21__aapl__pxrReserved__23UsdPhysicsRevoluteJoint23GetSchemaAttributeNamesEb, 
                       __ZN38pxrInternal_v0_21__aapl__pxrReserved__23UsdPhysicsRevoluteJoint3GetERKNS_9TfWeakPtrINS_8UsdStageEEERKNS_7SdfPathE, 
                       __ZN38pxrInternal_v0_21__aapl__pxrReserved__23UsdPhysicsRevoluteJoint6DefineERKNS_9TfWeakPtrINS_8UsdStageEEERKNS_7SdfPathE, 
                       __ZN38pxrInternal_v0_21__aapl__pxrReserved__23UsdPhysicsRevoluteJointD0Ev, 
                       __ZN38pxrInternal_v0_21__aapl__pxrReserved__23UsdPhysicsRevoluteJointD1Ev, 
                       __ZN38pxrInternal_v0_21__aapl__pxrReserved__23UsdPhysicsRevoluteJointD2Ev, 
                       __ZN38pxrInternal_v0_21__aapl__pxrReserved__23UsdPrimCompositionQuery17GetDirectInheritsERKNS_7UsdPrimE, 
                       __ZN38pxrInternal_v0_21__aapl__pxrReserved__23UsdPrimCompositionQuery18GetCompositionArcsEv, 
                       __ZN38pxrInternal_v0_21__aapl__pxrReserved__23UsdPrimCompositionQuery19GetDirectReferencesERKNS_7UsdPrimE, 
                       __ZN38pxrInternal_v0_21__aapl__pxrReserved__23UsdPrimCompositionQuery22GetDirectRootLayerArcsERKNS_7UsdPrimE, 
                       __ZN38pxrInternal_v0_21__aapl__pxrReserved__23UsdPrimCompositionQuery9SetFilterERKNS0_6FilterE, 
                       __ZN38pxrInternal_v0_21__aapl__pxrReserved__23UsdPrimCompositionQueryC1ERKNS_7UsdPrimERKNS0_6FilterE, 
                       __ZN38pxrInternal_v0_21__aapl__pxrReserved__23UsdPrimCompositionQueryC2ERKNS_7UsdPrimERKNS0_6FilterE, 
                       __ZN38pxrInternal_v0_21__aapl__pxrReserved__23UsdRiPxrBarnLightFilter14_IsTypedSchemaEv, 
                       __ZN38pxrInternal_v0_21__aapl__pxrReserved__23UsdRiPxrBarnLightFilter16_GetStaticTfTypeEv, 
                       __ZN38pxrInternal_v0_21__aapl__pxrReserved__23UsdRiPxrBarnLightFilter23GetSchemaAttributeNamesEb, 
                       __ZN38pxrInternal_v0_21__aapl__pxrReserved__23UsdRiPxrBarnLightFilter3GetERKNS_9TfWeakPtrINS_8UsdStageEEERKNS_7SdfPathE, 
                       __ZN38pxrInternal_v0_21__aapl__pxrReserved__23UsdRiPxrBarnLightFilter6DefineERKNS_9TfWeakPtrINS_8UsdStageEEERKNS_7SdfPathE, 
                       __ZN38pxrInternal_v0_21__aapl__pxrReserved__23UsdRiPxrBarnLightFilterD0Ev, 
                       __ZN38pxrInternal_v0_21__aapl__pxrReserved__23UsdRiPxrBarnLightFilterD1Ev, 
                       __ZN38pxrInternal_v0_21__aapl__pxrReserved__23UsdRiPxrBarnLightFilterD2Ev, 
                       __ZN38pxrInternal_v0_21__aapl__pxrReserved__23UsdRiPxrRampLightFilter14_IsTypedSchemaEv, 
                       __ZN38pxrInternal_v0_21__aapl__pxrReserved__23UsdRiPxrRampLightFilter16_GetStaticTfTypeEv, 
                       __ZN38pxrInternal_v0_21__aapl__pxrReserved__23UsdRiPxrRampLightFilter23GetSchemaAttributeNamesEb, 
                       __ZN38pxrInternal_v0_21__aapl__pxrReserved__23UsdRiPxrRampLightFilter3GetERKNS_9TfWeakPtrINS_8UsdStageEEERKNS_7SdfPathE, 
                       __ZN38pxrInternal_v0_21__aapl__pxrReserved__23UsdRiPxrRampLightFilter6DefineERKNS_9TfWeakPtrINS_8UsdStageEEERKNS_7SdfPathE, 
                       __ZN38pxrInternal_v0_21__aapl__pxrReserved__23UsdRiPxrRampLightFilterD0Ev, 
                       __ZN38pxrInternal_v0_21__aapl__pxrReserved__23UsdRiPxrRampLightFilterD1Ev, 
                       __ZN38pxrInternal_v0_21__aapl__pxrReserved__23UsdRiPxrRampLightFilterD2Ev, 
                       __ZN38pxrInternal_v0_21__aapl__pxrReserved__23UsdSkelNormalizeWeightsENS_6TfSpanIfEEi, 
                       __ZN38pxrInternal_v0_21__aapl__pxrReserved__23UsdSkelNormalizeWeightsEPNS_7VtArrayIfEEi, 
                       __ZN38pxrInternal_v0_21__aapl__pxrReserved__23UsdSkelResizeInfluencesEPNS_7VtArrayIfEEii, 
                       __ZN38pxrInternal_v0_21__aapl__pxrReserved__23UsdSkelResizeInfluencesEPNS_7VtArrayIiEEii, 
                       __ZN38pxrInternal_v0_21__aapl__pxrReserved__23UsdSkelSkinTransformLBSERKNS_10GfMatrix4dENS_6TfSpanIS1_EENS3_IKNS_7GfVec2fEEEPS0_, 
                       __ZN38pxrInternal_v0_21__aapl__pxrReserved__23UsdSkelSkinTransformLBSERKNS_10GfMatrix4dENS_6TfSpanIS1_EENS3_IKiEENS3_IKfEEPS0_, 
                       __ZN38pxrInternal_v0_21__aapl__pxrReserved__23UsdSkelSkinTransformLBSERKNS_10GfMatrix4dEPS1_mPKiPKfmPS0_, 
                       __ZN38pxrInternal_v0_21__aapl__pxrReserved__23UsdSkelSkinTransformLBSERKNS_10GfMatrix4fENS_6TfSpanIS1_EENS3_IKNS_7GfVec2fEEEPS0_, 
                       __ZN38pxrInternal_v0_21__aapl__pxrReserved__23UsdSkelSkinTransformLBSERKNS_10GfMatrix4fENS_6TfSpanIS1_EENS3_IKiEENS3_IKfEEPS0_, 
                       __ZN38pxrInternal_v0_21__aapl__pxrReserved__23UsdUsdaFileFormatTokensE, 
                       __ZN38pxrInternal_v0_21__aapl__pxrReserved__23UsdUsdcFileFormatTokensE, 
                       __ZN38pxrInternal_v0_21__aapl__pxrReserved__23UsdUsdzFileFormatTokensE, 
                       __ZN38pxrInternal_v0_21__aapl__pxrReserved__23WorkGetConcurrencyLimitEv, 
                       __ZN38pxrInternal_v0_21__aapl__pxrReserved__23WorkSetConcurrencyLimitEj, 
                       __ZN38pxrInternal_v0_21__aapl__pxrReserved__24AaplUsdInteractiveTokensE, 
                       __ZN38pxrInternal_v0_21__aapl__pxrReserved__24AaplUsdPhysicsTokensTypeC1Ev, 
                       __ZN38pxrInternal_v0_21__aapl__pxrReserved__24AaplUsdPhysicsTokensTypeC2Ev, 
                       __ZN38pxrInternal_v0_21__aapl__pxrReserved__24ArDefaultResolverContextC1ERKNSt3__16vectorINS1_12basic_stringIcNS1_11char_traitsIcEENS1_9allocatorIcEEEENS6_IS8_EEEE, 
                       __ZN38pxrInternal_v0_21__aapl__pxrReserved__24ArDefaultResolverContextC2ERKNSt3__16vectorINS1_12basic_stringIcNS1_11char_traitsIcEENS1_9allocatorIcEEEENS6_IS8_EEEE, 
                       __ZN38pxrInternal_v0_21__aapl__pxrReserved__24ArchEnableSessionLoggingEv, 
                       __ZN38pxrInternal_v0_21__aapl__pxrReserved__24ArchGetFatalStackLoggingEv, 
                       __ZN38pxrInternal_v0_21__aapl__pxrReserved__24ArchReserveVirtualMemoryEm, 
                       __ZN38pxrInternal_v0_21__aapl__pxrReserved__24ArchSetFatalStackLoggingEb, 
                       __ZN38pxrInternal_v0_21__aapl__pxrReserved__24GfConvertDisplayToLinearERKNS_7GfVec3dE, 
                       __ZN38pxrInternal_v0_21__aapl__pxrReserved__24GfConvertDisplayToLinearERKNS_7GfVec3fE, 
                       __ZN38pxrInternal_v0_21__aapl__pxrReserved__24GfConvertDisplayToLinearERKNS_7GfVec3hE, 
                       __ZN38pxrInternal_v0_21__aapl__pxrReserved__24GfConvertDisplayToLinearERKNS_7GfVec4dE, 
                       __ZN38pxrInternal_v0_21__aapl__pxrReserved__24GfConvertDisplayToLinearERKNS_7GfVec4fE, 
                       __ZN38pxrInternal_v0_21__aapl__pxrReserved__24GfConvertDisplayToLinearERKNS_7GfVec4hE, 
                       __ZN38pxrInternal_v0_21__aapl__pxrReserved__24GfConvertDisplayToLinearERKf, 
                       __ZN38pxrInternal_v0_21__aapl__pxrReserved__24GfConvertDisplayToLinearERKh, 
                       __ZN38pxrInternal_v0_21__aapl__pxrReserved__24GfConvertLinearToDisplayERKNS_7GfVec3dE, 
                       __ZN38pxrInternal_v0_21__aapl__pxrReserved__24GfConvertLinearToDisplayERKNS_7GfVec3fE, 
                       __ZN38pxrInternal_v0_21__aapl__pxrReserved__24GfConvertLinearToDisplayERKNS_7GfVec3hE, 
                       __ZN38pxrInternal_v0_21__aapl__pxrReserved__24GfConvertLinearToDisplayERKNS_7GfVec4dE, 
                       __ZN38pxrInternal_v0_21__aapl__pxrReserved__24GfConvertLinearToDisplayERKNS_7GfVec4fE, 
                       __ZN38pxrInternal_v0_21__aapl__pxrReserved__24GfConvertLinearToDisplayERKNS_7GfVec4hE, 
                       __ZN38pxrInternal_v0_21__aapl__pxrReserved__24GfConvertLinearToDisplayERKf, 
                       __ZN38pxrInternal_v0_21__aapl__pxrReserved__24GfConvertLinearToDisplayERKh, 
                       __ZN38pxrInternal_v0_21__aapl__pxrReserved__24HdMaterialTerminalTokensE, 
                       __ZN38pxrInternal_v0_21__aapl__pxrReserved__24HdRendererPluginRegistry11GetInstanceEv, 
                       __ZN38pxrInternal_v0_21__aapl__pxrReserved__24HdRendererPluginRegistry17GetRendererPluginERKNS_7TfTokenE, 
                       __ZN38pxrInternal_v0_21__aapl__pxrReserved__24HdRendererPluginRegistry18GetDefaultPluginIdEv, 
                       __ZN38pxrInternal_v0_21__aapl__pxrReserved__24HdRendererPluginRegistry20CreateRenderDelegateERKNS_7TfTokenERKNS_9TfHashMapIS1_NS_7VtValueENS1_11HashFunctorENSt3__18equal_toIS1_EENS7_9allocatorINS7_4pairIS2_S5_EEEEEE, 
                       __ZN38pxrInternal_v0_21__aapl__pxrReserved__24HdRendererPluginRegistry25GetOrCreateRendererPluginERKNS_7TfTokenE, 
                       __ZN38pxrInternal_v0_21__aapl__pxrReserved__24HdRendererPluginRegistryC1Ev, 
                       __ZN38pxrInternal_v0_21__aapl__pxrReserved__24HdRendererPluginRegistryC2Ev, 
                       __ZN38pxrInternal_v0_21__aapl__pxrReserved__24HdRendererPluginRegistryD0Ev, 
                       __ZN38pxrInternal_v0_21__aapl__pxrReserved__24HdRendererPluginRegistryD1Ev, 
                       __ZN38pxrInternal_v0_21__aapl__pxrReserved__24HdRendererPluginRegistryD2Ev, 
                       __ZN38pxrInternal_v0_21__aapl__pxrReserved__24HdTokens_StaticTokenTypeC1Ev, 
                       __ZN38pxrInternal_v0_21__aapl__pxrReserved__24HdTokens_StaticTokenTypeC2Ev, 
                       __ZN38pxrInternal_v0_21__aapl__pxrReserved__24HdTokens_StaticTokenTypeD1Ev, 
                       __ZN38pxrInternal_v0_21__aapl__pxrReserved__24HdTokens_StaticTokenTypeD2Ev, 
                       __ZN38pxrInternal_v0_21__aapl__pxrReserved__24Hd_AdjacencyBufferSource7ResolveEv, 
                       __ZN38pxrInternal_v0_21__aapl__pxrReserved__24Hd_AdjacencyBufferSourceC1EPKNS_18Hd_VertexAdjacencyERKNSt3__110shared_ptrINS_14HdBufferSourceEEE, 
                       __ZN38pxrInternal_v0_21__aapl__pxrReserved__24Hd_AdjacencyBufferSourceC2EPKNS_18Hd_VertexAdjacencyERKNSt3__110shared_ptrINS_14HdBufferSourceEEE, 
                       __ZN38pxrInternal_v0_21__aapl__pxrReserved__24PcpComposeSiteChildNamesERKNSt3__16vectorINS_8TfRefPtrINS_8SdfLayerEEENS0_9allocatorIS4_EEEERKNS_7SdfPathERKNS_7TfTokenEPNS1_ISD_NS5_ISD_EEEEPNS_14TfDenseHashSetISD_NSD_11HashFunctorENS0_8equal_toISD_EELj128EEEPSE_, 
                       __ZN38pxrInternal_v0_21__aapl__pxrReserved__24PcpComposeSitePermissionERKNS_8TfRefPtrINS_13PcpLayerStackEEERKNS_7SdfPathE, 
                       __ZN38pxrInternal_v0_21__aapl__pxrReserved__24PcpComposeSiteReferencesERKNS_8TfRefPtrINS_13PcpLayerStackEEERKNS_7SdfPathEPNSt3__16vectorINS_12SdfReferenceENS8_9allocatorISA_EEEEPNS9_INS_16PcpSourceArcInfoENSB_ISF_EEEE, 
                       __ZN38pxrInternal_v0_21__aapl__pxrReserved__24PcpComputeNamespaceEditsEPKNS_8PcpCacheERKNSt3__16vectorIPS0_NS3_9allocatorIS5_EEEERKNS_7SdfPathESD_RKNS_9TfWeakPtrINS_8SdfLayerEEE, 
                       __ZN38pxrInternal_v0_21__aapl__pxrReserved__24PcpErrorCapacityExceeded3NewENS_12PcpErrorTypeE, 
                       __ZN38pxrInternal_v0_21__aapl__pxrReserved__24PcpErrorCapacityExceededC1ENS_12PcpErrorTypeE, 
                       __ZN38pxrInternal_v0_21__aapl__pxrReserved__24PcpErrorCapacityExceededC2ENS_12PcpErrorTypeE, 
                       __ZN38pxrInternal_v0_21__aapl__pxrReserved__24PcpErrorCapacityExceededD0Ev, 
                       __ZN38pxrInternal_v0_21__aapl__pxrReserved__24PcpErrorCapacityExceededD1Ev, 
                       __ZN38pxrInternal_v0_21__aapl__pxrReserved__24PcpErrorCapacityExceededD2Ev, 
                       __ZN38pxrInternal_v0_21__aapl__pxrReserved__24PcpErrorInvalidAssetPath3NewEv, 
                       __ZN38pxrInternal_v0_21__aapl__pxrReserved__24PcpErrorInvalidAssetPathC1Ev, 
                       __ZN38pxrInternal_v0_21__aapl__pxrReserved__24PcpErrorInvalidAssetPathC2Ev, 
                       __ZN38pxrInternal_v0_21__aapl__pxrReserved__24PcpErrorInvalidAssetPathD0Ev, 
                       __ZN38pxrInternal_v0_21__aapl__pxrReserved__24PcpErrorInvalidAssetPathD1Ev, 
                       __ZN38pxrInternal_v0_21__aapl__pxrReserved__24PcpErrorInvalidAssetPathD2Ev, 
                       __ZN38pxrInternal_v0_21__aapl__pxrReserved__24SdfGetPayloadEditorProxyERKNS_9SdfHandleINS_7SdfSpecEEERKNS_7TfTokenE, 
                       __ZN38pxrInternal_v0_21__aapl__pxrReserved__24SdfJustCreatePrimInLayerERKNS_9TfWeakPtrINS_8SdfLayerEEERKNS_7SdfPathE, 
                       __ZN38pxrInternal_v0_21__aapl__pxrReserved__24SdfPathFindLongestPrefixERKNSt3__13setINS_7SdfPathENS0_4lessIS2_EENS0_9allocatorIS2_EEEERKS2_, 
                       __ZN38pxrInternal_v0_21__aapl__pxrReserved__24Sdf_PrimPropertyPathNodeD1Ev, 
                       __ZN38pxrInternal_v0_21__aapl__pxrReserved__24Sdf_PrimPropertyPathNodeD2Ev, 
                       __ZN38pxrInternal_v0_21__aapl__pxrReserved__24TfReportActiveErrorMarksEv, 
                       __ZN38pxrInternal_v0_21__aapl__pxrReserved__24TfWalkIgnoreErrorHandlerERKNSt3__112basic_stringIcNS0_11char_traitsIcEENS0_9allocatorIcEEEES8_, 
                       __ZN38pxrInternal_v0_21__aapl__pxrReserved__24TraceCollectionAvailableD0Ev, 
                       __ZN38pxrInternal_v0_21__aapl__pxrReserved__24TraceCollectionAvailableD1Ev, 
                       __ZN38pxrInternal_v0_21__aapl__pxrReserved__24TraceCollectionAvailableD2Ev, 
                       __ZN38pxrInternal_v0_21__aapl__pxrReserved__24UsdGeomGetFallbackUpAxisEv, 
                       __ZN38pxrInternal_v0_21__aapl__pxrReserved__24UsdModelAPIAssetInfoKeysE, 
                       __ZN38pxrInternal_v0_21__aapl__pxrReserved__24UsdPhysicsCollisionGroup14_IsTypedSchemaEv, 
                       __ZN38pxrInternal_v0_21__aapl__pxrReserved__24UsdPhysicsCollisionGroup16_GetStaticTfTypeEv, 
                       __ZN38pxrInternal_v0_21__aapl__pxrReserved__24UsdPhysicsCollisionGroup23GetSchemaAttributeNamesEb, 
                       __ZN38pxrInternal_v0_21__aapl__pxrReserved__24UsdPhysicsCollisionGroup3GetERKNS_9TfWeakPtrINS_8UsdStageEEERKNS_7SdfPathE, 
                       __ZN38pxrInternal_v0_21__aapl__pxrReserved__24UsdPhysicsCollisionGroup6DefineERKNS_9TfWeakPtrINS_8UsdStageEEERKNS_7SdfPathE, 
                       __ZN38pxrInternal_v0_21__aapl__pxrReserved__24UsdPhysicsCollisionGroupD0Ev, 
                       __ZN38pxrInternal_v0_21__aapl__pxrReserved__24UsdPhysicsCollisionGroupD1Ev, 
                       __ZN38pxrInternal_v0_21__aapl__pxrReserved__24UsdPhysicsCollisionGroupD2Ev, 
                       __ZN38pxrInternal_v0_21__aapl__pxrReserved__24UsdPhysicsPrismaticJoint14_IsTypedSchemaEv, 
                       __ZN38pxrInternal_v0_21__aapl__pxrReserved__24UsdPhysicsPrismaticJoint16_GetStaticTfTypeEv, 
                       __ZN38pxrInternal_v0_21__aapl__pxrReserved__24UsdPhysicsPrismaticJoint23GetSchemaAttributeNamesEb, 
                       __ZN38pxrInternal_v0_21__aapl__pxrReserved__24UsdPhysicsPrismaticJoint3GetERKNS_9TfWeakPtrINS_8UsdStageEEERKNS_7SdfPathE, 
                       __ZN38pxrInternal_v0_21__aapl__pxrReserved__24UsdPhysicsPrismaticJoint6DefineERKNS_9TfWeakPtrINS_8UsdStageEEERKNS_7SdfPathE, 
                       __ZN38pxrInternal_v0_21__aapl__pxrReserved__24UsdPhysicsPrismaticJointD0Ev, 
                       __ZN38pxrInternal_v0_21__aapl__pxrReserved__24UsdPhysicsPrismaticJointD1Ev, 
                       __ZN38pxrInternal_v0_21__aapl__pxrReserved__24UsdPhysicsPrismaticJointD2Ev, 
                       __ZN38pxrInternal_v0_21__aapl__pxrReserved__24UsdPhysicsSphericalJoint14_IsTypedSchemaEv, 
                       __ZN38pxrInternal_v0_21__aapl__pxrReserved__24UsdPhysicsSphericalJoint16_GetStaticTfTypeEv, 
                       __ZN38pxrInternal_v0_21__aapl__pxrReserved__24UsdPhysicsSphericalJoint23GetSchemaAttributeNamesEb, 
                       __ZN38pxrInternal_v0_21__aapl__pxrReserved__24UsdPhysicsSphericalJoint3GetERKNS_9TfWeakPtrINS_8UsdStageEEERKNS_7SdfPathE, 
                       __ZN38pxrInternal_v0_21__aapl__pxrReserved__24UsdPhysicsSphericalJoint6DefineERKNS_9TfWeakPtrINS_8UsdStageEEERKNS_7SdfPathE, 
                       __ZN38pxrInternal_v0_21__aapl__pxrReserved__24UsdPhysicsSphericalJointD0Ev, 
                       __ZN38pxrInternal_v0_21__aapl__pxrReserved__24UsdPhysicsSphericalJointD1Ev, 
                       __ZN38pxrInternal_v0_21__aapl__pxrReserved__24UsdPhysicsSphericalJointD2Ev, 
                       __ZN38pxrInternal_v0_21__aapl__pxrReserved__24UsdUtilsAuthorCollectionERKNS_7TfTokenERKNS_7UsdPrimERKNSt3__16vectorINS_7SdfPathENS6_9allocatorIS8_EEEESD_, 
                       __ZN38pxrInternal_v0_21__aapl__pxrReserved__24UsdUtilsModifyAssetPathsERKNS_9TfWeakPtrINS_8SdfLayerEEERKNSt3__18functionIFNS5_12basic_stringIcNS5_11char_traitsIcEENS5_9allocatorIcEEEERKSC_EEE, 
                       __ZN38pxrInternal_v0_21__aapl__pxrReserved__25ArJoinPackageRelativePathERKNSt3__112basic_stringIcNS0_11char_traitsIcEENS0_9allocatorIcEEEES8_, 
                       __ZN38pxrInternal_v0_21__aapl__pxrReserved__25ArJoinPackageRelativePathERKNSt3__14pairINS0_12basic_stringIcNS0_11char_traitsIcEENS0_9allocatorIcEEEES7_EE, 
                       __ZN38pxrInternal_v0_21__aapl__pxrReserved__25ArJoinPackageRelativePathERKNSt3__16vectorINS0_12basic_stringIcNS0_11char_traitsIcEENS0_9allocatorIcEEEENS5_IS7_EEEE, 
                       __ZN38pxrInternal_v0_21__aapl__pxrReserved__25ArchGetNanosecondsPerTickEv, 
                       __ZN38pxrInternal_v0_21__aapl__pxrReserved__25ArchGetStackTraceCallbackEPNSt3__18functionIFNS0_12basic_stringIcNS0_11char_traitsIcEENS0_9allocatorIcEEEEmEEE, 
                       __ZN38pxrInternal_v0_21__aapl__pxrReserved__25ArchSetStackTraceCallbackERKNSt3__18functionIFNS0_12basic_stringIcNS0_11char_traitsIcEENS0_9allocatorIcEEEEmEEE, 
                       __ZN38pxrInternal_v0_21__aapl__pxrReserved__25Arch_DemangleFunctionNameEPNSt3__112basic_stringIcNS0_11char_traitsIcEENS0_9allocatorIcEEEE, 
                       __ZN38pxrInternal_v0_21__aapl__pxrReserved__25CameraUtilConformedWindowERKNS_10GfMatrix4dENS_29CameraUtilConformWindowPolicyEd, 
                       __ZN38pxrInternal_v0_21__aapl__pxrReserved__25CameraUtilConformedWindowERKNS_7GfVec2dENS_29CameraUtilConformWindowPolicyEd, 
                       __ZN38pxrInternal_v0_21__aapl__pxrReserved__25CameraUtilConformedWindowERKNS_7GfVec4dENS_29CameraUtilConformWindowPolicyEd, 
                       __ZN38pxrInternal_v0_21__aapl__pxrReserved__25CameraUtilConformedWindowERKNS_9GfRange2dENS_29CameraUtilConformWindowPolicyEd, 
                       __ZN38pxrInternal_v0_21__aapl__pxrReserved__25Hd_CompExtCompInputSource7ResolveEv, 
                       __ZN38pxrInternal_v0_21__aapl__pxrReserved__25Hd_CompExtCompInputSourceC1ERKNS_7TfTokenERKNSt3__110shared_ptrINS_23HdExtCompCpuComputationEEES3_, 
                       __ZN38pxrInternal_v0_21__aapl__pxrReserved__25Hd_CompExtCompInputSourceC2ERKNS_7TfTokenERKNSt3__110shared_ptrINS_23HdExtCompCpuComputationEEES3_, 
                       __ZN38pxrInternal_v0_21__aapl__pxrReserved__25Hd_FlatNormalsComputation7ResolveEv, 
                       __ZN38pxrInternal_v0_21__aapl__pxrReserved__25Hd_FlatNormalsComputationC1EPKNS_14HdMeshTopologyERKNSt3__110shared_ptrINS_14HdBufferSourceEEERKNS_7TfTokenEb, 
                       __ZN38pxrInternal_v0_21__aapl__pxrReserved__25Hd_FlatNormalsComputationC2EPKNS_14HdMeshTopologyERKNSt3__110shared_ptrINS_14HdBufferSourceEEERKNS_7TfTokenEb, 
                       __ZN38pxrInternal_v0_21__aapl__pxrReserved__25NdrFsHelpersDiscoverNodesERKNSt3__16vectorINS0_12basic_stringIcNS0_11char_traitsIcEENS0_9allocatorIcEEEENS5_IS7_EEEESB_bPKNS_25NdrDiscoveryPluginContextE, 
                       __ZN38pxrInternal_v0_21__aapl__pxrReserved__25PcpBuildPrimPropertyIndexERKNS_7SdfPathERKNS_8PcpCacheERKNS_12PcpPrimIndexEPNS_16PcpPropertyIndexEPNSt3__16vectorINSB_10shared_ptrINS_12PcpErrorBaseEEENSB_9allocatorISF_EEEE, 
                       __ZN38pxrInternal_v0_21__aapl__pxrReserved__25PcpClassifyNodeDependencyERKNS_10PcpNodeRefE, 
                       __ZN38pxrInternal_v0_21__aapl__pxrReserved__25PcpComposeSiteHasSymmetryERKNS_8TfRefPtrINS_13PcpLayerStackEEERKNS_7SdfPathE, 
                       __ZN38pxrInternal_v0_21__aapl__pxrReserved__25PcpComposeSiteSpecializesERKNS_8TfRefPtrINS_13PcpLayerStackEEERKNS_7SdfPathEPNSt3__16vectorIS5_NS8_9allocatorIS5_EEEE, 
                       __ZN38pxrInternal_v0_21__aapl__pxrReserved__25PcpComposeSiteSpecializesERKNS_8TfRefPtrINS_13PcpLayerStackEEERKNS_7SdfPathEPNSt3__16vectorIS5_NS8_9allocatorIS5_EEEEPNS9_INS_16PcpSourceArcInfoENSA_ISE_EEEE, 
                       __ZN38pxrInternal_v0_21__aapl__pxrReserved__25PcpComposeSiteVariantSetsERKNS_8TfRefPtrINS_13PcpLayerStackEEERKNS_7SdfPathEPNSt3__16vectorINS8_12basic_stringIcNS8_11char_traitsIcEENS8_9allocatorIcEEEENSD_ISF_EEEE, 
                       __ZN38pxrInternal_v0_21__aapl__pxrReserved__25PcpComposeSiteVariantSetsERKNS_8TfRefPtrINS_13PcpLayerStackEEERKNS_7SdfPathEPNSt3__16vectorINS8_12basic_stringIcNS8_11char_traitsIcEENS8_9allocatorIcEEEENSD_ISF_EEEEPNS9_INS_16PcpSourceArcInfoENSD_ISJ_EEEE, 
                       __ZN38pxrInternal_v0_21__aapl__pxrReserved__25PcpErrorInternalAssetPath3NewEv, 
                       __ZN38pxrInternal_v0_21__aapl__pxrReserved__25PcpErrorInternalAssetPathC1Ev, 
                       __ZN38pxrInternal_v0_21__aapl__pxrReserved__25PcpErrorInternalAssetPathC2Ev, 
                       __ZN38pxrInternal_v0_21__aapl__pxrReserved__25PcpErrorInternalAssetPathD0Ev, 
                       __ZN38pxrInternal_v0_21__aapl__pxrReserved__25PcpErrorInternalAssetPathD1Ev, 
                       __ZN38pxrInternal_v0_21__aapl__pxrReserved__25PcpErrorInternalAssetPathD2Ev, 
                       __ZN38pxrInternal_v0_21__aapl__pxrReserved__25PcpErrorInvalidTargetPath3NewEv, 
                       __ZN38pxrInternal_v0_21__aapl__pxrReserved__25PcpErrorInvalidTargetPathC1Ev, 
                       __ZN38pxrInternal_v0_21__aapl__pxrReserved__25PcpErrorInvalidTargetPathC2Ev, 
                       __ZN38pxrInternal_v0_21__aapl__pxrReserved__25PcpErrorInvalidTargetPathD0Ev, 
                       __ZN38pxrInternal_v0_21__aapl__pxrReserved__25PcpErrorInvalidTargetPathD1Ev, 
                       __ZN38pxrInternal_v0_21__aapl__pxrReserved__25PcpErrorInvalidTargetPathD2Ev, 
                       __ZN38pxrInternal_v0_21__aapl__pxrReserved__25SdfAttributeViewPredicateC1Ev, 
                       __ZN38pxrInternal_v0_21__aapl__pxrReserved__25SdfAttributeViewPredicateC2Ev, 
                       __ZN38pxrInternal_v0_21__aapl__pxrReserved__25SdfLayerStateDelegateBase10CreateSpecERKNS_7SdfPathENS_11SdfSpecTypeEb, 
                       __ZN38pxrInternal_v0_21__aapl__pxrReserved__25SdfLayerStateDelegateBase10DeleteSpecERKNS_7SdfPathEb, 
                       __ZN38pxrInternal_v0_21__aapl__pxrReserved__25SdfLayerStateDelegateBase13SetTimeSampleERKNS_7SdfPathEdRKNS_25SdfAbstractDataConstValueE, 
                       __ZN38pxrInternal_v0_21__aapl__pxrReserved__25SdfLayerStateDelegateBase13SetTimeSampleERKNS_7SdfPathEdRKNS_7VtValueE, 
                       __ZN38pxrInternal_v0_21__aapl__pxrReserved__25SdfLayerStateDelegateBase22SetFieldDictValueByKeyERKNS_7SdfPathERKNS_7TfTokenES6_RKNS_25SdfAbstractDataConstValueEPKNS_7VtValueE, 
                       __ZN38pxrInternal_v0_21__aapl__pxrReserved__25SdfLayerStateDelegateBase22SetFieldDictValueByKeyERKNS_7SdfPathERKNS_7TfTokenES6_RKNS_7VtValueEPS8_, 
                       __ZN38pxrInternal_v0_21__aapl__pxrReserved__25SdfLayerStateDelegateBase7IsDirtyEv, 
                       __ZN38pxrInternal_v0_21__aapl__pxrReserved__25SdfLayerStateDelegateBase8MoveSpecERKNS_7SdfPathES3_, 
                       __ZN38pxrInternal_v0_21__aapl__pxrReserved__25SdfLayerStateDelegateBase8PopChildERKNS_7SdfPathERKNS_7TfTokenES3_, 
                       __ZN38pxrInternal_v0_21__aapl__pxrReserved__25SdfLayerStateDelegateBase8PopChildERKNS_7SdfPathERKNS_7TfTokenES6_, 
                       __ZN38pxrInternal_v0_21__aapl__pxrReserved__25SdfLayerStateDelegateBase8SetFieldERKNS_7SdfPathERKNS_7TfTokenERKNS_25SdfAbstractDataConstValueEPKNS_7VtValueE, 
                       __ZN38pxrInternal_v0_21__aapl__pxrReserved__25SdfLayerStateDelegateBase8SetFieldERKNS_7SdfPathERKNS_7TfTokenERKNS_7VtValueEPS8_, 
                       __ZN38pxrInternal_v0_21__aapl__pxrReserved__25SdfLayerStateDelegateBase9PushChildERKNS_7SdfPathERKNS_7TfTokenES3_, 
                       __ZN38pxrInternal_v0_21__aapl__pxrReserved__25SdfLayerStateDelegateBase9PushChildERKNS_7SdfPathERKNS_7TfTokenES6_, 
                       __ZN38pxrInternal_v0_21__aapl__pxrReserved__25SdfLayerStateDelegateBase9_SetLayerERKNS_9TfWeakPtrINS_8SdfLayerEEE, 
                       __ZN38pxrInternal_v0_21__aapl__pxrReserved__25SdfLayerStateDelegateBaseC2Ev, 
                       __ZN38pxrInternal_v0_21__aapl__pxrReserved__25SdfLayerStateDelegateBaseD0Ev, 
                       __ZN38pxrInternal_v0_21__aapl__pxrReserved__25SdfLayerStateDelegateBaseD1Ev, 
                       __ZN38pxrInternal_v0_21__aapl__pxrReserved__25SdfLayerStateDelegateBaseD2Ev, 
                       __ZN38pxrInternal_v0_21__aapl__pxrReserved__25SdfTokens_StaticTokenTypeC1Ev, 
                       __ZN38pxrInternal_v0_21__aapl__pxrReserved__25SdfTokens_StaticTokenTypeC2Ev, 
                       __ZN38pxrInternal_v0_21__aapl__pxrReserved__25SdfTokens_StaticTokenTypeD1Ev, 
                       __ZN38pxrInternal_v0_21__aapl__pxrReserved__25SdfTokens_StaticTokenTypeD2Ev, 
                       __ZN38pxrInternal_v0_21__aapl__pxrReserved__25TfEscapeStringReplaceCharEPPKcPPc, 
                       __ZN38pxrInternal_v0_21__aapl__pxrReserved__25TfGetProgramNameForErrorsEv, 
                       __ZN38pxrInternal_v0_21__aapl__pxrReserved__25TfSetProgramNameForErrorsERKNSt3__112basic_stringIcNS0_11char_traitsIcEENS0_9allocatorIcEEEE, 
                       __ZN38pxrInternal_v0_21__aapl__pxrReserved__25Tf_ExportedStackedStorageINS_17SdfCleanupEnablerELb0EE5valueE, 
                       __ZN38pxrInternal_v0_21__aapl__pxrReserved__25Tf_ExportedStackedStorageINS_20UsdStageCacheContextELb1EE5valueE, 
                       __ZN38pxrInternal_v0_21__aapl__pxrReserved__25Tf_PostQuietlyErrorHelperERKNS_13TfCallContextERKNS_6TfEnumEPKcz, 
                       __ZN38pxrInternal_v0_21__aapl__pxrReserved__25Tf_PostQuietlyErrorHelperERKNS_13TfCallContextERKNS_6TfEnumERKN5boost3anyEPKcz, 
                       __ZN38pxrInternal_v0_21__aapl__pxrReserved__25Tf_PostQuietlyErrorHelperERKNS_13TfCallContextERKNS_6TfEnumERKN5boost3anyERKNSt3__112basic_stringIcNSA_11char_traitsIcEENSA_9allocatorIcEEEE, 
                       __ZN38pxrInternal_v0_21__aapl__pxrReserved__25Tf_PostQuietlyErrorHelperERKNS_13TfCallContextERKNS_6TfEnumERKNSt3__112basic_stringIcNS6_11char_traitsIcEENS6_9allocatorIcEEEE, 
                       __ZN38pxrInternal_v0_21__aapl__pxrReserved__25UsdRiPxrCookieLightFilter14_IsTypedSchemaEv, 
                       __ZN38pxrInternal_v0_21__aapl__pxrReserved__25UsdRiPxrCookieLightFilter16_GetStaticTfTypeEv, 
                       __ZN38pxrInternal_v0_21__aapl__pxrReserved__25UsdRiPxrCookieLightFilter23GetSchemaAttributeNamesEb, 
                       __ZN38pxrInternal_v0_21__aapl__pxrReserved__25UsdRiPxrCookieLightFilter3GetERKNS_9TfWeakPtrINS_8UsdStageEEERKNS_7SdfPathE, 
                       __ZN38pxrInternal_v0_21__aapl__pxrReserved__25UsdRiPxrCookieLightFilter6DefineERKNS_9TfWeakPtrINS_8UsdStageEEERKNS_7SdfPathE, 
                       __ZN38pxrInternal_v0_21__aapl__pxrReserved__25UsdRiPxrCookieLightFilterD0Ev, 
                       __ZN38pxrInternal_v0_21__aapl__pxrReserved__25UsdRiPxrCookieLightFilterD1Ev, 
                       __ZN38pxrInternal_v0_21__aapl__pxrReserved__25UsdRiPxrCookieLightFilterD2Ev, 
                       __ZN38pxrInternal_v0_21__aapl__pxrReserved__25UsdUtilsCopyLayerMetadataERKNS_9TfWeakPtrINS_8SdfLayerEEES4_bb, 
                       __ZN38pxrInternal_v0_21__aapl__pxrReserved__25UsdUtilsCreateCollectionsERKNSt3__16vectorINS0_4pairINS_7TfTokenENS0_3setINS_7SdfPathENS0_4lessIS5_EENS0_9allocatorIS5_EEEEEENS8_ISB_EEEERKNS_7UsdPrimEdjj, 
                       __ZN38pxrInternal_v0_21__aapl__pxrReserved__25UsdUtilsFlattenLayerStackERKNS_9TfWeakPtrINS_8UsdStageEEERKNSt3__112basic_stringIcNS5_11char_traitsIcEENS5_9allocatorIcEEEE, 
                       __ZN38pxrInternal_v0_21__aapl__pxrReserved__25UsdUtilsFlattenLayerStackERKNS_9TfWeakPtrINS_8UsdStageEEERKNSt3__18functionIFNS5_12basic_stringIcNS5_11char_traitsIcEENS5_9allocatorIcEEEERKNS0_INS_8SdfLayerEEERKSC_EEESI_, 
                       __ZN38pxrInternal_v0_21__aapl__pxrReserved__25UsdUtilsSparseValueWriter12SetAttributeERKNS_12UsdAttributeEPNS_7VtValueENS_11UsdTimeCodeE, 
                       __ZN38pxrInternal_v0_21__aapl__pxrReserved__25UsdUtilsSparseValueWriter12SetAttributeERKNS_12UsdAttributeERKNS_7VtValueENS_11UsdTimeCodeE, 
                       __ZN38pxrInternal_v0_21__aapl__pxrReserved__25UsdUtilsUsdStageStatsKeysE, 
                       __ZN38pxrInternal_v0_21__aapl__pxrReserved__25VtDictionaryOverRecursiveEPNS_12VtDictionaryERKS0_b, 
                       __ZN38pxrInternal_v0_21__aapl__pxrReserved__25VtDictionaryOverRecursiveERKNS_12VtDictionaryEPS0_b, 
                       __ZN38pxrInternal_v0_21__aapl__pxrReserved__25VtDictionaryOverRecursiveERKNS_12VtDictionaryES2_b, 
                       __ZN38pxrInternal_v0_21__aapl__pxrReserved__26GetUsdPrimDefaultPredicateEv, 
                       __ZN38pxrInternal_v0_21__aapl__pxrReserved__26Hd_SceneExtCompInputSource7ResolveEv, 
                       __ZN38pxrInternal_v0_21__aapl__pxrReserved__26Hd_SceneExtCompInputSourceC1ERKNS_7TfTokenERKNS_7VtValueE, 
                       __ZN38pxrInternal_v0_21__aapl__pxrReserved__26Hd_SceneExtCompInputSourceC2ERKNS_7TfTokenERKNS_7VtValueE, 
                       __ZN38pxrInternal_v0_21__aapl__pxrReserved__26KindTokens_StaticTokenTypeC1Ev, 
                       __ZN38pxrInternal_v0_21__aapl__pxrReserved__26KindTokens_StaticTokenTypeC2Ev, 
                       __ZN38pxrInternal_v0_21__aapl__pxrReserved__26KindTokens_StaticTokenTypeD1Ev, 
                       __ZN38pxrInternal_v0_21__aapl__pxrReserved__26KindTokens_StaticTokenTypeD2Ev, 
                       __ZN38pxrInternal_v0_21__aapl__pxrReserved__26PcpComposeSiteHasPrimSpecsERKNS_8TfRefPtrINS_13PcpLayerStackEEERKNS_7SdfPathE, 
                       __ZN38pxrInternal_v0_21__aapl__pxrReserved__26PcpDependencyFlagsToStringEj, 
                       __ZN38pxrInternal_v0_21__aapl__pxrReserved__26PcpErrorUnresolvedPrimPath3NewEv, 
                       __ZN38pxrInternal_v0_21__aapl__pxrReserved__26PcpErrorUnresolvedPrimPathC1Ev, 
                       __ZN38pxrInternal_v0_21__aapl__pxrReserved__26PcpErrorUnresolvedPrimPathC2Ev, 
                       __ZN38pxrInternal_v0_21__aapl__pxrReserved__26PcpErrorUnresolvedPrimPathD0Ev, 
                       __ZN38pxrInternal_v0_21__aapl__pxrReserved__26PcpErrorUnresolvedPrimPathD1Ev, 
                       __ZN38pxrInternal_v0_21__aapl__pxrReserved__26PcpErrorUnresolvedPrimPathD2Ev, 
                       __ZN38pxrInternal_v0_21__aapl__pxrReserved__26PcpLayerStackIdentifierStrC1ERKNS_23PcpLayerStackIdentifierE, 
                       __ZN38pxrInternal_v0_21__aapl__pxrReserved__26PcpLayerStackIdentifierStrC1ERKNSt3__112basic_stringIcNS1_11char_traitsIcEENS1_9allocatorIcEEEES9_RKNS_17ArResolverContextE, 
                       __ZN38pxrInternal_v0_21__aapl__pxrReserved__26PcpLayerStackIdentifierStrC2ERKNS_23PcpLayerStackIdentifierE, 
                       __ZN38pxrInternal_v0_21__aapl__pxrReserved__26PcpLayerStackIdentifierStrC2ERKNSt3__112basic_stringIcNS1_11char_traitsIcEENS1_9allocatorIcEEEES9_RKNS_17ArResolverContextE, 
                       __ZN38pxrInternal_v0_21__aapl__pxrReserved__26SdfAbstractDataSpecVisitorD0Ev, 
                       __ZN38pxrInternal_v0_21__aapl__pxrReserved__26SdfAbstractDataSpecVisitorD1Ev, 
                       __ZN38pxrInternal_v0_21__aapl__pxrReserved__26SdfAbstractDataSpecVisitorD2Ev, 
                       __ZN38pxrInternal_v0_21__aapl__pxrReserved__26SdfFindReferenceByIdentityERKNSt3__16vectorINS_12SdfReferenceENS0_9allocatorIS2_EEEERKS2_, 
                       __ZN38pxrInternal_v0_21__aapl__pxrReserved__26SdfGetReferenceEditorProxyERKNS_9SdfHandleINS_7SdfSpecEEERKNS_7TfTokenE, 
                       __ZN38pxrInternal_v0_21__aapl__pxrReserved__26SdfGetTypeForValueTypeNameERKNS_7TfTokenE, 
                       __ZN38pxrInternal_v0_21__aapl__pxrReserved__26UsdDeformersDeformableMesh14_IsTypedSchemaEv, 
                       __ZN38pxrInternal_v0_21__aapl__pxrReserved__26UsdDeformersDeformableMesh16_GetStaticTfTypeEv, 
                       __ZN38pxrInternal_v0_21__aapl__pxrReserved__26UsdDeformersDeformableMesh23GetSchemaAttributeNamesEb, 
                       __ZN38pxrInternal_v0_21__aapl__pxrReserved__26UsdDeformersDeformableMesh3GetERKNS_9TfWeakPtrINS_8UsdStageEEERKNS_7SdfPathE, 
                       __ZN38pxrInternal_v0_21__aapl__pxrReserved__26UsdDeformersDeformableMesh6DefineERKNS_9TfWeakPtrINS_8UsdStageEEERKNS_7SdfPathE, 
                       __ZN38pxrInternal_v0_21__aapl__pxrReserved__26UsdDeformersDeformableMeshD0Ev, 
                       __ZN38pxrInternal_v0_21__aapl__pxrReserved__26UsdDeformersDeformableMeshD1Ev, 
                       __ZN38pxrInternal_v0_21__aapl__pxrReserved__26UsdDeformersDeformableMeshD2Ev, 
                       __ZN38pxrInternal_v0_21__aapl__pxrReserved__26UsdPhysicsFilteredPairsAPI14_IsTypedSchemaEv, 
                       __ZN38pxrInternal_v0_21__aapl__pxrReserved__26UsdPhysicsFilteredPairsAPI16_GetStaticTfTypeEv, 
                       __ZN38pxrInternal_v0_21__aapl__pxrReserved__26UsdPhysicsFilteredPairsAPI23GetSchemaAttributeNamesEb, 
                       __ZN38pxrInternal_v0_21__aapl__pxrReserved__26UsdPhysicsFilteredPairsAPI3GetERKNS_9TfWeakPtrINS_8UsdStageEEERKNS_7SdfPathE, 
                       __ZN38pxrInternal_v0_21__aapl__pxrReserved__26UsdPhysicsFilteredPairsAPI5ApplyERKNS_7UsdPrimE, 
                       __ZN38pxrInternal_v0_21__aapl__pxrReserved__26UsdPhysicsFilteredPairsAPI8CanApplyERKNS_7UsdPrimEPNSt3__112basic_stringIcNS4_11char_traitsIcEENS4_9allocatorIcEEEE, 
                       __ZN38pxrInternal_v0_21__aapl__pxrReserved__26UsdPhysicsFilteredPairsAPID0Ev, 
                       __ZN38pxrInternal_v0_21__aapl__pxrReserved__26UsdPhysicsFilteredPairsAPID1Ev, 
                       __ZN38pxrInternal_v0_21__aapl__pxrReserved__26UsdPhysicsFilteredPairsAPID2Ev, 
                       __ZN38pxrInternal_v0_21__aapl__pxrReserved__26UsdPhysicsMeshCollisionAPI14_IsTypedSchemaEv, 
                       __ZN38pxrInternal_v0_21__aapl__pxrReserved__26UsdPhysicsMeshCollisionAPI16_GetStaticTfTypeEv, 
                       __ZN38pxrInternal_v0_21__aapl__pxrReserved__26UsdPhysicsMeshCollisionAPI23GetSchemaAttributeNamesEb, 
                       __ZN38pxrInternal_v0_21__aapl__pxrReserved__26UsdPhysicsMeshCollisionAPI3GetERKNS_9TfWeakPtrINS_8UsdStageEEERKNS_7SdfPathE, 
                       __ZN38pxrInternal_v0_21__aapl__pxrReserved__26UsdPhysicsMeshCollisionAPI5ApplyERKNS_7UsdPrimE, 
                       __ZN38pxrInternal_v0_21__aapl__pxrReserved__26UsdPhysicsMeshCollisionAPI8CanApplyERKNS_7UsdPrimEPNSt3__112basic_stringIcNS4_11char_traitsIcEENS4_9allocatorIcEEEE, 
                       __ZN38pxrInternal_v0_21__aapl__pxrReserved__26UsdPhysicsMeshCollisionAPID0Ev, 
                       __ZN38pxrInternal_v0_21__aapl__pxrReserved__26UsdPhysicsMeshCollisionAPID1Ev, 
                       __ZN38pxrInternal_v0_21__aapl__pxrReserved__26UsdPhysicsMeshCollisionAPID2Ev, 
                       __ZN38pxrInternal_v0_21__aapl__pxrReserved__26UsdPrimCompositionQueryArcC1ERKNS_10PcpNodeRefE, 
                       __ZN38pxrInternal_v0_21__aapl__pxrReserved__26UsdPrimCompositionQueryArcC2ERKNS_10PcpNodeRefE, 
                       __ZN38pxrInternal_v0_21__aapl__pxrReserved__26UsdRiPxrIntMultLightFilter14_IsTypedSchemaEv, 
                       __ZN38pxrInternal_v0_21__aapl__pxrReserved__26UsdRiPxrIntMultLightFilter16_GetStaticTfTypeEv, 
                       __ZN38pxrInternal_v0_21__aapl__pxrReserved__26UsdRiPxrIntMultLightFilter23GetSchemaAttributeNamesEb, 
                       __ZN38pxrInternal_v0_21__aapl__pxrReserved__26UsdRiPxrIntMultLightFilter3GetERKNS_9TfWeakPtrINS_8UsdStageEEERKNS_7SdfPathE, 
                       __ZN38pxrInternal_v0_21__aapl__pxrReserved__26UsdRiPxrIntMultLightFilter6DefineERKNS_9TfWeakPtrINS_8UsdStageEEERKNS_7SdfPathE, 
                       __ZN38pxrInternal_v0_21__aapl__pxrReserved__26UsdRiPxrIntMultLightFilterD0Ev, 
                       __ZN38pxrInternal_v0_21__aapl__pxrReserved__26UsdRiPxrIntMultLightFilterD1Ev, 
                       __ZN38pxrInternal_v0_21__aapl__pxrReserved__26UsdRiPxrIntMultLightFilterD2Ev, 
                       __ZN38pxrInternal_v0_21__aapl__pxrReserved__26UsdShadeMaterialBindingAPI13DirectBindingC1ERKNS_15UsdRelationshipE, 
                       __ZN38pxrInternal_v0_21__aapl__pxrReserved__26UsdShadeMaterialBindingAPI13DirectBindingC2ERKNS_15UsdRelationshipE, 
                       __ZN38pxrInternal_v0_21__aapl__pxrReserved__26UsdShadeMaterialBindingAPI14BindingsAtPrimC1ERKNS_7UsdPrimERKNS_7TfTokenE, 
                       __ZN38pxrInternal_v0_21__aapl__pxrReserved__26UsdShadeMaterialBindingAPI14BindingsAtPrimC2ERKNS_7UsdPrimERKNS_7TfTokenE, 
                       __ZN38pxrInternal_v0_21__aapl__pxrReserved__26UsdShadeMaterialBindingAPI14_IsTypedSchemaEv, 
                       __ZN38pxrInternal_v0_21__aapl__pxrReserved__26UsdShadeMaterialBindingAPI16_GetStaticTfTypeEv, 
                       __ZN38pxrInternal_v0_21__aapl__pxrReserved__26UsdShadeMaterialBindingAPI17CollectionBindingC1ERKNS_15UsdRelationshipE, 
                       __ZN38pxrInternal_v0_21__aapl__pxrReserved__26UsdShadeMaterialBindingAPI17CollectionBindingC2ERKNS_15UsdRelationshipE, 
                       __ZN38pxrInternal_v0_21__aapl__pxrReserved__26UsdShadeMaterialBindingAPI21ComputeBoundMaterialsERKNSt3__16vectorINS_7UsdPrimENS1_9allocatorIS3_EEEERKNS_7TfTokenEPNS2_INS_15UsdRelationshipENS4_ISC_EEEE, 
                       __ZN38pxrInternal_v0_21__aapl__pxrReserved__26UsdShadeMaterialBindingAPI22CanContainPropertyNameERKNS_7TfTokenE, 
                       __ZN38pxrInternal_v0_21__aapl__pxrReserved__26UsdShadeMaterialBindingAPI22GetMaterialBindSubsetsEv, 
                       __ZN38pxrInternal_v0_21__aapl__pxrReserved__26UsdShadeMaterialBindingAPI23GetSchemaAttributeNamesEb, 
                       __ZN38pxrInternal_v0_21__aapl__pxrReserved__26UsdShadeMaterialBindingAPI24CreateMaterialBindSubsetERKNS_7TfTokenERKNS_7VtArrayIiEES3_, 
                       __ZN38pxrInternal_v0_21__aapl__pxrReserved__26UsdShadeMaterialBindingAPI26GetMaterialBindingStrengthERKNS_15UsdRelationshipE, 
                       __ZN38pxrInternal_v0_21__aapl__pxrReserved__26UsdShadeMaterialBindingAPI26SetMaterialBindingStrengthERKNS_15UsdRelationshipERKNS_7TfTokenE, 
                       __ZN38pxrInternal_v0_21__aapl__pxrReserved__26UsdShadeMaterialBindingAPI32GetMaterialBindSubsetsFamilyTypeEv, 
                       __ZN38pxrInternal_v0_21__aapl__pxrReserved__26UsdShadeMaterialBindingAPI32SetMaterialBindSubsetsFamilyTypeERKNS_7TfTokenE, 
                       __ZN38pxrInternal_v0_21__aapl__pxrReserved__26UsdShadeMaterialBindingAPI3GetERKNS_9TfWeakPtrINS_8UsdStageEEERKNS_7SdfPathE, 
                       __ZN38pxrInternal_v0_21__aapl__pxrReserved__26UsdShadeMaterialBindingAPI5ApplyERKNS_7UsdPrimE, 
                       __ZN38pxrInternal_v0_21__aapl__pxrReserved__26UsdShadeMaterialBindingAPI8CanApplyERKNS_7UsdPrimEPNSt3__112basic_stringIcNS4_11char_traitsIcEENS4_9allocatorIcEEEE, 
                       __ZN38pxrInternal_v0_21__aapl__pxrReserved__26UsdShadeMaterialBindingAPID0Ev, 
                       __ZN38pxrInternal_v0_21__aapl__pxrReserved__26UsdShadeMaterialBindingAPID1Ev, 
                       __ZN38pxrInternal_v0_21__aapl__pxrReserved__26UsdShadeMaterialBindingAPID2Ev, 
                       __ZN38pxrInternal_v0_21__aapl__pxrReserved__26UsdSkelComputeJointsExtentEPKNS_10GfMatrix4dEmPNS_7VtArrayINS_7GfVec3fEEEfS2_, 
                       __ZN38pxrInternal_v0_21__aapl__pxrReserved__26UsdSkelComputeJointsExtentERKNS_7VtArrayINS_10GfMatrix4dEEEPNS0_INS_7GfVec3fEEEfPKS1_, 
                       __ZN38pxrInternal_v0_21__aapl__pxrReserved__26UsdSkelDecomposeTransformsENS_6TfSpanIKNS_10GfMatrix4dEEENS0_INS_7GfVec3fEEENS0_INS_7GfQuatfEEENS0_INS_7GfVec3hEEE, 
                       __ZN38pxrInternal_v0_21__aapl__pxrReserved__26UsdSkelDecomposeTransformsENS_6TfSpanIKNS_10GfMatrix4fEEENS0_INS_7GfVec3fEEENS0_INS_7GfQuatfEEENS0_INS_7GfVec3hEEE, 
                       __ZN38pxrInternal_v0_21__aapl__pxrReserved__26UsdSkelDecomposeTransformsEPKNS_10GfMatrix4dEPNS_7GfVec3fEPNS_7GfQuatfEPNS_7GfVec3hEm, 
                       __ZN38pxrInternal_v0_21__aapl__pxrReserved__26UsdSkelDecomposeTransformsERKNS_7VtArrayINS_10GfMatrix4dEEEPNS0_INS_7GfVec3fEEEPNS0_INS_7GfQuatfEEEPNS0_INS_7GfVec3hEEE, 
                       __ZN38pxrInternal_v0_21__aapl__pxrReserved__26UsdSkelIsSkelAnimationPrimERKNS_7UsdPrimE, 
                       __ZN38pxrInternal_v0_21__aapl__pxrReserved__26Work_GetDetachedDispatcherEv, 
                       __ZN38pxrInternal_v0_21__aapl__pxrReserved__27ArchGetPrettierFunctionNameERKNSt3__112basic_stringIcNS0_11char_traitsIcEENS0_9allocatorIcEEEES8_, 
                       __ZN38pxrInternal_v0_21__aapl__pxrReserved__27ArchGetProgramInfoForErrorsERKNSt3__112basic_stringIcNS0_11char_traitsIcEENS0_9allocatorIcEEEE, 
                       __ZN38pxrInternal_v0_21__aapl__pxrReserved__27ArchGetProgramNameForErrorsEv, 
                       __ZN38pxrInternal_v0_21__aapl__pxrReserved__27ArchLibraryGetSymbolAddressEPvPKc, 
                       __ZN38pxrInternal_v0_21__aapl__pxrReserved__27ArchSetProgramInfoForErrorsERKNSt3__112basic_stringIcNS0_11char_traitsIcEENS0_9allocatorIcEEEES8_, 
                       __ZN38pxrInternal_v0_21__aapl__pxrReserved__27ArchSetProgramNameForErrorsEPKc, 
                       __ZN38pxrInternal_v0_21__aapl__pxrReserved__27GetUsdPrimAllPrimsPredicateEv, 
                       __ZN38pxrInternal_v0_21__aapl__pxrReserved__27HdAovTokens_StaticTokenTypeC1Ev, 
                       __ZN38pxrInternal_v0_21__aapl__pxrReserved__27HdAovTokens_StaticTokenTypeC2Ev, 
                       __ZN38pxrInternal_v0_21__aapl__pxrReserved__27HdAovTokens_StaticTokenTypeD1Ev, 
                       __ZN38pxrInternal_v0_21__aapl__pxrReserved__27HdAovTokens_StaticTokenTypeD2Ev, 
                       __ZN38pxrInternal_v0_21__aapl__pxrReserved__27HdBasisCurvesReprDescTokensE, 
                       __ZN38pxrInternal_v0_21__aapl__pxrReserved__27HdBufferArrayRangeContainer3SetEiRKNSt3__110shared_ptrINS_18HdBufferArrayRangeEEE, 
                       __ZN38pxrInternal_v0_21__aapl__pxrReserved__27HdBufferArrayRangeContainer6ResizeEi, 
                       __ZN38pxrInternal_v0_21__aapl__pxrReserved__27Hd_SmoothNormalsComputation7ResolveEv, 
                       __ZN38pxrInternal_v0_21__aapl__pxrReserved__27Hd_SmoothNormalsComputationC1EPKNS_18Hd_VertexAdjacencyERKNSt3__110shared_ptrINS_14HdBufferSourceEEERKNS_7TfTokenES9_b, 
                       __ZN38pxrInternal_v0_21__aapl__pxrReserved__27Hd_SmoothNormalsComputationC2EPKNS_18Hd_VertexAdjacencyERKNSt3__110shared_ptrINS_14HdBufferSourceEEERKNS_7TfTokenES9_b, 
                       __ZN38pxrInternal_v0_21__aapl__pxrReserved__27PcpBuildFilteredTargetIndexERKNS_7PcpSiteERKNS_16PcpPropertyIndexENS_11SdfSpecTypeEbRKNS_9SdfHandleINS_7SdfSpecEEEbPNS_8PcpCacheEPNS_14PcpTargetIndexEPNSt3__16vectorINS_7SdfPathENSG_9allocatorISI_EEEEPNSH_INSG_10shared_ptrINS_12PcpErrorBaseEEENSJ_ISP_EEEE, 
                       __ZN38pxrInternal_v0_21__aapl__pxrReserved__27PcpDynamicFileFormatContextC1ERKNS_10PcpNodeRefEPNS_23PcpPrimIndex_StackFrameEPNSt3__13setINS_7TfTokenENS_28TfTokenFastArbitraryLessThanENS6_9allocatorIS8_EEEE, 
                       __ZN38pxrInternal_v0_21__aapl__pxrReserved__27PcpDynamicFileFormatContextC2ERKNS_10PcpNodeRefEPNS_23PcpPrimIndex_StackFrameEPNSt3__13setINS_7TfTokenENS_28TfTokenFastArbitraryLessThanENS6_9allocatorIS8_EEEE, 
                       __ZN38pxrInternal_v0_21__aapl__pxrReserved__27PcpErrorArcPermissionDenied3NewEv, 
                       __ZN38pxrInternal_v0_21__aapl__pxrReserved__27PcpErrorArcPermissionDeniedC1Ev, 
                       __ZN38pxrInternal_v0_21__aapl__pxrReserved__27PcpErrorArcPermissionDeniedC2Ev, 
                       __ZN38pxrInternal_v0_21__aapl__pxrReserved__27PcpErrorArcPermissionDeniedD0Ev, 
                       __ZN38pxrInternal_v0_21__aapl__pxrReserved__27PcpErrorArcPermissionDeniedD1Ev, 
                       __ZN38pxrInternal_v0_21__aapl__pxrReserved__27PcpErrorArcPermissionDeniedD2Ev, 
                       __ZN38pxrInternal_v0_21__aapl__pxrReserved__27PcpErrorInvalidSublayerPath3NewEv, 
                       __ZN38pxrInternal_v0_21__aapl__pxrReserved__27PcpErrorInvalidSublayerPathC1Ev, 
                       __ZN38pxrInternal_v0_21__aapl__pxrReserved__27PcpErrorInvalidSublayerPathC2Ev, 
                       __ZN38pxrInternal_v0_21__aapl__pxrReserved__27PcpErrorInvalidSublayerPathD0Ev, 
                       __ZN38pxrInternal_v0_21__aapl__pxrReserved__27PcpErrorInvalidSublayerPathD1Ev, 
                       __ZN38pxrInternal_v0_21__aapl__pxrReserved__27PcpErrorInvalidSublayerPathD2Ev, 
                       __ZN38pxrInternal_v0_21__aapl__pxrReserved__27PcpIdentifierFormatBaseNameERNSt3__113basic_ostreamIcNS0_11char_traitsIcEEEE, 
                       __ZN38pxrInternal_v0_21__aapl__pxrReserved__27PcpIdentifierFormatRealPathERNSt3__113basic_ostreamIcNS0_11char_traitsIcEEEE, 
                       __ZN38pxrInternal_v0_21__aapl__pxrReserved__27PcpNodeIntroducesDependencyERKNS_10PcpNodeRefE, 
                       __ZN38pxrInternal_v0_21__aapl__pxrReserved__27PcpNodeRef_ChildrenIterator9incrementEv, 
                       __ZN38pxrInternal_v0_21__aapl__pxrReserved__27PcpNodeRef_ChildrenIteratorC1ERKNS_10PcpNodeRefEb, 
                       __ZN38pxrInternal_v0_21__aapl__pxrReserved__27PcpNodeRef_ChildrenIteratorC1Ev, 
                       __ZN38pxrInternal_v0_21__aapl__pxrReserved__27PcpNodeRef_ChildrenIteratorC2ERKNS_10PcpNodeRefEb, 
                       __ZN38pxrInternal_v0_21__aapl__pxrReserved__27PcpNodeRef_ChildrenIteratorC2Ev, 
                       __ZN38pxrInternal_v0_21__aapl__pxrReserved__27PxOsdMeshTopologyValidation14_ValidateHolesERKNS_17PxOsdMeshTopologyE, 
                       __ZN38pxrInternal_v0_21__aapl__pxrReserved__27PxOsdMeshTopologyValidation15_ValidateSchemeERKNS_17PxOsdMeshTopologyE, 
                       __ZN38pxrInternal_v0_21__aapl__pxrReserved__27PxOsdMeshTopologyValidation20_ValidateOrientationERKNS_17PxOsdMeshTopologyE, 
                       __ZN38pxrInternal_v0_21__aapl__pxrReserved__27PxOsdMeshTopologyValidation21_ValidateCreaseMethodERKNS_17PxOsdMeshTopologyE, 
                       __ZN38pxrInternal_v0_21__aapl__pxrReserved__27PxOsdMeshTopologyValidation25_ValidateFaceVertexCountsERKNS_17PxOsdMeshTopologyE, 
                       __ZN38pxrInternal_v0_21__aapl__pxrReserved__27PxOsdMeshTopologyValidation26_ValidateCreasesAndCornersERKNS_17PxOsdMeshTopologyE, 
                       __ZN38pxrInternal_v0_21__aapl__pxrReserved__27PxOsdMeshTopologyValidation26_ValidateFaceVertexIndicesERKNS_17PxOsdMeshTopologyE, 
                       __ZN38pxrInternal_v0_21__aapl__pxrReserved__27PxOsdMeshTopologyValidation28_ValidateTriangleSubdivisionERKNS_17PxOsdMeshTopologyE, 
                       __ZN38pxrInternal_v0_21__aapl__pxrReserved__27PxOsdMeshTopologyValidation28_ValidateVertexInterpolationERKNS_17PxOsdMeshTopologyE, 
                       __ZN38pxrInternal_v0_21__aapl__pxrReserved__27PxOsdMeshTopologyValidation33_ValidateFaceVaryingInterpolationERKNS_17PxOsdMeshTopologyE, 
                       __ZN38pxrInternal_v0_21__aapl__pxrReserved__27PxOsdMeshTopologyValidationC1ERKNS_17PxOsdMeshTopologyE, 
                       __ZN38pxrInternal_v0_21__aapl__pxrReserved__27PxOsdMeshTopologyValidationC2ERKNS_17PxOsdMeshTopologyE, 
                       __ZN38pxrInternal_v0_21__aapl__pxrReserved__27SdfGetValueTypeNameForValueERKNS_7VtValueE, 
                       __ZN38pxrInternal_v0_21__aapl__pxrReserved__27SdfSimpleLayerStateDelegate11_OnMoveSpecERKNS_7SdfPathES3_, 
                       __ZN38pxrInternal_v0_21__aapl__pxrReserved__27SdfSimpleLayerStateDelegate11_OnPopChildERKNS_7SdfPathERKNS_7TfTokenES3_, 
                       __ZN38pxrInternal_v0_21__aapl__pxrReserved__27SdfSimpleLayerStateDelegate11_OnPopChildERKNS_7SdfPathERKNS_7TfTokenES6_, 
                       __ZN38pxrInternal_v0_21__aapl__pxrReserved__27SdfSimpleLayerStateDelegate11_OnSetFieldERKNS_7SdfPathERKNS_7TfTokenERKNS_25SdfAbstractDataConstValueE, 
                       __ZN38pxrInternal_v0_21__aapl__pxrReserved__27SdfSimpleLayerStateDelegate11_OnSetFieldERKNS_7SdfPathERKNS_7TfTokenERKNS_7VtValueE, 
                       __ZN38pxrInternal_v0_21__aapl__pxrReserved__27SdfSimpleLayerStateDelegate11_OnSetLayerERKNS_9TfWeakPtrINS_8SdfLayerEEE, 
                       __ZN38pxrInternal_v0_21__aapl__pxrReserved__27SdfSimpleLayerStateDelegate12_OnPushChildERKNS_7SdfPathERKNS_7TfTokenES3_, 
                       __ZN38pxrInternal_v0_21__aapl__pxrReserved__27SdfSimpleLayerStateDelegate12_OnPushChildERKNS_7SdfPathERKNS_7TfTokenES6_, 
                       __ZN38pxrInternal_v0_21__aapl__pxrReserved__27SdfSimpleLayerStateDelegate13_OnCreateSpecERKNS_7SdfPathENS_11SdfSpecTypeEb, 
                       __ZN38pxrInternal_v0_21__aapl__pxrReserved__27SdfSimpleLayerStateDelegate13_OnDeleteSpecERKNS_7SdfPathEb, 
                       __ZN38pxrInternal_v0_21__aapl__pxrReserved__27SdfSimpleLayerStateDelegate16_OnSetTimeSampleERKNS_7SdfPathEdRKNS_25SdfAbstractDataConstValueE, 
                       __ZN38pxrInternal_v0_21__aapl__pxrReserved__27SdfSimpleLayerStateDelegate16_OnSetTimeSampleERKNS_7SdfPathEdRKNS_7VtValueE, 
                       __ZN38pxrInternal_v0_21__aapl__pxrReserved__27SdfSimpleLayerStateDelegate24_MarkCurrentStateAsCleanEv, 
                       __ZN38pxrInternal_v0_21__aapl__pxrReserved__27SdfSimpleLayerStateDelegate24_MarkCurrentStateAsDirtyEv, 
                       __ZN38pxrInternal_v0_21__aapl__pxrReserved__27SdfSimpleLayerStateDelegate25_OnSetFieldDictValueByKeyERKNS_7SdfPathERKNS_7TfTokenES6_RKNS_25SdfAbstractDataConstValueE, 
                       __ZN38pxrInternal_v0_21__aapl__pxrReserved__27SdfSimpleLayerStateDelegate25_OnSetFieldDictValueByKeyERKNS_7SdfPathERKNS_7TfTokenES6_RKNS_7VtValueE, 
                       __ZN38pxrInternal_v0_21__aapl__pxrReserved__27SdfSimpleLayerStateDelegate3NewEv, 
                       __ZN38pxrInternal_v0_21__aapl__pxrReserved__27SdfSimpleLayerStateDelegate8_IsDirtyEv, 
                       __ZN38pxrInternal_v0_21__aapl__pxrReserved__27SdfSimpleLayerStateDelegateC1Ev, 
                       __ZN38pxrInternal_v0_21__aapl__pxrReserved__27SdfSimpleLayerStateDelegateC2Ev, 
                       __ZN38pxrInternal_v0_21__aapl__pxrReserved__27SdrNodeRole_StaticTokenTypeC1Ev, 
                       __ZN38pxrInternal_v0_21__aapl__pxrReserved__27SdrNodeRole_StaticTokenTypeC2Ev, 
                       __ZN38pxrInternal_v0_21__aapl__pxrReserved__27SdrNodeRole_StaticTokenTypeD1Ev, 
                       __ZN38pxrInternal_v0_21__aapl__pxrReserved__27SdrNodeRole_StaticTokenTypeD2Ev, 
                       __ZN38pxrInternal_v0_21__aapl__pxrReserved__27TfDebugSymbolsChangedNoticeD0Ev, 
                       __ZN38pxrInternal_v0_21__aapl__pxrReserved__27TfDebugSymbolsChangedNoticeD1Ev, 
                       __ZN38pxrInternal_v0_21__aapl__pxrReserved__27TfDebugSymbolsChangedNoticeD2Ev, 
                       __ZN38pxrInternal_v0_21__aapl__pxrReserved__27TraceReporterDataSourceBaseD0Ev, 
                       __ZN38pxrInternal_v0_21__aapl__pxrReserved__27TraceReporterDataSourceBaseD1Ev, 
                       __ZN38pxrInternal_v0_21__aapl__pxrReserved__27TraceReporterDataSourceBaseD2Ev, 
                       __ZN38pxrInternal_v0_21__aapl__pxrReserved__27UsdDeformersSkinDeformerAPI14_IsTypedSchemaEv, 
                       __ZN38pxrInternal_v0_21__aapl__pxrReserved__27UsdDeformersSkinDeformerAPI16_GetStaticTfTypeEv, 
                       __ZN38pxrInternal_v0_21__aapl__pxrReserved__27UsdDeformersSkinDeformerAPI23GetSchemaAttributeNamesEb, 
                       __ZN38pxrInternal_v0_21__aapl__pxrReserved__27UsdDeformersSkinDeformerAPI3GetERKNS_9TfWeakPtrINS_8UsdStageEEERKNS_7SdfPathE, 
                       __ZN38pxrInternal_v0_21__aapl__pxrReserved__27UsdDeformersSkinDeformerAPI5ApplyERKNS_7UsdPrimE, 
                       __ZN38pxrInternal_v0_21__aapl__pxrReserved__27UsdDeformersSkinDeformerAPI8CanApplyERKNS_7UsdPrimEPNSt3__112basic_stringIcNS4_11char_traitsIcEENS4_9allocatorIcEEEE, 
                       __ZN38pxrInternal_v0_21__aapl__pxrReserved__27UsdDeformersSkinDeformerAPID0Ev, 
                       __ZN38pxrInternal_v0_21__aapl__pxrReserved__27UsdDeformersSkinDeformerAPID1Ev, 
                       __ZN38pxrInternal_v0_21__aapl__pxrReserved__27UsdDeformersSkinDeformerAPID2Ev, 
                       __ZN38pxrInternal_v0_21__aapl__pxrReserved__27UsdSkelInterleaveInfluencesERKNS_6TfSpanIKiEERKNS0_IKfEENS0_INS_7GfVec2fEEE, 
                       __ZN38pxrInternal_v0_21__aapl__pxrReserved__27UsdSkelPackedJointAnimation14_IsTypedSchemaEv, 
                       __ZN38pxrInternal_v0_21__aapl__pxrReserved__27UsdSkelPackedJointAnimation16_GetStaticTfTypeEv, 
                       __ZN38pxrInternal_v0_21__aapl__pxrReserved__27UsdSkelPackedJointAnimation23GetSchemaAttributeNamesEb, 
                       __ZN38pxrInternal_v0_21__aapl__pxrReserved__27UsdSkelPackedJointAnimation3GetERKNS_9TfWeakPtrINS_8UsdStageEEERKNS_7SdfPathE, 
                       __ZN38pxrInternal_v0_21__aapl__pxrReserved__27UsdSkelPackedJointAnimation6DefineERKNS_9TfWeakPtrINS_8UsdStageEEERKNS_7SdfPathE, 
                       __ZN38pxrInternal_v0_21__aapl__pxrReserved__27UsdSkelPackedJointAnimationD0Ev, 
                       __ZN38pxrInternal_v0_21__aapl__pxrReserved__27UsdSkelPackedJointAnimationD1Ev, 
                       __ZN38pxrInternal_v0_21__aapl__pxrReserved__27UsdSkelPackedJointAnimationD2Ev, 
                       __ZN38pxrInternal_v0_21__aapl__pxrReserved__27UsdUtilsGetPrimaryUVSetNameEv, 
                       __ZN38pxrInternal_v0_21__aapl__pxrReserved__27UsdUtilsStitchClipsManifestERKNS_9TfWeakPtrINS_8SdfLayerEEES4_RKNSt3__16vectorINS5_12basic_stringIcNS5_11char_traitsIcEENS5_9allocatorIcEEEENSA_ISC_EEEERKNS_7SdfPathE, 
                       __ZN38pxrInternal_v0_21__aapl__pxrReserved__27UsdUtilsStitchClipsTemplateERKNS_9TfWeakPtrINS_8SdfLayerEEES4_S4_RKNS_7SdfPathERKNSt3__112basic_stringIcNS8_11char_traitsIcEENS8_9allocatorIcEEEEddddbRKNS_7TfTokenE, 
                       __ZN38pxrInternal_v0_21__aapl__pxrReserved__27UsdUtilsStitchClipsTopologyERKNS_9TfWeakPtrINS_8SdfLayerEEERKNSt3__16vectorINS5_12basic_stringIcNS5_11char_traitsIcEENS5_9allocatorIcEEEENSA_ISC_EEEE, 
                       __ZN38pxrInternal_v0_21__aapl__pxrReserved__27UsdUtilsTimeCodeRangeTokensE, 
                       __ZN38pxrInternal_v0_21__aapl__pxrReserved__28AaplUsdInteractiveTokensTypeC1Ev, 
                       __ZN38pxrInternal_v0_21__aapl__pxrReserved__28AaplUsdInteractiveTokensTypeC2Ev, 
                       __ZN38pxrInternal_v0_21__aapl__pxrReserved__28ArchCommitVirtualMemoryRangeEPvm, 
                       __ZN38pxrInternal_v0_21__aapl__pxrReserved__28ArchSetExtraLogInfoForErrorsERKNSt3__112basic_stringIcNS0_11char_traitsIcEENS0_9allocatorIcEEEEPKNS0_6vectorIS6_NS4_IS6_EEEE, 
                       __ZN38pxrInternal_v0_21__aapl__pxrReserved__28HdExtCompPrimvarBufferSource7ResolveEv, 
                       __ZN38pxrInternal_v0_21__aapl__pxrReserved__28HdExtCompPrimvarBufferSourceC1ERKNS_7TfTokenERKNSt3__110shared_ptrINS_23HdExtCompCpuComputationEEES3_RKNS_11HdTupleTypeE, 
                       __ZN38pxrInternal_v0_21__aapl__pxrReserved__28HdExtCompPrimvarBufferSourceC2ERKNS_7TfTokenERKNSt3__110shared_ptrINS_23HdExtCompCpuComputationEEES3_RKNS_11HdTupleTypeE, 
                       __ZN38pxrInternal_v0_21__aapl__pxrReserved__28HdPerfTokens_StaticTokenTypeC1Ev, 
                       __ZN38pxrInternal_v0_21__aapl__pxrReserved__28HdPerfTokens_StaticTokenTypeC2Ev, 
                       __ZN38pxrInternal_v0_21__aapl__pxrReserved__28HdPerfTokens_StaticTokenTypeD1Ev, 
                       __ZN38pxrInternal_v0_21__aapl__pxrReserved__28HdPerfTokens_StaticTokenTypeD2Ev, 
                       __ZN38pxrInternal_v0_21__aapl__pxrReserved__28HdReprTokens_StaticTokenTypeC1Ev, 
                       __ZN38pxrInternal_v0_21__aapl__pxrReserved__28HdReprTokens_StaticTokenTypeC2Ev, 
                       __ZN38pxrInternal_v0_21__aapl__pxrReserved__28HdReprTokens_StaticTokenTypeD1Ev, 
                       __ZN38pxrInternal_v0_21__aapl__pxrReserved__28HdReprTokens_StaticTokenTypeD2Ev, 
                       __ZN38pxrInternal_v0_21__aapl__pxrReserved__28PcpErrorInvalidAssetPathBaseC2ENS_6TfEnumE, 
                       __ZN38pxrInternal_v0_21__aapl__pxrReserved__28PcpErrorInvalidAssetPathBaseD0Ev, 
                       __ZN38pxrInternal_v0_21__aapl__pxrReserved__28PcpErrorInvalidAssetPathBaseD1Ev, 
                       __ZN38pxrInternal_v0_21__aapl__pxrReserved__28PcpErrorInvalidAssetPathBaseD2Ev, 
                       __ZN38pxrInternal_v0_21__aapl__pxrReserved__28PcpErrorPrimPermissionDenied3NewEv, 
                       __ZN38pxrInternal_v0_21__aapl__pxrReserved__28PcpErrorPrimPermissionDeniedC1Ev, 
                       __ZN38pxrInternal_v0_21__aapl__pxrReserved__28PcpErrorPrimPermissionDeniedC2Ev, 
                       __ZN38pxrInternal_v0_21__aapl__pxrReserved__28PcpErrorPrimPermissionDeniedD0Ev, 
                       __ZN38pxrInternal_v0_21__aapl__pxrReserved__28PcpErrorPrimPermissionDeniedD1Ev, 
                       __ZN38pxrInternal_v0_21__aapl__pxrReserved__28PcpErrorPrimPermissionDeniedD2Ev, 
                       __ZN38pxrInternal_v0_21__aapl__pxrReserved__28SdfFieldKeys_StaticTokenTypeC1Ev, 
                       __ZN38pxrInternal_v0_21__aapl__pxrReserved__28SdfFieldKeys_StaticTokenTypeC2Ev, 
                       __ZN38pxrInternal_v0_21__aapl__pxrReserved__28SdfFieldKeys_StaticTokenTypeD1Ev, 
                       __ZN38pxrInternal_v0_21__aapl__pxrReserved__28SdfFieldKeys_StaticTokenTypeD2Ev, 
                       __ZN38pxrInternal_v0_21__aapl__pxrReserved__28SdfRelationshipViewPredicateC1Ev, 
                       __ZN38pxrInternal_v0_21__aapl__pxrReserved__28SdfRelationshipViewPredicateC2Ev, 
                       __ZN38pxrInternal_v0_21__aapl__pxrReserved__28Sdf_CanCastToTypeCheckSchemaERKNS_7SdfSpecERKSt9type_info, 
                       __ZN38pxrInternal_v0_21__aapl__pxrReserved__28Sdf_ClearPathTableInParallelEPPvmPFvS0_E, 
                       __ZN38pxrInternal_v0_21__aapl__pxrReserved__28Sdf_InitializeValueTypeNamesEv, 
                       __ZN38pxrInternal_v0_21__aapl__pxrReserved__28Sdf_PrimVariantSelectionNodeD1Ev, 
                       __ZN38pxrInternal_v0_21__aapl__pxrReserved__28Sdf_PrimVariantSelectionNodeD2Ev, 
                       __ZN38pxrInternal_v0_21__aapl__pxrReserved__28UsdCollectionMembershipQueryC1EONSt3__113unordered_mapINS_7SdfPathENS_7TfTokenENS3_4HashENS1_8equal_toIS3_EENS1_9allocatorINS1_4pairIKS3_S4_EEEEEEONS1_3setIS3_NS1_4lessIS3_EENS8_IS3_EEEE, 
                       __ZN38pxrInternal_v0_21__aapl__pxrReserved__28UsdCollectionMembershipQueryC1ERKNSt3__113unordered_mapINS_7SdfPathENS_7TfTokenENS3_4HashENS1_8equal_toIS3_EENS1_9allocatorINS1_4pairIKS3_S4_EEEEEERKNS1_3setIS3_NS1_4lessIS3_EENS8_IS3_EEEE, 
                       __ZN38pxrInternal_v0_21__aapl__pxrReserved__28UsdCollectionMembershipQueryC2EONSt3__113unordered_mapINS_7SdfPathENS_7TfTokenENS3_4HashENS1_8equal_toIS3_EENS1_9allocatorINS1_4pairIKS3_S4_EEEEEEONS1_3setIS3_NS1_4lessIS3_EENS8_IS3_EEEE, 
                       __ZN38pxrInternal_v0_21__aapl__pxrReserved__28UsdCollectionMembershipQueryC2ERKNSt3__113unordered_mapINS_7SdfPathENS_7TfTokenENS3_4HashENS1_8equal_toIS3_EENS1_9allocatorINS1_4pairIKS3_S4_EEEEEERKNS1_3setIS3_NS1_4lessIS3_EENS8_IS3_EEEE, 
                       __ZN38pxrInternal_v0_21__aapl__pxrReserved__28UsdDeformersMorphDeformerAPI14_IsTypedSchemaEv, 
                       __ZN38pxrInternal_v0_21__aapl__pxrReserved__28UsdDeformersMorphDeformerAPI16_GetStaticTfTypeEv, 
                       __ZN38pxrInternal_v0_21__aapl__pxrReserved__28UsdDeformersMorphDeformerAPI23GetSchemaAttributeNamesEb, 
                       __ZN38pxrInternal_v0_21__aapl__pxrReserved__28UsdDeformersMorphDeformerAPI3GetERKNS_9TfWeakPtrINS_8UsdStageEEERKNS_7SdfPathE, 
                       __ZN38pxrInternal_v0_21__aapl__pxrReserved__28UsdDeformersMorphDeformerAPI5ApplyERKNS_7UsdPrimE, 
                       __ZN38pxrInternal_v0_21__aapl__pxrReserved__28UsdDeformersMorphDeformerAPI8CanApplyERKNS_7UsdPrimEPNSt3__112basic_stringIcNS4_11char_traitsIcEENS4_9allocatorIcEEEE, 
                       __ZN38pxrInternal_v0_21__aapl__pxrReserved__28UsdDeformersMorphDeformerAPID0Ev, 
                       __ZN38pxrInternal_v0_21__aapl__pxrReserved__28UsdDeformersMorphDeformerAPID1Ev, 
                       __ZN38pxrInternal_v0_21__aapl__pxrReserved__28UsdDeformersMorphDeformerAPID2Ev, 
                       __ZN38pxrInternal_v0_21__aapl__pxrReserved__28UsdGeomGetStageMetersPerUnitERKNS_9TfWeakPtrINS_8UsdStageEEE, 
                       __ZN38pxrInternal_v0_21__aapl__pxrReserved__28UsdGeomSetStageMetersPerUnitERKNS_9TfWeakPtrINS_8UsdStageEEEd, 
                       __ZN38pxrInternal_v0_21__aapl__pxrReserved__28UsdShadeConnectionSourceInfoC1ERKNS_9TfWeakPtrINS_8UsdStageEEERKNS_7SdfPathE, 
                       __ZN38pxrInternal_v0_21__aapl__pxrReserved__28UsdShadeConnectionSourceInfoC2ERKNS_9TfWeakPtrINS_8UsdStageEEERKNS_7SdfPathE, 
                       __ZN38pxrInternal_v0_21__aapl__pxrReserved__28UsdSkelConcatJointTransformsERKNS_15UsdSkelTopologyENS_6TfSpanIKNS_10GfMatrix4dEEENS3_IS4_EEPS5_, 
                       __ZN38pxrInternal_v0_21__aapl__pxrReserved__28UsdSkelConcatJointTransformsERKNS_15UsdSkelTopologyENS_6TfSpanIKNS_10GfMatrix4fEEENS3_IS4_EEPS5_, 
                       __ZN38pxrInternal_v0_21__aapl__pxrReserved__28UsdSkelConcatJointTransformsERKNS_15UsdSkelTopologyEPKNS_10GfMatrix4dEPS3_S5_, 
                       __ZN38pxrInternal_v0_21__aapl__pxrReserved__28UsdSkelConcatJointTransformsERKNS_15UsdSkelTopologyERKNS_7VtArrayINS_10GfMatrix4dEEEPS5_PKS4_, 
                       __ZN38pxrInternal_v0_21__aapl__pxrReserved__28UsdUtilsComputeUsdStageStatsERKNS_9TfWeakPtrINS_8UsdStageEEEPNS_12VtDictionaryE, 
                       __ZN38pxrInternal_v0_21__aapl__pxrReserved__28UsdUtilsComputeUsdStageStatsERKNSt3__112basic_stringIcNS0_11char_traitsIcEENS0_9allocatorIcEEEEPNS_12VtDictionaryE, 
                       __ZN38pxrInternal_v0_21__aapl__pxrReserved__28UsdUtilsCreateNewUsdzPackageERKNS_12SdfAssetPathERKNSt3__112basic_stringIcNS3_11char_traitsIcEENS3_9allocatorIcEEEESB_, 
                       __ZN38pxrInternal_v0_21__aapl__pxrReserved__28UsdUtilsGetPrimaryCameraNameEb, 
                       __ZN38pxrInternal_v0_21__aapl__pxrReserved__28UsdUtilsUninstancePrimAtPathERKNS_9TfWeakPtrINS_8UsdStageEEERKNS_7SdfPathE, 
                       __ZN38pxrInternal_v0_21__aapl__pxrReserved__29HdFieldTokens_StaticTokenTypeC1Ev, 
                       __ZN38pxrInternal_v0_21__aapl__pxrReserved__29HdFieldTokens_StaticTokenTypeC2Ev, 
                       __ZN38pxrInternal_v0_21__aapl__pxrReserved__29HdFieldTokens_StaticTokenTypeD1Ev, 
                       __ZN38pxrInternal_v0_21__aapl__pxrReserved__29HdFieldTokens_StaticTokenTypeD2Ev, 
                       __ZN38pxrInternal_v0_21__aapl__pxrReserved__29HdLightTokens_StaticTokenTypeC1Ev, 
                       __ZN38pxrInternal_v0_21__aapl__pxrReserved__29HdLightTokens_StaticTokenTypeC2Ev, 
                       __ZN38pxrInternal_v0_21__aapl__pxrReserved__29HdLightTokens_StaticTokenTypeD1Ev, 
                       __ZN38pxrInternal_v0_21__aapl__pxrReserved__29HdLightTokens_StaticTokenTypeD2Ev, 
                       __ZN38pxrInternal_v0_21__aapl__pxrReserved__29Hd_UnitTestNullRenderDelegate11CreateBprimERKNS_7TfTokenERKNS_7SdfPathE, 
                       __ZN38pxrInternal_v0_21__aapl__pxrReserved__29Hd_UnitTestNullRenderDelegate11CreateRprimERKNS_7TfTokenERKNS_7SdfPathE, 
                       __ZN38pxrInternal_v0_21__aapl__pxrReserved__29Hd_UnitTestNullRenderDelegate11CreateSprimERKNS_7TfTokenERKNS_7SdfPathE, 
                       __ZN38pxrInternal_v0_21__aapl__pxrReserved__29Hd_UnitTestNullRenderDelegate12DestroyBprimEPNS_7HdBprimE, 
                       __ZN38pxrInternal_v0_21__aapl__pxrReserved__29Hd_UnitTestNullRenderDelegate12DestroyRprimEPNS_7HdRprimE, 
                       __ZN38pxrInternal_v0_21__aapl__pxrReserved__29Hd_UnitTestNullRenderDelegate12DestroySprimEPNS_7HdSprimE, 
                       __ZN38pxrInternal_v0_21__aapl__pxrReserved__29Hd_UnitTestNullRenderDelegate13InvokeCommandERKNS_7TfTokenERKNS_12VtDictionaryE, 
                       __ZN38pxrInternal_v0_21__aapl__pxrReserved__29Hd_UnitTestNullRenderDelegate15CommitResourcesEPNS_15HdChangeTrackerE, 
                       __ZN38pxrInternal_v0_21__aapl__pxrReserved__29Hd_UnitTestNullRenderDelegate15CreateInstancerEPNS_15HdSceneDelegateERKNS_7SdfPathE, 
                       __ZN38pxrInternal_v0_21__aapl__pxrReserved__29Hd_UnitTestNullRenderDelegate16CreateRenderPassEPNS_13HdRenderIndexERKNS_17HdRprimCollectionE, 
                       __ZN38pxrInternal_v0_21__aapl__pxrReserved__29Hd_UnitTestNullRenderDelegate16DestroyInstancerEPNS_11HdInstancerE, 
                       __ZN38pxrInternal_v0_21__aapl__pxrReserved__29Hd_UnitTestNullRenderDelegate19CreateFallbackBprimERKNS_7TfTokenE, 
                       __ZN38pxrInternal_v0_21__aapl__pxrReserved__29Hd_UnitTestNullRenderDelegate19CreateFallbackSprimERKNS_7TfTokenE, 
                       __ZN38pxrInternal_v0_21__aapl__pxrReserved__29Hd_UnitTestNullRenderDelegate21SUPPORTED_BPRIM_TYPESEv, 
                       __ZN38pxrInternal_v0_21__aapl__pxrReserved__29Hd_UnitTestNullRenderDelegate21SUPPORTED_RPRIM_TYPESEv, 
                       __ZN38pxrInternal_v0_21__aapl__pxrReserved__29Hd_UnitTestNullRenderDelegate21SUPPORTED_SPRIM_TYPESEv, 
                       __ZN38pxrInternal_v0_21__aapl__pxrReserved__29PcpCompareSiblingNodeStrengthERKNS_10PcpNodeRefES2_, 
                       __ZN38pxrInternal_v0_21__aapl__pxrReserved__29PcpDynamicFileFormatInterfaceD0Ev, 
                       __ZN38pxrInternal_v0_21__aapl__pxrReserved__29PcpDynamicFileFormatInterfaceD1Ev, 
                       __ZN38pxrInternal_v0_21__aapl__pxrReserved__29PcpDynamicFileFormatInterfaceD2Ev, 
                       __ZN38pxrInternal_v0_21__aapl__pxrReserved__29PcpErrorInvalidSublayerOffset3NewEv, 
                       __ZN38pxrInternal_v0_21__aapl__pxrReserved__29PcpErrorInvalidSublayerOffsetC1Ev, 
                       __ZN38pxrInternal_v0_21__aapl__pxrReserved__29PcpErrorInvalidSublayerOffsetC2Ev, 
                       __ZN38pxrInternal_v0_21__aapl__pxrReserved__29PcpErrorInvalidSublayerOffsetD0Ev, 
                       __ZN38pxrInternal_v0_21__aapl__pxrReserved__29PcpErrorInvalidSublayerOffsetD1Ev, 
                       __ZN38pxrInternal_v0_21__aapl__pxrReserved__29PcpErrorInvalidSublayerOffsetD2Ev, 
                       __ZN38pxrInternal_v0_21__aapl__pxrReserved__29PcpIdentifierFormatIdentifierERNSt3__113basic_ostreamIcNS0_11char_traitsIcEEEE, 
                       __ZN38pxrInternal_v0_21__aapl__pxrReserved__29SdfDataTokens_StaticTokenTypeC1Ev, 
                       __ZN38pxrInternal_v0_21__aapl__pxrReserved__29SdfDataTokens_StaticTokenTypeC2Ev, 
                       __ZN38pxrInternal_v0_21__aapl__pxrReserved__29SdfDataTokens_StaticTokenTypeD1Ev, 
                       __ZN38pxrInternal_v0_21__aapl__pxrReserved__29SdfDataTokens_StaticTokenTypeD2Ev, 
                       __ZN38pxrInternal_v0_21__aapl__pxrReserved__29SdfMetadataDisplayGroupTokensE, 
                       __ZN38pxrInternal_v0_21__aapl__pxrReserved__29SdfPathTokens_StaticTokenTypeC1Ev, 
                       __ZN38pxrInternal_v0_21__aapl__pxrReserved__29SdfPathTokens_StaticTokenTypeC2Ev, 
                       __ZN38pxrInternal_v0_21__aapl__pxrReserved__29SdfPathTokens_StaticTokenTypeD1Ev, 
                       __ZN38pxrInternal_v0_21__aapl__pxrReserved__29SdfPathTokens_StaticTokenTypeD2Ev, 
                       __ZN38pxrInternal_v0_21__aapl__pxrReserved__29TfFindLongestAccessiblePrefixERKNSt3__112basic_stringIcNS0_11char_traitsIcEENS0_9allocatorIcEEEEPS6_, 
                       __ZN38pxrInternal_v0_21__aapl__pxrReserved__29Tf_GetEmptyHashMapBucketCountEv, 
                       __ZN38pxrInternal_v0_21__aapl__pxrReserved__29Tf_GetEmptyHashSetBucketCountEv, 
                       __ZN38pxrInternal_v0_21__aapl__pxrReserved__29UsdPhysicsArticulationRootAPI14_IsTypedSchemaEv, 
                       __ZN38pxrInternal_v0_21__aapl__pxrReserved__29UsdPhysicsArticulationRootAPI16_GetStaticTfTypeEv, 
                       __ZN38pxrInternal_v0_21__aapl__pxrReserved__29UsdPhysicsArticulationRootAPI23GetSchemaAttributeNamesEb, 
                       __ZN38pxrInternal_v0_21__aapl__pxrReserved__29UsdPhysicsArticulationRootAPI3GetERKNS_9TfWeakPtrINS_8UsdStageEEERKNS_7SdfPathE, 
                       __ZN38pxrInternal_v0_21__aapl__pxrReserved__29UsdPhysicsArticulationRootAPI5ApplyERKNS_7UsdPrimE, 
                       __ZN38pxrInternal_v0_21__aapl__pxrReserved__29UsdPhysicsArticulationRootAPI8CanApplyERKNS_7UsdPrimEPNSt3__112basic_stringIcNS4_11char_traitsIcEENS4_9allocatorIcEEEE, 
                       __ZN38pxrInternal_v0_21__aapl__pxrReserved__29UsdPhysicsArticulationRootAPID0Ev, 
                       __ZN38pxrInternal_v0_21__aapl__pxrReserved__29UsdPhysicsArticulationRootAPID1Ev, 
                       __ZN38pxrInternal_v0_21__aapl__pxrReserved__29UsdPhysicsArticulationRootAPID2Ev, 
                       __ZN38pxrInternal_v0_21__aapl__pxrReserved__29UsdShadeShaderDefParserPlugin5ParseERKNS_22NdrNodeDiscoveryResultE, 
                       __ZN38pxrInternal_v0_21__aapl__pxrReserved__29UsdShadeShaderDefParserPlugin6_cacheEv, 
                       __ZN38pxrInternal_v0_21__aapl__pxrReserved__29UsdUtilsGetMaterialsScopeNameEb, 
                       __ZN38pxrInternal_v0_21__aapl__pxrReserved__29UsdUtilsSparseAttrValueWriter13SetTimeSampleEPNS_7VtValueENS_11UsdTimeCodeE, 
                       __ZN38pxrInternal_v0_21__aapl__pxrReserved__29UsdUtilsSparseAttrValueWriter13SetTimeSampleERKNS_7VtValueENS_11UsdTimeCodeE, 
                       __ZN38pxrInternal_v0_21__aapl__pxrReserved__29UsdUtilsSparseAttrValueWriter26_InitializeSparseAuthoringEPNS_7VtValueE, 
                       __ZN38pxrInternal_v0_21__aapl__pxrReserved__29UsdUtilsSparseAttrValueWriterC1ERKNS_12UsdAttributeEPNS_7VtValueE, 
                       __ZN38pxrInternal_v0_21__aapl__pxrReserved__29UsdUtilsSparseAttrValueWriterC1ERKNS_12UsdAttributeERKNS_7VtValueE, 
                       __ZN38pxrInternal_v0_21__aapl__pxrReserved__29UsdUtilsSparseAttrValueWriterC2ERKNS_12UsdAttributeEPNS_7VtValueE, 
                       __ZN38pxrInternal_v0_21__aapl__pxrReserved__29UsdUtilsSparseAttrValueWriterC2ERKNS_12UsdAttributeERKNS_7VtValueE, 
                       __ZN38pxrInternal_v0_21__aapl__pxrReserved__29Usd_IssueFatalPrimAccessErrorEPKNS_12Usd_PrimDataE, 
                       __ZN38pxrInternal_v0_21__aapl__pxrReserved__29_NdrFilesystemDiscoveryPlugin13DiscoverNodesERKNS_25NdrDiscoveryPluginContextE, 
                       __ZN38pxrInternal_v0_21__aapl__pxrReserved__29_NdrFilesystemDiscoveryPluginC1ENSt3__18functionIFbRNS_22NdrNodeDiscoveryResultEEEE, 
                       __ZN38pxrInternal_v0_21__aapl__pxrReserved__29_NdrFilesystemDiscoveryPluginC1Ev, 
                       __ZN38pxrInternal_v0_21__aapl__pxrReserved__29_NdrFilesystemDiscoveryPluginC2ENSt3__18functionIFbRNS_22NdrNodeDiscoveryResultEEEE, 
