--- !tapi-tbd
tbd-version:     4
targets:         [ x86_64-macos, x86_64-maccatalyst, arm64-macos, arm64-maccatalyst, 
                   arm64e-macos, arm64e-maccatalyst ]
install-name:    '/System/Library/PrivateFrameworks/MXI.framework/Versions/A/MXI'
swift-abi-version: 7
exports:
  - targets:         [ x86_64-macos, x86_64-maccatalyst ]
    symbols:         [ __Z13float_to_sf16f, __Z13sf16_to_floatt ]
    weak-symbols:    [ __ZTIN4core10FileReaderE, __ZTIN4core10FileWriterE, __ZTIN4core6ReaderE, 
                       __ZTIN4core6WriterE, __ZTIN5image6ReaderE, __ZTIN5image6WriterE, 
                       __ZTINSt3__110__function6__baseIFjvEEE, __ZTINSt3__110__function6__baseIFvvEEE, 
                       __ZTSN4core10FileReaderE, __ZTSN4core10FileWriterE, __ZTSN4core6ReaderE, 
                       __ZTSN4core6WriterE, __ZTSN5image6ReaderE, __ZTSN5image6WriterE, 
                       __ZTSNSt3__110__function6__baseIFjvEEE, __ZTSNSt3__110__function6__baseIFvvEEE ]
  - targets:         [ x86_64-macos, x86_64-maccatalyst, arm64-macos, arm64-maccatalyst, 
                       arm64e-macos, arm64e-maccatalyst ]
    symbols:         [ _MXIAtlasConfigurationCompression, _MXIAtlasConfigurationDownsample, 
                       _MXIAtlasConfigurationTransferFunction, _MXIBuildOptionASTCBlockSize, 
                       _MXIBuildOptionASTCGPUFastSkipThreshold, _MXIBuildOptionASTCGPURankModesCountRatio, 
                       _MXIBuildOptionCompressUsingGPU, _MXIBuildOptionEnvironmentMapFileName, 
                       _MXIBuildOptionSkipTextureCompression, _MXIBuildOptionTextureCompressionQuality, 
                       _MXIErrorDomain, _MXISceneAttributeDisparityKurtosis, _MXISceneAttributeDisparityMean, 
                       _MXISceneAttributeDisparityQuantiles, _MXISceneAttributeDisparityScore, 
                       _MXISceneAttributeDisparitySkewness, _MXISceneAttributeDisparityVariance, 
                       _MXISceneBuilderASTCQualityExhaustive, _MXISceneBuilderASTCQualityFast, 
                       _MXISceneBuilderASTCQualityThorough, _MXISceneBuilderColorPrimariesP3, 
                       _MXISceneBuilderColorPrimariesSRGB, _MXISceneBuilderConfigurationASTCQuality, 
                       _MXISceneBuilderConfigurationAllowDiagonalFlip, _MXISceneBuilderConfigurationAtlasSliceCount, 
                       _MXISceneBuilderConfigurationAtlasSliceSize, _MXISceneBuilderConfigurationEffectiveAspectRatio, 
                       _MXISceneBuilderConfigurationEffectiveVerticalFOV, _MXISceneBuilderConfigurationFailOnBinaryArchiveMiss, 
                       _MXISceneBuilderConfigurationHDR, _MXISceneBuilderConfigurationIncludeBackingPlane, 
                       _MXISceneBuilderConfigurationInfill, _MXISceneBuilderConfigurationInputColorPrimaries, 
                       _MXISceneBuilderConfigurationLayerRangesOverlap, _MXISceneBuilderConfigurationMaxOpacityTolerance, 
                       _MXISceneBuilderConfigurationMinOpacityTolerance, _MXISceneBuilderConfigurationMipLevelsCount, 
                       _MXISceneBuilderConfigurationOutputColorPrimaries, _MXISceneBuilderConfigurationPackInArrayOfTextures, 
                       _MXISceneBuilderConfigurationPackInCompressedAtlas, _MXISceneBuilderConfigurationPremultipliedAlphaInput, 
                       _MXISceneBuilderConfigurationPremultipliedAlphaOutput, _MXISceneBuilderConfigurationSeparateOpaqueGeometry, 
                       _MXISceneBuilderConfigurationThreadPoolSize, _MXISceneBuilderConfigurationTileSize, 
                       _MXISceneBuilderConfigurationTiledProcessing, _MXISceneBuilderConfigurationVerticalFOV, 
                       _MXISerializeCompressionAlgorithmLZ4, _MXISerializeCompressionAlgorithmLZFSE, 
                       _MXISerializeCompressionAlgorithmLZMA, _MXISerializeCompressionAlgorithmNone, 
                       _MXISerializeCompressionAlgorithmZlib, _MXISerializeImageCompressionCodecHEIC, 
                       _MXISerializeImageCompressionCodecRaw, _MXISerializeOptionCompressionAlgorithm, 
                       _MXISerializeOptionGenerateThumbnail, _MXISerializeOptionImageCompressionCodec, 
                       _MXISerializeOptionImageCompressionQuality, _MXIVersionNumber, 
                       _MXIVersionString, __MXISignpostCreate, __MXISignpostLogSystem, 
                       __Z10decode_ise12quant_methodjPKhPhj, __Z10encode_ise12quant_methodjPKhPhj, 
                       __Z11rgba_unpack5vint4S_RS_S0_, __Z14compress_blockRK16astcenc_contextiRK11image_blockPhR27compression_working_buffers, 
                       __Z14unpack_weightsRK21block_size_descriptorRK25symbolic_compressed_blockRK15decimation_infobPiS8_, 
                       __Z16load_image_block15astcenc_profileRK13astcenc_imageR11image_blockRK21block_size_descriptorjjjRK15astcenc_swizzle, 
                       __Z17rgba_delta_unpack5vint4S_RS_S0_, __Z17store_image_blockR13astcenc_imageRK11image_blockRK21block_size_descriptorjjjRK15astcenc_swizzle, 
                       __Z19astcenc_config_init15astcenc_profilejjjfjP14astcenc_config, 
                       __Z20astcenc_context_freeP15astcenc_context, __Z20initializeMXISwizzlev, 
                       __Z20pack_color_endpoints7vfloat4S_S_S_iPh12quant_method, 
                       __Z20physical_to_symbolicRK21block_size_descriptorPKhR25symbolic_compressed_block, 
                       __Z20symbolic_to_physicalRK21block_size_descriptorRK25symbolic_compressed_blockPh, 
                       __Z21astcenc_context_allocPK14astcenc_configjPP15astcenc_context, 
                       __Z21init_compute_averagesRK13astcenc_imagejRK15astcenc_swizzleR8avg_args, 
                       __Z21init_partition_tablesR21block_size_descriptorbj, __Z22astcenc_compress_imageP15astcenc_contextP13astcenc_imagePK15astcenc_swizzlePhmj, 
                       __Z22astcenc_compress_resetP15astcenc_context, __Z22astcenc_get_block_infoP15astcenc_contextPKhP18astcenc_block_info, 
                       __Z22is_legal_2d_block_sizejj, __Z22is_legal_3d_block_sizejjj, 
                       __Z22prepare_angular_tablesv, __Z22unpack_color_endpoints15astcenc_profileiPKhRbS2_R5vint4S4_, 
                       __Z23get_2d_percentile_tablejj, __Z24astcenc_decompress_imageP15astcenc_contextPKhmP13astcenc_imagePK15astcenc_swizzlej, 
                       __Z24astcenc_decompress_resetP15astcenc_context, __Z24astcenc_get_error_string13astcenc_error, 
                       __Z25compute_error_squared_rgbRK14partition_infoRK11image_blockP16partition_lines3RfS7_, 
                       __Z25decompress_symbolic_block15astcenc_profileRK21block_size_descriptoriiiRK25symbolic_compressed_blockR11image_block, 
                       __Z25get_ise_sequence_bitcountj12quant_method, __Z25load_image_block_fast_ldr15astcenc_profileRK13astcenc_imageR11image_blockRK21block_size_descriptorjjjRK15astcenc_swizzle, 
                       __Z26compute_error_squared_rgbaRK14partition_infoRK11image_blockPK15processed_line4S7_PfRfS9_, 
                       __Z26init_block_size_descriptorjjjbjfR21block_size_descriptor, 
                       __Z28compute_avgs_and_dirs_2_compRK14partition_infoRK11image_blockjjP17partition_metrics, 
                       __Z28compute_avgs_and_dirs_3_compRK14partition_infoRK11image_blockjP17partition_metrics, 
                       __Z28compute_avgs_and_dirs_4_compRK14partition_infoRK11image_blockP17partition_metrics, 
                       __Z29compute_pixel_region_varianceR16astcenc_contextiRK17pixel_region_args, 
                       __Z29recompute_ideal_colors_1planeRK11image_blockRK14partition_infoRK15decimation_infoPKhR9endpointsP7vfloat4SD_, 
                       __Z30compute_ideal_endpoint_formatsRK14partition_infoRK11image_blockRK9endpointsPKaPKfjjjPA4_hPiP12quant_methodSG_R27compression_working_buffers, 
                       __Z30find_best_partition_candidatesRK21block_size_descriptorRK11image_blockjjPjj, 
                       __Z30recompute_ideal_colors_2planesRK11image_blockRK21block_size_descriptorRK15decimation_infoPKhS9_R9endpointsR7vfloat4SD_i, 
                       __Z32compute_angular_endpoints_1planebRK21block_size_descriptorPKfjR27compression_working_buffers, 
                       __Z32compute_avgs_and_dirs_3_comp_rgbRK14partition_infoRK11image_blockP17partition_metrics, 
                       __Z33compute_angular_endpoints_2planesRK21block_size_descriptorPKfjR27compression_working_buffers, 
                       __Z34compute_error_of_weight_set_1planeRK21endpoints_and_weightsRK15decimation_infoPKf, 
                       __Z35compute_error_of_weight_set_2planesRK21endpoints_and_weightsS1_RK15decimation_infoPKfS6_, 
                       __Z36compute_ideal_weights_for_decimationRK21endpoints_and_weightsRK15decimation_infoPf, 
                       __Z39compute_ideal_colors_and_weights_1planeRK11image_blockRK14partition_infoR21endpoints_and_weights, 
                       __Z40compute_ideal_colors_and_weights_2planesRK21block_size_descriptorRK11image_blockjR21endpoints_and_weightsS6_, 
                       __Z40compute_quantized_weights_for_decimationRK15decimation_infoffPKfPfPh12quant_method, 
                       __Z40compute_symbolic_block_difference_1planeRK14astcenc_configRK21block_size_descriptorRK25symbolic_compressed_blockRK11image_block, 
                       __Z40compute_symbolic_block_difference_2planeRK14astcenc_configRK21block_size_descriptorRK25symbolic_compressed_blockRK11image_block, 
                       __Z51compute_symbolic_block_difference_1plane_1partitionRK14astcenc_configRK21block_size_descriptorRK25symbolic_compressed_blockRK11image_block, 
                       __Z8WriteKTXPN5image6WriterEP7NSArrayIPU21objcproto10MTLTexture11objc_objectE14MTLTextureType, 
                       __ZN4astc4randEPy, __ZN4astc9rand_initEPy, __ZN4core10ThreadPool14WaitForAllTaskEv, 
                       __ZN4core10ThreadPool7EnqueueEONSt3__18functionIFvvEEE, __ZN4core10ThreadPoolC1Ej, 
                       __ZN4core10ThreadPoolC2Ej, __ZN4core10ThreadPoolD1Ev, __ZN4core10ThreadPoolD2Ev, 
                       __ZN4core6Reader6CreateEPU19objcproto9MTLDevice11objc_objectPKcPU15__autoreleasingP7NSError, 
                       __ZN4core6Reader6CreateEPU19objcproto9MTLDevice11objc_objectPKvmPU15__autoreleasingP7NSError, 
                       __ZN4core6Writer6CreateEPKcPU15__autoreleasingP7NSError, __ZN4core6Writer6CreateEPPvPmPU15__autoreleasingP7NSError, 
                       __ZN4core8get_infoEv, __ZN5image10HeaderASTCERNS_6WriterEjjjhh, 
                       __ZN5image14ASTCStatisticsEPU21objcproto10MTLTexture11objc_objecthhPKcS3_S3_, 
                       __ZN5image5toPNGEPU21objcproto10MTLTexture11objc_objectPK10__CFString, 
                       __ZN5image6ToASTCEPU15__autoreleasingKPU21objcproto10MTLTexture11objc_objectjhhfPN4core10ThreadPoolE, 
                       __ZN5image6ToASTCEPU15__autoreleasingKPU21objcproto10MTLTexture11objc_objectjhhfPN4core10ThreadPoolEj, 
                       __ZN5image6ToASTCEPU15__autoreleasingKPU21objcproto10MTLTexture11objc_objectjhhfj, 
                       __ZN5image6ToASTCEPU15__autoreleasingKPU21objcproto10MTLTexture11objc_objectjhhfjj, 
                       __ZN5image6ToASTCEPU21objcproto10MTLTexture11objc_objecthhfPN4core10ThreadPoolE, 
                       __ZN5image6ToASTCEPU21objcproto10MTLTexture11objc_objecthhfPN4core10ThreadPoolEj, 
                       __ZN5image6ToASTCEPU21objcproto10MTLTexture11objc_objecthhfj, 
                       __ZN5image6ToASTCEPU21objcproto10MTLTexture11objc_objecthhfjj, 
                       __ZN5image6toHEICEPKvmjjjf, __ZN5image6toHEICEPU21objcproto10MTLTexture11objc_objectjjf, 
                       __ZN5image7ReadKTXEPNS_6ReaderEPU19objcproto9MTLDevice11objc_objectbb, 
                       __ZN5image7ToASTCsEPU15__autoreleasingKPU21objcproto10MTLTexture11objc_objectjhhfjj, 
                       __ZN5image8WriteKTXEPNS_6WriterEP7NSArrayIPU21objcproto10MTLTexture11objc_objectE, 
                       __ZN5image8WriteKTXEPNS_6WriterEPU21objcproto10MTLTexture11objc_object, 
                       __ZN5image8fromHEICEPKvm, __ZN5image8fromHEICEPU21objcproto10MTLTexture11objc_objectjjP6NSData, 
                       __ZN5tiled9Processor6CreateEPU19objcproto9MTLDevice11objc_objectNS_4TypeEjNS_5RangeERKNS_6ConfigEPU15__autoreleasingP7NSError, 
                       __ZN5tiled9Processor8AddLayerEPU27objcproto16MTLCommandBuffer11objc_objectjNS_4FaceEfPU21objcproto10MTLTexture11objc_objectS5_NS_11DepthParamsEf, 
                       __ZN5tiled9ProcessorC1Ev, __ZN5tiled9ProcessorC2Ev, __ZN5tiled9ProcessorD1Ev, 
                       __ZN5tiled9ProcessorD2Ev, __ZNK4core10ThreadPool16NumWorkerThreadsEv, 
                       __ZNK5tiled9Processor7GetMeshEPU15__autoreleasingP7NSError, 
                       __ZNK5tiled9Processor8GetAtlasEPU15__autoreleasingPU21objcproto10MTLTexture11objc_objectPjbbfjPU15__autoreleasingP7NSError, 
                       __ZNK5tiled9Processor8GetAtlasERNSt3__16vectorIU8__strongPU21objcproto10MTLTexture11objc_objectNS1_9allocatorIS5_EEEEbbfjPU15__autoreleasingP7NSError, 
                       __mxi_log, _color_scrambled_pquant_to_uquant_tables, _color_unquant_to_uquant_tables, 
                       _color_uquant_to_scrambled_pquant_tables, _quant_and_xfer_tables, 
                       _quant_mode_table ]
    objc-classes:    [ ASTCEncoder, MXIAtlasDescriptor, MXIBackLayer, MXIComponentsDescriptor, 
                       MXIComponentsDescriptorArray, MXIError, MXIInternalError, 
                       MXIMaterialDescriptor, MXIProcessParameters, MXIRecording, 
                       MXIRenderer, MXIScene, MXISceneBuilder, MXISceneBuilderTiled, 
                       MXISceneUSDZReader, MXISceneUSDZWriter, MXIUserError, MXIUtilities ]
    weak-symbols:    [ __ZN4core10ThreadPool4Impl18worker_entry_pointEv, __ZNSt3__119piecewise_constructE ]
  - targets:         [ arm64-macos, arm64-maccatalyst, arm64e-macos, arm64e-maccatalyst ]
    weak-symbols:    [ __ZGVZ10select_msb7vfloat4S_6vmask4E3msb, __ZGVZ4mask6vmask4E5shift, 
                       __ZZ10select_msb7vfloat4S_6vmask4E3msb, __ZZ4mask6vmask4E5shift ]
...
